ARM GAS  C:\Users\MICHA_~1\AppData\Local\Temp\cclKjML8.s 			page 1


   1              		.syntax unified
   2              		.cpu cortex-m3
   3              		.fpu softvfp
   4              		.eabi_attribute 20, 1
   5              		.eabi_attribute 21, 1
   6              		.eabi_attribute 23, 3
   7              		.eabi_attribute 24, 1
   8              		.eabi_attribute 25, 1
   9              		.eabi_attribute 26, 1
  10              		.eabi_attribute 30, 4
  11              		.eabi_attribute 34, 1
  12              		.eabi_attribute 18, 4
  13              		.thumb
  14              		.syntax unified
  15              		.file	"aes.c"
  16              		.text
  17              	.Ltext0:
  18              		.cfi_sections	.debug_frame
  19              		.section	.text.KeyExpansion,"ax",%progbits
  20              		.align	1
  21              		.thumb
  22              		.thumb_func
  23              		.type	KeyExpansion, %function
  24              	KeyExpansion:
  25              	.LFB0:
  26              		.file 1 "tiny-AES-c-master\\aes.c"
   1:tiny-AES-c-master/aes.c **** /*
   2:tiny-AES-c-master/aes.c **** 
   3:tiny-AES-c-master/aes.c **** This is an implementation of the AES algorithm, specifically ECB, CTR and CBC mode.
   4:tiny-AES-c-master/aes.c **** Block size can be chosen in aes.h - available choices are AES128, AES192, AES256.
   5:tiny-AES-c-master/aes.c **** 
   6:tiny-AES-c-master/aes.c **** The implementation is verified against the test vectors in:
   7:tiny-AES-c-master/aes.c ****   National Institute of Standards and Technology Special Publication 800-38A 2001 ED
   8:tiny-AES-c-master/aes.c **** 
   9:tiny-AES-c-master/aes.c **** ECB-AES128
  10:tiny-AES-c-master/aes.c **** ----------
  11:tiny-AES-c-master/aes.c **** 
  12:tiny-AES-c-master/aes.c ****   plain-text:
  13:tiny-AES-c-master/aes.c ****     6bc1bee22e409f96e93d7e117393172a
  14:tiny-AES-c-master/aes.c ****     ae2d8a571e03ac9c9eb76fac45af8e51
  15:tiny-AES-c-master/aes.c ****     30c81c46a35ce411e5fbc1191a0a52ef
  16:tiny-AES-c-master/aes.c ****     f69f2445df4f9b17ad2b417be66c3710
  17:tiny-AES-c-master/aes.c **** 
  18:tiny-AES-c-master/aes.c ****   key:
  19:tiny-AES-c-master/aes.c ****     2b7e151628aed2a6abf7158809cf4f3c
  20:tiny-AES-c-master/aes.c **** 
  21:tiny-AES-c-master/aes.c ****   resulting cipher
  22:tiny-AES-c-master/aes.c ****     3ad77bb40d7a3660a89ecaf32466ef97 
  23:tiny-AES-c-master/aes.c ****     f5d3d58503b9699de785895a96fdbaaf 
  24:tiny-AES-c-master/aes.c ****     43b1cd7f598ece23881b00e3ed030688 
  25:tiny-AES-c-master/aes.c ****     7b0c785e27e8ad3f8223207104725dd4 
  26:tiny-AES-c-master/aes.c **** 
  27:tiny-AES-c-master/aes.c **** 
  28:tiny-AES-c-master/aes.c **** NOTE:   String length must be evenly divisible by 16byte (str_len % 16 == 0)
  29:tiny-AES-c-master/aes.c ****         You should pad the end of the string with zeros if this is not the case.
  30:tiny-AES-c-master/aes.c ****         For AES192/256 the key size is proportionally larger.
  31:tiny-AES-c-master/aes.c **** 
ARM GAS  C:\Users\MICHA_~1\AppData\Local\Temp\cclKjML8.s 			page 2


  32:tiny-AES-c-master/aes.c **** */
  33:tiny-AES-c-master/aes.c **** 
  34:tiny-AES-c-master/aes.c **** 
  35:tiny-AES-c-master/aes.c **** /*****************************************************************************/
  36:tiny-AES-c-master/aes.c **** /* Includes:                                                                 */
  37:tiny-AES-c-master/aes.c **** /*****************************************************************************/
  38:tiny-AES-c-master/aes.c **** #include <stdint.h>
  39:tiny-AES-c-master/aes.c **** #include <string.h> // CBC mode, for memset
  40:tiny-AES-c-master/aes.c **** #include "aes.h"
  41:tiny-AES-c-master/aes.c **** 
  42:tiny-AES-c-master/aes.c **** /*****************************************************************************/
  43:tiny-AES-c-master/aes.c **** /* Defines:                                                                  */
  44:tiny-AES-c-master/aes.c **** /*****************************************************************************/
  45:tiny-AES-c-master/aes.c **** // The number of columns comprising a state in AES. This is a constant in AES. Value=4
  46:tiny-AES-c-master/aes.c **** #define Nb 4
  47:tiny-AES-c-master/aes.c **** 
  48:tiny-AES-c-master/aes.c **** #if defined(AES256) && (AES256 == 1)
  49:tiny-AES-c-master/aes.c ****     #define Nk 8
  50:tiny-AES-c-master/aes.c ****     #define Nr 14
  51:tiny-AES-c-master/aes.c **** #elif defined(AES192) && (AES192 == 1)
  52:tiny-AES-c-master/aes.c ****     #define Nk 6
  53:tiny-AES-c-master/aes.c ****     #define Nr 12
  54:tiny-AES-c-master/aes.c **** #else
  55:tiny-AES-c-master/aes.c ****     #define Nk 4        // The number of 32 bit words in a key.
  56:tiny-AES-c-master/aes.c ****     #define Nr 10       // The number of rounds in AES Cipher.
  57:tiny-AES-c-master/aes.c **** #endif
  58:tiny-AES-c-master/aes.c **** 
  59:tiny-AES-c-master/aes.c **** // jcallan@github points out that declaring Multiply as a function 
  60:tiny-AES-c-master/aes.c **** // reduces code size considerably with the Keil ARM compiler.
  61:tiny-AES-c-master/aes.c **** // See this link for more information: https://github.com/kokke/tiny-AES-C/pull/3
  62:tiny-AES-c-master/aes.c **** #ifndef MULTIPLY_AS_A_FUNCTION
  63:tiny-AES-c-master/aes.c ****   #define MULTIPLY_AS_A_FUNCTION 0
  64:tiny-AES-c-master/aes.c **** #endif
  65:tiny-AES-c-master/aes.c **** 
  66:tiny-AES-c-master/aes.c **** 
  67:tiny-AES-c-master/aes.c **** 
  68:tiny-AES-c-master/aes.c **** 
  69:tiny-AES-c-master/aes.c **** /*****************************************************************************/
  70:tiny-AES-c-master/aes.c **** /* Private variables:                                                        */
  71:tiny-AES-c-master/aes.c **** /*****************************************************************************/
  72:tiny-AES-c-master/aes.c **** // state - array holding the intermediate results during decryption.
  73:tiny-AES-c-master/aes.c **** typedef uint8_t state_t[4][4];
  74:tiny-AES-c-master/aes.c **** 
  75:tiny-AES-c-master/aes.c **** 
  76:tiny-AES-c-master/aes.c **** 
  77:tiny-AES-c-master/aes.c **** // The lookup-tables are marked const so they can be placed in read-only storage instead of RAM
  78:tiny-AES-c-master/aes.c **** // The numbers below can be computed dynamically trading ROM for RAM - 
  79:tiny-AES-c-master/aes.c **** // This can be useful in (embedded) bootloader applications, where ROM is often limited.
  80:tiny-AES-c-master/aes.c **** static const uint8_t sbox[256] = {
  81:tiny-AES-c-master/aes.c ****   //0     1    2      3     4    5     6     7      8    9     A      B    C     D     E     F
  82:tiny-AES-c-master/aes.c ****   0x63, 0x7c, 0x77, 0x7b, 0xf2, 0x6b, 0x6f, 0xc5, 0x30, 0x01, 0x67, 0x2b, 0xfe, 0xd7, 0xab, 0x76,
  83:tiny-AES-c-master/aes.c ****   0xca, 0x82, 0xc9, 0x7d, 0xfa, 0x59, 0x47, 0xf0, 0xad, 0xd4, 0xa2, 0xaf, 0x9c, 0xa4, 0x72, 0xc0,
  84:tiny-AES-c-master/aes.c ****   0xb7, 0xfd, 0x93, 0x26, 0x36, 0x3f, 0xf7, 0xcc, 0x34, 0xa5, 0xe5, 0xf1, 0x71, 0xd8, 0x31, 0x15,
  85:tiny-AES-c-master/aes.c ****   0x04, 0xc7, 0x23, 0xc3, 0x18, 0x96, 0x05, 0x9a, 0x07, 0x12, 0x80, 0xe2, 0xeb, 0x27, 0xb2, 0x75,
  86:tiny-AES-c-master/aes.c ****   0x09, 0x83, 0x2c, 0x1a, 0x1b, 0x6e, 0x5a, 0xa0, 0x52, 0x3b, 0xd6, 0xb3, 0x29, 0xe3, 0x2f, 0x84,
  87:tiny-AES-c-master/aes.c ****   0x53, 0xd1, 0x00, 0xed, 0x20, 0xfc, 0xb1, 0x5b, 0x6a, 0xcb, 0xbe, 0x39, 0x4a, 0x4c, 0x58, 0xcf,
  88:tiny-AES-c-master/aes.c ****   0xd0, 0xef, 0xaa, 0xfb, 0x43, 0x4d, 0x33, 0x85, 0x45, 0xf9, 0x02, 0x7f, 0x50, 0x3c, 0x9f, 0xa8,
ARM GAS  C:\Users\MICHA_~1\AppData\Local\Temp\cclKjML8.s 			page 3


  89:tiny-AES-c-master/aes.c ****   0x51, 0xa3, 0x40, 0x8f, 0x92, 0x9d, 0x38, 0xf5, 0xbc, 0xb6, 0xda, 0x21, 0x10, 0xff, 0xf3, 0xd2,
  90:tiny-AES-c-master/aes.c ****   0xcd, 0x0c, 0x13, 0xec, 0x5f, 0x97, 0x44, 0x17, 0xc4, 0xa7, 0x7e, 0x3d, 0x64, 0x5d, 0x19, 0x73,
  91:tiny-AES-c-master/aes.c ****   0x60, 0x81, 0x4f, 0xdc, 0x22, 0x2a, 0x90, 0x88, 0x46, 0xee, 0xb8, 0x14, 0xde, 0x5e, 0x0b, 0xdb,
  92:tiny-AES-c-master/aes.c ****   0xe0, 0x32, 0x3a, 0x0a, 0x49, 0x06, 0x24, 0x5c, 0xc2, 0xd3, 0xac, 0x62, 0x91, 0x95, 0xe4, 0x79,
  93:tiny-AES-c-master/aes.c ****   0xe7, 0xc8, 0x37, 0x6d, 0x8d, 0xd5, 0x4e, 0xa9, 0x6c, 0x56, 0xf4, 0xea, 0x65, 0x7a, 0xae, 0x08,
  94:tiny-AES-c-master/aes.c ****   0xba, 0x78, 0x25, 0x2e, 0x1c, 0xa6, 0xb4, 0xc6, 0xe8, 0xdd, 0x74, 0x1f, 0x4b, 0xbd, 0x8b, 0x8a,
  95:tiny-AES-c-master/aes.c ****   0x70, 0x3e, 0xb5, 0x66, 0x48, 0x03, 0xf6, 0x0e, 0x61, 0x35, 0x57, 0xb9, 0x86, 0xc1, 0x1d, 0x9e,
  96:tiny-AES-c-master/aes.c ****   0xe1, 0xf8, 0x98, 0x11, 0x69, 0xd9, 0x8e, 0x94, 0x9b, 0x1e, 0x87, 0xe9, 0xce, 0x55, 0x28, 0xdf,
  97:tiny-AES-c-master/aes.c ****   0x8c, 0xa1, 0x89, 0x0d, 0xbf, 0xe6, 0x42, 0x68, 0x41, 0x99, 0x2d, 0x0f, 0xb0, 0x54, 0xbb, 0x16 };
  98:tiny-AES-c-master/aes.c **** 
  99:tiny-AES-c-master/aes.c **** static const uint8_t rsbox[256] = {
 100:tiny-AES-c-master/aes.c ****   0x52, 0x09, 0x6a, 0xd5, 0x30, 0x36, 0xa5, 0x38, 0xbf, 0x40, 0xa3, 0x9e, 0x81, 0xf3, 0xd7, 0xfb,
 101:tiny-AES-c-master/aes.c ****   0x7c, 0xe3, 0x39, 0x82, 0x9b, 0x2f, 0xff, 0x87, 0x34, 0x8e, 0x43, 0x44, 0xc4, 0xde, 0xe9, 0xcb,
 102:tiny-AES-c-master/aes.c ****   0x54, 0x7b, 0x94, 0x32, 0xa6, 0xc2, 0x23, 0x3d, 0xee, 0x4c, 0x95, 0x0b, 0x42, 0xfa, 0xc3, 0x4e,
 103:tiny-AES-c-master/aes.c ****   0x08, 0x2e, 0xa1, 0x66, 0x28, 0xd9, 0x24, 0xb2, 0x76, 0x5b, 0xa2, 0x49, 0x6d, 0x8b, 0xd1, 0x25,
 104:tiny-AES-c-master/aes.c ****   0x72, 0xf8, 0xf6, 0x64, 0x86, 0x68, 0x98, 0x16, 0xd4, 0xa4, 0x5c, 0xcc, 0x5d, 0x65, 0xb6, 0x92,
 105:tiny-AES-c-master/aes.c ****   0x6c, 0x70, 0x48, 0x50, 0xfd, 0xed, 0xb9, 0xda, 0x5e, 0x15, 0x46, 0x57, 0xa7, 0x8d, 0x9d, 0x84,
 106:tiny-AES-c-master/aes.c ****   0x90, 0xd8, 0xab, 0x00, 0x8c, 0xbc, 0xd3, 0x0a, 0xf7, 0xe4, 0x58, 0x05, 0xb8, 0xb3, 0x45, 0x06,
 107:tiny-AES-c-master/aes.c ****   0xd0, 0x2c, 0x1e, 0x8f, 0xca, 0x3f, 0x0f, 0x02, 0xc1, 0xaf, 0xbd, 0x03, 0x01, 0x13, 0x8a, 0x6b,
 108:tiny-AES-c-master/aes.c ****   0x3a, 0x91, 0x11, 0x41, 0x4f, 0x67, 0xdc, 0xea, 0x97, 0xf2, 0xcf, 0xce, 0xf0, 0xb4, 0xe6, 0x73,
 109:tiny-AES-c-master/aes.c ****   0x96, 0xac, 0x74, 0x22, 0xe7, 0xad, 0x35, 0x85, 0xe2, 0xf9, 0x37, 0xe8, 0x1c, 0x75, 0xdf, 0x6e,
 110:tiny-AES-c-master/aes.c ****   0x47, 0xf1, 0x1a, 0x71, 0x1d, 0x29, 0xc5, 0x89, 0x6f, 0xb7, 0x62, 0x0e, 0xaa, 0x18, 0xbe, 0x1b,
 111:tiny-AES-c-master/aes.c ****   0xfc, 0x56, 0x3e, 0x4b, 0xc6, 0xd2, 0x79, 0x20, 0x9a, 0xdb, 0xc0, 0xfe, 0x78, 0xcd, 0x5a, 0xf4,
 112:tiny-AES-c-master/aes.c ****   0x1f, 0xdd, 0xa8, 0x33, 0x88, 0x07, 0xc7, 0x31, 0xb1, 0x12, 0x10, 0x59, 0x27, 0x80, 0xec, 0x5f,
 113:tiny-AES-c-master/aes.c ****   0x60, 0x51, 0x7f, 0xa9, 0x19, 0xb5, 0x4a, 0x0d, 0x2d, 0xe5, 0x7a, 0x9f, 0x93, 0xc9, 0x9c, 0xef,
 114:tiny-AES-c-master/aes.c ****   0xa0, 0xe0, 0x3b, 0x4d, 0xae, 0x2a, 0xf5, 0xb0, 0xc8, 0xeb, 0xbb, 0x3c, 0x83, 0x53, 0x99, 0x61,
 115:tiny-AES-c-master/aes.c ****   0x17, 0x2b, 0x04, 0x7e, 0xba, 0x77, 0xd6, 0x26, 0xe1, 0x69, 0x14, 0x63, 0x55, 0x21, 0x0c, 0x7d };
 116:tiny-AES-c-master/aes.c **** 
 117:tiny-AES-c-master/aes.c **** // The round constant word array, Rcon[i], contains the values given by 
 118:tiny-AES-c-master/aes.c **** // x to the power (i-1) being powers of x (x is denoted as {02}) in the field GF(2^8)
 119:tiny-AES-c-master/aes.c **** static const uint8_t Rcon[11] = {
 120:tiny-AES-c-master/aes.c ****   0x8d, 0x01, 0x02, 0x04, 0x08, 0x10, 0x20, 0x40, 0x80, 0x1b, 0x36 };
 121:tiny-AES-c-master/aes.c **** 
 122:tiny-AES-c-master/aes.c **** /*
 123:tiny-AES-c-master/aes.c ****  * Jordan Goulder points out in PR #12 (https://github.com/kokke/tiny-AES-C/pull/12),
 124:tiny-AES-c-master/aes.c ****  * that you can remove most of the elements in the Rcon array, because they are unused.
 125:tiny-AES-c-master/aes.c ****  *
 126:tiny-AES-c-master/aes.c ****  * From Wikipedia's article on the Rijndael key schedule @ https://en.wikipedia.org/wiki/Rijndael_k
 127:tiny-AES-c-master/aes.c ****  * 
 128:tiny-AES-c-master/aes.c ****  * "Only the first some of these constants are actually used – up to rcon[10] for AES-128 (as 11 
 129:tiny-AES-c-master/aes.c ****  *  up to rcon[8] for AES-192, up to rcon[7] for AES-256. rcon[0] is not used in AES algorithm."
 130:tiny-AES-c-master/aes.c ****  */
 131:tiny-AES-c-master/aes.c **** 
 132:tiny-AES-c-master/aes.c **** 
 133:tiny-AES-c-master/aes.c **** /*****************************************************************************/
 134:tiny-AES-c-master/aes.c **** /* Private functions:                                                        */
 135:tiny-AES-c-master/aes.c **** /*****************************************************************************/
 136:tiny-AES-c-master/aes.c **** /*
 137:tiny-AES-c-master/aes.c **** static uint8_t getSBoxValue(uint8_t num)
 138:tiny-AES-c-master/aes.c **** {
 139:tiny-AES-c-master/aes.c ****   return sbox[num];
 140:tiny-AES-c-master/aes.c **** }
 141:tiny-AES-c-master/aes.c **** */
 142:tiny-AES-c-master/aes.c **** #define getSBoxValue(num) (sbox[(num)])
 143:tiny-AES-c-master/aes.c **** /*
 144:tiny-AES-c-master/aes.c **** static uint8_t getSBoxInvert(uint8_t num)
 145:tiny-AES-c-master/aes.c **** {
ARM GAS  C:\Users\MICHA_~1\AppData\Local\Temp\cclKjML8.s 			page 4


 146:tiny-AES-c-master/aes.c ****   return rsbox[num];
 147:tiny-AES-c-master/aes.c **** }
 148:tiny-AES-c-master/aes.c **** */
 149:tiny-AES-c-master/aes.c **** #define getSBoxInvert(num) (rsbox[(num)])
 150:tiny-AES-c-master/aes.c **** 
 151:tiny-AES-c-master/aes.c **** // This function produces Nb(Nr+1) round keys. The round keys are used in each round to decrypt the
 152:tiny-AES-c-master/aes.c **** static void KeyExpansion(uint8_t* RoundKey, const uint8_t* Key)
 153:tiny-AES-c-master/aes.c **** {
  27              		.loc 1 153 0
  28              		.cfi_startproc
  29              		@ args = 0, pretend = 0, frame = 0
  30              		@ frame_needed = 0, uses_anonymous_args = 0
  31              	.LVL0:
  32 0000 0346     		mov	r3, r0
  33 0002 F0B5     		push	{r4, r5, r6, r7, lr}
  34              		.cfi_def_cfa_offset 20
  35              		.cfi_offset 4, -20
  36              		.cfi_offset 5, -16
  37              		.cfi_offset 6, -12
  38              		.cfi_offset 7, -8
  39              		.cfi_offset 14, -4
  40 0004 01F11002 		add	r2, r1, #16
  41              	.LVL1:
  42              	.L2:
 154:tiny-AES-c-master/aes.c ****   unsigned i, j, k;
 155:tiny-AES-c-master/aes.c ****   uint8_t tempa[4]; // Used for the column/row operations
 156:tiny-AES-c-master/aes.c ****   
 157:tiny-AES-c-master/aes.c ****   // The first round key is the key itself.
 158:tiny-AES-c-master/aes.c ****   for (i = 0; i < Nk; ++i)
 159:tiny-AES-c-master/aes.c ****   {
 160:tiny-AES-c-master/aes.c ****     RoundKey[(i * 4) + 0] = Key[(i * 4) + 0];
  43              		.loc 1 160 0 discriminator 3
  44 0008 0C78     		ldrb	r4, [r1]	@ zero_extendqisi2
  45 000a 0431     		adds	r1, r1, #4
  46 000c 1C70     		strb	r4, [r3]
 161:tiny-AES-c-master/aes.c ****     RoundKey[(i * 4) + 1] = Key[(i * 4) + 1];
  47              		.loc 1 161 0 discriminator 3
  48 000e 11F8034C 		ldrb	r4, [r1, #-3]	@ zero_extendqisi2
  49 0012 0433     		adds	r3, r3, #4
  50 0014 03F8034C 		strb	r4, [r3, #-3]
 162:tiny-AES-c-master/aes.c ****     RoundKey[(i * 4) + 2] = Key[(i * 4) + 2];
  51              		.loc 1 162 0 discriminator 3
  52 0018 11F8024C 		ldrb	r4, [r1, #-2]	@ zero_extendqisi2
  53 001c 03F8024C 		strb	r4, [r3, #-2]
 163:tiny-AES-c-master/aes.c ****     RoundKey[(i * 4) + 3] = Key[(i * 4) + 3];
  54              		.loc 1 163 0 discriminator 3
  55 0020 11F8014C 		ldrb	r4, [r1, #-1]	@ zero_extendqisi2
 158:tiny-AES-c-master/aes.c ****   {
  56              		.loc 1 158 0 discriminator 3
  57 0024 9142     		cmp	r1, r2
  58              		.loc 1 163 0 discriminator 3
  59 0026 03F8014C 		strb	r4, [r3, #-1]
 158:tiny-AES-c-master/aes.c ****   {
  60              		.loc 1 158 0 discriminator 3
  61 002a EDD1     		bne	.L2
 164:tiny-AES-c-master/aes.c ****   }
 165:tiny-AES-c-master/aes.c **** 
ARM GAS  C:\Users\MICHA_~1\AppData\Local\Temp\cclKjML8.s 			page 5


 166:tiny-AES-c-master/aes.c ****   // All other round keys are found from the previous round keys.
 167:tiny-AES-c-master/aes.c ****   for (i = Nk; i < Nb * (Nr + 1); ++i)
 168:tiny-AES-c-master/aes.c ****   {
 169:tiny-AES-c-master/aes.c ****     {
 170:tiny-AES-c-master/aes.c ****       k = (i - 1) * 4;
 171:tiny-AES-c-master/aes.c ****       tempa[0]=RoundKey[k + 0];
 172:tiny-AES-c-master/aes.c ****       tempa[1]=RoundKey[k + 1];
 173:tiny-AES-c-master/aes.c ****       tempa[2]=RoundKey[k + 2];
 174:tiny-AES-c-master/aes.c ****       tempa[3]=RoundKey[k + 3];
 175:tiny-AES-c-master/aes.c **** 
 176:tiny-AES-c-master/aes.c ****     }
 177:tiny-AES-c-master/aes.c **** 
 178:tiny-AES-c-master/aes.c ****     if (i % Nk == 0)
 179:tiny-AES-c-master/aes.c ****     {
 180:tiny-AES-c-master/aes.c ****       // This function shifts the 4 bytes in a word to the left once.
 181:tiny-AES-c-master/aes.c ****       // [a0,a1,a2,a3] becomes [a1,a2,a3,a0]
 182:tiny-AES-c-master/aes.c **** 
 183:tiny-AES-c-master/aes.c ****       // Function RotWord()
 184:tiny-AES-c-master/aes.c ****       {
 185:tiny-AES-c-master/aes.c ****         k = tempa[0];
 186:tiny-AES-c-master/aes.c ****         tempa[0] = tempa[1];
 187:tiny-AES-c-master/aes.c ****         tempa[1] = tempa[2];
 188:tiny-AES-c-master/aes.c ****         tempa[2] = tempa[3];
 189:tiny-AES-c-master/aes.c ****         tempa[3] = k;
 190:tiny-AES-c-master/aes.c ****       }
 191:tiny-AES-c-master/aes.c **** 
 192:tiny-AES-c-master/aes.c ****       // SubWord() is a function that takes a four-byte input word and 
 193:tiny-AES-c-master/aes.c ****       // applies the S-box to each of the four bytes to produce an output word.
 194:tiny-AES-c-master/aes.c **** 
 195:tiny-AES-c-master/aes.c ****       // Function Subword()
 196:tiny-AES-c-master/aes.c ****       {
 197:tiny-AES-c-master/aes.c ****         tempa[0] = getSBoxValue(tempa[0]);
  62              		.loc 1 197 0
  63 002c 1A4C     		ldr	r4, .L8
  64 002e 00F11003 		add	r3, r0, #16
 158:tiny-AES-c-master/aes.c ****   {
  65              		.loc 1 158 0
  66 0032 0422     		movs	r2, #4
  67              	.LVL2:
  68              	.L4:
 178:tiny-AES-c-master/aes.c ****     {
  69              		.loc 1 178 0
  70 0034 12F0030F 		tst	r2, #3
 171:tiny-AES-c-master/aes.c ****       tempa[1]=RoundKey[k + 1];
  71              		.loc 1 171 0
  72 0038 13F8041C 		ldrb	r1, [r3, #-4]	@ zero_extendqisi2
  73              	.LVL3:
 172:tiny-AES-c-master/aes.c ****       tempa[2]=RoundKey[k + 2];
  74              		.loc 1 172 0
  75 003c 13F8037C 		ldrb	r7, [r3, #-3]	@ zero_extendqisi2
  76              	.LVL4:
 173:tiny-AES-c-master/aes.c ****       tempa[3]=RoundKey[k + 3];
  77              		.loc 1 173 0
  78 0040 13F8026C 		ldrb	r6, [r3, #-2]	@ zero_extendqisi2
  79              	.LVL5:
 174:tiny-AES-c-master/aes.c **** 
  80              		.loc 1 174 0
ARM GAS  C:\Users\MICHA_~1\AppData\Local\Temp\cclKjML8.s 			page 6


  81 0044 13F8015C 		ldrb	r5, [r3, #-1]	@ zero_extendqisi2
  82              	.LVL6:
 178:tiny-AES-c-master/aes.c ****     {
  83              		.loc 1 178 0
  84 0048 0AD1     		bne	.L3
  85              	.LVL7:
  86              		.loc 1 197 0
  87 004a 14F807E0 		ldrb	lr, [r4, r7]	@ zero_extendqisi2
  88              	.LVL8:
 198:tiny-AES-c-master/aes.c ****         tempa[1] = getSBoxValue(tempa[1]);
  89              		.loc 1 198 0
  90 004e A75D     		ldrb	r7, [r4, r6]	@ zero_extendqisi2
  91              	.LVL9:
 199:tiny-AES-c-master/aes.c ****         tempa[2] = getSBoxValue(tempa[2]);
  92              		.loc 1 199 0
  93 0050 665D     		ldrb	r6, [r4, r5]	@ zero_extendqisi2
  94              	.LVL10:
 200:tiny-AES-c-master/aes.c ****         tempa[3] = getSBoxValue(tempa[3]);
  95              		.loc 1 200 0
  96 0052 655C     		ldrb	r5, [r4, r1]	@ zero_extendqisi2
  97              	.LVL11:
 201:tiny-AES-c-master/aes.c ****       }
 202:tiny-AES-c-master/aes.c **** 
 203:tiny-AES-c-master/aes.c ****       tempa[0] = tempa[0] ^ Rcon[i/Nk];
  98              		.loc 1 203 0
  99 0054 04EB9201 		add	r1, r4, r2, lsr #2
 100              	.LVL12:
 101 0058 91F80011 		ldrb	r1, [r1, #256]	@ zero_extendqisi2
 102 005c 8EEA0101 		eor	r1, lr, r1
 103              	.LVL13:
 104              	.L3:
 204:tiny-AES-c-master/aes.c ****     }
 205:tiny-AES-c-master/aes.c **** #if defined(AES256) && (AES256 == 1)
 206:tiny-AES-c-master/aes.c ****     if (i % Nk == 4)
 207:tiny-AES-c-master/aes.c ****     {
 208:tiny-AES-c-master/aes.c ****       // Function Subword()
 209:tiny-AES-c-master/aes.c ****       {
 210:tiny-AES-c-master/aes.c ****         tempa[0] = getSBoxValue(tempa[0]);
 211:tiny-AES-c-master/aes.c ****         tempa[1] = getSBoxValue(tempa[1]);
 212:tiny-AES-c-master/aes.c ****         tempa[2] = getSBoxValue(tempa[2]);
 213:tiny-AES-c-master/aes.c ****         tempa[3] = getSBoxValue(tempa[3]);
 214:tiny-AES-c-master/aes.c ****       }
 215:tiny-AES-c-master/aes.c ****     }
 216:tiny-AES-c-master/aes.c **** #endif
 217:tiny-AES-c-master/aes.c ****     j = i * 4; k=(i - Nk) * 4;
 218:tiny-AES-c-master/aes.c ****     RoundKey[j + 0] = RoundKey[k + 0] ^ tempa[0];
 105              		.loc 1 218 0 discriminator 2
 106 0060 13F810EC 		ldrb	lr, [r3, #-16]	@ zero_extendqisi2
 107 0064 0433     		adds	r3, r3, #4
 108              	.LVL14:
 109 0066 81EA0E01 		eor	r1, r1, lr
 110              	.LVL15:
 111 006a 00F82210 		strb	r1, [r0, r2, lsl #2]
 219:tiny-AES-c-master/aes.c ****     RoundKey[j + 1] = RoundKey[k + 1] ^ tempa[1];
 112              		.loc 1 219 0 discriminator 2
 113 006e 13F8131C 		ldrb	r1, [r3, #-19]	@ zero_extendqisi2
 167:tiny-AES-c-master/aes.c ****   {
ARM GAS  C:\Users\MICHA_~1\AppData\Local\Temp\cclKjML8.s 			page 7


 114              		.loc 1 167 0 discriminator 2
 115 0072 0132     		adds	r2, r2, #1
 116              	.LVL16:
 117              		.loc 1 219 0 discriminator 2
 118 0074 7940     		eors	r1, r1, r7
 119 0076 03F8031C 		strb	r1, [r3, #-3]
 220:tiny-AES-c-master/aes.c ****     RoundKey[j + 2] = RoundKey[k + 2] ^ tempa[2];
 120              		.loc 1 220 0 discriminator 2
 121 007a 13F8121C 		ldrb	r1, [r3, #-18]	@ zero_extendqisi2
 167:tiny-AES-c-master/aes.c ****   {
 122              		.loc 1 167 0 discriminator 2
 123 007e 2C2A     		cmp	r2, #44
 124              		.loc 1 220 0 discriminator 2
 125 0080 81EA0601 		eor	r1, r1, r6
 126 0084 03F8021C 		strb	r1, [r3, #-2]
 221:tiny-AES-c-master/aes.c ****     RoundKey[j + 3] = RoundKey[k + 3] ^ tempa[3];
 127              		.loc 1 221 0 discriminator 2
 128 0088 13F8111C 		ldrb	r1, [r3, #-17]	@ zero_extendqisi2
 129 008c 81EA0501 		eor	r1, r1, r5
 130 0090 03F8011C 		strb	r1, [r3, #-1]
 167:tiny-AES-c-master/aes.c ****   {
 131              		.loc 1 167 0 discriminator 2
 132 0094 CED1     		bne	.L4
 222:tiny-AES-c-master/aes.c ****   }
 223:tiny-AES-c-master/aes.c **** }
 133              		.loc 1 223 0
 134 0096 F0BD     		pop	{r4, r5, r6, r7, pc}
 135              	.LVL17:
 136              	.L9:
 137              		.align	2
 138              	.L8:
 139 0098 00000000 		.word	.LANCHOR0
 140              		.cfi_endproc
 141              	.LFE0:
 142              		.size	KeyExpansion, .-KeyExpansion
 143              		.section	.text.AddRoundKey,"ax",%progbits
 144              		.align	1
 145              		.thumb
 146              		.thumb_func
 147              		.type	AddRoundKey, %function
 148              	AddRoundKey:
 149              	.LFB4:
 224:tiny-AES-c-master/aes.c **** 
 225:tiny-AES-c-master/aes.c **** void AES_init_ctx(struct AES_ctx* ctx, const uint8_t* key)
 226:tiny-AES-c-master/aes.c **** {
 227:tiny-AES-c-master/aes.c ****   KeyExpansion(ctx->RoundKey, key);
 228:tiny-AES-c-master/aes.c **** }
 229:tiny-AES-c-master/aes.c **** #if (defined(CBC) && (CBC == 1)) || (defined(CTR) && (CTR == 1))
 230:tiny-AES-c-master/aes.c **** void AES_init_ctx_iv(struct AES_ctx* ctx, const uint8_t* key, const uint8_t* iv)
 231:tiny-AES-c-master/aes.c **** {
 232:tiny-AES-c-master/aes.c ****   KeyExpansion(ctx->RoundKey, key);
 233:tiny-AES-c-master/aes.c ****   memcpy (ctx->Iv, iv, AES_BLOCKLEN);
 234:tiny-AES-c-master/aes.c **** }
 235:tiny-AES-c-master/aes.c **** void AES_ctx_set_iv(struct AES_ctx* ctx, const uint8_t* iv)
 236:tiny-AES-c-master/aes.c **** {
 237:tiny-AES-c-master/aes.c ****   memcpy (ctx->Iv, iv, AES_BLOCKLEN);
 238:tiny-AES-c-master/aes.c **** }
ARM GAS  C:\Users\MICHA_~1\AppData\Local\Temp\cclKjML8.s 			page 8


 239:tiny-AES-c-master/aes.c **** #endif
 240:tiny-AES-c-master/aes.c **** 
 241:tiny-AES-c-master/aes.c **** // This function adds the round key to state.
 242:tiny-AES-c-master/aes.c **** // The round key is added to the state by an XOR function.
 243:tiny-AES-c-master/aes.c **** static void AddRoundKey(uint8_t round,state_t* state,uint8_t* RoundKey)
 244:tiny-AES-c-master/aes.c **** {
 150              		.loc 1 244 0
 151              		.cfi_startproc
 152              		@ args = 0, pretend = 0, frame = 0
 153              		@ frame_needed = 0, uses_anonymous_args = 0
 154              	.LVL18:
 155 0000 F0B5     		push	{r4, r5, r6, r7, lr}
 156              		.cfi_def_cfa_offset 20
 157              		.cfi_offset 4, -20
 158              		.cfi_offset 5, -16
 159              		.cfi_offset 6, -12
 160              		.cfi_offset 7, -8
 161              		.cfi_offset 14, -4
 162 0002 0001     		lsls	r0, r0, #4
 163              	.LVL19:
 245:tiny-AES-c-master/aes.c ****   uint8_t i,j;
 246:tiny-AES-c-master/aes.c ****   for (i = 0; i < 4; ++i)
 247:tiny-AES-c-master/aes.c ****   {
 248:tiny-AES-c-master/aes.c ****     for (j = 0; j < 4; ++j)
 249:tiny-AES-c-master/aes.c ****     {
 250:tiny-AES-c-master/aes.c ****       (*state)[i][j] ^= RoundKey[(round * Nb * 4) + (i * Nb) + j];
 164              		.loc 1 250 0
 165 0004 0024     		movs	r4, #0
 166              	.LVL20:
 167              	.L11:
 168 0006 0319     		adds	r3, r0, r4
 169 0008 1344     		add	r3, r3, r2
 170 000a 0E1D     		adds	r6, r1, #4
 171              	.LVL21:
 172              	.L12:
 173              		.loc 1 250 0 is_stmt 0 discriminator 3
 174 000c 13F8017B 		ldrb	r7, [r3], #1	@ zero_extendqisi2
 175 0010 0D78     		ldrb	r5, [r1]	@ zero_extendqisi2
 176 0012 7D40     		eors	r5, r5, r7
 177 0014 01F8015B 		strb	r5, [r1], #1
 248:tiny-AES-c-master/aes.c ****     {
 178              		.loc 1 248 0 is_stmt 1 discriminator 3
 179 0018 8E42     		cmp	r6, r1
 180 001a F7D1     		bne	.L12
 181 001c 0434     		adds	r4, r4, #4
 246:tiny-AES-c-master/aes.c ****   {
 182              		.loc 1 246 0 discriminator 2
 183 001e 102C     		cmp	r4, #16
 184 0020 3146     		mov	r1, r6
 185 0022 F0D1     		bne	.L11
 186 0024 F0BD     		pop	{r4, r5, r6, r7, pc}
 187              		.cfi_endproc
 188              	.LFE4:
 189              		.size	AddRoundKey, .-AddRoundKey
 190              		.section	.text.xtime,"ax",%progbits
 191              		.align	1
 192              		.thumb
ARM GAS  C:\Users\MICHA_~1\AppData\Local\Temp\cclKjML8.s 			page 9


 193              		.thumb_func
 194              		.type	xtime, %function
 195              	xtime:
 196              	.LFB7:
 251:tiny-AES-c-master/aes.c ****     }
 252:tiny-AES-c-master/aes.c ****   }
 253:tiny-AES-c-master/aes.c **** }
 254:tiny-AES-c-master/aes.c **** 
 255:tiny-AES-c-master/aes.c **** // The SubBytes Function Substitutes the values in the
 256:tiny-AES-c-master/aes.c **** // state matrix with values in an S-box.
 257:tiny-AES-c-master/aes.c **** static void SubBytes(state_t* state)
 258:tiny-AES-c-master/aes.c **** {
 259:tiny-AES-c-master/aes.c ****   uint8_t i, j;
 260:tiny-AES-c-master/aes.c ****   for (i = 0; i < 4; ++i)
 261:tiny-AES-c-master/aes.c ****   {
 262:tiny-AES-c-master/aes.c ****     for (j = 0; j < 4; ++j)
 263:tiny-AES-c-master/aes.c ****     {
 264:tiny-AES-c-master/aes.c ****       (*state)[j][i] = getSBoxValue((*state)[j][i]);
 265:tiny-AES-c-master/aes.c ****     }
 266:tiny-AES-c-master/aes.c ****   }
 267:tiny-AES-c-master/aes.c **** }
 268:tiny-AES-c-master/aes.c **** 
 269:tiny-AES-c-master/aes.c **** // The ShiftRows() function shifts the rows in the state to the left.
 270:tiny-AES-c-master/aes.c **** // Each row is shifted with different offset.
 271:tiny-AES-c-master/aes.c **** // Offset = Row number. So the first row is not shifted.
 272:tiny-AES-c-master/aes.c **** static void ShiftRows(state_t* state)
 273:tiny-AES-c-master/aes.c **** {
 274:tiny-AES-c-master/aes.c ****   uint8_t temp;
 275:tiny-AES-c-master/aes.c **** 
 276:tiny-AES-c-master/aes.c ****   // Rotate first row 1 columns to left  
 277:tiny-AES-c-master/aes.c ****   temp           = (*state)[0][1];
 278:tiny-AES-c-master/aes.c ****   (*state)[0][1] = (*state)[1][1];
 279:tiny-AES-c-master/aes.c ****   (*state)[1][1] = (*state)[2][1];
 280:tiny-AES-c-master/aes.c ****   (*state)[2][1] = (*state)[3][1];
 281:tiny-AES-c-master/aes.c ****   (*state)[3][1] = temp;
 282:tiny-AES-c-master/aes.c **** 
 283:tiny-AES-c-master/aes.c ****   // Rotate second row 2 columns to left  
 284:tiny-AES-c-master/aes.c ****   temp           = (*state)[0][2];
 285:tiny-AES-c-master/aes.c ****   (*state)[0][2] = (*state)[2][2];
 286:tiny-AES-c-master/aes.c ****   (*state)[2][2] = temp;
 287:tiny-AES-c-master/aes.c **** 
 288:tiny-AES-c-master/aes.c ****   temp           = (*state)[1][2];
 289:tiny-AES-c-master/aes.c ****   (*state)[1][2] = (*state)[3][2];
 290:tiny-AES-c-master/aes.c ****   (*state)[3][2] = temp;
 291:tiny-AES-c-master/aes.c **** 
 292:tiny-AES-c-master/aes.c ****   // Rotate third row 3 columns to left
 293:tiny-AES-c-master/aes.c ****   temp           = (*state)[0][3];
 294:tiny-AES-c-master/aes.c ****   (*state)[0][3] = (*state)[3][3];
 295:tiny-AES-c-master/aes.c ****   (*state)[3][3] = (*state)[2][3];
 296:tiny-AES-c-master/aes.c ****   (*state)[2][3] = (*state)[1][3];
 297:tiny-AES-c-master/aes.c ****   (*state)[1][3] = temp;
 298:tiny-AES-c-master/aes.c **** }
 299:tiny-AES-c-master/aes.c **** 
 300:tiny-AES-c-master/aes.c **** static uint8_t xtime(uint8_t x)
 301:tiny-AES-c-master/aes.c **** {
 197              		.loc 1 301 0
 198              		.cfi_startproc
ARM GAS  C:\Users\MICHA_~1\AppData\Local\Temp\cclKjML8.s 			page 10


 199              		@ args = 0, pretend = 0, frame = 0
 200              		@ frame_needed = 0, uses_anonymous_args = 0
 201              		@ link register save eliminated.
 202              	.LVL22:
 302:tiny-AES-c-master/aes.c ****   return ((x<<1) ^ (((x>>7) & 1) * 0x1b));
 203              		.loc 1 302 0
 204 0000 C309     		lsrs	r3, r0, #7
 205 0002 5A00     		lsls	r2, r3, #1
 206 0004 1344     		add	r3, r3, r2
 207 0006 03EBC303 		add	r3, r3, r3, lsl #3
 208 000a 83EA4000 		eor	r0, r3, r0, lsl #1
 209              	.LVL23:
 303:tiny-AES-c-master/aes.c **** }
 210              		.loc 1 303 0
 211 000e C0B2     		uxtb	r0, r0
 212 0010 7047     		bx	lr
 213              		.cfi_endproc
 214              	.LFE7:
 215              		.size	xtime, .-xtime
 216              		.section	.text.AES_init_ctx,"ax",%progbits
 217              		.align	1
 218              		.global	AES_init_ctx
 219              		.thumb
 220              		.thumb_func
 221              		.type	AES_init_ctx, %function
 222              	AES_init_ctx:
 223              	.LFB1:
 226:tiny-AES-c-master/aes.c ****   KeyExpansion(ctx->RoundKey, key);
 224              		.loc 1 226 0
 225              		.cfi_startproc
 226              		@ args = 0, pretend = 0, frame = 0
 227              		@ frame_needed = 0, uses_anonymous_args = 0
 228              		@ link register save eliminated.
 229              	.LVL24:
 227:tiny-AES-c-master/aes.c **** }
 230              		.loc 1 227 0
 231 0000 FFF7FEBF 		b	KeyExpansion
 232              	.LVL25:
 233              		.cfi_endproc
 234              	.LFE1:
 235              		.size	AES_init_ctx, .-AES_init_ctx
 236              		.section	.text.AES_init_ctx_iv,"ax",%progbits
 237              		.align	1
 238              		.global	AES_init_ctx_iv
 239              		.thumb
 240              		.thumb_func
 241              		.type	AES_init_ctx_iv, %function
 242              	AES_init_ctx_iv:
 243              	.LFB2:
 231:tiny-AES-c-master/aes.c ****   KeyExpansion(ctx->RoundKey, key);
 244              		.loc 1 231 0
 245              		.cfi_startproc
 246              		@ args = 0, pretend = 0, frame = 0
 247              		@ frame_needed = 0, uses_anonymous_args = 0
 248              	.LVL26:
 249 0000 38B5     		push	{r3, r4, r5, lr}
 250              		.cfi_def_cfa_offset 16
ARM GAS  C:\Users\MICHA_~1\AppData\Local\Temp\cclKjML8.s 			page 11


 251              		.cfi_offset 3, -16
 252              		.cfi_offset 4, -12
 253              		.cfi_offset 5, -8
 254              		.cfi_offset 14, -4
 231:tiny-AES-c-master/aes.c ****   KeyExpansion(ctx->RoundKey, key);
 255              		.loc 1 231 0
 256 0002 1446     		mov	r4, r2
 232:tiny-AES-c-master/aes.c ****   memcpy (ctx->Iv, iv, AES_BLOCKLEN);
 257              		.loc 1 232 0
 258 0004 FFF7FEFF 		bl	KeyExpansion
 259              	.LVL27:
 233:tiny-AES-c-master/aes.c **** }
 260              		.loc 1 233 0
 261 0008 2246     		mov	r2, r4
 262 000a B030     		adds	r0, r0, #176
 263 000c 04F11003 		add	r3, r4, #16
 264              	.L18:
 265 0010 52F8041B 		ldr	r1, [r2], #4	@ unaligned
 266 0014 9A42     		cmp	r2, r3
 267 0016 40F8041B 		str	r1, [r0], #4	@ unaligned
 268 001a F9D1     		bne	.L18
 234:tiny-AES-c-master/aes.c **** void AES_ctx_set_iv(struct AES_ctx* ctx, const uint8_t* iv)
 269              		.loc 1 234 0
 270 001c 38BD     		pop	{r3, r4, r5, pc}
 271              		.cfi_endproc
 272              	.LFE2:
 273              		.size	AES_init_ctx_iv, .-AES_init_ctx_iv
 274              		.section	.text.AES_ctx_set_iv,"ax",%progbits
 275              		.align	1
 276              		.global	AES_ctx_set_iv
 277              		.thumb
 278              		.thumb_func
 279              		.type	AES_ctx_set_iv, %function
 280              	AES_ctx_set_iv:
 281              	.LFB3:
 236:tiny-AES-c-master/aes.c ****   memcpy (ctx->Iv, iv, AES_BLOCKLEN);
 282              		.loc 1 236 0
 283              		.cfi_startproc
 284              		@ args = 0, pretend = 0, frame = 0
 285              		@ frame_needed = 0, uses_anonymous_args = 0
 286              		@ link register save eliminated.
 287              	.LVL28:
 237:tiny-AES-c-master/aes.c **** }
 288              		.loc 1 237 0
 289 0000 B030     		adds	r0, r0, #176
 290              	.LVL29:
 291 0002 01F11003 		add	r3, r1, #16
 292              	.LVL30:
 293              	.L21:
 294 0006 51F8042B 		ldr	r2, [r1], #4	@ unaligned
 295 000a 9942     		cmp	r1, r3
 296 000c 40F8042B 		str	r2, [r0], #4	@ unaligned
 297 0010 F9D1     		bne	.L21
 238:tiny-AES-c-master/aes.c **** #endif
 298              		.loc 1 238 0
 299 0012 7047     		bx	lr
 300              		.cfi_endproc
ARM GAS  C:\Users\MICHA_~1\AppData\Local\Temp\cclKjML8.s 			page 12


 301              	.LFE3:
 302              		.size	AES_ctx_set_iv, .-AES_ctx_set_iv
 303              		.section	.text.AES_CBC_encrypt_buffer,"ax",%progbits
 304              		.align	1
 305              		.global	AES_CBC_encrypt_buffer
 306              		.thumb
 307              		.thumb_func
 308              		.type	AES_CBC_encrypt_buffer, %function
 309              	AES_CBC_encrypt_buffer:
 310              	.LFB15:
 304:tiny-AES-c-master/aes.c **** 
 305:tiny-AES-c-master/aes.c **** // MixColumns function mixes the columns of the state matrix
 306:tiny-AES-c-master/aes.c **** static void MixColumns(state_t* state)
 307:tiny-AES-c-master/aes.c **** {
 308:tiny-AES-c-master/aes.c ****   uint8_t i;
 309:tiny-AES-c-master/aes.c ****   uint8_t Tmp, Tm, t;
 310:tiny-AES-c-master/aes.c ****   for (i = 0; i < 4; ++i)
 311:tiny-AES-c-master/aes.c ****   {  
 312:tiny-AES-c-master/aes.c ****     t   = (*state)[i][0];
 313:tiny-AES-c-master/aes.c ****     Tmp = (*state)[i][0] ^ (*state)[i][1] ^ (*state)[i][2] ^ (*state)[i][3] ;
 314:tiny-AES-c-master/aes.c ****     Tm  = (*state)[i][0] ^ (*state)[i][1] ; Tm = xtime(Tm);  (*state)[i][0] ^= Tm ^ Tmp ;
 315:tiny-AES-c-master/aes.c ****     Tm  = (*state)[i][1] ^ (*state)[i][2] ; Tm = xtime(Tm);  (*state)[i][1] ^= Tm ^ Tmp ;
 316:tiny-AES-c-master/aes.c ****     Tm  = (*state)[i][2] ^ (*state)[i][3] ; Tm = xtime(Tm);  (*state)[i][2] ^= Tm ^ Tmp ;
 317:tiny-AES-c-master/aes.c ****     Tm  = (*state)[i][3] ^ t ;              Tm = xtime(Tm);  (*state)[i][3] ^= Tm ^ Tmp ;
 318:tiny-AES-c-master/aes.c ****   }
 319:tiny-AES-c-master/aes.c **** }
 320:tiny-AES-c-master/aes.c **** 
 321:tiny-AES-c-master/aes.c **** // Multiply is used to multiply numbers in the field GF(2^8)
 322:tiny-AES-c-master/aes.c **** // Note: The last call to xtime() is unneeded, but often ends up generating a smaller binary
 323:tiny-AES-c-master/aes.c **** //       The compiler seems to be able to vectorize the operation better this way.
 324:tiny-AES-c-master/aes.c **** //       See https://github.com/kokke/tiny-AES-c/pull/34
 325:tiny-AES-c-master/aes.c **** #if MULTIPLY_AS_A_FUNCTION
 326:tiny-AES-c-master/aes.c **** static uint8_t Multiply(uint8_t x, uint8_t y)
 327:tiny-AES-c-master/aes.c **** {
 328:tiny-AES-c-master/aes.c ****   return (((y & 1) * x) ^
 329:tiny-AES-c-master/aes.c ****        ((y>>1 & 1) * xtime(x)) ^
 330:tiny-AES-c-master/aes.c ****        ((y>>2 & 1) * xtime(xtime(x))) ^
 331:tiny-AES-c-master/aes.c ****        ((y>>3 & 1) * xtime(xtime(xtime(x)))) ^
 332:tiny-AES-c-master/aes.c ****        ((y>>4 & 1) * xtime(xtime(xtime(xtime(x)))))); /* this last call to xtime() can be omitted *
 333:tiny-AES-c-master/aes.c ****   }
 334:tiny-AES-c-master/aes.c **** #else
 335:tiny-AES-c-master/aes.c **** #define Multiply(x, y)                                \
 336:tiny-AES-c-master/aes.c ****       (  ((y & 1) * x) ^                              \
 337:tiny-AES-c-master/aes.c ****       ((y>>1 & 1) * xtime(x)) ^                       \
 338:tiny-AES-c-master/aes.c ****       ((y>>2 & 1) * xtime(xtime(x))) ^                \
 339:tiny-AES-c-master/aes.c ****       ((y>>3 & 1) * xtime(xtime(xtime(x)))) ^         \
 340:tiny-AES-c-master/aes.c ****       ((y>>4 & 1) * xtime(xtime(xtime(xtime(x))))))   \
 341:tiny-AES-c-master/aes.c **** 
 342:tiny-AES-c-master/aes.c **** #endif
 343:tiny-AES-c-master/aes.c **** 
 344:tiny-AES-c-master/aes.c **** // MixColumns function mixes the columns of the state matrix.
 345:tiny-AES-c-master/aes.c **** // The method used to multiply may be difficult to understand for the inexperienced.
 346:tiny-AES-c-master/aes.c **** // Please use the references to gain more information.
 347:tiny-AES-c-master/aes.c **** static void InvMixColumns(state_t* state)
 348:tiny-AES-c-master/aes.c **** {
 349:tiny-AES-c-master/aes.c ****   int i;
 350:tiny-AES-c-master/aes.c ****   uint8_t a, b, c, d;
ARM GAS  C:\Users\MICHA_~1\AppData\Local\Temp\cclKjML8.s 			page 13


 351:tiny-AES-c-master/aes.c ****   for (i = 0; i < 4; ++i)
 352:tiny-AES-c-master/aes.c ****   { 
 353:tiny-AES-c-master/aes.c ****     a = (*state)[i][0];
 354:tiny-AES-c-master/aes.c ****     b = (*state)[i][1];
 355:tiny-AES-c-master/aes.c ****     c = (*state)[i][2];
 356:tiny-AES-c-master/aes.c ****     d = (*state)[i][3];
 357:tiny-AES-c-master/aes.c **** 
 358:tiny-AES-c-master/aes.c ****     (*state)[i][0] = Multiply(a, 0x0e) ^ Multiply(b, 0x0b) ^ Multiply(c, 0x0d) ^ Multiply(d, 0x09);
 359:tiny-AES-c-master/aes.c ****     (*state)[i][1] = Multiply(a, 0x09) ^ Multiply(b, 0x0e) ^ Multiply(c, 0x0b) ^ Multiply(d, 0x0d);
 360:tiny-AES-c-master/aes.c ****     (*state)[i][2] = Multiply(a, 0x0d) ^ Multiply(b, 0x09) ^ Multiply(c, 0x0e) ^ Multiply(d, 0x0b);
 361:tiny-AES-c-master/aes.c ****     (*state)[i][3] = Multiply(a, 0x0b) ^ Multiply(b, 0x0d) ^ Multiply(c, 0x09) ^ Multiply(d, 0x0e);
 362:tiny-AES-c-master/aes.c ****   }
 363:tiny-AES-c-master/aes.c **** }
 364:tiny-AES-c-master/aes.c **** 
 365:tiny-AES-c-master/aes.c **** 
 366:tiny-AES-c-master/aes.c **** // The SubBytes Function Substitutes the values in the
 367:tiny-AES-c-master/aes.c **** // state matrix with values in an S-box.
 368:tiny-AES-c-master/aes.c **** static void InvSubBytes(state_t* state)
 369:tiny-AES-c-master/aes.c **** {
 370:tiny-AES-c-master/aes.c ****   uint8_t i, j;
 371:tiny-AES-c-master/aes.c ****   for (i = 0; i < 4; ++i)
 372:tiny-AES-c-master/aes.c ****   {
 373:tiny-AES-c-master/aes.c ****     for (j = 0; j < 4; ++j)
 374:tiny-AES-c-master/aes.c ****     {
 375:tiny-AES-c-master/aes.c ****       (*state)[j][i] = getSBoxInvert((*state)[j][i]);
 376:tiny-AES-c-master/aes.c ****     }
 377:tiny-AES-c-master/aes.c ****   }
 378:tiny-AES-c-master/aes.c **** }
 379:tiny-AES-c-master/aes.c **** 
 380:tiny-AES-c-master/aes.c **** static void InvShiftRows(state_t* state)
 381:tiny-AES-c-master/aes.c **** {
 382:tiny-AES-c-master/aes.c ****   uint8_t temp;
 383:tiny-AES-c-master/aes.c **** 
 384:tiny-AES-c-master/aes.c ****   // Rotate first row 1 columns to right  
 385:tiny-AES-c-master/aes.c ****   temp = (*state)[3][1];
 386:tiny-AES-c-master/aes.c ****   (*state)[3][1] = (*state)[2][1];
 387:tiny-AES-c-master/aes.c ****   (*state)[2][1] = (*state)[1][1];
 388:tiny-AES-c-master/aes.c ****   (*state)[1][1] = (*state)[0][1];
 389:tiny-AES-c-master/aes.c ****   (*state)[0][1] = temp;
 390:tiny-AES-c-master/aes.c **** 
 391:tiny-AES-c-master/aes.c ****   // Rotate second row 2 columns to right 
 392:tiny-AES-c-master/aes.c ****   temp = (*state)[0][2];
 393:tiny-AES-c-master/aes.c ****   (*state)[0][2] = (*state)[2][2];
 394:tiny-AES-c-master/aes.c ****   (*state)[2][2] = temp;
 395:tiny-AES-c-master/aes.c **** 
 396:tiny-AES-c-master/aes.c ****   temp = (*state)[1][2];
 397:tiny-AES-c-master/aes.c ****   (*state)[1][2] = (*state)[3][2];
 398:tiny-AES-c-master/aes.c ****   (*state)[3][2] = temp;
 399:tiny-AES-c-master/aes.c **** 
 400:tiny-AES-c-master/aes.c ****   // Rotate third row 3 columns to right
 401:tiny-AES-c-master/aes.c ****   temp = (*state)[0][3];
 402:tiny-AES-c-master/aes.c ****   (*state)[0][3] = (*state)[1][3];
 403:tiny-AES-c-master/aes.c ****   (*state)[1][3] = (*state)[2][3];
 404:tiny-AES-c-master/aes.c ****   (*state)[2][3] = (*state)[3][3];
 405:tiny-AES-c-master/aes.c ****   (*state)[3][3] = temp;
 406:tiny-AES-c-master/aes.c **** }
 407:tiny-AES-c-master/aes.c **** 
ARM GAS  C:\Users\MICHA_~1\AppData\Local\Temp\cclKjML8.s 			page 14


 408:tiny-AES-c-master/aes.c **** 
 409:tiny-AES-c-master/aes.c **** // Cipher is the main function that encrypts the PlainText.
 410:tiny-AES-c-master/aes.c **** static void Cipher(state_t* state, uint8_t* RoundKey)
 411:tiny-AES-c-master/aes.c **** {
 412:tiny-AES-c-master/aes.c ****   uint8_t round = 0;
 413:tiny-AES-c-master/aes.c **** 
 414:tiny-AES-c-master/aes.c ****   // Add the First round key to the state before starting the rounds.
 415:tiny-AES-c-master/aes.c ****   AddRoundKey(0, state, RoundKey); 
 416:tiny-AES-c-master/aes.c ****   
 417:tiny-AES-c-master/aes.c ****   // There will be Nr rounds.
 418:tiny-AES-c-master/aes.c ****   // The first Nr-1 rounds are identical.
 419:tiny-AES-c-master/aes.c ****   // These Nr-1 rounds are executed in the loop below.
 420:tiny-AES-c-master/aes.c ****   for (round = 1; round < Nr; ++round)
 421:tiny-AES-c-master/aes.c ****   {
 422:tiny-AES-c-master/aes.c ****     SubBytes(state);
 423:tiny-AES-c-master/aes.c ****     ShiftRows(state);
 424:tiny-AES-c-master/aes.c ****     MixColumns(state);
 425:tiny-AES-c-master/aes.c ****     AddRoundKey(round, state, RoundKey);
 426:tiny-AES-c-master/aes.c ****   }
 427:tiny-AES-c-master/aes.c ****   
 428:tiny-AES-c-master/aes.c ****   // The last round is given below.
 429:tiny-AES-c-master/aes.c ****   // The MixColumns function is not here in the last round.
 430:tiny-AES-c-master/aes.c ****   SubBytes(state);
 431:tiny-AES-c-master/aes.c ****   ShiftRows(state);
 432:tiny-AES-c-master/aes.c ****   AddRoundKey(Nr, state, RoundKey);
 433:tiny-AES-c-master/aes.c **** }
 434:tiny-AES-c-master/aes.c **** 
 435:tiny-AES-c-master/aes.c **** static void InvCipher(state_t* state,uint8_t* RoundKey)
 436:tiny-AES-c-master/aes.c **** {
 437:tiny-AES-c-master/aes.c ****   uint8_t round = 0;
 438:tiny-AES-c-master/aes.c **** 
 439:tiny-AES-c-master/aes.c ****   // Add the First round key to the state before starting the rounds.
 440:tiny-AES-c-master/aes.c ****   AddRoundKey(Nr, state, RoundKey); 
 441:tiny-AES-c-master/aes.c **** 
 442:tiny-AES-c-master/aes.c ****   // There will be Nr rounds.
 443:tiny-AES-c-master/aes.c ****   // The first Nr-1 rounds are identical.
 444:tiny-AES-c-master/aes.c ****   // These Nr-1 rounds are executed in the loop below.
 445:tiny-AES-c-master/aes.c ****   for (round = (Nr - 1); round > 0; --round)
 446:tiny-AES-c-master/aes.c ****   {
 447:tiny-AES-c-master/aes.c ****     InvShiftRows(state);
 448:tiny-AES-c-master/aes.c ****     InvSubBytes(state);
 449:tiny-AES-c-master/aes.c ****     AddRoundKey(round, state, RoundKey);
 450:tiny-AES-c-master/aes.c ****     InvMixColumns(state);
 451:tiny-AES-c-master/aes.c ****   }
 452:tiny-AES-c-master/aes.c ****   
 453:tiny-AES-c-master/aes.c ****   // The last round is given below.
 454:tiny-AES-c-master/aes.c ****   // The MixColumns function is not here in the last round.
 455:tiny-AES-c-master/aes.c ****   InvShiftRows(state);
 456:tiny-AES-c-master/aes.c ****   InvSubBytes(state);
 457:tiny-AES-c-master/aes.c ****   AddRoundKey(0, state, RoundKey);
 458:tiny-AES-c-master/aes.c **** }
 459:tiny-AES-c-master/aes.c **** 
 460:tiny-AES-c-master/aes.c **** 
 461:tiny-AES-c-master/aes.c **** /*****************************************************************************/
 462:tiny-AES-c-master/aes.c **** /* Public functions:                                                         */
 463:tiny-AES-c-master/aes.c **** /*****************************************************************************/
 464:tiny-AES-c-master/aes.c **** #if defined(ECB) && (ECB == 1)
ARM GAS  C:\Users\MICHA_~1\AppData\Local\Temp\cclKjML8.s 			page 15


 465:tiny-AES-c-master/aes.c **** 
 466:tiny-AES-c-master/aes.c **** 
 467:tiny-AES-c-master/aes.c **** void AES_ECB_encrypt(struct AES_ctx *ctx, uint8_t* buf)
 468:tiny-AES-c-master/aes.c **** {
 469:tiny-AES-c-master/aes.c ****   // The next function call encrypts the PlainText with the Key using AES algorithm.
 470:tiny-AES-c-master/aes.c ****   Cipher((state_t*)buf, ctx->RoundKey);
 471:tiny-AES-c-master/aes.c **** }
 472:tiny-AES-c-master/aes.c **** 
 473:tiny-AES-c-master/aes.c **** void AES_ECB_decrypt(struct AES_ctx* ctx, uint8_t* buf)
 474:tiny-AES-c-master/aes.c **** {
 475:tiny-AES-c-master/aes.c ****   // The next function call decrypts the PlainText with the Key using AES algorithm.
 476:tiny-AES-c-master/aes.c ****   InvCipher((state_t*)buf, ctx->RoundKey);
 477:tiny-AES-c-master/aes.c **** }
 478:tiny-AES-c-master/aes.c **** 
 479:tiny-AES-c-master/aes.c **** 
 480:tiny-AES-c-master/aes.c **** #endif // #if defined(ECB) && (ECB == 1)
 481:tiny-AES-c-master/aes.c **** 
 482:tiny-AES-c-master/aes.c **** 
 483:tiny-AES-c-master/aes.c **** 
 484:tiny-AES-c-master/aes.c **** 
 485:tiny-AES-c-master/aes.c **** 
 486:tiny-AES-c-master/aes.c **** #if defined(CBC) && (CBC == 1)
 487:tiny-AES-c-master/aes.c **** 
 488:tiny-AES-c-master/aes.c **** 
 489:tiny-AES-c-master/aes.c **** static void XorWithIv(uint8_t* buf, uint8_t* Iv)
 490:tiny-AES-c-master/aes.c **** {
 491:tiny-AES-c-master/aes.c ****   uint8_t i;
 492:tiny-AES-c-master/aes.c ****   for (i = 0; i < AES_BLOCKLEN; ++i) // The block in AES is always 128bit no matter the key size
 493:tiny-AES-c-master/aes.c ****   {
 494:tiny-AES-c-master/aes.c ****     buf[i] ^= Iv[i];
 495:tiny-AES-c-master/aes.c ****   }
 496:tiny-AES-c-master/aes.c **** }
 497:tiny-AES-c-master/aes.c **** 
 498:tiny-AES-c-master/aes.c **** void AES_CBC_encrypt_buffer(struct AES_ctx *ctx,uint8_t* buf, uint32_t length)
 499:tiny-AES-c-master/aes.c **** {
 311              		.loc 1 499 0
 312              		.cfi_startproc
 313              		@ args = 0, pretend = 0, frame = 32
 314              		@ frame_needed = 0, uses_anonymous_args = 0
 315              	.LVL31:
 316 0000 2DE9F04F 		push	{r4, r5, r6, r7, r8, r9, r10, fp, lr}
 317              		.cfi_def_cfa_offset 36
 318              		.cfi_offset 4, -36
 319              		.cfi_offset 5, -32
 320              		.cfi_offset 6, -28
 321              		.cfi_offset 7, -24
 322              		.cfi_offset 8, -20
 323              		.cfi_offset 9, -16
 324              		.cfi_offset 10, -12
 325              		.cfi_offset 11, -8
 326              		.cfi_offset 14, -4
 327 0004 8246     		mov	r10, r0
 500:tiny-AES-c-master/aes.c ****   uintptr_t i;
 501:tiny-AES-c-master/aes.c ****   uint8_t *Iv = ctx->Iv;
 502:tiny-AES-c-master/aes.c ****   for (i = 0; i < length; i += AES_BLOCKLEN)
 328              		.loc 1 502 0
 329 0006 0C46     		mov	r4, r1
ARM GAS  C:\Users\MICHA_~1\AppData\Local\Temp\cclKjML8.s 			page 16


 499:tiny-AES-c-master/aes.c ****   uintptr_t i;
 330              		.loc 1 499 0
 331 0008 89B0     		sub	sp, sp, #36
 332              		.cfi_def_cfa_offset 72
 501:tiny-AES-c-master/aes.c ****   for (i = 0; i < length; i += AES_BLOCKLEN)
 333              		.loc 1 501 0
 334 000a 00F1B003 		add	r3, r0, #176
 499:tiny-AES-c-master/aes.c ****   uintptr_t i;
 335              		.loc 1 499 0
 336 000e 0391     		str	r1, [sp, #12]
 337 0010 0592     		str	r2, [sp, #20]
 501:tiny-AES-c-master/aes.c ****   for (i = 0; i < length; i += AES_BLOCKLEN)
 338              		.loc 1 501 0
 339 0012 0193     		str	r3, [sp, #4]
 340              	.LVL32:
 341              	.L24:
 342              		.loc 1 502 0 discriminator 1
 343 0014 039A     		ldr	r2, [sp, #12]
 344 0016 0599     		ldr	r1, [sp, #20]
 345 0018 A21A     		subs	r2, r4, r2
 346              	.LVL33:
 347 001a 9142     		cmp	r1, r2
 348 001c 40F2AE80 		bls	.L35
 349 0020 621E     		subs	r2, r4, #1
 350              	.LVL34:
 351 0022 013B     		subs	r3, r3, #1
 352              	.LVL35:
 353 0024 04F10F00 		add	r0, r4, #15
 354              	.LVL36:
 355              	.L25:
 356              	.LBB16:
 357              	.LBB17:
 494:tiny-AES-c-master/aes.c ****   }
 358              		.loc 1 494 0
 359 0028 12F8015F 		ldrb	r5, [r2, #1]!	@ zero_extendqisi2
 360 002c 13F8011F 		ldrb	r1, [r3, #1]!	@ zero_extendqisi2
 492:tiny-AES-c-master/aes.c ****   {
 361              		.loc 1 492 0
 362 0030 9042     		cmp	r0, r2
 494:tiny-AES-c-master/aes.c ****   }
 363              		.loc 1 494 0
 364 0032 81EA0501 		eor	r1, r1, r5
 365 0036 1170     		strb	r1, [r2]
 366              	.LVL37:
 492:tiny-AES-c-master/aes.c ****   {
 367              		.loc 1 492 0
 368 0038 F6D1     		bne	.L25
 369              	.LVL38:
 370              	.LBE17:
 371              	.LBE16:
 372              	.LBB18:
 373              	.LBB19:
 415:tiny-AES-c-master/aes.c ****   
 374              		.loc 1 415 0 discriminator 3
 375 003a 5246     		mov	r2, r10
 376 003c 2146     		mov	r1, r4
 377 003e 0020     		movs	r0, #0
ARM GAS  C:\Users\MICHA_~1\AppData\Local\Temp\cclKjML8.s 			page 17


 378 0040 FFF7FEFF 		bl	AddRoundKey
 379              	.LVL39:
 380 0044 231D     		adds	r3, r4, #4
 420:tiny-AES-c-master/aes.c ****   {
 381              		.loc 1 420 0 discriminator 3
 382 0046 4FF00108 		mov	r8, #1
 383 004a 0493     		str	r3, [sp, #16]
 384              	.LVL40:
 385              	.L26:
 386 004c A146     		mov	r9, r4
 387              	.LBE19:
 388              	.LBE18:
 499:tiny-AES-c-master/aes.c ****   uintptr_t i;
 389              		.loc 1 499 0
 390 004e 2346     		mov	r3, r4
 391              	.LVL41:
 392              	.L31:
 393 0050 0022     		movs	r2, #0
 394              	.LVL42:
 395              	.L27:
 396              	.LBB35:
 397              	.LBB34:
 398              	.LBB20:
 399              	.LBB21:
 264:tiny-AES-c-master/aes.c ****     }
 400              		.loc 1 264 0
 401 0052 13F82210 		ldrb	r1, [r3, r2, lsl #2]	@ zero_extendqisi2
 402 0056 4F48     		ldr	r0, .L44
 403 0058 415C     		ldrb	r1, [r0, r1]	@ zero_extendqisi2
 404 005a 03F82210 		strb	r1, [r3, r2, lsl #2]
 405              	.LVL43:
 406 005e 0132     		adds	r2, r2, #1
 407              	.LVL44:
 262:tiny-AES-c-master/aes.c ****     {
 408              		.loc 1 262 0
 409 0060 042A     		cmp	r2, #4
 410 0062 F6D1     		bne	.L27
 260:tiny-AES-c-master/aes.c ****   {
 411              		.loc 1 260 0
 412 0064 049A     		ldr	r2, [sp, #16]
 413 0066 0133     		adds	r3, r3, #1
 414 0068 9A42     		cmp	r2, r3
 415 006a F1D1     		bne	.L31
 416              	.LVL45:
 417              	.LBE21:
 418              	.LBE20:
 419              	.LBB22:
 420              	.LBB23:
 297:tiny-AES-c-master/aes.c **** }
 421              		.loc 1 297 0
 422 006c 2146     		mov	r1, r4
 278:tiny-AES-c-master/aes.c ****   (*state)[1][1] = (*state)[2][1];
 423              		.loc 1 278 0
 424 006e 6279     		ldrb	r2, [r4, #5]	@ zero_extendqisi2
 277:tiny-AES-c-master/aes.c ****   (*state)[0][1] = (*state)[1][1];
 425              		.loc 1 277 0
 426 0070 6378     		ldrb	r3, [r4, #1]	@ zero_extendqisi2
ARM GAS  C:\Users\MICHA_~1\AppData\Local\Temp\cclKjML8.s 			page 18


 427              	.LVL46:
 278:tiny-AES-c-master/aes.c ****   (*state)[1][1] = (*state)[2][1];
 428              		.loc 1 278 0
 429 0072 6270     		strb	r2, [r4, #1]
 279:tiny-AES-c-master/aes.c ****   (*state)[2][1] = (*state)[3][1];
 430              		.loc 1 279 0
 431 0074 627A     		ldrb	r2, [r4, #9]	@ zero_extendqisi2
 432 0076 6271     		strb	r2, [r4, #5]
 280:tiny-AES-c-master/aes.c ****   (*state)[3][1] = temp;
 433              		.loc 1 280 0
 434 0078 627B     		ldrb	r2, [r4, #13]	@ zero_extendqisi2
 281:tiny-AES-c-master/aes.c **** 
 435              		.loc 1 281 0
 436 007a 6373     		strb	r3, [r4, #13]
 280:tiny-AES-c-master/aes.c ****   (*state)[3][1] = temp;
 437              		.loc 1 280 0
 438 007c 6272     		strb	r2, [r4, #9]
 285:tiny-AES-c-master/aes.c ****   (*state)[2][2] = temp;
 439              		.loc 1 285 0
 440 007e A27A     		ldrb	r2, [r4, #10]	@ zero_extendqisi2
 284:tiny-AES-c-master/aes.c ****   (*state)[0][2] = (*state)[2][2];
 441              		.loc 1 284 0
 442 0080 A378     		ldrb	r3, [r4, #2]	@ zero_extendqisi2
 443              	.LVL47:
 285:tiny-AES-c-master/aes.c ****   (*state)[2][2] = temp;
 444              		.loc 1 285 0
 445 0082 A270     		strb	r2, [r4, #2]
 289:tiny-AES-c-master/aes.c ****   (*state)[3][2] = temp;
 446              		.loc 1 289 0
 447 0084 A27B     		ldrb	r2, [r4, #14]	@ zero_extendqisi2
 286:tiny-AES-c-master/aes.c **** 
 448              		.loc 1 286 0
 449 0086 A372     		strb	r3, [r4, #10]
 288:tiny-AES-c-master/aes.c ****   (*state)[1][2] = (*state)[3][2];
 450              		.loc 1 288 0
 451 0088 A379     		ldrb	r3, [r4, #6]	@ zero_extendqisi2
 452              	.LVL48:
 289:tiny-AES-c-master/aes.c ****   (*state)[3][2] = temp;
 453              		.loc 1 289 0
 454 008a A271     		strb	r2, [r4, #6]
 294:tiny-AES-c-master/aes.c ****   (*state)[3][3] = (*state)[2][3];
 455              		.loc 1 294 0
 456 008c E27B     		ldrb	r2, [r4, #15]	@ zero_extendqisi2
 290:tiny-AES-c-master/aes.c **** 
 457              		.loc 1 290 0
 458 008e A373     		strb	r3, [r4, #14]
 293:tiny-AES-c-master/aes.c ****   (*state)[0][3] = (*state)[3][3];
 459              		.loc 1 293 0
 460 0090 E378     		ldrb	r3, [r4, #3]	@ zero_extendqisi2
 461              	.LVL49:
 294:tiny-AES-c-master/aes.c ****   (*state)[3][3] = (*state)[2][3];
 462              		.loc 1 294 0
 463 0092 E270     		strb	r2, [r4, #3]
 295:tiny-AES-c-master/aes.c ****   (*state)[2][3] = (*state)[1][3];
 464              		.loc 1 295 0
 465 0094 E27A     		ldrb	r2, [r4, #11]	@ zero_extendqisi2
 466 0096 E273     		strb	r2, [r4, #15]
ARM GAS  C:\Users\MICHA_~1\AppData\Local\Temp\cclKjML8.s 			page 19


 296:tiny-AES-c-master/aes.c ****   (*state)[1][3] = temp;
 467              		.loc 1 296 0
 468 0098 E279     		ldrb	r2, [r4, #7]	@ zero_extendqisi2
 297:tiny-AES-c-master/aes.c **** }
 469              		.loc 1 297 0
 470 009a E371     		strb	r3, [r4, #7]
 471              	.LVL50:
 472 009c 04F11003 		add	r3, r4, #16
 473              	.LVL51:
 296:tiny-AES-c-master/aes.c ****   (*state)[1][3] = temp;
 474              		.loc 1 296 0
 475 00a0 E272     		strb	r2, [r4, #11]
 476 00a2 0293     		str	r3, [sp, #8]
 477              	.LVL52:
 478              	.L29:
 479              	.LBE23:
 480              	.LBE22:
 481              	.LBB24:
 482              	.LBB25:
 312:tiny-AES-c-master/aes.c ****     Tmp = (*state)[i][0] ^ (*state)[i][1] ^ (*state)[i][2] ^ (*state)[i][3] ;
 483              		.loc 1 312 0
 484 00a4 0B78     		ldrb	r3, [r1]	@ zero_extendqisi2
 485              	.LVL53:
 313:tiny-AES-c-master/aes.c ****     Tm  = (*state)[i][0] ^ (*state)[i][1] ; Tm = xtime(Tm);  (*state)[i][0] ^= Tm ^ Tmp ;
 486              		.loc 1 313 0
 487 00a6 4F78     		ldrb	r7, [r1, #1]	@ zero_extendqisi2
 488 00a8 8E78     		ldrb	r6, [r1, #2]	@ zero_extendqisi2
 489 00aa CD78     		ldrb	r5, [r1, #3]	@ zero_extendqisi2
 490 00ac 83EA0700 		eor	r0, r3, r7
 491 00b0 86EA0502 		eor	r2, r6, r5
 492 00b4 80EA020B 		eor	fp, r0, r2
 493 00b8 0792     		str	r2, [sp, #28]
 494              	.LVL54:
 495 00ba 0693     		str	r3, [sp, #24]
 314:tiny-AES-c-master/aes.c ****     Tm  = (*state)[i][1] ^ (*state)[i][2] ; Tm = xtime(Tm);  (*state)[i][1] ^= Tm ^ Tmp ;
 496              		.loc 1 314 0
 497 00bc FFF7FEFF 		bl	xtime
 498              	.LVL55:
 499 00c0 069B     		ldr	r3, [sp, #24]
 500 00c2 5840     		eors	r0, r0, r3
 501 00c4 8BEA0000 		eor	r0, fp, r0
 502 00c8 0870     		strb	r0, [r1]
 315:tiny-AES-c-master/aes.c ****     Tm  = (*state)[i][2] ^ (*state)[i][3] ; Tm = xtime(Tm);  (*state)[i][2] ^= Tm ^ Tmp ;
 503              		.loc 1 315 0
 504 00ca 87EA0600 		eor	r0, r7, r6
 505 00ce FFF7FEFF 		bl	xtime
 506              	.LVL56:
 316:tiny-AES-c-master/aes.c ****     Tm  = (*state)[i][3] ^ t ;              Tm = xtime(Tm);  (*state)[i][3] ^= Tm ^ Tmp ;
 507              		.loc 1 316 0
 508 00d2 079A     		ldr	r2, [sp, #28]
 315:tiny-AES-c-master/aes.c ****     Tm  = (*state)[i][2] ^ (*state)[i][3] ; Tm = xtime(Tm);  (*state)[i][2] ^= Tm ^ Tmp ;
 509              		.loc 1 315 0
 510 00d4 7840     		eors	r0, r0, r7
 511              	.LVL57:
 512 00d6 8BEA0000 		eor	r0, fp, r0
 513 00da 4870     		strb	r0, [r1, #1]
 514              	.LVL58:
ARM GAS  C:\Users\MICHA_~1\AppData\Local\Temp\cclKjML8.s 			page 20


 316:tiny-AES-c-master/aes.c ****     Tm  = (*state)[i][3] ^ t ;              Tm = xtime(Tm);  (*state)[i][3] ^= Tm ^ Tmp ;
 515              		.loc 1 316 0
 516 00dc 1046     		mov	r0, r2
 517 00de FFF7FEFF 		bl	xtime
 518              	.LVL59:
 317:tiny-AES-c-master/aes.c ****   }
 519              		.loc 1 317 0
 520 00e2 069B     		ldr	r3, [sp, #24]
 316:tiny-AES-c-master/aes.c ****     Tm  = (*state)[i][3] ^ t ;              Tm = xtime(Tm);  (*state)[i][3] ^= Tm ^ Tmp ;
 521              		.loc 1 316 0
 522 00e4 7040     		eors	r0, r0, r6
 523 00e6 8BEA0000 		eor	r0, fp, r0
 524 00ea 8870     		strb	r0, [r1, #2]
 317:tiny-AES-c-master/aes.c ****   }
 525              		.loc 1 317 0
 526 00ec 83EA0500 		eor	r0, r3, r5
 527 00f0 FFF7FEFF 		bl	xtime
 528              	.LVL60:
 529 00f4 6840     		eors	r0, r0, r5
 530              	.LVL61:
 531 00f6 8BEA000B 		eor	fp, fp, r0
 532              	.LVL62:
 310:tiny-AES-c-master/aes.c ****   {  
 533              		.loc 1 310 0
 534 00fa 029B     		ldr	r3, [sp, #8]
 317:tiny-AES-c-master/aes.c ****   }
 535              		.loc 1 317 0
 536 00fc 81F803B0 		strb	fp, [r1, #3]
 537 0100 0431     		adds	r1, r1, #4
 310:tiny-AES-c-master/aes.c ****   {  
 538              		.loc 1 310 0
 539 0102 8B42     		cmp	r3, r1
 540 0104 CED1     		bne	.L29
 541              	.LVL63:
 542              	.LBE25:
 543              	.LBE24:
 425:tiny-AES-c-master/aes.c ****   }
 544              		.loc 1 425 0
 545 0106 4046     		mov	r0, r8
 420:tiny-AES-c-master/aes.c ****   {
 546              		.loc 1 420 0
 547 0108 08F10108 		add	r8, r8, #1
 548              	.LVL64:
 425:tiny-AES-c-master/aes.c ****   }
 549              		.loc 1 425 0
 550 010c 5246     		mov	r2, r10
 551 010e 2146     		mov	r1, r4
 420:tiny-AES-c-master/aes.c ****   {
 552              		.loc 1 420 0
 553 0110 5FFA88F8 		uxtb	r8, r8
 425:tiny-AES-c-master/aes.c ****   }
 554              		.loc 1 425 0
 555 0114 FFF7FEFF 		bl	AddRoundKey
 556              	.LVL65:
 420:tiny-AES-c-master/aes.c ****   {
 557              		.loc 1 420 0
 558 0118 B8F10A0F 		cmp	r8, #10
ARM GAS  C:\Users\MICHA_~1\AppData\Local\Temp\cclKjML8.s 			page 21


 559 011c 96D1     		bne	.L26
 560              	.L33:
 561              	.LVL66:
 562 011e 0023     		movs	r3, #0
 563              	.LVL67:
 564              	.L32:
 565              	.LBB26:
 566              	.LBB27:
 264:tiny-AES-c-master/aes.c ****     }
 567              		.loc 1 264 0
 568 0120 19F82320 		ldrb	r2, [r9, r3, lsl #2]	@ zero_extendqisi2
 569 0124 1B49     		ldr	r1, .L44
 570 0126 8A5C     		ldrb	r2, [r1, r2]	@ zero_extendqisi2
 571 0128 09F82320 		strb	r2, [r9, r3, lsl #2]
 572              	.LVL68:
 573 012c 0133     		adds	r3, r3, #1
 574              	.LVL69:
 262:tiny-AES-c-master/aes.c ****     {
 575              		.loc 1 262 0
 576 012e 042B     		cmp	r3, #4
 577 0130 F6D1     		bne	.L32
 578              	.LVL70:
 260:tiny-AES-c-master/aes.c ****   {
 579              		.loc 1 260 0
 580 0132 049B     		ldr	r3, [sp, #16]
 581 0134 09F10109 		add	r9, r9, #1
 582 0138 4B45     		cmp	r3, r9
 583 013a F0D1     		bne	.L33
 584              	.LVL71:
 585              	.LBE27:
 586              	.LBE26:
 587              	.LBB28:
 588              	.LBB29:
 278:tiny-AES-c-master/aes.c ****   (*state)[1][1] = (*state)[2][1];
 589              		.loc 1 278 0
 590 013c 6279     		ldrb	r2, [r4, #5]	@ zero_extendqisi2
 277:tiny-AES-c-master/aes.c ****   (*state)[0][1] = (*state)[1][1];
 591              		.loc 1 277 0
 592 013e 6378     		ldrb	r3, [r4, #1]	@ zero_extendqisi2
 593              	.LVL72:
 278:tiny-AES-c-master/aes.c ****   (*state)[1][1] = (*state)[2][1];
 594              		.loc 1 278 0
 595 0140 6270     		strb	r2, [r4, #1]
 279:tiny-AES-c-master/aes.c ****   (*state)[2][1] = (*state)[3][1];
 596              		.loc 1 279 0
 597 0142 627A     		ldrb	r2, [r4, #9]	@ zero_extendqisi2
 598              	.LBE29:
 599              	.LBE28:
 432:tiny-AES-c-master/aes.c **** }
 600              		.loc 1 432 0
 601 0144 2146     		mov	r1, r4
 602              	.LBB32:
 603              	.LBB30:
 279:tiny-AES-c-master/aes.c ****   (*state)[2][1] = (*state)[3][1];
 604              		.loc 1 279 0
 605 0146 6271     		strb	r2, [r4, #5]
 280:tiny-AES-c-master/aes.c ****   (*state)[3][1] = temp;
ARM GAS  C:\Users\MICHA_~1\AppData\Local\Temp\cclKjML8.s 			page 22


 606              		.loc 1 280 0
 607 0148 627B     		ldrb	r2, [r4, #13]	@ zero_extendqisi2
 281:tiny-AES-c-master/aes.c **** 
 608              		.loc 1 281 0
 609 014a 6373     		strb	r3, [r4, #13]
 280:tiny-AES-c-master/aes.c ****   (*state)[3][1] = temp;
 610              		.loc 1 280 0
 611 014c 6272     		strb	r2, [r4, #9]
 285:tiny-AES-c-master/aes.c ****   (*state)[2][2] = temp;
 612              		.loc 1 285 0
 613 014e A27A     		ldrb	r2, [r4, #10]	@ zero_extendqisi2
 284:tiny-AES-c-master/aes.c ****   (*state)[0][2] = (*state)[2][2];
 614              		.loc 1 284 0
 615 0150 A378     		ldrb	r3, [r4, #2]	@ zero_extendqisi2
 616              	.LVL73:
 285:tiny-AES-c-master/aes.c ****   (*state)[2][2] = temp;
 617              		.loc 1 285 0
 618 0152 A270     		strb	r2, [r4, #2]
 289:tiny-AES-c-master/aes.c ****   (*state)[3][2] = temp;
 619              		.loc 1 289 0
 620 0154 A27B     		ldrb	r2, [r4, #14]	@ zero_extendqisi2
 286:tiny-AES-c-master/aes.c **** 
 621              		.loc 1 286 0
 622 0156 A372     		strb	r3, [r4, #10]
 288:tiny-AES-c-master/aes.c ****   (*state)[1][2] = (*state)[3][2];
 623              		.loc 1 288 0
 624 0158 A379     		ldrb	r3, [r4, #6]	@ zero_extendqisi2
 625              	.LVL74:
 289:tiny-AES-c-master/aes.c ****   (*state)[3][2] = temp;
 626              		.loc 1 289 0
 627 015a A271     		strb	r2, [r4, #6]
 294:tiny-AES-c-master/aes.c ****   (*state)[3][3] = (*state)[2][3];
 628              		.loc 1 294 0
 629 015c E27B     		ldrb	r2, [r4, #15]	@ zero_extendqisi2
 290:tiny-AES-c-master/aes.c **** 
 630              		.loc 1 290 0
 631 015e A373     		strb	r3, [r4, #14]
 293:tiny-AES-c-master/aes.c ****   (*state)[0][3] = (*state)[3][3];
 632              		.loc 1 293 0
 633 0160 E378     		ldrb	r3, [r4, #3]	@ zero_extendqisi2
 634              	.LVL75:
 294:tiny-AES-c-master/aes.c ****   (*state)[3][3] = (*state)[2][3];
 635              		.loc 1 294 0
 636 0162 E270     		strb	r2, [r4, #3]
 295:tiny-AES-c-master/aes.c ****   (*state)[2][3] = (*state)[1][3];
 637              		.loc 1 295 0
 638 0164 E27A     		ldrb	r2, [r4, #11]	@ zero_extendqisi2
 639              	.LBE30:
 640              	.LBE32:
 432:tiny-AES-c-master/aes.c **** }
 641              		.loc 1 432 0
 642 0166 0A20     		movs	r0, #10
 643              	.LBB33:
 644              	.LBB31:
 295:tiny-AES-c-master/aes.c ****   (*state)[2][3] = (*state)[1][3];
 645              		.loc 1 295 0
 646 0168 E273     		strb	r2, [r4, #15]
ARM GAS  C:\Users\MICHA_~1\AppData\Local\Temp\cclKjML8.s 			page 23


 296:tiny-AES-c-master/aes.c ****   (*state)[1][3] = temp;
 647              		.loc 1 296 0
 648 016a E279     		ldrb	r2, [r4, #7]	@ zero_extendqisi2
 297:tiny-AES-c-master/aes.c **** }
 649              		.loc 1 297 0
 650 016c E371     		strb	r3, [r4, #7]
 651              	.LVL76:
 296:tiny-AES-c-master/aes.c ****   (*state)[1][3] = temp;
 652              		.loc 1 296 0
 653 016e E272     		strb	r2, [r4, #11]
 654              	.LBE31:
 655              	.LBE33:
 432:tiny-AES-c-master/aes.c **** }
 656              		.loc 1 432 0
 657 0170 5246     		mov	r2, r10
 658 0172 FFF7FEFF 		bl	AddRoundKey
 659              	.LVL77:
 660 0176 2346     		mov	r3, r4
 661 0178 029C     		ldr	r4, [sp, #8]
 662              	.LVL78:
 663 017a 4BE7     		b	.L24
 664              	.LVL79:
 665              	.L35:
 666              	.LBE34:
 667              	.LBE35:
 503:tiny-AES-c-master/aes.c ****   {
 504:tiny-AES-c-master/aes.c ****     XorWithIv(buf, Iv);
 505:tiny-AES-c-master/aes.c ****     Cipher((state_t*)buf, ctx->RoundKey);
 506:tiny-AES-c-master/aes.c ****     Iv = buf;
 507:tiny-AES-c-master/aes.c ****     buf += AES_BLOCKLEN;
 508:tiny-AES-c-master/aes.c ****     //printf("Step %d - %d", i/16, i);
 509:tiny-AES-c-master/aes.c ****   }
 510:tiny-AES-c-master/aes.c ****   /* store Iv in ctx for next call */
 511:tiny-AES-c-master/aes.c ****   memcpy(ctx->Iv, Iv, AES_BLOCKLEN);
 668              		.loc 1 511 0
 669 017c 019A     		ldr	r2, [sp, #4]
 670              	.LVL80:
 671 017e 03F11001 		add	r1, r3, #16
 672              	.LVL81:
 673              	.L36:
 674 0182 53F8040B 		ldr	r0, [r3], #4	@ unaligned
 675 0186 8B42     		cmp	r3, r1
 676 0188 42F8040B 		str	r0, [r2], #4	@ unaligned
 677 018c F9D1     		bne	.L36
 512:tiny-AES-c-master/aes.c **** }
 678              		.loc 1 512 0
 679 018e 09B0     		add	sp, sp, #36
 680              		.cfi_def_cfa_offset 36
 681              		@ sp needed
 682 0190 BDE8F08F 		pop	{r4, r5, r6, r7, r8, r9, r10, fp, pc}
 683              	.LVL82:
 684              	.L45:
 685              		.align	2
 686              	.L44:
 687 0194 00000000 		.word	.LANCHOR0
 688              		.cfi_endproc
 689              	.LFE15:
ARM GAS  C:\Users\MICHA_~1\AppData\Local\Temp\cclKjML8.s 			page 24


 690              		.size	AES_CBC_encrypt_buffer, .-AES_CBC_encrypt_buffer
 691              		.section	.text.AES_CBC_decrypt_buffer,"ax",%progbits
 692              		.align	1
 693              		.global	AES_CBC_decrypt_buffer
 694              		.thumb
 695              		.thumb_func
 696              		.type	AES_CBC_decrypt_buffer, %function
 697              	AES_CBC_decrypt_buffer:
 698              	.LFB16:
 513:tiny-AES-c-master/aes.c **** 
 514:tiny-AES-c-master/aes.c **** void AES_CBC_decrypt_buffer(struct AES_ctx* ctx, uint8_t* buf,  uint32_t length)
 515:tiny-AES-c-master/aes.c **** {
 699              		.loc 1 515 0
 700              		.cfi_startproc
 701              		@ args = 0, pretend = 0, frame = 80
 702              		@ frame_needed = 0, uses_anonymous_args = 0
 703              	.LVL83:
 704 0000 2DE9F04F 		push	{r4, r5, r6, r7, r8, r9, r10, fp, lr}
 705              		.cfi_def_cfa_offset 36
 706              		.cfi_offset 4, -36
 707              		.cfi_offset 5, -32
 708              		.cfi_offset 6, -28
 709              		.cfi_offset 7, -24
 710              		.cfi_offset 8, -20
 711              		.cfi_offset 9, -16
 712              		.cfi_offset 10, -12
 713              		.cfi_offset 11, -8
 714              		.cfi_offset 14, -4
 715 0004 8046     		mov	r8, r0
 516:tiny-AES-c-master/aes.c ****   uintptr_t i;
 517:tiny-AES-c-master/aes.c ****   uint8_t storeNextIv[AES_BLOCKLEN];
 518:tiny-AES-c-master/aes.c ****   for (i = 0; i < length; i += AES_BLOCKLEN)
 716              		.loc 1 518 0
 717 0006 0C46     		mov	r4, r1
 515:tiny-AES-c-master/aes.c ****   uintptr_t i;
 718              		.loc 1 515 0
 719 0008 95B0     		sub	sp, sp, #84
 720              		.cfi_def_cfa_offset 120
 515:tiny-AES-c-master/aes.c ****   uintptr_t i;
 721              		.loc 1 515 0
 722 000a 0591     		str	r1, [sp, #20]
 723 000c 0D92     		str	r2, [sp, #52]
 724 000e 0F1D     		adds	r7, r1, #4
 725              	.LVL84:
 726              	.L47:
 727              		.loc 1 518 0 discriminator 1
 728 0010 059B     		ldr	r3, [sp, #20]
 729 0012 0D9A     		ldr	r2, [sp, #52]
 730 0014 E31A     		subs	r3, r4, r3
 731              	.LVL85:
 732 0016 9A42     		cmp	r2, r3
 733 0018 40F23681 		bls	.L67
 519:tiny-AES-c-master/aes.c ****   {
 520:tiny-AES-c-master/aes.c ****     memcpy(storeNextIv, buf, AES_BLOCKLEN);
 734              		.loc 1 520 0 discriminator 3
 735 001c 3B1F     		subs	r3, r7, #4
 736              	.LVL86:
ARM GAS  C:\Users\MICHA_~1\AppData\Local\Temp\cclKjML8.s 			page 25


 737 001e 10AD     		add	r5, sp, #64
 738 0020 07F10C06 		add	r6, r7, #12
 739              	.LVL87:
 740              	.L48:
 741 0024 2A46     		mov	r2, r5
 742 0026 1868     		ldr	r0, [r3]	@ unaligned
 743 0028 5968     		ldr	r1, [r3, #4]	@ unaligned
 744 002a 0833     		adds	r3, r3, #8
 745 002c 03C2     		stmia	r2!, {r0, r1}
 746 002e B342     		cmp	r3, r6
 747 0030 1546     		mov	r5, r2
 748 0032 F7D1     		bne	.L48
 749              	.LVL88:
 750              	.LBB50:
 751              	.LBB51:
 440:tiny-AES-c-master/aes.c **** 
 752              		.loc 1 440 0 discriminator 3
 753 0034 4246     		mov	r2, r8
 754 0036 2146     		mov	r1, r4
 755 0038 0A20     		movs	r0, #10
 756 003a FFF7FEFF 		bl	AddRoundKey
 757              	.LVL89:
 758 003e 0923     		movs	r3, #9
 759 0040 0493     		str	r3, [sp, #16]
 760              	.LVL90:
 761              	.L53:
 762              	.LBB52:
 763              	.LBB53:
 386:tiny-AES-c-master/aes.c ****   (*state)[2][1] = (*state)[1][1];
 764              		.loc 1 386 0
 765 0042 627A     		ldrb	r2, [r4, #9]	@ zero_extendqisi2
 385:tiny-AES-c-master/aes.c ****   (*state)[3][1] = (*state)[2][1];
 766              		.loc 1 385 0
 767 0044 637B     		ldrb	r3, [r4, #13]	@ zero_extendqisi2
 768              	.LVL91:
 386:tiny-AES-c-master/aes.c ****   (*state)[2][1] = (*state)[1][1];
 769              		.loc 1 386 0
 770 0046 6273     		strb	r2, [r4, #13]
 387:tiny-AES-c-master/aes.c ****   (*state)[1][1] = (*state)[0][1];
 771              		.loc 1 387 0
 772 0048 6279     		ldrb	r2, [r4, #5]	@ zero_extendqisi2
 773 004a A146     		mov	r9, r4
 774 004c 6272     		strb	r2, [r4, #9]
 388:tiny-AES-c-master/aes.c ****   (*state)[0][1] = temp;
 775              		.loc 1 388 0
 776 004e 6278     		ldrb	r2, [r4, #1]	@ zero_extendqisi2
 389:tiny-AES-c-master/aes.c **** 
 777              		.loc 1 389 0
 778 0050 6370     		strb	r3, [r4, #1]
 388:tiny-AES-c-master/aes.c ****   (*state)[0][1] = temp;
 779              		.loc 1 388 0
 780 0052 6271     		strb	r2, [r4, #5]
 393:tiny-AES-c-master/aes.c ****   (*state)[2][2] = temp;
 781              		.loc 1 393 0
 782 0054 A27A     		ldrb	r2, [r4, #10]	@ zero_extendqisi2
 392:tiny-AES-c-master/aes.c ****   (*state)[0][2] = (*state)[2][2];
 783              		.loc 1 392 0
ARM GAS  C:\Users\MICHA_~1\AppData\Local\Temp\cclKjML8.s 			page 26


 784 0056 A378     		ldrb	r3, [r4, #2]	@ zero_extendqisi2
 785              	.LVL92:
 393:tiny-AES-c-master/aes.c ****   (*state)[2][2] = temp;
 786              		.loc 1 393 0
 787 0058 A270     		strb	r2, [r4, #2]
 397:tiny-AES-c-master/aes.c ****   (*state)[3][2] = temp;
 788              		.loc 1 397 0
 789 005a A27B     		ldrb	r2, [r4, #14]	@ zero_extendqisi2
 394:tiny-AES-c-master/aes.c **** 
 790              		.loc 1 394 0
 791 005c A372     		strb	r3, [r4, #10]
 396:tiny-AES-c-master/aes.c ****   (*state)[1][2] = (*state)[3][2];
 792              		.loc 1 396 0
 793 005e A379     		ldrb	r3, [r4, #6]	@ zero_extendqisi2
 794              	.LVL93:
 397:tiny-AES-c-master/aes.c ****   (*state)[3][2] = temp;
 795              		.loc 1 397 0
 796 0060 A271     		strb	r2, [r4, #6]
 402:tiny-AES-c-master/aes.c ****   (*state)[1][3] = (*state)[2][3];
 797              		.loc 1 402 0
 798 0062 E279     		ldrb	r2, [r4, #7]	@ zero_extendqisi2
 398:tiny-AES-c-master/aes.c **** 
 799              		.loc 1 398 0
 800 0064 A373     		strb	r3, [r4, #14]
 401:tiny-AES-c-master/aes.c ****   (*state)[0][3] = (*state)[1][3];
 801              		.loc 1 401 0
 802 0066 E378     		ldrb	r3, [r4, #3]	@ zero_extendqisi2
 803              	.LVL94:
 402:tiny-AES-c-master/aes.c ****   (*state)[1][3] = (*state)[2][3];
 804              		.loc 1 402 0
 805 0068 E270     		strb	r2, [r4, #3]
 403:tiny-AES-c-master/aes.c ****   (*state)[2][3] = (*state)[3][3];
 806              		.loc 1 403 0
 807 006a E27A     		ldrb	r2, [r4, #11]	@ zero_extendqisi2
 808 006c E271     		strb	r2, [r4, #7]
 404:tiny-AES-c-master/aes.c ****   (*state)[3][3] = temp;
 809              		.loc 1 404 0
 810 006e E27B     		ldrb	r2, [r4, #15]	@ zero_extendqisi2
 405:tiny-AES-c-master/aes.c **** }
 811              		.loc 1 405 0
 812 0070 E373     		strb	r3, [r4, #15]
 813              	.LVL95:
 404:tiny-AES-c-master/aes.c ****   (*state)[3][3] = temp;
 814              		.loc 1 404 0
 815 0072 E272     		strb	r2, [r4, #11]
 405:tiny-AES-c-master/aes.c **** }
 816              		.loc 1 405 0
 817 0074 2246     		mov	r2, r4
 818              	.LVL96:
 819              	.L49:
 820              	.LBE53:
 821              	.LBE52:
 440:tiny-AES-c-master/aes.c **** 
 822              		.loc 1 440 0
 823 0076 0023     		movs	r3, #0
 824              	.LVL97:
 825              	.L50:
ARM GAS  C:\Users\MICHA_~1\AppData\Local\Temp\cclKjML8.s 			page 27


 826              	.LBB54:
 827              	.LBB55:
 375:tiny-AES-c-master/aes.c ****     }
 828              		.loc 1 375 0
 829 0078 12F82310 		ldrb	r1, [r2, r3, lsl #2]	@ zero_extendqisi2
 830 007c 8448     		ldr	r0, .L68
 831 007e 0144     		add	r1, r1, r0
 832 0080 91F80B11 		ldrb	r1, [r1, #267]	@ zero_extendqisi2
 833 0084 02F82310 		strb	r1, [r2, r3, lsl #2]
 834              	.LVL98:
 835 0088 0133     		adds	r3, r3, #1
 836              	.LVL99:
 373:tiny-AES-c-master/aes.c ****     {
 837              		.loc 1 373 0
 838 008a 042B     		cmp	r3, #4
 839 008c F4D1     		bne	.L50
 840 008e 0132     		adds	r2, r2, #1
 371:tiny-AES-c-master/aes.c ****   {
 841              		.loc 1 371 0
 842 0090 9742     		cmp	r7, r2
 843 0092 F0D1     		bne	.L49
 844              	.LBE55:
 845              	.LBE54:
 449:tiny-AES-c-master/aes.c ****     InvMixColumns(state);
 846              		.loc 1 449 0
 847 0094 4246     		mov	r2, r8
 848 0096 2146     		mov	r1, r4
 849 0098 0498     		ldr	r0, [sp, #16]
 850 009a FFF7FEFF 		bl	AddRoundKey
 851              	.LVL100:
 852 009e 2646     		mov	r6, r4
 853              	.LBB56:
 854              	.LBB57:
 351:tiny-AES-c-master/aes.c ****   { 
 855              		.loc 1 351 0
 856 00a0 4FF0000A 		mov	r10, #0
 857              	.LVL101:
 858              	.L52:
 354:tiny-AES-c-master/aes.c ****     c = (*state)[i][2];
 859              		.loc 1 354 0
 860 00a4 7378     		ldrb	r3, [r6, #1]	@ zero_extendqisi2
 353:tiny-AES-c-master/aes.c ****     b = (*state)[i][1];
 861              		.loc 1 353 0
 862 00a6 14F82A20 		ldrb	r2, [r4, r10, lsl #2]	@ zero_extendqisi2
 863              	.LVL102:
 354:tiny-AES-c-master/aes.c ****     c = (*state)[i][2];
 864              		.loc 1 354 0
 865 00aa 0393     		str	r3, [sp, #12]
 866              	.LVL103:
 355:tiny-AES-c-master/aes.c ****     d = (*state)[i][3];
 867              		.loc 1 355 0
 868 00ac B378     		ldrb	r3, [r6, #2]	@ zero_extendqisi2
 358:tiny-AES-c-master/aes.c ****     (*state)[i][1] = Multiply(a, 0x09) ^ Multiply(b, 0x0e) ^ Multiply(c, 0x0b) ^ Multiply(d, 0x0d);
 869              		.loc 1 358 0
 870 00ae 1046     		mov	r0, r2
 355:tiny-AES-c-master/aes.c ****     d = (*state)[i][3];
 871              		.loc 1 355 0
ARM GAS  C:\Users\MICHA_~1\AppData\Local\Temp\cclKjML8.s 			page 28


 872 00b0 0093     		str	r3, [sp]
 873              	.LVL104:
 356:tiny-AES-c-master/aes.c **** 
 874              		.loc 1 356 0
 875 00b2 F378     		ldrb	r3, [r6, #3]	@ zero_extendqisi2
 358:tiny-AES-c-master/aes.c ****     (*state)[i][1] = Multiply(a, 0x09) ^ Multiply(b, 0x0e) ^ Multiply(c, 0x0b) ^ Multiply(d, 0x0d);
 876              		.loc 1 358 0
 877 00b4 0F92     		str	r2, [sp, #60]
 356:tiny-AES-c-master/aes.c **** 
 878              		.loc 1 356 0
 879 00b6 0193     		str	r3, [sp, #4]
 880              	.LVL105:
 358:tiny-AES-c-master/aes.c ****     (*state)[i][1] = Multiply(a, 0x09) ^ Multiply(b, 0x0e) ^ Multiply(c, 0x0b) ^ Multiply(d, 0x0d);
 881              		.loc 1 358 0
 882 00b8 FFF7FEFF 		bl	xtime
 883              	.LVL106:
 884 00bc 0690     		str	r0, [sp, #24]
 885 00be FFF7FEFF 		bl	xtime
 886              	.LVL107:
 887 00c2 0790     		str	r0, [sp, #28]
 888 00c4 FFF7FEFF 		bl	xtime
 889              	.LVL108:
 890 00c8 0290     		str	r0, [sp, #8]
 891 00ca 0398     		ldr	r0, [sp, #12]
 892 00cc FFF7FEFF 		bl	xtime
 893              	.LVL109:
 894 00d0 0546     		mov	r5, r0
 895 00d2 FFF7FEFF 		bl	xtime
 896              	.LVL110:
 897 00d6 0890     		str	r0, [sp, #32]
 898 00d8 FFF7FEFF 		bl	xtime
 899              	.LVL111:
 900 00dc 0E90     		str	r0, [sp, #56]
 901 00de 0098     		ldr	r0, [sp]
 902 00e0 FFF7FEFF 		bl	xtime
 903              	.LVL112:
 904 00e4 0990     		str	r0, [sp, #36]
 905 00e6 FFF7FEFF 		bl	xtime
 906              	.LVL113:
 907 00ea 0A90     		str	r0, [sp, #40]
 908 00ec FFF7FEFF 		bl	xtime
 909              	.LVL114:
 910 00f0 8346     		mov	fp, r0
 911 00f2 0198     		ldr	r0, [sp, #4]
 912 00f4 FFF7FEFF 		bl	xtime
 913              	.LVL115:
 914 00f8 0B90     		str	r0, [sp, #44]
 915 00fa FFF7FEFF 		bl	xtime
 916              	.LVL116:
 917 00fe 0C90     		str	r0, [sp, #48]
 918 0100 FFF7FEFF 		bl	xtime
 919              	.LVL117:
 920 0104 069B     		ldr	r3, [sp, #24]
 921 0106 079A     		ldr	r2, [sp, #28]
 922 0108 0436     		adds	r6, r6, #4
 923 010a 83EA020E 		eor	lr, r3, r2
 924 010e 029B     		ldr	r3, [sp, #8]
ARM GAS  C:\Users\MICHA_~1\AppData\Local\Temp\cclKjML8.s 			page 29


 925 0110 0A9A     		ldr	r2, [sp, #40]
 926 0112 83EA0E0E 		eor	lr, r3, lr
 927 0116 0E9B     		ldr	r3, [sp, #56]
 928 0118 85EA0E0E 		eor	lr, r5, lr
 929 011c 83EA0E0E 		eor	lr, r3, lr
 930 0120 82EA0E0E 		eor	lr, r2, lr
 931 0124 8BEA0E0E 		eor	lr, fp, lr
 932 0128 039A     		ldr	r2, [sp, #12]
 933 012a 80EA0E0E 		eor	lr, r0, lr
 934 012e 82EA0E0E 		eor	lr, r2, lr
 935 0132 009A     		ldr	r2, [sp]
 936 0134 82EA0E0E 		eor	lr, r2, lr
 937 0138 019A     		ldr	r2, [sp, #4]
 938 013a 82EA0E0E 		eor	lr, r2, lr
 359:tiny-AES-c-master/aes.c ****     (*state)[i][2] = Multiply(a, 0x0d) ^ Multiply(b, 0x09) ^ Multiply(c, 0x0e) ^ Multiply(d, 0x0b);
 939              		.loc 1 359 0
 940 013e 029A     		ldr	r2, [sp, #8]
 358:tiny-AES-c-master/aes.c ****     (*state)[i][1] = Multiply(a, 0x09) ^ Multiply(b, 0x0e) ^ Multiply(c, 0x0b) ^ Multiply(d, 0x0d);
 941              		.loc 1 358 0
 942 0140 04F82AE0 		strb	lr, [r4, r10, lsl #2]
 359:tiny-AES-c-master/aes.c ****     (*state)[i][2] = Multiply(a, 0x0d) ^ Multiply(b, 0x09) ^ Multiply(c, 0x0e) ^ Multiply(d, 0x0b);
 943              		.loc 1 359 0
 944 0144 5540     		eors	r5, r5, r2
 945 0146 089A     		ldr	r2, [sp, #32]
 351:tiny-AES-c-master/aes.c ****   { 
 946              		.loc 1 351 0
 947 0148 0AF1010A 		add	r10, r10, #1
 948              	.LVL118:
 359:tiny-AES-c-master/aes.c ****     (*state)[i][2] = Multiply(a, 0x0d) ^ Multiply(b, 0x09) ^ Multiply(c, 0x0e) ^ Multiply(d, 0x0b);
 949              		.loc 1 359 0
 950 014c 5540     		eors	r5, r5, r2
 951 014e 099A     		ldr	r2, [sp, #36]
 952 0150 5D40     		eors	r5, r5, r3
 953 0152 5540     		eors	r5, r5, r2
 954 0154 0C9A     		ldr	r2, [sp, #48]
 955 0156 8BEA0505 		eor	r5, fp, r5
 956 015a 5540     		eors	r5, r5, r2
 957 015c 0F9A     		ldr	r2, [sp, #60]
 958              	.LVL119:
 959 015e 4540     		eors	r5, r5, r0
 960 0160 0099     		ldr	r1, [sp]
 961 0162 5540     		eors	r5, r5, r2
 962 0164 4D40     		eors	r5, r5, r1
 963 0166 0199     		ldr	r1, [sp, #4]
 351:tiny-AES-c-master/aes.c ****   { 
 964              		.loc 1 351 0
 965 0168 BAF1040F 		cmp	r10, #4
 359:tiny-AES-c-master/aes.c ****     (*state)[i][2] = Multiply(a, 0x0d) ^ Multiply(b, 0x09) ^ Multiply(c, 0x0e) ^ Multiply(d, 0x0b);
 966              		.loc 1 359 0
 967 016c 85EA0105 		eor	r5, r5, r1
 968 0170 0399     		ldr	r1, [sp, #12]
 969 0172 06F8035C 		strb	r5, [r6, #-3]
 970 0176 82EA0105 		eor	r5, r2, r1
 360:tiny-AES-c-master/aes.c ****     (*state)[i][3] = Multiply(a, 0x0b) ^ Multiply(b, 0x0d) ^ Multiply(c, 0x09) ^ Multiply(d, 0x0e);
 971              		.loc 1 360 0
 972 017a 079A     		ldr	r2, [sp, #28]
 973 017c 0299     		ldr	r1, [sp, #8]
ARM GAS  C:\Users\MICHA_~1\AppData\Local\Temp\cclKjML8.s 			page 30


 974 017e 82EA010E 		eor	lr, r2, r1
 975 0182 099A     		ldr	r2, [sp, #36]
 976 0184 83EA0E0E 		eor	lr, r3, lr
 977 0188 82EA0E0E 		eor	lr, r2, lr
 978 018c 0A9A     		ldr	r2, [sp, #40]
 979 018e 82EA0E0E 		eor	lr, r2, lr
 980 0192 0B9A     		ldr	r2, [sp, #44]
 981 0194 8BEA0E0E 		eor	lr, fp, lr
 982 0198 82EA0E0E 		eor	lr, r2, lr
 983 019c 019A     		ldr	r2, [sp, #4]
 984 019e 80EA0E0E 		eor	lr, r0, lr
 985 01a2 82EA0E02 		eor	r2, r2, lr
 986 01a6 82EA0502 		eor	r2, r2, r5
 987 01aa 06F8022C 		strb	r2, [r6, #-2]
 361:tiny-AES-c-master/aes.c ****   }
 988              		.loc 1 361 0
 989 01ae 069A     		ldr	r2, [sp, #24]
 990 01b0 81EA0201 		eor	r1, r1, r2
 991 01b4 089A     		ldr	r2, [sp, #32]
 992 01b6 81EA0201 		eor	r1, r1, r2
 993 01ba 83EA0103 		eor	r3, r3, r1
 994 01be 8BEA030B 		eor	fp, fp, r3
 995 01c2 0B9B     		ldr	r3, [sp, #44]
 996 01c4 83EA0B0B 		eor	fp, r3, fp
 997 01c8 0C9B     		ldr	r3, [sp, #48]
 998 01ca 83EA0B0B 		eor	fp, r3, fp
 999 01ce 009B     		ldr	r3, [sp]
 1000 01d0 80EA0B00 		eor	r0, r0, fp
 1001 01d4 80EA0300 		eor	r0, r0, r3
 1002 01d8 80EA0500 		eor	r0, r0, r5
 1003 01dc 06F8010C 		strb	r0, [r6, #-1]
 351:tiny-AES-c-master/aes.c ****   { 
 1004              		.loc 1 351 0
 1005 01e0 7FF460AF 		bne	.L52
 1006              	.LVL120:
 1007 01e4 049B     		ldr	r3, [sp, #16]
 1008 01e6 013B     		subs	r3, r3, #1
 1009              	.LBE57:
 1010              	.LBE56:
 445:tiny-AES-c-master/aes.c ****   {
 1011              		.loc 1 445 0
 1012 01e8 13F0FF03 		ands	r3, r3, #255
 1013 01ec 0493     		str	r3, [sp, #16]
 1014              	.LVL121:
 1015 01ee 7FF428AF 		bne	.L53
 1016              	.LVL122:
 1017              	.LBB59:
 1018              	.LBB60:
 386:tiny-AES-c-master/aes.c ****   (*state)[2][1] = (*state)[1][1];
 1019              		.loc 1 386 0
 1020 01f2 627A     		ldrb	r2, [r4, #9]	@ zero_extendqisi2
 385:tiny-AES-c-master/aes.c ****   (*state)[3][1] = (*state)[2][1];
 1021              		.loc 1 385 0
 1022 01f4 637B     		ldrb	r3, [r4, #13]	@ zero_extendqisi2
 1023              	.LVL123:
 386:tiny-AES-c-master/aes.c ****   (*state)[2][1] = (*state)[1][1];
 1024              		.loc 1 386 0
ARM GAS  C:\Users\MICHA_~1\AppData\Local\Temp\cclKjML8.s 			page 31


 1025 01f6 6273     		strb	r2, [r4, #13]
 387:tiny-AES-c-master/aes.c ****   (*state)[1][1] = (*state)[0][1];
 1026              		.loc 1 387 0
 1027 01f8 6279     		ldrb	r2, [r4, #5]	@ zero_extendqisi2
 1028 01fa 6272     		strb	r2, [r4, #9]
 388:tiny-AES-c-master/aes.c ****   (*state)[0][1] = temp;
 1029              		.loc 1 388 0
 1030 01fc 6278     		ldrb	r2, [r4, #1]	@ zero_extendqisi2
 389:tiny-AES-c-master/aes.c **** 
 1031              		.loc 1 389 0
 1032 01fe 6370     		strb	r3, [r4, #1]
 388:tiny-AES-c-master/aes.c ****   (*state)[0][1] = temp;
 1033              		.loc 1 388 0
 1034 0200 6271     		strb	r2, [r4, #5]
 393:tiny-AES-c-master/aes.c ****   (*state)[2][2] = temp;
 1035              		.loc 1 393 0
 1036 0202 A27A     		ldrb	r2, [r4, #10]	@ zero_extendqisi2
 392:tiny-AES-c-master/aes.c ****   (*state)[0][2] = (*state)[2][2];
 1037              		.loc 1 392 0
 1038 0204 A378     		ldrb	r3, [r4, #2]	@ zero_extendqisi2
 1039              	.LVL124:
 393:tiny-AES-c-master/aes.c ****   (*state)[2][2] = temp;
 1040              		.loc 1 393 0
 1041 0206 A270     		strb	r2, [r4, #2]
 397:tiny-AES-c-master/aes.c ****   (*state)[3][2] = temp;
 1042              		.loc 1 397 0
 1043 0208 A27B     		ldrb	r2, [r4, #14]	@ zero_extendqisi2
 394:tiny-AES-c-master/aes.c **** 
 1044              		.loc 1 394 0
 1045 020a A372     		strb	r3, [r4, #10]
 396:tiny-AES-c-master/aes.c ****   (*state)[1][2] = (*state)[3][2];
 1046              		.loc 1 396 0
 1047 020c A379     		ldrb	r3, [r4, #6]	@ zero_extendqisi2
 1048              	.LVL125:
 397:tiny-AES-c-master/aes.c ****   (*state)[3][2] = temp;
 1049              		.loc 1 397 0
 1050 020e A271     		strb	r2, [r4, #6]
 402:tiny-AES-c-master/aes.c ****   (*state)[1][3] = (*state)[2][3];
 1051              		.loc 1 402 0
 1052 0210 E279     		ldrb	r2, [r4, #7]	@ zero_extendqisi2
 398:tiny-AES-c-master/aes.c **** 
 1053              		.loc 1 398 0
 1054 0212 A373     		strb	r3, [r4, #14]
 401:tiny-AES-c-master/aes.c ****   (*state)[0][3] = (*state)[1][3];
 1055              		.loc 1 401 0
 1056 0214 E378     		ldrb	r3, [r4, #3]	@ zero_extendqisi2
 1057              	.LVL126:
 402:tiny-AES-c-master/aes.c ****   (*state)[1][3] = (*state)[2][3];
 1058              		.loc 1 402 0
 1059 0216 E270     		strb	r2, [r4, #3]
 403:tiny-AES-c-master/aes.c ****   (*state)[2][3] = (*state)[3][3];
 1060              		.loc 1 403 0
 1061 0218 E27A     		ldrb	r2, [r4, #11]	@ zero_extendqisi2
 1062 021a E271     		strb	r2, [r4, #7]
 404:tiny-AES-c-master/aes.c ****   (*state)[3][3] = temp;
 1063              		.loc 1 404 0
 1064 021c E27B     		ldrb	r2, [r4, #15]	@ zero_extendqisi2
ARM GAS  C:\Users\MICHA_~1\AppData\Local\Temp\cclKjML8.s 			page 32


 405:tiny-AES-c-master/aes.c **** }
 1065              		.loc 1 405 0
 1066 021e E373     		strb	r3, [r4, #15]
 1067              	.LVL127:
 404:tiny-AES-c-master/aes.c ****   (*state)[3][3] = temp;
 1068              		.loc 1 404 0
 1069 0220 E272     		strb	r2, [r4, #11]
 1070              	.LVL128:
 1071              	.L54:
 1072              	.LBE60:
 1073              	.LBE59:
 1074              	.LBB61:
 1075              	.LBB58:
 351:tiny-AES-c-master/aes.c ****   { 
 1076              		.loc 1 351 0
 1077 0222 0023     		movs	r3, #0
 1078              	.LVL129:
 1079              	.L55:
 1080              	.LBE58:
 1081              	.LBE61:
 1082              	.LBB62:
 1083              	.LBB63:
 375:tiny-AES-c-master/aes.c ****     }
 1084              		.loc 1 375 0
 1085 0224 19F82320 		ldrb	r2, [r9, r3, lsl #2]	@ zero_extendqisi2
 1086 0228 1949     		ldr	r1, .L68
 1087 022a 0A44     		add	r2, r2, r1
 1088 022c 92F80B21 		ldrb	r2, [r2, #267]	@ zero_extendqisi2
 1089 0230 09F82320 		strb	r2, [r9, r3, lsl #2]
 1090              	.LVL130:
 1091 0234 0133     		adds	r3, r3, #1
 1092              	.LVL131:
 373:tiny-AES-c-master/aes.c ****     {
 1093              		.loc 1 373 0
 1094 0236 042B     		cmp	r3, #4
 1095 0238 F4D1     		bne	.L55
 1096 023a 09F10109 		add	r9, r9, #1
 371:tiny-AES-c-master/aes.c ****   {
 1097              		.loc 1 371 0
 1098 023e 4F45     		cmp	r7, r9
 1099 0240 EFD1     		bne	.L54
 1100              	.LBE63:
 1101              	.LBE62:
 457:tiny-AES-c-master/aes.c **** }
 1102              		.loc 1 457 0
 1103 0242 2146     		mov	r1, r4
 1104 0244 0020     		movs	r0, #0
 1105 0246 4246     		mov	r2, r8
 1106 0248 FFF7FEFF 		bl	AddRoundKey
 1107              	.LVL132:
 1108 024c 631E     		subs	r3, r4, #1
 1109 024e 08F1AF01 		add	r1, r8, #175
 1110 0252 04F10F00 		add	r0, r4, #15
 1111              	.LVL133:
 1112              	.L57:
 1113              	.LBE51:
 1114              	.LBE50:
ARM GAS  C:\Users\MICHA_~1\AppData\Local\Temp\cclKjML8.s 			page 33


 1115              	.LBB64:
 1116              	.LBB65:
 494:tiny-AES-c-master/aes.c ****   }
 1117              		.loc 1 494 0
 1118 0256 13F8015F 		ldrb	r5, [r3, #1]!	@ zero_extendqisi2
 1119 025a 11F8012F 		ldrb	r2, [r1, #1]!	@ zero_extendqisi2
 492:tiny-AES-c-master/aes.c ****   {
 1120              		.loc 1 492 0
 1121 025e 9842     		cmp	r0, r3
 494:tiny-AES-c-master/aes.c ****   }
 1122              		.loc 1 494 0
 1123 0260 82EA0502 		eor	r2, r2, r5
 1124 0264 1A70     		strb	r2, [r3]
 492:tiny-AES-c-master/aes.c ****   {
 1125              		.loc 1 492 0
 1126 0266 F6D1     		bne	.L57
 1127              	.LVL134:
 1128              	.LBE65:
 1129              	.LBE64:
 521:tiny-AES-c-master/aes.c ****     InvCipher((state_t*)buf, ctx->RoundKey);
 522:tiny-AES-c-master/aes.c ****     XorWithIv(buf, ctx->Iv);
 523:tiny-AES-c-master/aes.c ****     memcpy(ctx->Iv, storeNextIv, AES_BLOCKLEN);
 1130              		.loc 1 523 0 discriminator 3
 1131 0268 10AD     		add	r5, sp, #64
 1132 026a 08F1B002 		add	r2, r8, #176
 1133 026e 14AE     		add	r6, sp, #80
 1134              	.L58:
 1135 0270 2B46     		mov	r3, r5
 1136 0272 03CB     		ldmia	r3!, {r0, r1}
 1137 0274 B342     		cmp	r3, r6
 1138 0276 1060     		str	r0, [r2]	@ unaligned
 1139 0278 5160     		str	r1, [r2, #4]	@ unaligned
 1140 027a 1D46     		mov	r5, r3
 1141 027c 02F10802 		add	r2, r2, #8
 1142 0280 F6D1     		bne	.L58
 524:tiny-AES-c-master/aes.c ****     buf += AES_BLOCKLEN;
 1143              		.loc 1 524 0 discriminator 3
 1144 0282 1034     		adds	r4, r4, #16
 1145              	.LVL135:
 1146 0284 1037     		adds	r7, r7, #16
 1147 0286 C3E6     		b	.L47
 1148              	.LVL136:
 1149              	.L67:
 525:tiny-AES-c-master/aes.c ****   }
 526:tiny-AES-c-master/aes.c **** 
 527:tiny-AES-c-master/aes.c **** }
 1150              		.loc 1 527 0
 1151 0288 15B0     		add	sp, sp, #84
 1152              		.cfi_def_cfa_offset 36
 1153              		@ sp needed
 1154 028a BDE8F08F 		pop	{r4, r5, r6, r7, r8, r9, r10, fp, pc}
 1155              	.LVL137:
 1156              	.L69:
 1157 028e 00BF     		.align	2
 1158              	.L68:
 1159 0290 00000000 		.word	.LANCHOR0
 1160              		.cfi_endproc
ARM GAS  C:\Users\MICHA_~1\AppData\Local\Temp\cclKjML8.s 			page 34


 1161              	.LFE16:
 1162              		.size	AES_CBC_decrypt_buffer, .-AES_CBC_decrypt_buffer
 1163              		.section	.rodata
 1164              		.set	.LANCHOR0,. + 0
 1165              		.type	sbox, %object
 1166              		.size	sbox, 256
 1167              	sbox:
 1168 0000 63       		.byte	99
 1169 0001 7C       		.byte	124
 1170 0002 77       		.byte	119
 1171 0003 7B       		.byte	123
 1172 0004 F2       		.byte	-14
 1173 0005 6B       		.byte	107
 1174 0006 6F       		.byte	111
 1175 0007 C5       		.byte	-59
 1176 0008 30       		.byte	48
 1177 0009 01       		.byte	1
 1178 000a 67       		.byte	103
 1179 000b 2B       		.byte	43
 1180 000c FE       		.byte	-2
 1181 000d D7       		.byte	-41
 1182 000e AB       		.byte	-85
 1183 000f 76       		.byte	118
 1184 0010 CA       		.byte	-54
 1185 0011 82       		.byte	-126
 1186 0012 C9       		.byte	-55
 1187 0013 7D       		.byte	125
 1188 0014 FA       		.byte	-6
 1189 0015 59       		.byte	89
 1190 0016 47       		.byte	71
 1191 0017 F0       		.byte	-16
 1192 0018 AD       		.byte	-83
 1193 0019 D4       		.byte	-44
 1194 001a A2       		.byte	-94
 1195 001b AF       		.byte	-81
 1196 001c 9C       		.byte	-100
 1197 001d A4       		.byte	-92
 1198 001e 72       		.byte	114
 1199 001f C0       		.byte	-64
 1200 0020 B7       		.byte	-73
 1201 0021 FD       		.byte	-3
 1202 0022 93       		.byte	-109
 1203 0023 26       		.byte	38
 1204 0024 36       		.byte	54
 1205 0025 3F       		.byte	63
 1206 0026 F7       		.byte	-9
 1207 0027 CC       		.byte	-52
 1208 0028 34       		.byte	52
 1209 0029 A5       		.byte	-91
 1210 002a E5       		.byte	-27
 1211 002b F1       		.byte	-15
 1212 002c 71       		.byte	113
 1213 002d D8       		.byte	-40
 1214 002e 31       		.byte	49
 1215 002f 15       		.byte	21
 1216 0030 04       		.byte	4
 1217 0031 C7       		.byte	-57
ARM GAS  C:\Users\MICHA_~1\AppData\Local\Temp\cclKjML8.s 			page 35


 1218 0032 23       		.byte	35
 1219 0033 C3       		.byte	-61
 1220 0034 18       		.byte	24
 1221 0035 96       		.byte	-106
 1222 0036 05       		.byte	5
 1223 0037 9A       		.byte	-102
 1224 0038 07       		.byte	7
 1225 0039 12       		.byte	18
 1226 003a 80       		.byte	-128
 1227 003b E2       		.byte	-30
 1228 003c EB       		.byte	-21
 1229 003d 27       		.byte	39
 1230 003e B2       		.byte	-78
 1231 003f 75       		.byte	117
 1232 0040 09       		.byte	9
 1233 0041 83       		.byte	-125
 1234 0042 2C       		.byte	44
 1235 0043 1A       		.byte	26
 1236 0044 1B       		.byte	27
 1237 0045 6E       		.byte	110
 1238 0046 5A       		.byte	90
 1239 0047 A0       		.byte	-96
 1240 0048 52       		.byte	82
 1241 0049 3B       		.byte	59
 1242 004a D6       		.byte	-42
 1243 004b B3       		.byte	-77
 1244 004c 29       		.byte	41
 1245 004d E3       		.byte	-29
 1246 004e 2F       		.byte	47
 1247 004f 84       		.byte	-124
 1248 0050 53       		.byte	83
 1249 0051 D1       		.byte	-47
 1250 0052 00       		.byte	0
 1251 0053 ED       		.byte	-19
 1252 0054 20       		.byte	32
 1253 0055 FC       		.byte	-4
 1254 0056 B1       		.byte	-79
 1255 0057 5B       		.byte	91
 1256 0058 6A       		.byte	106
 1257 0059 CB       		.byte	-53
 1258 005a BE       		.byte	-66
 1259 005b 39       		.byte	57
 1260 005c 4A       		.byte	74
 1261 005d 4C       		.byte	76
 1262 005e 58       		.byte	88
 1263 005f CF       		.byte	-49
 1264 0060 D0       		.byte	-48
 1265 0061 EF       		.byte	-17
 1266 0062 AA       		.byte	-86
 1267 0063 FB       		.byte	-5
 1268 0064 43       		.byte	67
 1269 0065 4D       		.byte	77
 1270 0066 33       		.byte	51
 1271 0067 85       		.byte	-123
 1272 0068 45       		.byte	69
 1273 0069 F9       		.byte	-7
 1274 006a 02       		.byte	2
ARM GAS  C:\Users\MICHA_~1\AppData\Local\Temp\cclKjML8.s 			page 36


 1275 006b 7F       		.byte	127
 1276 006c 50       		.byte	80
 1277 006d 3C       		.byte	60
 1278 006e 9F       		.byte	-97
 1279 006f A8       		.byte	-88
 1280 0070 51       		.byte	81
 1281 0071 A3       		.byte	-93
 1282 0072 40       		.byte	64
 1283 0073 8F       		.byte	-113
 1284 0074 92       		.byte	-110
 1285 0075 9D       		.byte	-99
 1286 0076 38       		.byte	56
 1287 0077 F5       		.byte	-11
 1288 0078 BC       		.byte	-68
 1289 0079 B6       		.byte	-74
 1290 007a DA       		.byte	-38
 1291 007b 21       		.byte	33
 1292 007c 10       		.byte	16
 1293 007d FF       		.byte	-1
 1294 007e F3       		.byte	-13
 1295 007f D2       		.byte	-46
 1296 0080 CD       		.byte	-51
 1297 0081 0C       		.byte	12
 1298 0082 13       		.byte	19
 1299 0083 EC       		.byte	-20
 1300 0084 5F       		.byte	95
 1301 0085 97       		.byte	-105
 1302 0086 44       		.byte	68
 1303 0087 17       		.byte	23
 1304 0088 C4       		.byte	-60
 1305 0089 A7       		.byte	-89
 1306 008a 7E       		.byte	126
 1307 008b 3D       		.byte	61
 1308 008c 64       		.byte	100
 1309 008d 5D       		.byte	93
 1310 008e 19       		.byte	25
 1311 008f 73       		.byte	115
 1312 0090 60       		.byte	96
 1313 0091 81       		.byte	-127
 1314 0092 4F       		.byte	79
 1315 0093 DC       		.byte	-36
 1316 0094 22       		.byte	34
 1317 0095 2A       		.byte	42
 1318 0096 90       		.byte	-112
 1319 0097 88       		.byte	-120
 1320 0098 46       		.byte	70
 1321 0099 EE       		.byte	-18
 1322 009a B8       		.byte	-72
 1323 009b 14       		.byte	20
 1324 009c DE       		.byte	-34
 1325 009d 5E       		.byte	94
 1326 009e 0B       		.byte	11
 1327 009f DB       		.byte	-37
 1328 00a0 E0       		.byte	-32
 1329 00a1 32       		.byte	50
 1330 00a2 3A       		.byte	58
 1331 00a3 0A       		.byte	10
ARM GAS  C:\Users\MICHA_~1\AppData\Local\Temp\cclKjML8.s 			page 37


 1332 00a4 49       		.byte	73
 1333 00a5 06       		.byte	6
 1334 00a6 24       		.byte	36
 1335 00a7 5C       		.byte	92
 1336 00a8 C2       		.byte	-62
 1337 00a9 D3       		.byte	-45
 1338 00aa AC       		.byte	-84
 1339 00ab 62       		.byte	98
 1340 00ac 91       		.byte	-111
 1341 00ad 95       		.byte	-107
 1342 00ae E4       		.byte	-28
 1343 00af 79       		.byte	121
 1344 00b0 E7       		.byte	-25
 1345 00b1 C8       		.byte	-56
 1346 00b2 37       		.byte	55
 1347 00b3 6D       		.byte	109
 1348 00b4 8D       		.byte	-115
 1349 00b5 D5       		.byte	-43
 1350 00b6 4E       		.byte	78
 1351 00b7 A9       		.byte	-87
 1352 00b8 6C       		.byte	108
 1353 00b9 56       		.byte	86
 1354 00ba F4       		.byte	-12
 1355 00bb EA       		.byte	-22
 1356 00bc 65       		.byte	101
 1357 00bd 7A       		.byte	122
 1358 00be AE       		.byte	-82
 1359 00bf 08       		.byte	8
 1360 00c0 BA       		.byte	-70
 1361 00c1 78       		.byte	120
 1362 00c2 25       		.byte	37
 1363 00c3 2E       		.byte	46
 1364 00c4 1C       		.byte	28
 1365 00c5 A6       		.byte	-90
 1366 00c6 B4       		.byte	-76
 1367 00c7 C6       		.byte	-58
 1368 00c8 E8       		.byte	-24
 1369 00c9 DD       		.byte	-35
 1370 00ca 74       		.byte	116
 1371 00cb 1F       		.byte	31
 1372 00cc 4B       		.byte	75
 1373 00cd BD       		.byte	-67
 1374 00ce 8B       		.byte	-117
 1375 00cf 8A       		.byte	-118
 1376 00d0 70       		.byte	112
 1377 00d1 3E       		.byte	62
 1378 00d2 B5       		.byte	-75
 1379 00d3 66       		.byte	102
 1380 00d4 48       		.byte	72
 1381 00d5 03       		.byte	3
 1382 00d6 F6       		.byte	-10
 1383 00d7 0E       		.byte	14
 1384 00d8 61       		.byte	97
 1385 00d9 35       		.byte	53
 1386 00da 57       		.byte	87
 1387 00db B9       		.byte	-71
 1388 00dc 86       		.byte	-122
ARM GAS  C:\Users\MICHA_~1\AppData\Local\Temp\cclKjML8.s 			page 38


 1389 00dd C1       		.byte	-63
 1390 00de 1D       		.byte	29
 1391 00df 9E       		.byte	-98
 1392 00e0 E1       		.byte	-31
 1393 00e1 F8       		.byte	-8
 1394 00e2 98       		.byte	-104
 1395 00e3 11       		.byte	17
 1396 00e4 69       		.byte	105
 1397 00e5 D9       		.byte	-39
 1398 00e6 8E       		.byte	-114
 1399 00e7 94       		.byte	-108
 1400 00e8 9B       		.byte	-101
 1401 00e9 1E       		.byte	30
 1402 00ea 87       		.byte	-121
 1403 00eb E9       		.byte	-23
 1404 00ec CE       		.byte	-50
 1405 00ed 55       		.byte	85
 1406 00ee 28       		.byte	40
 1407 00ef DF       		.byte	-33
 1408 00f0 8C       		.byte	-116
 1409 00f1 A1       		.byte	-95
 1410 00f2 89       		.byte	-119
 1411 00f3 0D       		.byte	13
 1412 00f4 BF       		.byte	-65
 1413 00f5 E6       		.byte	-26
 1414 00f6 42       		.byte	66
 1415 00f7 68       		.byte	104
 1416 00f8 41       		.byte	65
 1417 00f9 99       		.byte	-103
 1418 00fa 2D       		.byte	45
 1419 00fb 0F       		.byte	15
 1420 00fc B0       		.byte	-80
 1421 00fd 54       		.byte	84
 1422 00fe BB       		.byte	-69
 1423 00ff 16       		.byte	22
 1424              		.type	Rcon, %object
 1425              		.size	Rcon, 11
 1426              	Rcon:
 1427 0100 8D       		.byte	-115
 1428 0101 01       		.byte	1
 1429 0102 02       		.byte	2
 1430 0103 04       		.byte	4
 1431 0104 08       		.byte	8
 1432 0105 10       		.byte	16
 1433 0106 20       		.byte	32
 1434 0107 40       		.byte	64
 1435 0108 80       		.byte	-128
 1436 0109 1B       		.byte	27
 1437 010a 36       		.byte	54
 1438              		.type	rsbox, %object
 1439              		.size	rsbox, 256
 1440              	rsbox:
 1441 010b 52       		.byte	82
 1442 010c 09       		.byte	9
 1443 010d 6A       		.byte	106
 1444 010e D5       		.byte	-43
 1445 010f 30       		.byte	48
ARM GAS  C:\Users\MICHA_~1\AppData\Local\Temp\cclKjML8.s 			page 39


 1446 0110 36       		.byte	54
 1447 0111 A5       		.byte	-91
 1448 0112 38       		.byte	56
 1449 0113 BF       		.byte	-65
 1450 0114 40       		.byte	64
 1451 0115 A3       		.byte	-93
 1452 0116 9E       		.byte	-98
 1453 0117 81       		.byte	-127
 1454 0118 F3       		.byte	-13
 1455 0119 D7       		.byte	-41
 1456 011a FB       		.byte	-5
 1457 011b 7C       		.byte	124
 1458 011c E3       		.byte	-29
 1459 011d 39       		.byte	57
 1460 011e 82       		.byte	-126
 1461 011f 9B       		.byte	-101
 1462 0120 2F       		.byte	47
 1463 0121 FF       		.byte	-1
 1464 0122 87       		.byte	-121
 1465 0123 34       		.byte	52
 1466 0124 8E       		.byte	-114
 1467 0125 43       		.byte	67
 1468 0126 44       		.byte	68
 1469 0127 C4       		.byte	-60
 1470 0128 DE       		.byte	-34
 1471 0129 E9       		.byte	-23
 1472 012a CB       		.byte	-53
 1473 012b 54       		.byte	84
 1474 012c 7B       		.byte	123
 1475 012d 94       		.byte	-108
 1476 012e 32       		.byte	50
 1477 012f A6       		.byte	-90
 1478 0130 C2       		.byte	-62
 1479 0131 23       		.byte	35
 1480 0132 3D       		.byte	61
 1481 0133 EE       		.byte	-18
 1482 0134 4C       		.byte	76
 1483 0135 95       		.byte	-107
 1484 0136 0B       		.byte	11
 1485 0137 42       		.byte	66
 1486 0138 FA       		.byte	-6
 1487 0139 C3       		.byte	-61
 1488 013a 4E       		.byte	78
 1489 013b 08       		.byte	8
 1490 013c 2E       		.byte	46
 1491 013d A1       		.byte	-95
 1492 013e 66       		.byte	102
 1493 013f 28       		.byte	40
 1494 0140 D9       		.byte	-39
 1495 0141 24       		.byte	36
 1496 0142 B2       		.byte	-78
 1497 0143 76       		.byte	118
 1498 0144 5B       		.byte	91
 1499 0145 A2       		.byte	-94
 1500 0146 49       		.byte	73
 1501 0147 6D       		.byte	109
 1502 0148 8B       		.byte	-117
ARM GAS  C:\Users\MICHA_~1\AppData\Local\Temp\cclKjML8.s 			page 40


 1503 0149 D1       		.byte	-47
 1504 014a 25       		.byte	37
 1505 014b 72       		.byte	114
 1506 014c F8       		.byte	-8
 1507 014d F6       		.byte	-10
 1508 014e 64       		.byte	100
 1509 014f 86       		.byte	-122
 1510 0150 68       		.byte	104
 1511 0151 98       		.byte	-104
 1512 0152 16       		.byte	22
 1513 0153 D4       		.byte	-44
 1514 0154 A4       		.byte	-92
 1515 0155 5C       		.byte	92
 1516 0156 CC       		.byte	-52
 1517 0157 5D       		.byte	93
 1518 0158 65       		.byte	101
 1519 0159 B6       		.byte	-74
 1520 015a 92       		.byte	-110
 1521 015b 6C       		.byte	108
 1522 015c 70       		.byte	112
 1523 015d 48       		.byte	72
 1524 015e 50       		.byte	80
 1525 015f FD       		.byte	-3
 1526 0160 ED       		.byte	-19
 1527 0161 B9       		.byte	-71
 1528 0162 DA       		.byte	-38
 1529 0163 5E       		.byte	94
 1530 0164 15       		.byte	21
 1531 0165 46       		.byte	70
 1532 0166 57       		.byte	87
 1533 0167 A7       		.byte	-89
 1534 0168 8D       		.byte	-115
 1535 0169 9D       		.byte	-99
 1536 016a 84       		.byte	-124
 1537 016b 90       		.byte	-112
 1538 016c D8       		.byte	-40
 1539 016d AB       		.byte	-85
 1540 016e 00       		.byte	0
 1541 016f 8C       		.byte	-116
 1542 0170 BC       		.byte	-68
 1543 0171 D3       		.byte	-45
 1544 0172 0A       		.byte	10
 1545 0173 F7       		.byte	-9
 1546 0174 E4       		.byte	-28
 1547 0175 58       		.byte	88
 1548 0176 05       		.byte	5
 1549 0177 B8       		.byte	-72
 1550 0178 B3       		.byte	-77
 1551 0179 45       		.byte	69
 1552 017a 06       		.byte	6
 1553 017b D0       		.byte	-48
 1554 017c 2C       		.byte	44
 1555 017d 1E       		.byte	30
 1556 017e 8F       		.byte	-113
 1557 017f CA       		.byte	-54
 1558 0180 3F       		.byte	63
 1559 0181 0F       		.byte	15
ARM GAS  C:\Users\MICHA_~1\AppData\Local\Temp\cclKjML8.s 			page 41


 1560 0182 02       		.byte	2
 1561 0183 C1       		.byte	-63
 1562 0184 AF       		.byte	-81
 1563 0185 BD       		.byte	-67
 1564 0186 03       		.byte	3
 1565 0187 01       		.byte	1
 1566 0188 13       		.byte	19
 1567 0189 8A       		.byte	-118
 1568 018a 6B       		.byte	107
 1569 018b 3A       		.byte	58
 1570 018c 91       		.byte	-111
 1571 018d 11       		.byte	17
 1572 018e 41       		.byte	65
 1573 018f 4F       		.byte	79
 1574 0190 67       		.byte	103
 1575 0191 DC       		.byte	-36
 1576 0192 EA       		.byte	-22
 1577 0193 97       		.byte	-105
 1578 0194 F2       		.byte	-14
 1579 0195 CF       		.byte	-49
 1580 0196 CE       		.byte	-50
 1581 0197 F0       		.byte	-16
 1582 0198 B4       		.byte	-76
 1583 0199 E6       		.byte	-26
 1584 019a 73       		.byte	115
 1585 019b 96       		.byte	-106
 1586 019c AC       		.byte	-84
 1587 019d 74       		.byte	116
 1588 019e 22       		.byte	34
 1589 019f E7       		.byte	-25
 1590 01a0 AD       		.byte	-83
 1591 01a1 35       		.byte	53
 1592 01a2 85       		.byte	-123
 1593 01a3 E2       		.byte	-30
 1594 01a4 F9       		.byte	-7
 1595 01a5 37       		.byte	55
 1596 01a6 E8       		.byte	-24
 1597 01a7 1C       		.byte	28
 1598 01a8 75       		.byte	117
 1599 01a9 DF       		.byte	-33
 1600 01aa 6E       		.byte	110
 1601 01ab 47       		.byte	71
 1602 01ac F1       		.byte	-15
 1603 01ad 1A       		.byte	26
 1604 01ae 71       		.byte	113
 1605 01af 1D       		.byte	29
 1606 01b0 29       		.byte	41
 1607 01b1 C5       		.byte	-59
 1608 01b2 89       		.byte	-119
 1609 01b3 6F       		.byte	111
 1610 01b4 B7       		.byte	-73
 1611 01b5 62       		.byte	98
 1612 01b6 0E       		.byte	14
 1613 01b7 AA       		.byte	-86
 1614 01b8 18       		.byte	24
 1615 01b9 BE       		.byte	-66
 1616 01ba 1B       		.byte	27
ARM GAS  C:\Users\MICHA_~1\AppData\Local\Temp\cclKjML8.s 			page 42


 1617 01bb FC       		.byte	-4
 1618 01bc 56       		.byte	86
 1619 01bd 3E       		.byte	62
 1620 01be 4B       		.byte	75
 1621 01bf C6       		.byte	-58
 1622 01c0 D2       		.byte	-46
 1623 01c1 79       		.byte	121
 1624 01c2 20       		.byte	32
 1625 01c3 9A       		.byte	-102
 1626 01c4 DB       		.byte	-37
 1627 01c5 C0       		.byte	-64
 1628 01c6 FE       		.byte	-2
 1629 01c7 78       		.byte	120
 1630 01c8 CD       		.byte	-51
 1631 01c9 5A       		.byte	90
 1632 01ca F4       		.byte	-12
 1633 01cb 1F       		.byte	31
 1634 01cc DD       		.byte	-35
 1635 01cd A8       		.byte	-88
 1636 01ce 33       		.byte	51
 1637 01cf 88       		.byte	-120
 1638 01d0 07       		.byte	7
 1639 01d1 C7       		.byte	-57
 1640 01d2 31       		.byte	49
 1641 01d3 B1       		.byte	-79
 1642 01d4 12       		.byte	18
 1643 01d5 10       		.byte	16
 1644 01d6 59       		.byte	89
 1645 01d7 27       		.byte	39
 1646 01d8 80       		.byte	-128
 1647 01d9 EC       		.byte	-20
 1648 01da 5F       		.byte	95
 1649 01db 60       		.byte	96
 1650 01dc 51       		.byte	81
 1651 01dd 7F       		.byte	127
 1652 01de A9       		.byte	-87
 1653 01df 19       		.byte	25
 1654 01e0 B5       		.byte	-75
 1655 01e1 4A       		.byte	74
 1656 01e2 0D       		.byte	13
 1657 01e3 2D       		.byte	45
 1658 01e4 E5       		.byte	-27
 1659 01e5 7A       		.byte	122
 1660 01e6 9F       		.byte	-97
 1661 01e7 93       		.byte	-109
 1662 01e8 C9       		.byte	-55
 1663 01e9 9C       		.byte	-100
 1664 01ea EF       		.byte	-17
 1665 01eb A0       		.byte	-96
 1666 01ec E0       		.byte	-32
 1667 01ed 3B       		.byte	59
 1668 01ee 4D       		.byte	77
 1669 01ef AE       		.byte	-82
 1670 01f0 2A       		.byte	42
 1671 01f1 F5       		.byte	-11
 1672 01f2 B0       		.byte	-80
 1673 01f3 C8       		.byte	-56
ARM GAS  C:\Users\MICHA_~1\AppData\Local\Temp\cclKjML8.s 			page 43


 1674 01f4 EB       		.byte	-21
 1675 01f5 BB       		.byte	-69
 1676 01f6 3C       		.byte	60
 1677 01f7 83       		.byte	-125
 1678 01f8 53       		.byte	83
 1679 01f9 99       		.byte	-103
 1680 01fa 61       		.byte	97
 1681 01fb 17       		.byte	23
 1682 01fc 2B       		.byte	43
 1683 01fd 04       		.byte	4
 1684 01fe 7E       		.byte	126
 1685 01ff BA       		.byte	-70
 1686 0200 77       		.byte	119
 1687 0201 D6       		.byte	-42
 1688 0202 26       		.byte	38
 1689 0203 E1       		.byte	-31
 1690 0204 69       		.byte	105
 1691 0205 14       		.byte	20
 1692 0206 63       		.byte	99
 1693 0207 55       		.byte	85
 1694 0208 21       		.byte	33
 1695 0209 0C       		.byte	12
 1696 020a 7D       		.byte	125
 1697              		.text
 1698              	.Letext0:
 1699              		.file 2 "c:\\program files (x86)\\cypress\\psoc creator\\4.2\\psoc creator\\import\\gnu\\arm\\5.4.
 1700              		.file 3 "c:\\program files (x86)\\cypress\\psoc creator\\4.2\\psoc creator\\import\\gnu\\arm\\5.4.
 1701              		.file 4 "tiny-AES-c-master\\aes.h"