ARM GAS  C:\Users\MICHA_~1\AppData\Local\Temp\cceBklST.s 			page 1


   1              		.syntax unified
   2              		.cpu cortex-m3
   3              		.fpu softvfp
   4              		.eabi_attribute 20, 1
   5              		.eabi_attribute 21, 1
   6              		.eabi_attribute 23, 3
   7              		.eabi_attribute 24, 1
   8              		.eabi_attribute 25, 1
   9              		.eabi_attribute 26, 1
  10              		.eabi_attribute 30, 4
  11              		.eabi_attribute 34, 1
  12              		.eabi_attribute 18, 4
  13              		.thumb
  14              		.syntax unified
  15              		.file	"cyfitter_cfg.c"
  16              		.text
  17              	.Ltext0:
  18              		.cfi_sections	.debug_frame
  19              		.section	.text.SetAnalogRoutingPumps,"ax",%progbits
  20              		.align	1
  21              		.global	SetAnalogRoutingPumps
  22              		.thumb
  23              		.thumb_func
  24              		.type	SetAnalogRoutingPumps, %function
  25              	SetAnalogRoutingPumps:
  26              	.LFB7:
  27              		.file 1 "Generated_Source\\PSoC5\\cyfitter_cfg.c"
   1:Generated_Source\PSoC5/cyfitter_cfg.c **** 
   2:Generated_Source\PSoC5/cyfitter_cfg.c **** /*******************************************************************************
   3:Generated_Source\PSoC5/cyfitter_cfg.c **** * File Name: cyfitter_cfg.c
   4:Generated_Source\PSoC5/cyfitter_cfg.c **** * 
   5:Generated_Source\PSoC5/cyfitter_cfg.c **** * PSoC Creator  4.2
   6:Generated_Source\PSoC5/cyfitter_cfg.c **** *
   7:Generated_Source\PSoC5/cyfitter_cfg.c **** * Description:
   8:Generated_Source\PSoC5/cyfitter_cfg.c **** * This file contains device initialization code.
   9:Generated_Source\PSoC5/cyfitter_cfg.c **** * Except for the user defined sections in CyClockStartupError(), this file should not be modified.
  10:Generated_Source\PSoC5/cyfitter_cfg.c **** * This file is automatically generated by PSoC Creator.
  11:Generated_Source\PSoC5/cyfitter_cfg.c **** *
  12:Generated_Source\PSoC5/cyfitter_cfg.c **** ********************************************************************************
  13:Generated_Source\PSoC5/cyfitter_cfg.c **** * Copyright (c) 2007-2018 Cypress Semiconductor.  All rights reserved.
  14:Generated_Source\PSoC5/cyfitter_cfg.c **** * You may use this file only in accordance with the license, terms, conditions, 
  15:Generated_Source\PSoC5/cyfitter_cfg.c **** * disclaimers, and limitations in the end user license agreement accompanying 
  16:Generated_Source\PSoC5/cyfitter_cfg.c **** * the software package with which this file was provided.
  17:Generated_Source\PSoC5/cyfitter_cfg.c **** ********************************************************************************/
  18:Generated_Source\PSoC5/cyfitter_cfg.c **** 
  19:Generated_Source\PSoC5/cyfitter_cfg.c **** #include <string.h>
  20:Generated_Source\PSoC5/cyfitter_cfg.c **** #include "cytypes.h"
  21:Generated_Source\PSoC5/cyfitter_cfg.c **** #include "cydevice_trm.h"
  22:Generated_Source\PSoC5/cyfitter_cfg.c **** #include "cyfitter.h"
  23:Generated_Source\PSoC5/cyfitter_cfg.c **** #include "CyLib.h"
  24:Generated_Source\PSoC5/cyfitter_cfg.c **** #include "cyfitter_cfg.h"
  25:Generated_Source\PSoC5/cyfitter_cfg.c **** 
  26:Generated_Source\PSoC5/cyfitter_cfg.c **** #define CY_NEED_CYCLOCKSTARTUPERROR 1
  27:Generated_Source\PSoC5/cyfitter_cfg.c **** 
  28:Generated_Source\PSoC5/cyfitter_cfg.c **** 
  29:Generated_Source\PSoC5/cyfitter_cfg.c **** #if defined(__GNUC__) || defined(__ARMCC_VERSION)
  30:Generated_Source\PSoC5/cyfitter_cfg.c ****     #define CYPACKED 
ARM GAS  C:\Users\MICHA_~1\AppData\Local\Temp\cceBklST.s 			page 2


  31:Generated_Source\PSoC5/cyfitter_cfg.c ****     #define CYPACKED_ATTR __attribute__ ((packed))
  32:Generated_Source\PSoC5/cyfitter_cfg.c ****     #define CYALIGNED __attribute__ ((aligned))
  33:Generated_Source\PSoC5/cyfitter_cfg.c ****     #define CY_CFG_UNUSED __attribute__ ((unused))
  34:Generated_Source\PSoC5/cyfitter_cfg.c ****     #ifndef CY_CFG_SECTION
  35:Generated_Source\PSoC5/cyfitter_cfg.c ****         #define CY_CFG_SECTION __attribute__ ((section(".psocinit")))
  36:Generated_Source\PSoC5/cyfitter_cfg.c ****     #endif
  37:Generated_Source\PSoC5/cyfitter_cfg.c ****     
  38:Generated_Source\PSoC5/cyfitter_cfg.c ****     #if defined(__ARMCC_VERSION)
  39:Generated_Source\PSoC5/cyfitter_cfg.c ****         #define CY_CFG_MEMORY_BARRIER() __memory_changed()
  40:Generated_Source\PSoC5/cyfitter_cfg.c ****     #else
  41:Generated_Source\PSoC5/cyfitter_cfg.c ****         #define CY_CFG_MEMORY_BARRIER() __sync_synchronize()
  42:Generated_Source\PSoC5/cyfitter_cfg.c ****     #endif
  43:Generated_Source\PSoC5/cyfitter_cfg.c ****     
  44:Generated_Source\PSoC5/cyfitter_cfg.c **** #elif defined(__ICCARM__)
  45:Generated_Source\PSoC5/cyfitter_cfg.c ****     #include <intrinsics.h>
  46:Generated_Source\PSoC5/cyfitter_cfg.c **** 
  47:Generated_Source\PSoC5/cyfitter_cfg.c ****     #define CYPACKED __packed
  48:Generated_Source\PSoC5/cyfitter_cfg.c ****     #define CYPACKED_ATTR 
  49:Generated_Source\PSoC5/cyfitter_cfg.c ****     #define CYALIGNED _Pragma("data_alignment=4")
  50:Generated_Source\PSoC5/cyfitter_cfg.c ****     #define CY_CFG_UNUSED _Pragma("diag_suppress=Pe177")
  51:Generated_Source\PSoC5/cyfitter_cfg.c ****     #define CY_CFG_SECTION _Pragma("location=\".psocinit\"")
  52:Generated_Source\PSoC5/cyfitter_cfg.c ****     
  53:Generated_Source\PSoC5/cyfitter_cfg.c ****     #define CY_CFG_MEMORY_BARRIER() __DMB()
  54:Generated_Source\PSoC5/cyfitter_cfg.c ****     
  55:Generated_Source\PSoC5/cyfitter_cfg.c **** #else
  56:Generated_Source\PSoC5/cyfitter_cfg.c ****     #error Unsupported toolchain
  57:Generated_Source\PSoC5/cyfitter_cfg.c **** #endif
  58:Generated_Source\PSoC5/cyfitter_cfg.c **** 
  59:Generated_Source\PSoC5/cyfitter_cfg.c **** #ifndef CYCODE
  60:Generated_Source\PSoC5/cyfitter_cfg.c ****     #define CYCODE
  61:Generated_Source\PSoC5/cyfitter_cfg.c **** #endif
  62:Generated_Source\PSoC5/cyfitter_cfg.c **** #ifndef CYDATA
  63:Generated_Source\PSoC5/cyfitter_cfg.c ****     #define CYDATA
  64:Generated_Source\PSoC5/cyfitter_cfg.c **** #endif
  65:Generated_Source\PSoC5/cyfitter_cfg.c **** #ifndef CYFAR
  66:Generated_Source\PSoC5/cyfitter_cfg.c ****     #define CYFAR
  67:Generated_Source\PSoC5/cyfitter_cfg.c **** #endif
  68:Generated_Source\PSoC5/cyfitter_cfg.c **** #ifndef CYXDATA
  69:Generated_Source\PSoC5/cyfitter_cfg.c ****     #define CYXDATA
  70:Generated_Source\PSoC5/cyfitter_cfg.c **** #endif
  71:Generated_Source\PSoC5/cyfitter_cfg.c **** 
  72:Generated_Source\PSoC5/cyfitter_cfg.c **** 
  73:Generated_Source\PSoC5/cyfitter_cfg.c **** CY_CFG_UNUSED
  74:Generated_Source\PSoC5/cyfitter_cfg.c **** static void CYMEMZERO(void *s, size_t n);
  75:Generated_Source\PSoC5/cyfitter_cfg.c **** CY_CFG_UNUSED
  76:Generated_Source\PSoC5/cyfitter_cfg.c **** static void CYMEMZERO(void *s, size_t n)
  77:Generated_Source\PSoC5/cyfitter_cfg.c **** {
  78:Generated_Source\PSoC5/cyfitter_cfg.c **** 	(void)memset(s, 0, n);
  79:Generated_Source\PSoC5/cyfitter_cfg.c **** }
  80:Generated_Source\PSoC5/cyfitter_cfg.c **** CY_CFG_UNUSED
  81:Generated_Source\PSoC5/cyfitter_cfg.c **** static void CYCONFIGCPY(void *dest, const void *src, size_t n);
  82:Generated_Source\PSoC5/cyfitter_cfg.c **** CY_CFG_UNUSED
  83:Generated_Source\PSoC5/cyfitter_cfg.c **** static void CYCONFIGCPY(void *dest, const void *src, size_t n)
  84:Generated_Source\PSoC5/cyfitter_cfg.c **** {
  85:Generated_Source\PSoC5/cyfitter_cfg.c **** 	(void)memcpy(dest, src, n);
  86:Generated_Source\PSoC5/cyfitter_cfg.c **** }
  87:Generated_Source\PSoC5/cyfitter_cfg.c **** CY_CFG_UNUSED
ARM GAS  C:\Users\MICHA_~1\AppData\Local\Temp\cceBklST.s 			page 3


  88:Generated_Source\PSoC5/cyfitter_cfg.c **** static void CYCONFIGCPYCODE(void *dest, const void *src, size_t n);
  89:Generated_Source\PSoC5/cyfitter_cfg.c **** CY_CFG_UNUSED
  90:Generated_Source\PSoC5/cyfitter_cfg.c **** static void CYCONFIGCPYCODE(void *dest, const void *src, size_t n)
  91:Generated_Source\PSoC5/cyfitter_cfg.c **** {
  92:Generated_Source\PSoC5/cyfitter_cfg.c **** 	(void)memcpy(dest, src, n);
  93:Generated_Source\PSoC5/cyfitter_cfg.c **** }
  94:Generated_Source\PSoC5/cyfitter_cfg.c **** 
  95:Generated_Source\PSoC5/cyfitter_cfg.c **** 
  96:Generated_Source\PSoC5/cyfitter_cfg.c **** 
  97:Generated_Source\PSoC5/cyfitter_cfg.c **** 
  98:Generated_Source\PSoC5/cyfitter_cfg.c **** /* Clock startup error codes                                                   */
  99:Generated_Source\PSoC5/cyfitter_cfg.c **** #define CYCLOCKSTART_NO_ERROR    0u
 100:Generated_Source\PSoC5/cyfitter_cfg.c **** #define CYCLOCKSTART_XTAL_ERROR  1u
 101:Generated_Source\PSoC5/cyfitter_cfg.c **** #define CYCLOCKSTART_32KHZ_ERROR 2u
 102:Generated_Source\PSoC5/cyfitter_cfg.c **** #define CYCLOCKSTART_PLL_ERROR   3u
 103:Generated_Source\PSoC5/cyfitter_cfg.c **** #define CYCLOCKSTART_FLL_ERROR   4u
 104:Generated_Source\PSoC5/cyfitter_cfg.c **** #define CYCLOCKSTART_WCO_ERROR   5u
 105:Generated_Source\PSoC5/cyfitter_cfg.c **** 
 106:Generated_Source\PSoC5/cyfitter_cfg.c **** 
 107:Generated_Source\PSoC5/cyfitter_cfg.c **** #ifdef CY_NEED_CYCLOCKSTARTUPERROR
 108:Generated_Source\PSoC5/cyfitter_cfg.c **** /*******************************************************************************
 109:Generated_Source\PSoC5/cyfitter_cfg.c **** * Function Name: CyClockStartupError
 110:Generated_Source\PSoC5/cyfitter_cfg.c **** ********************************************************************************
 111:Generated_Source\PSoC5/cyfitter_cfg.c **** * Summary:
 112:Generated_Source\PSoC5/cyfitter_cfg.c **** *  If an error is encountered during clock configuration (crystal startup error,
 113:Generated_Source\PSoC5/cyfitter_cfg.c **** *  PLL lock error, etc.), the system will end up here.  Unless reimplemented by
 114:Generated_Source\PSoC5/cyfitter_cfg.c **** *  the customer, this function will stop in an infinite loop.
 115:Generated_Source\PSoC5/cyfitter_cfg.c **** *
 116:Generated_Source\PSoC5/cyfitter_cfg.c **** * Parameters:
 117:Generated_Source\PSoC5/cyfitter_cfg.c **** *   void
 118:Generated_Source\PSoC5/cyfitter_cfg.c **** *
 119:Generated_Source\PSoC5/cyfitter_cfg.c **** * Return:
 120:Generated_Source\PSoC5/cyfitter_cfg.c **** *   void
 121:Generated_Source\PSoC5/cyfitter_cfg.c **** *
 122:Generated_Source\PSoC5/cyfitter_cfg.c **** *******************************************************************************/
 123:Generated_Source\PSoC5/cyfitter_cfg.c **** CY_CFG_UNUSED
 124:Generated_Source\PSoC5/cyfitter_cfg.c **** static void CyClockStartupError(uint8 errorCode);
 125:Generated_Source\PSoC5/cyfitter_cfg.c **** CY_CFG_UNUSED
 126:Generated_Source\PSoC5/cyfitter_cfg.c **** static void CyClockStartupError(uint8 errorCode)
 127:Generated_Source\PSoC5/cyfitter_cfg.c **** {
 128:Generated_Source\PSoC5/cyfitter_cfg.c ****     /* To remove the compiler warning if errorCode not used.                */
 129:Generated_Source\PSoC5/cyfitter_cfg.c ****     errorCode = errorCode;
 130:Generated_Source\PSoC5/cyfitter_cfg.c **** 
 131:Generated_Source\PSoC5/cyfitter_cfg.c ****     /* If we have a clock startup error (bad MHz crystal, PLL lock, etc.),  */
 132:Generated_Source\PSoC5/cyfitter_cfg.c ****     /* we will end up here to allow the customer to implement something to  */
 133:Generated_Source\PSoC5/cyfitter_cfg.c ****     /* deal with the clock condition.                                       */
 134:Generated_Source\PSoC5/cyfitter_cfg.c **** 
 135:Generated_Source\PSoC5/cyfitter_cfg.c **** #ifdef CY_CFG_CLOCK_STARTUP_ERROR_CALLBACK
 136:Generated_Source\PSoC5/cyfitter_cfg.c ****     CY_CFG_Clock_Startup_ErrorCallback();
 137:Generated_Source\PSoC5/cyfitter_cfg.c **** #else
 138:Generated_Source\PSoC5/cyfitter_cfg.c ****     /*  If not using CY_CFG_CLOCK_STARTUP_ERROR_CALLBACK, place your clock startup code here. */
 139:Generated_Source\PSoC5/cyfitter_cfg.c ****     /* `#START CyClockStartupError` */
 140:Generated_Source\PSoC5/cyfitter_cfg.c **** 
 141:Generated_Source\PSoC5/cyfitter_cfg.c ****     /* If we have a clock startup error (bad MHz crystal, PLL lock, etc.),  */
 142:Generated_Source\PSoC5/cyfitter_cfg.c ****     /* we will end up here to allow the customer to implement something to  */
 143:Generated_Source\PSoC5/cyfitter_cfg.c ****     /* deal with the clock condition.                                       */
 144:Generated_Source\PSoC5/cyfitter_cfg.c **** 
ARM GAS  C:\Users\MICHA_~1\AppData\Local\Temp\cceBklST.s 			page 4


 145:Generated_Source\PSoC5/cyfitter_cfg.c ****     /* `#END` */
 146:Generated_Source\PSoC5/cyfitter_cfg.c **** 
 147:Generated_Source\PSoC5/cyfitter_cfg.c ****     while(1) {}
 148:Generated_Source\PSoC5/cyfitter_cfg.c **** #endif /* CY_CFG_CLOCK_STARTUP_ERROR_CALLBACK */
 149:Generated_Source\PSoC5/cyfitter_cfg.c **** }
 150:Generated_Source\PSoC5/cyfitter_cfg.c **** #endif
 151:Generated_Source\PSoC5/cyfitter_cfg.c **** 
 152:Generated_Source\PSoC5/cyfitter_cfg.c **** #define CY_CFG_BASE_ADDR_COUNT 12u
 153:Generated_Source\PSoC5/cyfitter_cfg.c **** CYPACKED typedef struct
 154:Generated_Source\PSoC5/cyfitter_cfg.c **** {
 155:Generated_Source\PSoC5/cyfitter_cfg.c **** 	uint8 offset;
 156:Generated_Source\PSoC5/cyfitter_cfg.c **** 	uint8 value;
 157:Generated_Source\PSoC5/cyfitter_cfg.c **** } CYPACKED_ATTR cy_cfg_addrvalue_t;
 158:Generated_Source\PSoC5/cyfitter_cfg.c **** 
 159:Generated_Source\PSoC5/cyfitter_cfg.c **** 
 160:Generated_Source\PSoC5/cyfitter_cfg.c **** 
 161:Generated_Source\PSoC5/cyfitter_cfg.c **** /*******************************************************************************
 162:Generated_Source\PSoC5/cyfitter_cfg.c **** * Function Name: cfg_write_bytes32
 163:Generated_Source\PSoC5/cyfitter_cfg.c **** ********************************************************************************
 164:Generated_Source\PSoC5/cyfitter_cfg.c **** * Summary:
 165:Generated_Source\PSoC5/cyfitter_cfg.c **** *  This function is used for setting up the chip configuration areas that
 166:Generated_Source\PSoC5/cyfitter_cfg.c **** *  contain relatively sparse data.
 167:Generated_Source\PSoC5/cyfitter_cfg.c **** *
 168:Generated_Source\PSoC5/cyfitter_cfg.c **** * Parameters:
 169:Generated_Source\PSoC5/cyfitter_cfg.c **** *   void
 170:Generated_Source\PSoC5/cyfitter_cfg.c **** *
 171:Generated_Source\PSoC5/cyfitter_cfg.c **** * Return:
 172:Generated_Source\PSoC5/cyfitter_cfg.c **** *   void
 173:Generated_Source\PSoC5/cyfitter_cfg.c **** *
 174:Generated_Source\PSoC5/cyfitter_cfg.c **** *******************************************************************************/
 175:Generated_Source\PSoC5/cyfitter_cfg.c **** static void cfg_write_bytes32(const uint32 addr_table[], const cy_cfg_addrvalue_t data_table[]);
 176:Generated_Source\PSoC5/cyfitter_cfg.c **** static void cfg_write_bytes32(const uint32 addr_table[], const cy_cfg_addrvalue_t data_table[])
 177:Generated_Source\PSoC5/cyfitter_cfg.c **** {
 178:Generated_Source\PSoC5/cyfitter_cfg.c **** 	/* For 32-bit little-endian architectures */
 179:Generated_Source\PSoC5/cyfitter_cfg.c **** 	uint32 i, j = 0u;
 180:Generated_Source\PSoC5/cyfitter_cfg.c **** 	for (i = 0u; i < CY_CFG_BASE_ADDR_COUNT; i++)
 181:Generated_Source\PSoC5/cyfitter_cfg.c **** 	{
 182:Generated_Source\PSoC5/cyfitter_cfg.c **** 		uint32 baseAddr = addr_table[i];
 183:Generated_Source\PSoC5/cyfitter_cfg.c **** 		uint8 count = (uint8)baseAddr;
 184:Generated_Source\PSoC5/cyfitter_cfg.c **** 		baseAddr &= 0xFFFFFF00u;
 185:Generated_Source\PSoC5/cyfitter_cfg.c **** 		while (count != 0u)
 186:Generated_Source\PSoC5/cyfitter_cfg.c **** 		{
 187:Generated_Source\PSoC5/cyfitter_cfg.c **** 			CY_SET_REG8((void *)(baseAddr + data_table[j].offset), data_table[j].value);
 188:Generated_Source\PSoC5/cyfitter_cfg.c **** 			j++;
 189:Generated_Source\PSoC5/cyfitter_cfg.c **** 			count--;
 190:Generated_Source\PSoC5/cyfitter_cfg.c **** 		}
 191:Generated_Source\PSoC5/cyfitter_cfg.c **** 	}
 192:Generated_Source\PSoC5/cyfitter_cfg.c **** }
 193:Generated_Source\PSoC5/cyfitter_cfg.c **** 
 194:Generated_Source\PSoC5/cyfitter_cfg.c **** /*******************************************************************************
 195:Generated_Source\PSoC5/cyfitter_cfg.c **** * Function Name: ClockSetup
 196:Generated_Source\PSoC5/cyfitter_cfg.c **** ********************************************************************************
 197:Generated_Source\PSoC5/cyfitter_cfg.c **** *
 198:Generated_Source\PSoC5/cyfitter_cfg.c **** * Summary:
 199:Generated_Source\PSoC5/cyfitter_cfg.c **** *  Performs the initialization of all of the clocks in the device based on the
 200:Generated_Source\PSoC5/cyfitter_cfg.c **** *  settings in the Clock tab of the DWR.  This includes enabling the requested
 201:Generated_Source\PSoC5/cyfitter_cfg.c **** *  clocks and setting the necessary dividers to produce the desired frequency. 
ARM GAS  C:\Users\MICHA_~1\AppData\Local\Temp\cceBklST.s 			page 5


 202:Generated_Source\PSoC5/cyfitter_cfg.c **** *
 203:Generated_Source\PSoC5/cyfitter_cfg.c **** * Parameters:
 204:Generated_Source\PSoC5/cyfitter_cfg.c **** *  void
 205:Generated_Source\PSoC5/cyfitter_cfg.c **** *
 206:Generated_Source\PSoC5/cyfitter_cfg.c **** * Return:
 207:Generated_Source\PSoC5/cyfitter_cfg.c **** *  void
 208:Generated_Source\PSoC5/cyfitter_cfg.c **** *
 209:Generated_Source\PSoC5/cyfitter_cfg.c **** *******************************************************************************/
 210:Generated_Source\PSoC5/cyfitter_cfg.c **** static void ClockSetup(void);
 211:Generated_Source\PSoC5/cyfitter_cfg.c **** static void ClockSetup(void)
 212:Generated_Source\PSoC5/cyfitter_cfg.c **** {
 213:Generated_Source\PSoC5/cyfitter_cfg.c **** 	uint32 timeout;
 214:Generated_Source\PSoC5/cyfitter_cfg.c **** 	uint8 pllLock;
 215:Generated_Source\PSoC5/cyfitter_cfg.c **** 
 216:Generated_Source\PSoC5/cyfitter_cfg.c **** 
 217:Generated_Source\PSoC5/cyfitter_cfg.c **** 	/* Configure ILO based on settings from Clock DWR */
 218:Generated_Source\PSoC5/cyfitter_cfg.c **** 	CY_SET_XTND_REG8((void CYFAR *)(CYREG_SLOWCLK_ILO_CR0), 0x06u);
 219:Generated_Source\PSoC5/cyfitter_cfg.c **** 
 220:Generated_Source\PSoC5/cyfitter_cfg.c **** 	/* Configure IMO based on settings from Clock DWR */
 221:Generated_Source\PSoC5/cyfitter_cfg.c **** 	CY_SET_XTND_REG8((void CYFAR *)(CYREG_FASTCLK_IMO_CR), 0x52u);
 222:Generated_Source\PSoC5/cyfitter_cfg.c **** 	CY_SET_XTND_REG8((void CYFAR *)(CYREG_IMO_TR1), (CY_GET_XTND_REG8((void CYFAR *)CYREG_FLSHID_CUST_
 223:Generated_Source\PSoC5/cyfitter_cfg.c **** 
 224:Generated_Source\PSoC5/cyfitter_cfg.c **** 	/* Configure PLL based on settings from Clock DWR */
 225:Generated_Source\PSoC5/cyfitter_cfg.c **** 	CY_SET_XTND_REG16((void CYFAR *)(CYREG_FASTCLK_PLL_P), 0x0818u);
 226:Generated_Source\PSoC5/cyfitter_cfg.c **** 	CY_SET_XTND_REG16((void CYFAR *)(CYREG_FASTCLK_PLL_CFG0), 0x1251u);
 227:Generated_Source\PSoC5/cyfitter_cfg.c **** 	/* Wait up to 250us for the PLL to lock */
 228:Generated_Source\PSoC5/cyfitter_cfg.c **** 	pllLock = 0u;
 229:Generated_Source\PSoC5/cyfitter_cfg.c **** 	for (timeout = 250u / 10u; (timeout > 0u) && (pllLock != 0x03u); timeout--)
 230:Generated_Source\PSoC5/cyfitter_cfg.c **** 	{ 
 231:Generated_Source\PSoC5/cyfitter_cfg.c **** 		pllLock = 0x03u & ((uint8)((uint8)pllLock << 1) | ((CY_GET_XTND_REG8((void CYFAR *)CYREG_FASTCLK_
 232:Generated_Source\PSoC5/cyfitter_cfg.c **** 		CyDelayCycles(10u * 48u); /* Delay 10us based on 48MHz clock */
 233:Generated_Source\PSoC5/cyfitter_cfg.c **** 	}
 234:Generated_Source\PSoC5/cyfitter_cfg.c **** 	/* If we ran out of time the PLL didn't lock so go to the error function */
 235:Generated_Source\PSoC5/cyfitter_cfg.c **** 	if (timeout == 0u)
 236:Generated_Source\PSoC5/cyfitter_cfg.c **** 	{
 237:Generated_Source\PSoC5/cyfitter_cfg.c **** 		CyClockStartupError(CYCLOCKSTART_PLL_ERROR);
 238:Generated_Source\PSoC5/cyfitter_cfg.c **** 	}
 239:Generated_Source\PSoC5/cyfitter_cfg.c **** 
 240:Generated_Source\PSoC5/cyfitter_cfg.c **** 	/* Configure Bus/Master Clock based on settings from Clock DWR */
 241:Generated_Source\PSoC5/cyfitter_cfg.c **** 	CY_SET_XTND_REG16((void CYFAR *)(CYREG_CLKDIST_MSTR0), 0x0100u);
 242:Generated_Source\PSoC5/cyfitter_cfg.c **** 	CY_SET_XTND_REG8((void CYFAR *)(CYREG_CLKDIST_MSTR0), 0x07u);
 243:Generated_Source\PSoC5/cyfitter_cfg.c **** 	CY_SET_XTND_REG8((void CYFAR *)(CYREG_CLKDIST_BCFG0), 0x00u);
 244:Generated_Source\PSoC5/cyfitter_cfg.c **** 	CY_SET_XTND_REG8((void CYFAR *)(CYREG_CLKDIST_BCFG2), 0x48u);
 245:Generated_Source\PSoC5/cyfitter_cfg.c **** 	CY_SET_XTND_REG8((void CYFAR *)(CYREG_CLKDIST_MSTR0), 0x00u);
 246:Generated_Source\PSoC5/cyfitter_cfg.c **** 
 247:Generated_Source\PSoC5/cyfitter_cfg.c **** 	/* Configure USB Clock based on settings from Clock DWR */
 248:Generated_Source\PSoC5/cyfitter_cfg.c **** 	CY_SET_XTND_REG8((void CYFAR *)(CYREG_CLKDIST_UCFG), 0x00u);
 249:Generated_Source\PSoC5/cyfitter_cfg.c **** 	CY_SET_XTND_REG8((void CYFAR *)(CYREG_CLKDIST_LD), 0x02u);
 250:Generated_Source\PSoC5/cyfitter_cfg.c **** }
 251:Generated_Source\PSoC5/cyfitter_cfg.c **** 
 252:Generated_Source\PSoC5/cyfitter_cfg.c **** 
 253:Generated_Source\PSoC5/cyfitter_cfg.c **** /* Analog API Functions */
 254:Generated_Source\PSoC5/cyfitter_cfg.c **** 
 255:Generated_Source\PSoC5/cyfitter_cfg.c **** 
 256:Generated_Source\PSoC5/cyfitter_cfg.c **** /*******************************************************************************
 257:Generated_Source\PSoC5/cyfitter_cfg.c **** * Function Name: AnalogSetDefault
 258:Generated_Source\PSoC5/cyfitter_cfg.c **** ********************************************************************************
ARM GAS  C:\Users\MICHA_~1\AppData\Local\Temp\cceBklST.s 			page 6


 259:Generated_Source\PSoC5/cyfitter_cfg.c **** *
 260:Generated_Source\PSoC5/cyfitter_cfg.c **** * Summary:
 261:Generated_Source\PSoC5/cyfitter_cfg.c **** *  Sets up the analog portions of the chip to default values based on chip
 262:Generated_Source\PSoC5/cyfitter_cfg.c **** *  configuration options from the project.
 263:Generated_Source\PSoC5/cyfitter_cfg.c **** *
 264:Generated_Source\PSoC5/cyfitter_cfg.c **** * Parameters:
 265:Generated_Source\PSoC5/cyfitter_cfg.c **** *  void
 266:Generated_Source\PSoC5/cyfitter_cfg.c **** *
 267:Generated_Source\PSoC5/cyfitter_cfg.c **** * Return:
 268:Generated_Source\PSoC5/cyfitter_cfg.c **** *  void
 269:Generated_Source\PSoC5/cyfitter_cfg.c **** *
 270:Generated_Source\PSoC5/cyfitter_cfg.c **** *******************************************************************************/
 271:Generated_Source\PSoC5/cyfitter_cfg.c **** static void AnalogSetDefault(void);
 272:Generated_Source\PSoC5/cyfitter_cfg.c **** static void AnalogSetDefault(void)
 273:Generated_Source\PSoC5/cyfitter_cfg.c **** {
 274:Generated_Source\PSoC5/cyfitter_cfg.c **** 	uint8 bg_xover_inl_trim = CY_GET_XTND_REG8((void CYFAR *)(CYREG_FLSHID_MFG_CFG_BG_XOVER_INL_TRIM +
 275:Generated_Source\PSoC5/cyfitter_cfg.c **** 	CY_SET_XTND_REG8((void CYFAR *)(CYREG_BG_DFT0), (bg_xover_inl_trim & 0x07u));
 276:Generated_Source\PSoC5/cyfitter_cfg.c **** 	CY_SET_XTND_REG8((void CYFAR *)(CYREG_BG_DFT1), ((bg_xover_inl_trim >> 4) & 0x0Fu));
 277:Generated_Source\PSoC5/cyfitter_cfg.c **** 	CY_SET_XTND_REG8((void CYFAR *)CYREG_PUMP_CR0, 0x44u);
 278:Generated_Source\PSoC5/cyfitter_cfg.c **** }
 279:Generated_Source\PSoC5/cyfitter_cfg.c **** 
 280:Generated_Source\PSoC5/cyfitter_cfg.c **** 
 281:Generated_Source\PSoC5/cyfitter_cfg.c **** /*******************************************************************************
 282:Generated_Source\PSoC5/cyfitter_cfg.c **** * Function Name: SetAnalogRoutingPumps
 283:Generated_Source\PSoC5/cyfitter_cfg.c **** ********************************************************************************
 284:Generated_Source\PSoC5/cyfitter_cfg.c **** *
 285:Generated_Source\PSoC5/cyfitter_cfg.c **** * Summary:
 286:Generated_Source\PSoC5/cyfitter_cfg.c **** * Enables or disables the analog pumps feeding analog routing switches.
 287:Generated_Source\PSoC5/cyfitter_cfg.c **** * Intended to be called at startup, based on the Vdda system configuration;
 288:Generated_Source\PSoC5/cyfitter_cfg.c **** * may be called during operation when the user informs us that the Vdda voltage
 289:Generated_Source\PSoC5/cyfitter_cfg.c **** * crossed the pump threshold.
 290:Generated_Source\PSoC5/cyfitter_cfg.c **** *
 291:Generated_Source\PSoC5/cyfitter_cfg.c **** * Parameters:
 292:Generated_Source\PSoC5/cyfitter_cfg.c **** *  enabled - 1 to enable the pumps, 0 to disable the pumps
 293:Generated_Source\PSoC5/cyfitter_cfg.c **** *
 294:Generated_Source\PSoC5/cyfitter_cfg.c **** * Return:
 295:Generated_Source\PSoC5/cyfitter_cfg.c **** *  void
 296:Generated_Source\PSoC5/cyfitter_cfg.c **** *
 297:Generated_Source\PSoC5/cyfitter_cfg.c **** *******************************************************************************/
 298:Generated_Source\PSoC5/cyfitter_cfg.c **** void SetAnalogRoutingPumps(uint8 enabled)
 299:Generated_Source\PSoC5/cyfitter_cfg.c **** {
  28              		.loc 1 299 0
  29              		.cfi_startproc
  30              		@ args = 0, pretend = 0, frame = 0
  31              		@ frame_needed = 0, uses_anonymous_args = 0
  32              		@ link register save eliminated.
  33              	.LVL0:
 300:Generated_Source\PSoC5/cyfitter_cfg.c **** 	uint8 regValue = CY_GET_XTND_REG8((void CYFAR *)CYREG_PUMP_CR0);
  34              		.loc 1 300 0
  35 0000 024A     		ldr	r2, .L2
  36 0002 1378     		ldrb	r3, [r2]	@ zero_extendqisi2
  37 0004 DBB2     		uxtb	r3, r3
  38              	.LVL1:
 301:Generated_Source\PSoC5/cyfitter_cfg.c **** 	if (enabled != 0u)
 302:Generated_Source\PSoC5/cyfitter_cfg.c **** 	{
 303:Generated_Source\PSoC5/cyfitter_cfg.c **** 		regValue |= 0x00u;
 304:Generated_Source\PSoC5/cyfitter_cfg.c **** 	}
ARM GAS  C:\Users\MICHA_~1\AppData\Local\Temp\cceBklST.s 			page 7


 305:Generated_Source\PSoC5/cyfitter_cfg.c **** 	else
 306:Generated_Source\PSoC5/cyfitter_cfg.c **** 	{
 307:Generated_Source\PSoC5/cyfitter_cfg.c **** 		regValue &= (uint8)~0x00u;
 308:Generated_Source\PSoC5/cyfitter_cfg.c **** 	}
 309:Generated_Source\PSoC5/cyfitter_cfg.c **** 	CY_SET_XTND_REG8((void CYFAR *)CYREG_PUMP_CR0, regValue);
  39              		.loc 1 309 0
  40 0006 1370     		strb	r3, [r2]
  41 0008 7047     		bx	lr
  42              	.L3:
  43 000a 00BF     		.align	2
  44              	.L2:
  45 000c 76580040 		.word	1073764470
  46              		.cfi_endproc
  47              	.LFE7:
  48              		.size	SetAnalogRoutingPumps, .-SetAnalogRoutingPumps
  49              		.section	.text.cyfitter_cfg,"ax",%progbits
  50              		.align	1
  51              		.global	cyfitter_cfg
  52              		.thumb
  53              		.thumb_func
  54              		.type	cyfitter_cfg, %function
  55              	cyfitter_cfg:
  56              	.LFB8:
 310:Generated_Source\PSoC5/cyfitter_cfg.c **** }
 311:Generated_Source\PSoC5/cyfitter_cfg.c **** 
 312:Generated_Source\PSoC5/cyfitter_cfg.c **** 
 313:Generated_Source\PSoC5/cyfitter_cfg.c **** 
 314:Generated_Source\PSoC5/cyfitter_cfg.c **** 
 315:Generated_Source\PSoC5/cyfitter_cfg.c **** /*******************************************************************************
 316:Generated_Source\PSoC5/cyfitter_cfg.c **** * Function Name: cyfitter_cfg
 317:Generated_Source\PSoC5/cyfitter_cfg.c **** ********************************************************************************
 318:Generated_Source\PSoC5/cyfitter_cfg.c **** * Summary:
 319:Generated_Source\PSoC5/cyfitter_cfg.c **** *  This function is called by the start-up code for the selected device. It
 320:Generated_Source\PSoC5/cyfitter_cfg.c **** *  performs all of the necessary device configuration based on the design
 321:Generated_Source\PSoC5/cyfitter_cfg.c **** *  settings.  This includes settings from the Design Wide Resources (DWR) such
 322:Generated_Source\PSoC5/cyfitter_cfg.c **** *  as Clocks and Pins as well as any component configuration that is necessary.
 323:Generated_Source\PSoC5/cyfitter_cfg.c **** *
 324:Generated_Source\PSoC5/cyfitter_cfg.c **** * Parameters:
 325:Generated_Source\PSoC5/cyfitter_cfg.c **** *   void
 326:Generated_Source\PSoC5/cyfitter_cfg.c **** *
 327:Generated_Source\PSoC5/cyfitter_cfg.c **** * Return:
 328:Generated_Source\PSoC5/cyfitter_cfg.c **** *   void
 329:Generated_Source\PSoC5/cyfitter_cfg.c **** *
 330:Generated_Source\PSoC5/cyfitter_cfg.c **** *******************************************************************************/
 331:Generated_Source\PSoC5/cyfitter_cfg.c **** 
 332:Generated_Source\PSoC5/cyfitter_cfg.c **** void cyfitter_cfg(void)
 333:Generated_Source\PSoC5/cyfitter_cfg.c **** {
  57              		.loc 1 333 0
  58              		.cfi_startproc
  59              		@ args = 0, pretend = 0, frame = 0
  60              		@ frame_needed = 0, uses_anonymous_args = 0
  61 0000 F8B5     		push	{r3, r4, r5, r6, r7, lr}
  62              		.cfi_def_cfa_offset 24
  63              		.cfi_offset 3, -24
  64              		.cfi_offset 4, -20
  65              		.cfi_offset 5, -16
  66              		.cfi_offset 6, -12
ARM GAS  C:\Users\MICHA_~1\AppData\Local\Temp\cceBklST.s 			page 8


  67              		.cfi_offset 7, -8
  68              		.cfi_offset 14, -4
 334:Generated_Source\PSoC5/cyfitter_cfg.c **** 	/* IOPINS0_0 Address: CYREG_PRT0_DR Size (bytes): 10 */
 335:Generated_Source\PSoC5/cyfitter_cfg.c **** 	static const uint8 CYCODE BS_IOPINS0_0_VAL[] = {
 336:Generated_Source\PSoC5/cyfitter_cfg.c **** 		0x86u, 0x00u, 0x00u, 0x86u, 0x00u, 0x00u, 0x00u, 0x00u, 0x00u, 0x00u};
 337:Generated_Source\PSoC5/cyfitter_cfg.c **** 
 338:Generated_Source\PSoC5/cyfitter_cfg.c **** 	/* IOPINS0_7 Address: CYREG_PRT12_DR Size (bytes): 10 */
 339:Generated_Source\PSoC5/cyfitter_cfg.c **** 	static const uint8 CYCODE BS_IOPINS0_7_VAL[] = {
 340:Generated_Source\PSoC5/cyfitter_cfg.c **** 		0x29u, 0x00u, 0x00u, 0x29u, 0x00u, 0x00u, 0x00u, 0x00u, 0x00u, 0x00u};
 341:Generated_Source\PSoC5/cyfitter_cfg.c **** 
 342:Generated_Source\PSoC5/cyfitter_cfg.c **** 	/* IOPINS0_8 Address: CYREG_PRT15_DR Size (bytes): 10 */
 343:Generated_Source\PSoC5/cyfitter_cfg.c **** 	static const uint8 CYCODE BS_IOPINS0_8_VAL[] = {
 344:Generated_Source\PSoC5/cyfitter_cfg.c **** 		0x64u, 0x00u, 0x00u, 0x24u, 0x00u, 0x00u, 0x00u, 0x00u, 0xC0u, 0x00u};
 345:Generated_Source\PSoC5/cyfitter_cfg.c **** 
 346:Generated_Source\PSoC5/cyfitter_cfg.c **** 	/* IOPINS0_2 Address: CYREG_PRT2_DR Size (bytes): 10 */
 347:Generated_Source\PSoC5/cyfitter_cfg.c **** 	static const uint8 CYCODE BS_IOPINS0_2_VAL[] = {
 348:Generated_Source\PSoC5/cyfitter_cfg.c **** 		0xAAu, 0x00u, 0x00u, 0xAAu, 0x00u, 0x00u, 0x00u, 0x00u, 0x00u, 0x00u};
 349:Generated_Source\PSoC5/cyfitter_cfg.c **** 
 350:Generated_Source\PSoC5/cyfitter_cfg.c **** 	/* IOPINS0_3 Address: CYREG_PRT3_DM0 Size (bytes): 8 */
 351:Generated_Source\PSoC5/cyfitter_cfg.c **** 	static const uint8 CYCODE BS_IOPINS0_3_VAL[] = {
 352:Generated_Source\PSoC5/cyfitter_cfg.c **** 		0x00u, 0x3Cu, 0x00u, 0x00u, 0x00u, 0x00u, 0x00u, 0x00u};
 353:Generated_Source\PSoC5/cyfitter_cfg.c **** 
 354:Generated_Source\PSoC5/cyfitter_cfg.c **** 	/* IOPINS0_4 Address: CYREG_PRT4_DR Size (bytes): 10 */
 355:Generated_Source\PSoC5/cyfitter_cfg.c **** 	static const uint8 CYCODE BS_IOPINS0_4_VAL[] = {
 356:Generated_Source\PSoC5/cyfitter_cfg.c **** 		0xA2u, 0x00u, 0x00u, 0xA2u, 0x00u, 0x00u, 0x00u, 0x00u, 0x00u, 0x00u};
 357:Generated_Source\PSoC5/cyfitter_cfg.c **** 
 358:Generated_Source\PSoC5/cyfitter_cfg.c **** 	/* IOPINS0_6 Address: CYREG_PRT6_DR Size (bytes): 10 */
 359:Generated_Source\PSoC5/cyfitter_cfg.c **** 	static const uint8 CYCODE BS_IOPINS0_6_VAL[] = {
 360:Generated_Source\PSoC5/cyfitter_cfg.c **** 		0xA4u, 0x00u, 0x00u, 0xA4u, 0x00u, 0x00u, 0x00u, 0x00u, 0x00u, 0x00u};
 361:Generated_Source\PSoC5/cyfitter_cfg.c **** 
 362:Generated_Source\PSoC5/cyfitter_cfg.c **** #ifdef CYGlobalIntDisable
 363:Generated_Source\PSoC5/cyfitter_cfg.c **** 	/* Disable interrupts by default. Let user enable if/when they want. */
 364:Generated_Source\PSoC5/cyfitter_cfg.c **** 	CYGlobalIntDisable
  69              		.loc 1 364 0
  70              		.syntax unified
  71              	@ 364 "Generated_Source\PSoC5\cyfitter_cfg.c" 1
  72 0002 72B6     		CPSID   i
  73              	@ 0 "" 2
 365:Generated_Source\PSoC5/cyfitter_cfg.c **** #endif
 366:Generated_Source\PSoC5/cyfitter_cfg.c **** 
 367:Generated_Source\PSoC5/cyfitter_cfg.c **** 
 368:Generated_Source\PSoC5/cyfitter_cfg.c **** 	/* Set Flash Cycles based on max possible frequency in case a glitch occurs during ClockSetup(). *
 369:Generated_Source\PSoC5/cyfitter_cfg.c **** 	CY_SET_XTND_REG8((void CYFAR *)(CYREG_CACHE_CC_CTL), (((CYDEV_INSTRUCT_CACHE_ENABLED) != 0) ? 0x61
  74              		.loc 1 369 0
  75              		.thumb
  76              		.syntax unified
  77 0004 644B     		ldr	r3, .L20
  78 0006 6122     		movs	r2, #97
  79 0008 1A70     		strb	r2, [r3]
  80              	.LBB50:
  81              	.LBB51:
 218:Generated_Source\PSoC5/cyfitter_cfg.c **** 
  82              		.loc 1 218 0
  83 000a 0622     		movs	r2, #6
  84 000c A3F5A063 		sub	r3, r3, #1280
  85 0010 1A70     		strb	r2, [r3]
 221:Generated_Source\PSoC5/cyfitter_cfg.c **** 	CY_SET_XTND_REG8((void CYFAR *)(CYREG_IMO_TR1), (CY_GET_XTND_REG8((void CYFAR *)CYREG_FLSHID_CUST_
ARM GAS  C:\Users\MICHA_~1\AppData\Local\Temp\cceBklST.s 			page 9


  86              		.loc 1 221 0
  87 0012 5222     		movs	r2, #82
  88 0014 A3F58073 		sub	r3, r3, #256
  89 0018 1A70     		strb	r2, [r3]
 222:Generated_Source\PSoC5/cyfitter_cfg.c **** 
  90              		.loc 1 222 0
  91 001a 604B     		ldr	r3, .L20+4
  92 001c 604A     		ldr	r2, .L20+8
  93 001e 1B78     		ldrb	r3, [r3]	@ zero_extendqisi2
 231:Generated_Source\PSoC5/cyfitter_cfg.c **** 		CyDelayCycles(10u * 48u); /* Delay 10us based on 48MHz clock */
  94              		.loc 1 231 0
  95 0020 604E     		ldr	r6, .L20+12
 222:Generated_Source\PSoC5/cyfitter_cfg.c **** 
  96              		.loc 1 222 0
  97 0022 DBB2     		uxtb	r3, r3
  98 0024 1370     		strb	r3, [r2]
 225:Generated_Source\PSoC5/cyfitter_cfg.c **** 	CY_SET_XTND_REG16((void CYFAR *)(CYREG_FASTCLK_PLL_CFG0), 0x1251u);
  99              		.loc 1 225 0
 100 0026 40F61802 		movw	r2, #2072
 101 002a 5F4B     		ldr	r3, .L20+16
 226:Generated_Source\PSoC5/cyfitter_cfg.c **** 	/* Wait up to 250us for the PLL to lock */
 102              		.loc 1 226 0
 103 002c 1925     		movs	r5, #25
 225:Generated_Source\PSoC5/cyfitter_cfg.c **** 	CY_SET_XTND_REG16((void CYFAR *)(CYREG_FASTCLK_PLL_CFG0), 0x1251u);
 104              		.loc 1 225 0
 105 002e 1A80     		strh	r2, [r3]	@ movhi
 226:Generated_Source\PSoC5/cyfitter_cfg.c **** 	/* Wait up to 250us for the PLL to lock */
 106              		.loc 1 226 0
 107 0030 41F25122 		movw	r2, #4689
 228:Generated_Source\PSoC5/cyfitter_cfg.c **** 	for (timeout = 250u / 10u; (timeout > 0u) && (pllLock != 0x03u); timeout--)
 108              		.loc 1 228 0
 109 0034 0024     		movs	r4, #0
 226:Generated_Source\PSoC5/cyfitter_cfg.c **** 	/* Wait up to 250us for the PLL to lock */
 110              		.loc 1 226 0
 111 0036 23F8022C 		strh	r2, [r3, #-2]	@ movhi
 112              	.LVL2:
 113              	.L6:
 231:Generated_Source\PSoC5/cyfitter_cfg.c **** 		CyDelayCycles(10u * 48u); /* Delay 10us based on 48MHz clock */
 114              		.loc 1 231 0
 115 003a 3378     		ldrb	r3, [r6]	@ zero_extendqisi2
 232:Generated_Source\PSoC5/cyfitter_cfg.c **** 	}
 116              		.loc 1 232 0
 117 003c 4FF4F070 		mov	r0, #480
 231:Generated_Source\PSoC5/cyfitter_cfg.c **** 		CyDelayCycles(10u * 48u); /* Delay 10us based on 48MHz clock */
 118              		.loc 1 231 0
 119 0040 03F00103 		and	r3, r3, #1
 120 0044 43EA4404 		orr	r4, r3, r4, lsl #1
 121              	.LVL3:
 232:Generated_Source\PSoC5/cyfitter_cfg.c **** 	}
 122              		.loc 1 232 0
 123 0048 FFF7FEFF 		bl	CyDelayCycles
 124              	.LVL4:
 229:Generated_Source\PSoC5/cyfitter_cfg.c **** 	{ 
 125              		.loc 1 229 0
 126 004c 013D     		subs	r5, r5, #1
 127              	.LVL5:
 231:Generated_Source\PSoC5/cyfitter_cfg.c **** 		CyDelayCycles(10u * 48u); /* Delay 10us based on 48MHz clock */
ARM GAS  C:\Users\MICHA_~1\AppData\Local\Temp\cceBklST.s 			page 10


 128              		.loc 1 231 0
 129 004e 04F00304 		and	r4, r4, #3
 130              	.LVL6:
 229:Generated_Source\PSoC5/cyfitter_cfg.c **** 	{ 
 131              		.loc 1 229 0
 132 0052 1CD0     		beq	.L5
 133              	.LVL7:
 134 0054 032C     		cmp	r4, #3
 135 0056 F0D1     		bne	.L6
 241:Generated_Source\PSoC5/cyfitter_cfg.c **** 	CY_SET_XTND_REG8((void CYFAR *)(CYREG_CLKDIST_MSTR0), 0x07u);
 136              		.loc 1 241 0
 137 0058 544B     		ldr	r3, .L20+20
 138 005a 4FF48072 		mov	r2, #256
 139 005e 1A80     		strh	r2, [r3]	@ movhi
 242:Generated_Source\PSoC5/cyfitter_cfg.c **** 	CY_SET_XTND_REG8((void CYFAR *)(CYREG_CLKDIST_BCFG0), 0x00u);
 140              		.loc 1 242 0
 141 0060 0722     		movs	r2, #7
 142 0062 1A70     		strb	r2, [r3]
 243:Generated_Source\PSoC5/cyfitter_cfg.c **** 	CY_SET_XTND_REG8((void CYFAR *)(CYREG_CLKDIST_BCFG2), 0x48u);
 143              		.loc 1 243 0
 144 0064 524A     		ldr	r2, .L20+24
 145 0066 0024     		movs	r4, #0
 146              	.LVL8:
 244:Generated_Source\PSoC5/cyfitter_cfg.c **** 	CY_SET_XTND_REG8((void CYFAR *)(CYREG_CLKDIST_MSTR0), 0x00u);
 147              		.loc 1 244 0
 148 0068 4821     		movs	r1, #72
 243:Generated_Source\PSoC5/cyfitter_cfg.c **** 	CY_SET_XTND_REG8((void CYFAR *)(CYREG_CLKDIST_BCFG2), 0x48u);
 149              		.loc 1 243 0
 150 006a 1470     		strb	r4, [r2]
 244:Generated_Source\PSoC5/cyfitter_cfg.c **** 	CY_SET_XTND_REG8((void CYFAR *)(CYREG_CLKDIST_MSTR0), 0x00u);
 151              		.loc 1 244 0
 152 006c 9170     		strb	r1, [r2, #2]
 249:Generated_Source\PSoC5/cyfitter_cfg.c **** }
 153              		.loc 1 249 0
 154 006e 0222     		movs	r2, #2
 245:Generated_Source\PSoC5/cyfitter_cfg.c **** 
 155              		.loc 1 245 0
 156 0070 1C70     		strb	r4, [r3]
 248:Generated_Source\PSoC5/cyfitter_cfg.c **** 	CY_SET_XTND_REG8((void CYFAR *)(CYREG_CLKDIST_LD), 0x02u);
 157              		.loc 1 248 0
 158 0072 5C71     		strb	r4, [r3, #5]
 249:Generated_Source\PSoC5/cyfitter_cfg.c **** }
 159              		.loc 1 249 0
 160 0074 03F8032C 		strb	r2, [r3, #-3]
 161              	.LVL9:
 162              	.LBE51:
 163              	.LBE50:
 370:Generated_Source\PSoC5/cyfitter_cfg.c **** 	/* Setup clocks based on selections from Clock DWR */
 371:Generated_Source\PSoC5/cyfitter_cfg.c **** 	ClockSetup();
 372:Generated_Source\PSoC5/cyfitter_cfg.c **** 	/* Set Flash Cycles based on newly configured 64.00MHz Bus Clock. */
 373:Generated_Source\PSoC5/cyfitter_cfg.c **** 	CY_SET_XTND_REG8((void CYFAR *)(CYREG_CACHE_CC_CTL), (((CYDEV_INSTRUCT_CACHE_ENABLED) != 0) ? 0x01
 164              		.loc 1 373 0
 165 0078 0122     		movs	r2, #1
 166 007a 83F8FC27 		strb	r2, [r3, #2044]
 374:Generated_Source\PSoC5/cyfitter_cfg.c **** 	/* Enable/Disable Debug functionality based on settings from System DWR */
 375:Generated_Source\PSoC5/cyfitter_cfg.c **** 	CY_SET_XTND_REG8((void CYFAR *)CYREG_MLOGIC_DEBUG, (CY_GET_XTND_REG8((void CYFAR *)CYREG_MLOGIC_DE
 167              		.loc 1 375 0
ARM GAS  C:\Users\MICHA_~1\AppData\Local\Temp\cceBklST.s 			page 11


 168 007e 4D4A     		ldr	r2, .L20+28
 169              	.LBB52:
 170              	.LBB53:
 376:Generated_Source\PSoC5/cyfitter_cfg.c **** 
 377:Generated_Source\PSoC5/cyfitter_cfg.c **** 	{
 378:Generated_Source\PSoC5/cyfitter_cfg.c **** 		static const uint32 CYCODE cy_cfg_addr_table[] = {
 379:Generated_Source\PSoC5/cyfitter_cfg.c **** 			0x40004501u, /* Base address: 0x40004500 Count: 1 */
 380:Generated_Source\PSoC5/cyfitter_cfg.c **** 			0x40005207u, /* Base address: 0x40005200 Count: 7 */
 381:Generated_Source\PSoC5/cyfitter_cfg.c **** 			0x40011701u, /* Base address: 0x40011700 Count: 1 */
 382:Generated_Source\PSoC5/cyfitter_cfg.c **** 			0x40011901u, /* Base address: 0x40011900 Count: 1 */
 383:Generated_Source\PSoC5/cyfitter_cfg.c **** 			0x40014003u, /* Base address: 0x40014000 Count: 3 */
 384:Generated_Source\PSoC5/cyfitter_cfg.c **** 			0x40014102u, /* Base address: 0x40014100 Count: 2 */
 385:Generated_Source\PSoC5/cyfitter_cfg.c **** 			0x40014202u, /* Base address: 0x40014200 Count: 2 */
 386:Generated_Source\PSoC5/cyfitter_cfg.c **** 			0x40014302u, /* Base address: 0x40014300 Count: 2 */
 387:Generated_Source\PSoC5/cyfitter_cfg.c **** 			0x40014703u, /* Base address: 0x40014700 Count: 3 */
 388:Generated_Source\PSoC5/cyfitter_cfg.c **** 			0x40014803u, /* Base address: 0x40014800 Count: 3 */
 389:Generated_Source\PSoC5/cyfitter_cfg.c **** 			0x40014C02u, /* Base address: 0x40014C00 Count: 2 */
 390:Generated_Source\PSoC5/cyfitter_cfg.c **** 			0x40015101u, /* Base address: 0x40015100 Count: 1 */
 391:Generated_Source\PSoC5/cyfitter_cfg.c **** 		};
 392:Generated_Source\PSoC5/cyfitter_cfg.c **** 
 393:Generated_Source\PSoC5/cyfitter_cfg.c **** 		static const cy_cfg_addrvalue_t CYCODE cy_cfg_data_table[] = {
 394:Generated_Source\PSoC5/cyfitter_cfg.c **** 			{0x7Eu, 0x02u},
 395:Generated_Source\PSoC5/cyfitter_cfg.c **** 			{0x04u, 0x86u},
 396:Generated_Source\PSoC5/cyfitter_cfg.c **** 			{0x14u, 0xAAu},
 397:Generated_Source\PSoC5/cyfitter_cfg.c **** 			{0x1Cu, 0x3Cu},
 398:Generated_Source\PSoC5/cyfitter_cfg.c **** 			{0x24u, 0xA2u},
 399:Generated_Source\PSoC5/cyfitter_cfg.c **** 			{0x34u, 0xA4u},
 400:Generated_Source\PSoC5/cyfitter_cfg.c **** 			{0x64u, 0x28u},
 401:Generated_Source\PSoC5/cyfitter_cfg.c **** 			{0x7Cu, 0x64u},
 402:Generated_Source\PSoC5/cyfitter_cfg.c **** 			{0xEEu, 0x0Au},
 403:Generated_Source\PSoC5/cyfitter_cfg.c **** 			{0xEEu, 0x0Au},
 404:Generated_Source\PSoC5/cyfitter_cfg.c **** 			{0x33u, 0x80u},
 405:Generated_Source\PSoC5/cyfitter_cfg.c **** 			{0x36u, 0x40u},
 406:Generated_Source\PSoC5/cyfitter_cfg.c **** 			{0xCCu, 0x30u},
 407:Generated_Source\PSoC5/cyfitter_cfg.c **** 			{0xA6u, 0x40u},
 408:Generated_Source\PSoC5/cyfitter_cfg.c **** 			{0xA7u, 0x80u},
 409:Generated_Source\PSoC5/cyfitter_cfg.c **** 			{0xA6u, 0x40u},
 410:Generated_Source\PSoC5/cyfitter_cfg.c **** 			{0xA7u, 0x80u},
 411:Generated_Source\PSoC5/cyfitter_cfg.c **** 			{0xA6u, 0x40u},
 412:Generated_Source\PSoC5/cyfitter_cfg.c **** 			{0xA7u, 0x80u},
 413:Generated_Source\PSoC5/cyfitter_cfg.c **** 			{0x08u, 0x08u},
 414:Generated_Source\PSoC5/cyfitter_cfg.c **** 			{0x0Fu, 0x40u},
 415:Generated_Source\PSoC5/cyfitter_cfg.c **** 			{0xC2u, 0x0Cu},
 416:Generated_Source\PSoC5/cyfitter_cfg.c **** 			{0xAEu, 0x40u},
 417:Generated_Source\PSoC5/cyfitter_cfg.c **** 			{0xAFu, 0x80u},
 418:Generated_Source\PSoC5/cyfitter_cfg.c **** 			{0xEEu, 0x50u},
 419:Generated_Source\PSoC5/cyfitter_cfg.c **** 			{0xACu, 0x08u},
 420:Generated_Source\PSoC5/cyfitter_cfg.c **** 			{0xAFu, 0x40u},
 421:Generated_Source\PSoC5/cyfitter_cfg.c **** 			{0x00u, 0x0Au},
 422:Generated_Source\PSoC5/cyfitter_cfg.c **** 		};
 423:Generated_Source\PSoC5/cyfitter_cfg.c **** 
 424:Generated_Source\PSoC5/cyfitter_cfg.c **** 
 425:Generated_Source\PSoC5/cyfitter_cfg.c **** 
 426:Generated_Source\PSoC5/cyfitter_cfg.c **** 		CYPACKED typedef struct {
 427:Generated_Source\PSoC5/cyfitter_cfg.c **** 			void CYFAR *address;
 428:Generated_Source\PSoC5/cyfitter_cfg.c **** 			uint16 size;
 429:Generated_Source\PSoC5/cyfitter_cfg.c **** 		} CYPACKED_ATTR cfg_memset_t;
ARM GAS  C:\Users\MICHA_~1\AppData\Local\Temp\cceBklST.s 			page 12


 430:Generated_Source\PSoC5/cyfitter_cfg.c **** 
 431:Generated_Source\PSoC5/cyfitter_cfg.c **** 		static const cfg_memset_t CYCODE cfg_memset_list[] = {
 432:Generated_Source\PSoC5/cyfitter_cfg.c **** 			/* address, size */
 433:Generated_Source\PSoC5/cyfitter_cfg.c **** 			{(void CYFAR *)(CYREG_PRT1_DR), 16u},
 434:Generated_Source\PSoC5/cyfitter_cfg.c **** 			{(void CYFAR *)(CYREG_PRT5_DR), 16u},
 435:Generated_Source\PSoC5/cyfitter_cfg.c **** 			{(void CYFAR *)(CYDEV_UCFG_B0_P0_U0_BASE), 4096u},
 436:Generated_Source\PSoC5/cyfitter_cfg.c **** 			{(void CYFAR *)(CYDEV_UCFG_B1_P2_U0_BASE), 2048u},
 437:Generated_Source\PSoC5/cyfitter_cfg.c **** 			{(void CYFAR *)(CYDEV_UCFG_DSI0_BASE), 2560u},
 438:Generated_Source\PSoC5/cyfitter_cfg.c **** 			{(void CYFAR *)(CYDEV_UCFG_DSI12_BASE), 512u},
 439:Generated_Source\PSoC5/cyfitter_cfg.c **** 			{(void CYFAR *)(CYREG_BCTL0_MDCLK_EN), 32u},
 440:Generated_Source\PSoC5/cyfitter_cfg.c **** 		};
 441:Generated_Source\PSoC5/cyfitter_cfg.c **** 
 442:Generated_Source\PSoC5/cyfitter_cfg.c **** 		uint8 CYDATA i;
 443:Generated_Source\PSoC5/cyfitter_cfg.c **** 
 444:Generated_Source\PSoC5/cyfitter_cfg.c **** 		/* Zero out critical memory blocks before beginning configuration */
 445:Generated_Source\PSoC5/cyfitter_cfg.c **** 		for (i = 0u; i < (sizeof(cfg_memset_list)/sizeof(cfg_memset_list[0])); i++)
 446:Generated_Source\PSoC5/cyfitter_cfg.c **** 		{
 447:Generated_Source\PSoC5/cyfitter_cfg.c **** 			const cfg_memset_t CYCODE * CYDATA ms = &cfg_memset_list[i];
 448:Generated_Source\PSoC5/cyfitter_cfg.c **** 			CYMEMZERO(ms->address, (size_t)(uint32)(ms->size));
 171              		.loc 1 448 0
 172 0080 4D4D     		ldr	r5, .L20+32
 173              	.LBE53:
 174              	.LBE52:
 375:Generated_Source\PSoC5/cyfitter_cfg.c **** 
 175              		.loc 1 375 0
 176 0082 1378     		ldrb	r3, [r2]	@ zero_extendqisi2
 177              	.LBB61:
 178              	.LBB56:
 179              		.loc 1 448 0
 180 0084 0626     		movs	r6, #6
 181              	.LBE56:
 182              	.LBE61:
 375:Generated_Source\PSoC5/cyfitter_cfg.c **** 
 183              		.loc 1 375 0
 184 0086 43F02003 		orr	r3, r3, #32
 185 008a 1370     		strb	r3, [r2]
 186              	.LVL10:
 187 008c 00E0     		b	.L8
 188              	.LVL11:
 189              	.L5:
 190 008e FEE7     		b	.L5
 191              	.LVL12:
 192              	.L8:
 193              	.LBB62:
 194              	.LBB57:
 195              		.loc 1 448 0 discriminator 3
 196 0090 06FB0453 		mla	r3, r6, r4, r5
 197              	.LBB54:
 198              	.LBB55:
  78:Generated_Source\PSoC5/cyfitter_cfg.c **** }
 199              		.loc 1 78 0 discriminator 3
 200 0094 0021     		movs	r1, #0
 201 0096 9A88     		ldrh	r2, [r3, #4]	@ unaligned
 202 0098 1868     		ldr	r0, [r3]	@ unaligned
 203 009a 0134     		adds	r4, r4, #1
 204              	.LVL13:
 205 009c FFF7FEFF 		bl	memset
ARM GAS  C:\Users\MICHA_~1\AppData\Local\Temp\cceBklST.s 			page 13


 206              	.LVL14:
 207              	.LBE55:
 208              	.LBE54:
 209              	.LBE57:
 445:Generated_Source\PSoC5/cyfitter_cfg.c **** 		{
 210              		.loc 1 445 0 discriminator 3
 211 00a0 072C     		cmp	r4, #7
 212 00a2 F5D1     		bne	.L8
 213 00a4 0022     		movs	r2, #0
 214 00a6 1146     		mov	r1, r2
 215              	.LBB58:
 216              	.LBB59:
 217              	.LBB60:
 182:Generated_Source\PSoC5/cyfitter_cfg.c **** 		uint8 count = (uint8)baseAddr;
 218              		.loc 1 182 0
 219 00a8 444C     		ldr	r4, .L20+36
 220              	.LVL15:
 221 00aa 04F13005 		add	r5, r4, #48
 222              	.L11:
 223              	.LVL16:
 224 00ae 54F82100 		ldr	r0, [r4, r1, lsl #2]
 225              	.LVL17:
 226 00b2 05EB4203 		add	r3, r5, r2, lsl #1
 184:Generated_Source\PSoC5/cyfitter_cfg.c **** 		while (count != 0u)
 227              		.loc 1 184 0
 228 00b6 20F0FF06 		bic	r6, r0, #255
 229              	.LVL18:
 230 00ba C0B2     		uxtb	r0, r0
 231 00bc 0244     		add	r2, r2, r0
 232              	.LVL19:
 233 00be 05EB4200 		add	r0, r5, r2, lsl #1
 234              	.LVL20:
 235 00c2 0133     		adds	r3, r3, #1
 236 00c4 0330     		adds	r0, r0, #3
 237              	.LVL21:
 238              	.L9:
 239 00c6 0233     		adds	r3, r3, #2
 185:Generated_Source\PSoC5/cyfitter_cfg.c **** 		{
 240              		.loc 1 185 0
 241 00c8 9842     		cmp	r0, r3
 242 00ca 06D0     		beq	.L19
 187:Generated_Source\PSoC5/cyfitter_cfg.c **** 			j++;
 243              		.loc 1 187 0
 244 00cc 13F8037C 		ldrb	r7, [r3, #-3]	@ zero_extendqisi2
 245 00d0 13F802EC 		ldrb	lr, [r3, #-2]	@ zero_extendqisi2
 246 00d4 07F806E0 		strb	lr, [r7, r6]
 247 00d8 F5E7     		b	.L9
 248              	.L19:
 249              	.LBE60:
 180:Generated_Source\PSoC5/cyfitter_cfg.c **** 	{
 250              		.loc 1 180 0
 251 00da 0131     		adds	r1, r1, #1
 252              	.LVL22:
 253 00dc 0C29     		cmp	r1, #12
 254 00de E6D1     		bne	.L11
 255              	.LVL23:
 256              	.LBE59:
ARM GAS  C:\Users\MICHA_~1\AppData\Local\Temp\cceBklST.s 			page 14


 257              	.LBE58:
 449:Generated_Source\PSoC5/cyfitter_cfg.c **** 		}
 450:Generated_Source\PSoC5/cyfitter_cfg.c **** 
 451:Generated_Source\PSoC5/cyfitter_cfg.c **** 		cfg_write_bytes32(cy_cfg_addr_table, cy_cfg_data_table);
 452:Generated_Source\PSoC5/cyfitter_cfg.c **** 
 453:Generated_Source\PSoC5/cyfitter_cfg.c **** 		/* Enable digital routing */
 454:Generated_Source\PSoC5/cyfitter_cfg.c **** 		CY_SET_XTND_REG8((void CYFAR *)CYREG_BCTL0_BANK_CTL, CY_GET_XTND_REG8((void CYFAR *)CYREG_BCTL0_B
 258              		.loc 1 454 0
 259 00e0 374A     		ldr	r2, .L20+40
 260 00e2 1378     		ldrb	r3, [r2]	@ zero_extendqisi2
 261 00e4 43F00203 		orr	r3, r3, #2
 262 00e8 1370     		strb	r3, [r2]
 455:Generated_Source\PSoC5/cyfitter_cfg.c **** 		CY_SET_XTND_REG8((void CYFAR *)CYREG_BCTL1_BANK_CTL, CY_GET_XTND_REG8((void CYFAR *)CYREG_BCTL1_B
 263              		.loc 1 455 0
 264 00ea 137C     		ldrb	r3, [r2, #16]	@ zero_extendqisi2
 265 00ec 43F00203 		orr	r3, r3, #2
 266 00f0 1374     		strb	r3, [r2, #16]
 267              	.LVL24:
 268              	.LBE62:
 269              	.LBB63:
 270              	.LBB64:
  92:Generated_Source\PSoC5/cyfitter_cfg.c **** }
 271              		.loc 1 92 0
 272 00f2 344B     		ldr	r3, .L20+44
 273 00f4 344A     		ldr	r2, .L20+48
 274              	.LBE64:
 275              	.LBE63:
 276              	.LBB68:
 277              	.LBB69:
 278 00f6 1C46     		mov	r4, r3
 279              	.LBE69:
 280              	.LBE68:
 281              	.LBB74:
 282              	.LBB65:
 283 00f8 1868     		ldr	r0, [r3]	@ unaligned
 284 00fa 5968     		ldr	r1, [r3, #4]	@ unaligned
 285 00fc 03C2     		stmia	r2!, {r0, r1}
 286              	.LBE65:
 287              	.LBE74:
 288              	.LBB75:
 289              	.LBB70:
 290 00fe 54F80A0F 		ldr	r0, [r4, #10]!	@ unaligned
 291              	.LBE70:
 292              	.LBE75:
 293              	.LBB76:
 294              	.LBB66:
 295 0102 1989     		ldrh	r1, [r3, #8]	@ unaligned
 296              	.LBE66:
 297              	.LBE76:
 298              	.LBB77:
 299              	.LBB71:
 300 0104 B832     		adds	r2, r2, #184
 301              	.LBE71:
 302              	.LBE77:
 303              	.LBB78:
 304              	.LBB67:
 305 0106 22F8B81C 		strh	r1, [r2, #-184]	@ unaligned
ARM GAS  C:\Users\MICHA_~1\AppData\Local\Temp\cceBklST.s 			page 15


 306              	.LVL25:
 307              	.LBE67:
 308              	.LBE78:
 309              	.LBB79:
 310              	.LBB72:
 311 010a 6168     		ldr	r1, [r4, #4]	@ unaligned
 312 010c 03C2     		stmia	r2!, {r0, r1}
 313 010e 2189     		ldrh	r1, [r4, #8]	@ unaligned
 314              	.LBE72:
 315              	.LBE79:
 316              	.LBB80:
 317              	.LBB81:
 318 0110 1C46     		mov	r4, r3
 319 0112 54F8140F 		ldr	r0, [r4, #20]!	@ unaligned
 320              	.LBE81:
 321              	.LBE80:
 322              	.LBB84:
 323              	.LBB73:
 324 0116 1180     		strh	r1, [r2]	@ unaligned
 325              	.LVL26:
 326              	.LBE73:
 327              	.LBE84:
 328              	.LBB85:
 329              	.LBB82:
 330 0118 6168     		ldr	r1, [r4, #4]	@ unaligned
 331 011a 2832     		adds	r2, r2, #40
 332 011c 03C2     		stmia	r2!, {r0, r1}
 333 011e 2189     		ldrh	r1, [r4, #8]	@ unaligned
 334              	.LBE82:
 335              	.LBE85:
 336              	.LBB86:
 337              	.LBB87:
 338 0120 1C46     		mov	r4, r3
 339 0122 54F81E0F 		ldr	r0, [r4, #30]!	@ unaligned
 340              	.LBE87:
 341              	.LBE86:
 342              	.LBB90:
 343              	.LBB83:
 344 0126 1180     		strh	r1, [r2]	@ unaligned
 345              	.LVL27:
 346              	.LBE83:
 347              	.LBE90:
 348              	.LBB91:
 349              	.LBB88:
 350 0128 6168     		ldr	r1, [r4, #4]	@ unaligned
 351 012a D83A     		subs	r2, r2, #216
 352 012c 03C2     		stmia	r2!, {r0, r1}
 353 012e 2189     		ldrh	r1, [r4, #8]	@ unaligned
 354              	.LBE88:
 355              	.LBE91:
 356              	.LBB92:
 357              	.LBB93:
 358 0130 1C46     		mov	r4, r3
 359              	.LBE93:
 360              	.LBE92:
 361              	.LBB97:
 362              	.LBB89:
ARM GAS  C:\Users\MICHA_~1\AppData\Local\Temp\cceBklST.s 			page 16


 363 0132 1180     		strh	r1, [r2]	@ unaligned
 364              	.LVL28:
 365              	.LBE89:
 366              	.LBE97:
 367              	.LBB98:
 368              	.LBB99:
 369 0134 1946     		mov	r1, r3
 370 0136 2548     		ldr	r0, .L20+52
 371 0138 51F8282F 		ldr	r2, [r1, #40]!	@ unaligned
 372 013c 0260     		str	r2, [r0]	@ unaligned
 373 013e 4A68     		ldr	r2, [r1, #4]	@ unaligned
 374 0140 4260     		str	r2, [r0, #4]	@ unaligned
 375              	.LVL29:
 376              	.LBE99:
 377              	.LBE98:
 378              	.LBB100:
 379              	.LBB94:
 380 0142 54F8300F 		ldr	r0, [r4, #48]!	@ unaligned
 381 0146 224A     		ldr	r2, .L20+56
 382 0148 6168     		ldr	r1, [r4, #4]	@ unaligned
 383 014a 03C2     		stmia	r2!, {r0, r1}
 384              	.LBE94:
 385              	.LBE100:
 386              	.LBB101:
 387              	.LBB102:
 388 014c 53F83A0F 		ldr	r0, [r3, #58]!	@ unaligned
 389              	.LBE102:
 390              	.LBE101:
 391              	.LBB105:
 392              	.LBB95:
 393 0150 2189     		ldrh	r1, [r4, #8]	@ unaligned
 394              	.LBE95:
 395              	.LBE105:
 396              	.LBB106:
 397              	.LBB103:
 398 0152 1832     		adds	r2, r2, #24
 399              	.LBE103:
 400              	.LBE106:
 401              	.LBB107:
 402              	.LBB96:
 403 0154 22F8181C 		strh	r1, [r2, #-24]	@ unaligned
 404              	.LVL30:
 405              	.LBE96:
 406              	.LBE107:
 407              	.LBB108:
 408              	.LBB104:
 409 0158 5968     		ldr	r1, [r3, #4]	@ unaligned
 410 015a 1B89     		ldrh	r3, [r3, #8]	@ unaligned
 411 015c 03C2     		stmia	r2!, {r0, r1}
 412 015e 1380     		strh	r3, [r2]	@ unaligned
 413              	.LVL31:
 414              	.LBE104:
 415              	.LBE108:
 456:Generated_Source\PSoC5/cyfitter_cfg.c **** 	}
 457:Generated_Source\PSoC5/cyfitter_cfg.c **** 
 458:Generated_Source\PSoC5/cyfitter_cfg.c **** 
 459:Generated_Source\PSoC5/cyfitter_cfg.c **** 	/* Perform second pass device configuration. These items must be configured in specific order afte
ARM GAS  C:\Users\MICHA_~1\AppData\Local\Temp\cceBklST.s 			page 17


 460:Generated_Source\PSoC5/cyfitter_cfg.c **** 	CYCONFIGCPYCODE((void CYFAR *)(CYREG_PRT0_DR), (const void CYCODE *)(BS_IOPINS0_0_VAL), 10u);
 461:Generated_Source\PSoC5/cyfitter_cfg.c **** 	CYCONFIGCPYCODE((void CYFAR *)(CYREG_PRT12_DR), (const void CYCODE *)(BS_IOPINS0_7_VAL), 10u);
 462:Generated_Source\PSoC5/cyfitter_cfg.c **** 	CYCONFIGCPYCODE((void CYFAR *)(CYREG_PRT15_DR), (const void CYCODE *)(BS_IOPINS0_8_VAL), 10u);
 463:Generated_Source\PSoC5/cyfitter_cfg.c **** 	CYCONFIGCPYCODE((void CYFAR *)(CYREG_PRT2_DR), (const void CYCODE *)(BS_IOPINS0_2_VAL), 10u);
 464:Generated_Source\PSoC5/cyfitter_cfg.c **** 	CYCONFIGCPYCODE((void CYFAR *)(CYREG_PRT3_DM0), (const void CYCODE *)(BS_IOPINS0_3_VAL), 8u);
 465:Generated_Source\PSoC5/cyfitter_cfg.c **** 	CYCONFIGCPYCODE((void CYFAR *)(CYREG_PRT4_DR), (const void CYCODE *)(BS_IOPINS0_4_VAL), 10u);
 466:Generated_Source\PSoC5/cyfitter_cfg.c **** 	CYCONFIGCPYCODE((void CYFAR *)(CYREG_PRT6_DR), (const void CYCODE *)(BS_IOPINS0_6_VAL), 10u);
 467:Generated_Source\PSoC5/cyfitter_cfg.c **** 	/* Switch Boost to the precision bandgap reference from its internal reference */
 468:Generated_Source\PSoC5/cyfitter_cfg.c **** 	CY_SET_REG8((void CYXDATA *)CYREG_BOOST_CR2, (CY_GET_REG8((void CYXDATA *)CYREG_BOOST_CR2) | 0x08u
 416              		.loc 1 468 0
 417 0160 A2F64662 		subw	r2, r2, #3654
 418 0164 1378     		ldrb	r3, [r2]	@ zero_extendqisi2
 419              	.LBB109:
 420              	.LBB110:
  85:Generated_Source\PSoC5/cyfitter_cfg.c **** }
 421              		.loc 1 85 0
 422 0166 1B4C     		ldr	r4, .L20+60
 423              	.LBE110:
 424              	.LBE109:
 425              		.loc 1 468 0
 426 0168 43F00803 		orr	r3, r3, #8
 427 016c 1370     		strb	r3, [r2]
 428              	.LBB112:
 429              	.LBB113:
 274:Generated_Source\PSoC5/cyfitter_cfg.c **** 	CY_SET_XTND_REG8((void CYFAR *)(CYREG_BG_DFT0), (bg_xover_inl_trim & 0x07u));
 430              		.loc 1 274 0
 431 016e 1A4B     		ldr	r3, .L20+64
 275:Generated_Source\PSoC5/cyfitter_cfg.c **** 	CY_SET_XTND_REG8((void CYFAR *)(CYREG_BG_DFT1), ((bg_xover_inl_trim >> 4) & 0x0Fu));
 432              		.loc 1 275 0
 433 0170 02F5AA52 		add	r2, r2, #5440
 274:Generated_Source\PSoC5/cyfitter_cfg.c **** 	CY_SET_XTND_REG8((void CYFAR *)(CYREG_BG_DFT0), (bg_xover_inl_trim & 0x07u));
 434              		.loc 1 274 0
 435 0174 1B78     		ldrb	r3, [r3]	@ zero_extendqisi2
 275:Generated_Source\PSoC5/cyfitter_cfg.c **** 	CY_SET_XTND_REG8((void CYFAR *)(CYREG_BG_DFT1), ((bg_xover_inl_trim >> 4) & 0x0Fu));
 436              		.loc 1 275 0
 437 0176 0C32     		adds	r2, r2, #12
 274:Generated_Source\PSoC5/cyfitter_cfg.c **** 	CY_SET_XTND_REG8((void CYFAR *)(CYREG_BG_DFT0), (bg_xover_inl_trim & 0x07u));
 438              		.loc 1 274 0
 439 0178 DBB2     		uxtb	r3, r3
 440              	.LVL32:
 275:Generated_Source\PSoC5/cyfitter_cfg.c **** 	CY_SET_XTND_REG8((void CYFAR *)(CYREG_BG_DFT1), ((bg_xover_inl_trim >> 4) & 0x0Fu));
 441              		.loc 1 275 0
 442 017a 03F00701 		and	r1, r3, #7
 276:Generated_Source\PSoC5/cyfitter_cfg.c **** 	CY_SET_XTND_REG8((void CYFAR *)CYREG_PUMP_CR0, 0x44u);
 443              		.loc 1 276 0
 444 017e 1B09     		lsrs	r3, r3, #4
 445              	.LVL33:
 275:Generated_Source\PSoC5/cyfitter_cfg.c **** 	CY_SET_XTND_REG8((void CYFAR *)(CYREG_BG_DFT1), ((bg_xover_inl_trim >> 4) & 0x0Fu));
 446              		.loc 1 275 0
 447 0180 1170     		strb	r1, [r2]
 276:Generated_Source\PSoC5/cyfitter_cfg.c **** 	CY_SET_XTND_REG8((void CYFAR *)CYREG_PUMP_CR0, 0x44u);
 448              		.loc 1 276 0
 449 0182 5370     		strb	r3, [r2, #1]
 277:Generated_Source\PSoC5/cyfitter_cfg.c **** }
 450              		.loc 1 277 0
 451 0184 154B     		ldr	r3, .L20+68
 452 0186 4422     		movs	r2, #68
ARM GAS  C:\Users\MICHA_~1\AppData\Local\Temp\cceBklST.s 			page 18


 453 0188 1A70     		strb	r2, [r3]
 454              	.LVL34:
 455              	.LBE113:
 456              	.LBE112:
 457              	.LBB114:
 458              	.LBB111:
  85:Generated_Source\PSoC5/cyfitter_cfg.c **** }
 459              		.loc 1 85 0
 460 018a A3F5A653 		sub	r3, r3, #5312
 461 018e 163B     		subs	r3, r3, #22
 462 0190 0FCB     		ldmia	r3, {r0, r1, r2, r3}
 463 0192 07C4     		stmia	r4!, {r0, r1, r2}
 464 0194 2380     		strh	r3, [r4]	@ movhi
 465              	.LVL35:
 466 0196 F8BD     		pop	{r3, r4, r5, r6, r7, pc}
 467              	.L21:
 468              		.align	2
 469              	.L20:
 470 0198 00480040 		.word	1073760256
 471 019c 0F010049 		.word	1224737039
 472 01a0 A1460040 		.word	1073759905
 473 01a4 25420040 		.word	1073758757
 474 01a8 22420040 		.word	1073758754
 475 01ac 04400040 		.word	1073758212
 476 01b0 06400040 		.word	1073758214
 477 01b4 E8460040 		.word	1073759976
 478 01b8 00000000 		.word	.LANCHOR0
 479 01bc 2C000000 		.word	.LANCHOR0+44
 480 01c0 03500140 		.word	1073827843
 481 01c4 94000000 		.word	.LANCHOR0+148
 482 01c8 00510040 		.word	1073762560
 483 01cc 32510040 		.word	1073762610
 484 01d0 40510040 		.word	1073762624
 485 01d4 B0430040 		.word	1073759152
 486 01d8 CF010049 		.word	1224737231
 487 01dc 76580040 		.word	1073764470
 488              	.LBE111:
 489              	.LBE114:
 490              		.cfi_endproc
 491              	.LFE8:
 492              		.size	cyfitter_cfg, .-cyfitter_cfg
 493              		.section	.rodata
 494              		.align	2
 495              		.set	.LANCHOR0,. + 0
 496              		.type	cfg_memset_list.5012, %object
 497              		.size	cfg_memset_list.5012, 42
 498              	cfg_memset_list.5012:
 499 0000 10510040 		.4byte	1073762576
 500 0004 1000     		.2byte	16
 501 0006 50510040 		.4byte	1073762640
 502 000a 1000     		.2byte	16
 503 000c 00000140 		.4byte	1073807360
 504 0010 0010     		.2byte	4096
 505 0012 00140140 		.4byte	1073812480
 506 0016 0008     		.2byte	2048
 507 0018 00400140 		.4byte	1073823744
 508 001c 000A     		.2byte	2560
ARM GAS  C:\Users\MICHA_~1\AppData\Local\Temp\cceBklST.s 			page 19


 509 001e 004C0140 		.4byte	1073826816
 510 0022 0002     		.2byte	512
 511 0024 00500140 		.4byte	1073827840
 512 0028 2000     		.2byte	32
 513 002a 0000     		.space	2
 514              		.type	cy_cfg_addr_table.5006, %object
 515              		.size	cy_cfg_addr_table.5006, 48
 516              	cy_cfg_addr_table.5006:
 517 002c 01450040 		.word	1073759489
 518 0030 07520040 		.word	1073762823
 519 0034 01170140 		.word	1073813249
 520 0038 01190140 		.word	1073813761
 521 003c 03400140 		.word	1073823747
 522 0040 02410140 		.word	1073824002
 523 0044 02420140 		.word	1073824258
 524 0048 02430140 		.word	1073824514
 525 004c 03470140 		.word	1073825539
 526 0050 03480140 		.word	1073825795
 527 0054 024C0140 		.word	1073826818
 528 0058 01510140 		.word	1073828097
 529              		.type	cy_cfg_data_table.5007, %object
 530              		.size	cy_cfg_data_table.5007, 56
 531              	cy_cfg_data_table.5007:
 532 005c 7E       		.byte	126
 533 005d 02       		.byte	2
 534 005e 04       		.byte	4
 535 005f 86       		.byte	-122
 536 0060 14       		.byte	20
 537 0061 AA       		.byte	-86
 538 0062 1C       		.byte	28
 539 0063 3C       		.byte	60
 540 0064 24       		.byte	36
 541 0065 A2       		.byte	-94
 542 0066 34       		.byte	52
 543 0067 A4       		.byte	-92
 544 0068 64       		.byte	100
 545 0069 28       		.byte	40
 546 006a 7C       		.byte	124
 547 006b 64       		.byte	100
 548 006c EE       		.byte	-18
 549 006d 0A       		.byte	10
 550 006e EE       		.byte	-18
 551 006f 0A       		.byte	10
 552 0070 33       		.byte	51
 553 0071 80       		.byte	-128
 554 0072 36       		.byte	54
 555 0073 40       		.byte	64
 556 0074 CC       		.byte	-52
 557 0075 30       		.byte	48
 558 0076 A6       		.byte	-90
 559 0077 40       		.byte	64
 560 0078 A7       		.byte	-89
 561 0079 80       		.byte	-128
 562 007a A6       		.byte	-90
 563 007b 40       		.byte	64
 564 007c A7       		.byte	-89
 565 007d 80       		.byte	-128
ARM GAS  C:\Users\MICHA_~1\AppData\Local\Temp\cceBklST.s 			page 20


 566 007e A6       		.byte	-90
 567 007f 40       		.byte	64
 568 0080 A7       		.byte	-89
 569 0081 80       		.byte	-128
 570 0082 08       		.byte	8
 571 0083 08       		.byte	8
 572 0084 0F       		.byte	15
 573 0085 40       		.byte	64
 574 0086 C2       		.byte	-62
 575 0087 0C       		.byte	12
 576 0088 AE       		.byte	-82
 577 0089 40       		.byte	64
 578 008a AF       		.byte	-81
 579 008b 80       		.byte	-128
 580 008c EE       		.byte	-18
 581 008d 50       		.byte	80
 582 008e AC       		.byte	-84
 583 008f 08       		.byte	8
 584 0090 AF       		.byte	-81
 585 0091 40       		.byte	64
 586 0092 00       		.byte	0
 587 0093 0A       		.byte	10
 588              		.type	BS_IOPINS0_0_VAL.4999, %object
 589              		.size	BS_IOPINS0_0_VAL.4999, 10
 590              	BS_IOPINS0_0_VAL.4999:
 591 0094 86       		.byte	-122
 592 0095 00       		.byte	0
 593 0096 00       		.byte	0
 594 0097 86       		.byte	-122
 595 0098 00       		.byte	0
 596 0099 00       		.byte	0
 597 009a 00       		.byte	0
 598 009b 00       		.byte	0
 599 009c 00       		.byte	0
 600 009d 00       		.byte	0
 601              		.type	BS_IOPINS0_7_VAL.5000, %object
 602              		.size	BS_IOPINS0_7_VAL.5000, 10
 603              	BS_IOPINS0_7_VAL.5000:
 604 009e 29       		.byte	41
 605 009f 00       		.byte	0
 606 00a0 00       		.byte	0
 607 00a1 29       		.byte	41
 608 00a2 00       		.byte	0
 609 00a3 00       		.byte	0
 610 00a4 00       		.byte	0
 611 00a5 00       		.byte	0
 612 00a6 00       		.byte	0
 613 00a7 00       		.byte	0
 614              		.type	BS_IOPINS0_8_VAL.5001, %object
 615              		.size	BS_IOPINS0_8_VAL.5001, 10
 616              	BS_IOPINS0_8_VAL.5001:
 617 00a8 64       		.byte	100
 618 00a9 00       		.byte	0
 619 00aa 00       		.byte	0
 620 00ab 24       		.byte	36
 621 00ac 00       		.byte	0
 622 00ad 00       		.byte	0
ARM GAS  C:\Users\MICHA_~1\AppData\Local\Temp\cceBklST.s 			page 21


 623 00ae 00       		.byte	0
 624 00af 00       		.byte	0
 625 00b0 C0       		.byte	-64
 626 00b1 00       		.byte	0
 627              		.type	BS_IOPINS0_2_VAL.5002, %object
 628              		.size	BS_IOPINS0_2_VAL.5002, 10
 629              	BS_IOPINS0_2_VAL.5002:
 630 00b2 AA       		.byte	-86
 631 00b3 00       		.byte	0
 632 00b4 00       		.byte	0
 633 00b5 AA       		.byte	-86
 634 00b6 00       		.byte	0
 635 00b7 00       		.byte	0
 636 00b8 00       		.byte	0
 637 00b9 00       		.byte	0
 638 00ba 00       		.byte	0
 639 00bb 00       		.byte	0
 640              		.type	BS_IOPINS0_3_VAL.5003, %object
 641              		.size	BS_IOPINS0_3_VAL.5003, 8
 642              	BS_IOPINS0_3_VAL.5003:
 643 00bc 00       		.byte	0
 644 00bd 3C       		.byte	60
 645 00be 00       		.byte	0
 646 00bf 00       		.byte	0
 647 00c0 00       		.byte	0
 648 00c1 00       		.byte	0
 649 00c2 00       		.byte	0
 650 00c3 00       		.byte	0
 651              		.type	BS_IOPINS0_4_VAL.5004, %object
 652              		.size	BS_IOPINS0_4_VAL.5004, 10
 653              	BS_IOPINS0_4_VAL.5004:
 654 00c4 A2       		.byte	-94
 655 00c5 00       		.byte	0
 656 00c6 00       		.byte	0
 657 00c7 A2       		.byte	-94
 658 00c8 00       		.byte	0
 659 00c9 00       		.byte	0
 660 00ca 00       		.byte	0
 661 00cb 00       		.byte	0
 662 00cc 00       		.byte	0
 663 00cd 00       		.byte	0
 664              		.type	BS_IOPINS0_6_VAL.5005, %object
 665              		.size	BS_IOPINS0_6_VAL.5005, 10
 666              	BS_IOPINS0_6_VAL.5005:
 667 00ce A4       		.byte	-92
 668 00cf 00       		.byte	0
 669 00d0 00       		.byte	0
 670 00d1 A4       		.byte	-92
 671 00d2 00       		.byte	0
 672 00d3 00       		.byte	0
 673 00d4 00       		.byte	0
 674 00d5 00       		.byte	0
 675 00d6 00       		.byte	0
 676 00d7 00       		.byte	0
 677              		.text
 678              	.Letext0:
 679              		.file 2 "c:\\program files (x86)\\cypress\\psoc creator\\4.2\\psoc creator\\import\\gnu\\arm\\5.4.
ARM GAS  C:\Users\MICHA_~1\AppData\Local\Temp\cceBklST.s 			page 22


 680              		.file 3 "Generated_Source\\PSoC5\\cytypes.h"
 681              		.file 4 "Generated_Source\\PSoC5\\CyLib.h"