ARM GAS  C:\Users\rabbit\AppData\Local\Temp\cceL7SSb.s 			page 1


   1              		.syntax unified
   2              		.cpu cortex-m3
   3              		.fpu softvfp
   4              		.eabi_attribute 20, 1
   5              		.eabi_attribute 21, 1
   6              		.eabi_attribute 23, 3
   7              		.eabi_attribute 24, 1
   8              		.eabi_attribute 25, 1
   9              		.eabi_attribute 26, 1
  10              		.eabi_attribute 30, 4
  11              		.eabi_attribute 34, 1
  12              		.eabi_attribute 18, 4
  13              		.thumb
  14              		.syntax unified
  15              		.file	"CyFlash.c"
  16              		.text
  17              	.Ltext0:
  18              		.cfi_sections	.debug_frame
  19              		.section	.text.CyFlash_Start,"ax",%progbits
  20              		.align	1
  21              		.global	CyFlash_Start
  22              		.thumb
  23              		.thumb_func
  24              		.type	CyFlash_Start, %function
  25              	CyFlash_Start:
  26              	.LFB0:
  27              		.file 1 "Generated_Source\\PSoC5\\CyFlash.c"
   1:Generated_Source\PSoC5/CyFlash.c **** /***************************************************************************//**
   2:Generated_Source\PSoC5/CyFlash.c **** * \file CyFlash.c
   3:Generated_Source\PSoC5/CyFlash.c **** * \version 6.10
   4:Generated_Source\PSoC5/CyFlash.c **** *
   5:Generated_Source\PSoC5/CyFlash.c **** * \brief Provides an API for the FLASH/EEPROM.
   6:Generated_Source\PSoC5/CyFlash.c **** *
   7:Generated_Source\PSoC5/CyFlash.c **** * \note This code is endian agnostic.
   8:Generated_Source\PSoC5/CyFlash.c **** *
   9:Generated_Source\PSoC5/CyFlash.c **** * \note Documentation of the API's in this file is located in the System
  10:Generated_Source\PSoC5/CyFlash.c **** * Reference Guide provided with PSoC Creator.
  11:Generated_Source\PSoC5/CyFlash.c **** *
  12:Generated_Source\PSoC5/CyFlash.c **** ********************************************************************************
  13:Generated_Source\PSoC5/CyFlash.c **** * \copyright
  14:Generated_Source\PSoC5/CyFlash.c **** * Copyright 2008-2021, Cypress Semiconductor Corporation. All rights reserved.
  15:Generated_Source\PSoC5/CyFlash.c **** * You may use this file only in accordance with the license, terms, conditions,
  16:Generated_Source\PSoC5/CyFlash.c **** * disclaimers, and limitations in the end user license agreement accompanying
  17:Generated_Source\PSoC5/CyFlash.c **** * the software package with which this file was provided.
  18:Generated_Source\PSoC5/CyFlash.c **** *******************************************************************************/
  19:Generated_Source\PSoC5/CyFlash.c **** 
  20:Generated_Source\PSoC5/CyFlash.c **** #include "CyFlash.h"
  21:Generated_Source\PSoC5/CyFlash.c **** 
  22:Generated_Source\PSoC5/CyFlash.c **** /*  The number of EEPROM arrays */
  23:Generated_Source\PSoC5/CyFlash.c **** #define CY_FLASH_EEPROM_NUMBER_ARRAYS                 (1u)
  24:Generated_Source\PSoC5/CyFlash.c **** 
  25:Generated_Source\PSoC5/CyFlash.c **** 
  26:Generated_Source\PSoC5/CyFlash.c **** /*******************************************************************************
  27:Generated_Source\PSoC5/CyFlash.c **** * Holds the die temperature, updated by CySetTemp(). Used for flash writing.
  28:Generated_Source\PSoC5/CyFlash.c **** * The first byte is the sign of the temperature (0 = negative, 1 = positive).
  29:Generated_Source\PSoC5/CyFlash.c **** * The second byte is the magnitude.
  30:Generated_Source\PSoC5/CyFlash.c **** *******************************************************************************/
ARM GAS  C:\Users\rabbit\AppData\Local\Temp\cceL7SSb.s 			page 2


  31:Generated_Source\PSoC5/CyFlash.c **** uint8 dieTemperature[CY_FLASH_DIE_TEMP_DATA_SIZE];
  32:Generated_Source\PSoC5/CyFlash.c **** 
  33:Generated_Source\PSoC5/CyFlash.c **** #if(CYDEV_ECC_ENABLE == 0)
  34:Generated_Source\PSoC5/CyFlash.c ****     static uint8 * rowBuffer = 0;
  35:Generated_Source\PSoC5/CyFlash.c **** #endif  /* (CYDEV_ECC_ENABLE == 0) */
  36:Generated_Source\PSoC5/CyFlash.c **** 
  37:Generated_Source\PSoC5/CyFlash.c **** 
  38:Generated_Source\PSoC5/CyFlash.c **** static cystatus CySetTempInt(void);
  39:Generated_Source\PSoC5/CyFlash.c **** 
  40:Generated_Source\PSoC5/CyFlash.c **** 
  41:Generated_Source\PSoC5/CyFlash.c **** /*******************************************************************************
  42:Generated_Source\PSoC5/CyFlash.c **** * Function Name: CyFlash_Start
  43:Generated_Source\PSoC5/CyFlash.c **** ****************************************************************************//**
  44:Generated_Source\PSoC5/CyFlash.c **** *
  45:Generated_Source\PSoC5/CyFlash.c **** *  Enable the Flash.
  46:Generated_Source\PSoC5/CyFlash.c **** *
  47:Generated_Source\PSoC5/CyFlash.c **** *******************************************************************************/
  48:Generated_Source\PSoC5/CyFlash.c **** void CyFlash_Start(void) 
  49:Generated_Source\PSoC5/CyFlash.c **** {
  28              		.loc 1 49 0
  29              		.cfi_startproc
  30              		@ args = 0, pretend = 0, frame = 0
  31              		@ frame_needed = 0, uses_anonymous_args = 0
  32 0000 08B5     		push	{r3, lr}
  33              		.cfi_def_cfa_offset 8
  34              		.cfi_offset 3, -8
  35              		.cfi_offset 14, -4
  50:Generated_Source\PSoC5/CyFlash.c ****     uint8 interruptState;
  51:Generated_Source\PSoC5/CyFlash.c **** 
  52:Generated_Source\PSoC5/CyFlash.c ****     interruptState = CyEnterCriticalSection();
  36              		.loc 1 52 0
  37 0002 FFF7FEFF 		bl	CyEnterCriticalSection
  38              	.LVL0:
  53:Generated_Source\PSoC5/CyFlash.c **** 
  54:Generated_Source\PSoC5/CyFlash.c **** 
  55:Generated_Source\PSoC5/CyFlash.c ****     /***************************************************************************
  56:Generated_Source\PSoC5/CyFlash.c ****     * Enable SPC clock. This also internally enables the 36MHz IMO, since this
  57:Generated_Source\PSoC5/CyFlash.c ****     * is required for the SPC to function.
  58:Generated_Source\PSoC5/CyFlash.c ****     ***************************************************************************/
  59:Generated_Source\PSoC5/CyFlash.c ****     CY_FLASH_PM_ACT_CFG0_REG    |= CY_FLASH_PM_ACT_CFG0_EN_CLK_SPC;
  39              		.loc 1 59 0
  40 0006 0F4A     		ldr	r2, .L6
  41 0008 1378     		ldrb	r3, [r2]	@ zero_extendqisi2
  42 000a 43F00803 		orr	r3, r3, #8
  43 000e 1370     		strb	r3, [r2]
  60:Generated_Source\PSoC5/CyFlash.c ****     CY_FLASH_PM_ALTACT_CFG0_REG |= CY_FLASH_PM_ALTACT_CFG0_EN_CLK_SPC;
  44              		.loc 1 60 0
  45 0010 137C     		ldrb	r3, [r2, #16]	@ zero_extendqisi2
  46 0012 43F00803 		orr	r3, r3, #8
  47 0016 1374     		strb	r3, [r2, #16]
  61:Generated_Source\PSoC5/CyFlash.c **** 
  62:Generated_Source\PSoC5/CyFlash.c **** 
  63:Generated_Source\PSoC5/CyFlash.c ****     /***************************************************************************
  64:Generated_Source\PSoC5/CyFlash.c ****     * The wake count defines the number of Bus Clock cycles it takes for the
  65:Generated_Source\PSoC5/CyFlash.c ****     * flash or eeprom to wake up from a low power mode independent of the chip
  66:Generated_Source\PSoC5/CyFlash.c ****     * power mode. Wake up time for these blocks is 5 us.
  67:Generated_Source\PSoC5/CyFlash.c ****     * The granularity of this register is 2 Bus Clock cycles, so a value of 0x1E
ARM GAS  C:\Users\rabbit\AppData\Local\Temp\cceL7SSb.s 			page 3


  68:Generated_Source\PSoC5/CyFlash.c ****     * (30d) defines the wake up time as 60 cycles of the Bus Clock.
  69:Generated_Source\PSoC5/CyFlash.c ****     * This register needs to be written with a value dependent on the Bus Clock
  70:Generated_Source\PSoC5/CyFlash.c ****     * frequency so that the duration of the cycles is equal to or greater than
  71:Generated_Source\PSoC5/CyFlash.c ****     * the 5 us delay required.
  72:Generated_Source\PSoC5/CyFlash.c ****     ***************************************************************************/
  73:Generated_Source\PSoC5/CyFlash.c ****     CY_FLASH_SPC_FM_EE_WAKE_CNT_REG = CY_FLASH_SPC_FM_EE_WAKE_CNT_80MHZ;
  48              		.loc 1 73 0
  49 0018 0B4B     		ldr	r3, .L6+4
  50 001a C822     		movs	r2, #200
  51 001c 1A70     		strb	r2, [r3]
  74:Generated_Source\PSoC5/CyFlash.c **** 
  75:Generated_Source\PSoC5/CyFlash.c **** 
  76:Generated_Source\PSoC5/CyFlash.c ****     /***************************************************************************
  77:Generated_Source\PSoC5/CyFlash.c ****     * Enable flash. Active flash macros consume current, but re-enabling a
  78:Generated_Source\PSoC5/CyFlash.c ****     * disabled flash macro takes 5us. If the CPU attempts to fetch out of the
  79:Generated_Source\PSoC5/CyFlash.c ****     * macro during that time, it will be stalled. This bit allows the flash to
  80:Generated_Source\PSoC5/CyFlash.c ****     * be enabled even if the CPU is disabled, which allows a quicker return to
  81:Generated_Source\PSoC5/CyFlash.c ****     * code execution.
  82:Generated_Source\PSoC5/CyFlash.c ****     ***************************************************************************/
  83:Generated_Source\PSoC5/CyFlash.c ****     CY_FLASH_PM_ACT_CFG12_REG    |= CY_FLASH_PM_ACT_CFG12_EN_FM;
  52              		.loc 1 83 0
  53 001e 0B4A     		ldr	r2, .L6+8
  54 0020 1378     		ldrb	r3, [r2]	@ zero_extendqisi2
  55 0022 43F00F03 		orr	r3, r3, #15
  56 0026 1370     		strb	r3, [r2]
  84:Generated_Source\PSoC5/CyFlash.c ****     CY_FLASH_PM_ALTACT_CFG12_REG |= CY_FLASH_PM_ALTACT_CFG12_EN_FM;
  57              		.loc 1 84 0
  58 0028 137C     		ldrb	r3, [r2, #16]	@ zero_extendqisi2
  59 002a 43F00F03 		orr	r3, r3, #15
  60 002e 1374     		strb	r3, [r2, #16]
  85:Generated_Source\PSoC5/CyFlash.c **** 
  86:Generated_Source\PSoC5/CyFlash.c ****     while(0u == (CY_FLASH_SPC_FM_EE_CR_REG & CY_FLASH_EE_EE_AWAKE))
  61              		.loc 1 86 0
  62 0030 02F55572 		add	r2, r2, #852
  63              	.L2:
  64              		.loc 1 86 0 is_stmt 0 discriminator 1
  65 0034 1378     		ldrb	r3, [r2]	@ zero_extendqisi2
  66 0036 9B06     		lsls	r3, r3, #26
  67 0038 FCD5     		bpl	.L2
  87:Generated_Source\PSoC5/CyFlash.c ****     {
  88:Generated_Source\PSoC5/CyFlash.c ****         /* Non-zero status denotes that the EEPROM/Flash is awake & powered. */
  89:Generated_Source\PSoC5/CyFlash.c ****     }
  90:Generated_Source\PSoC5/CyFlash.c **** 
  91:Generated_Source\PSoC5/CyFlash.c ****     CyExitCriticalSection(interruptState);
  92:Generated_Source\PSoC5/CyFlash.c **** }
  68              		.loc 1 92 0 is_stmt 1
  69 003a BDE80840 		pop	{r3, lr}
  70              		.cfi_restore 14
  71              		.cfi_restore 3
  72              		.cfi_def_cfa_offset 0
  91:Generated_Source\PSoC5/CyFlash.c **** }
  73              		.loc 1 91 0
  74 003e FFF7FEBF 		b	CyExitCriticalSection
  75              	.LVL1:
  76              	.L7:
  77 0042 00BF     		.align	2
  78              	.L6:
ARM GAS  C:\Users\rabbit\AppData\Local\Temp\cceL7SSb.s 			page 4


  79 0044 A0430040 		.word	1073759136
  80 0048 01470040 		.word	1073760001
  81 004c AC430040 		.word	1073759148
  82              		.cfi_endproc
  83              	.LFE0:
  84              		.size	CyFlash_Start, .-CyFlash_Start
  85              		.section	.text.CyFlash_Stop,"ax",%progbits
  86              		.align	1
  87              		.global	CyFlash_Stop
  88              		.thumb
  89              		.thumb_func
  90              		.type	CyFlash_Stop, %function
  91              	CyFlash_Stop:
  92              	.LFB1:
  93:Generated_Source\PSoC5/CyFlash.c **** 
  94:Generated_Source\PSoC5/CyFlash.c **** 
  95:Generated_Source\PSoC5/CyFlash.c **** /*******************************************************************************
  96:Generated_Source\PSoC5/CyFlash.c **** * Function Name: CyFlash_Stop
  97:Generated_Source\PSoC5/CyFlash.c **** ****************************************************************************//**
  98:Generated_Source\PSoC5/CyFlash.c **** *
  99:Generated_Source\PSoC5/CyFlash.c **** *  Disable the Flash.
 100:Generated_Source\PSoC5/CyFlash.c **** *
 101:Generated_Source\PSoC5/CyFlash.c **** * \sideeffect
 102:Generated_Source\PSoC5/CyFlash.c **** *  This setting is ignored as long as the CPU is currently running.  This will
 103:Generated_Source\PSoC5/CyFlash.c **** *  only take effect when the CPU is later disabled.
 104:Generated_Source\PSoC5/CyFlash.c **** *
 105:Generated_Source\PSoC5/CyFlash.c **** *******************************************************************************/
 106:Generated_Source\PSoC5/CyFlash.c **** void CyFlash_Stop(void) 
 107:Generated_Source\PSoC5/CyFlash.c **** {
  93              		.loc 1 107 0
  94              		.cfi_startproc
  95              		@ args = 0, pretend = 0, frame = 0
  96              		@ frame_needed = 0, uses_anonymous_args = 0
  97 0000 08B5     		push	{r3, lr}
  98              		.cfi_def_cfa_offset 8
  99              		.cfi_offset 3, -8
 100              		.cfi_offset 14, -4
 108:Generated_Source\PSoC5/CyFlash.c ****     uint8 interruptState;
 109:Generated_Source\PSoC5/CyFlash.c **** 
 110:Generated_Source\PSoC5/CyFlash.c ****     interruptState = CyEnterCriticalSection();
 101              		.loc 1 110 0
 102 0002 FFF7FEFF 		bl	CyEnterCriticalSection
 103              	.LVL2:
 111:Generated_Source\PSoC5/CyFlash.c **** 
 112:Generated_Source\PSoC5/CyFlash.c ****     CY_FLASH_PM_ACT_CFG12_REG    &= ((uint8)(~CY_FLASH_PM_ACT_CFG12_EN_FM));
 104              		.loc 1 112 0
 105 0006 064A     		ldr	r2, .L9
 106 0008 1378     		ldrb	r3, [r2]	@ zero_extendqisi2
 107 000a 03F0F003 		and	r3, r3, #240
 108 000e 1370     		strb	r3, [r2]
 113:Generated_Source\PSoC5/CyFlash.c ****     CY_FLASH_PM_ALTACT_CFG12_REG &= ((uint8)(~CY_FLASH_PM_ALTACT_CFG12_EN_FM));
 109              		.loc 1 113 0
 110 0010 137C     		ldrb	r3, [r2, #16]	@ zero_extendqisi2
 111 0012 03F0F003 		and	r3, r3, #240
 112 0016 1374     		strb	r3, [r2, #16]
 114:Generated_Source\PSoC5/CyFlash.c **** 
 115:Generated_Source\PSoC5/CyFlash.c ****     CyExitCriticalSection(interruptState);
ARM GAS  C:\Users\rabbit\AppData\Local\Temp\cceL7SSb.s 			page 5


 116:Generated_Source\PSoC5/CyFlash.c **** }
 113              		.loc 1 116 0
 114 0018 BDE80840 		pop	{r3, lr}
 115              		.cfi_restore 14
 116              		.cfi_restore 3
 117              		.cfi_def_cfa_offset 0
 115:Generated_Source\PSoC5/CyFlash.c **** }
 118              		.loc 1 115 0
 119 001c FFF7FEBF 		b	CyExitCriticalSection
 120              	.LVL3:
 121              	.L10:
 122              		.align	2
 123              	.L9:
 124 0020 AC430040 		.word	1073759148
 125              		.cfi_endproc
 126              	.LFE1:
 127              		.size	CyFlash_Stop, .-CyFlash_Stop
 128              		.section	.text.CyFlash_EraseRow,"ax",%progbits
 129              		.align	1
 130              		.global	CyFlash_EraseRow
 131              		.thumb
 132              		.thumb_func
 133              		.type	CyFlash_EraseRow, %function
 134              	CyFlash_EraseRow:
 135              	.LFB2:
 117:Generated_Source\PSoC5/CyFlash.c **** 
 118:Generated_Source\PSoC5/CyFlash.c **** 
 119:Generated_Source\PSoC5/CyFlash.c **** /*******************************************************************************
 120:Generated_Source\PSoC5/CyFlash.c **** * Function Name: CyFlash_EraseRow
 121:Generated_Source\PSoC5/CyFlash.c **** ****************************************************************************//**
 122:Generated_Source\PSoC5/CyFlash.c **** *
 123:Generated_Source\PSoC5/CyFlash.c **** *  Erases a single row of flash. Reports success or reason for failure. 
 124:Generated_Source\PSoC5/CyFlash.c **** *  The API does not return until the erase operation is complete.
 125:Generated_Source\PSoC5/CyFlash.c **** *
 126:Generated_Source\PSoC5/CyFlash.c **** *  \param arrayID:    ID of the array to erase.
 127:Generated_Source\PSoC5/CyFlash.c **** *   The arrays in the part are sequential starting at the first ID for the
 128:Generated_Source\PSoC5/CyFlash.c **** *   Flash memory type. 
 129:Generated_Source\PSoC5/CyFlash.c **** *  \param rowAddress: Row address within the specified arrayId.
 130:Generated_Source\PSoC5/CyFlash.c **** *
 131:Generated_Source\PSoC5/CyFlash.c **** *  \return
 132:Generated_Source\PSoC5/CyFlash.c **** *  status:
 133:Generated_Source\PSoC5/CyFlash.c **** *   CYRET_SUCCESS if successful.
 134:Generated_Source\PSoC5/CyFlash.c **** *   CYRET_LOCKED if the SPC is already in use.
 135:Generated_Source\PSoC5/CyFlash.c **** *   CYRET_CANCELED if command not accepted
 136:Generated_Source\PSoC5/CyFlash.c **** *   CYRET_UNKNOWN if there was an SPC error.
 137:Generated_Source\PSoC5/CyFlash.c **** *   CYRET_BAD_PARAM if one or more invalid parameters
 138:Generated_Source\PSoC5/CyFlash.c **** *
 139:Generated_Source\PSoC5/CyFlash.c **** *******************************************************************************/
 140:Generated_Source\PSoC5/CyFlash.c **** cystatus CyFlash_EraseRow(uint8 arrayId, uint16 rowAddress)
 141:Generated_Source\PSoC5/CyFlash.c **** {
 136              		.loc 1 141 0
 137              		.cfi_startproc
 138              		@ args = 0, pretend = 0, frame = 0
 139              		@ frame_needed = 0, uses_anonymous_args = 0
 140              	.LVL4:
 142:Generated_Source\PSoC5/CyFlash.c ****     cystatus status = CYRET_SUCCESS;
 143:Generated_Source\PSoC5/CyFlash.c **** 
ARM GAS  C:\Users\rabbit\AppData\Local\Temp\cceL7SSb.s 			page 6


 144:Generated_Source\PSoC5/CyFlash.c ****     if (arrayId > CY_SPC_LAST_FLASH_ARRAYID)
 141              		.loc 1 144 0
 142 0000 3F28     		cmp	r0, #63
 141:Generated_Source\PSoC5/CyFlash.c ****     cystatus status = CYRET_SUCCESS;
 143              		.loc 1 141 0
 144 0002 38B5     		push	{r3, r4, r5, lr}
 145              		.cfi_def_cfa_offset 16
 146              		.cfi_offset 3, -16
 147              		.cfi_offset 4, -12
 148              		.cfi_offset 5, -8
 149              		.cfi_offset 14, -4
 141:Generated_Source\PSoC5/CyFlash.c ****     cystatus status = CYRET_SUCCESS;
 150              		.loc 1 141 0
 151 0004 0446     		mov	r4, r0
 152 0006 0D46     		mov	r5, r1
 153              		.loc 1 144 0
 154 0008 29D8     		bhi	.L17
 145:Generated_Source\PSoC5/CyFlash.c ****     {
 146:Generated_Source\PSoC5/CyFlash.c ****         status = CYRET_BAD_PARAM;
 147:Generated_Source\PSoC5/CyFlash.c ****     }
 148:Generated_Source\PSoC5/CyFlash.c ****     else if(rowAddress > (CY_FLASH_NUMBER_ROWS/CY_FLASH_NUMBER_ARRAYS))
 155              		.loc 1 148 0
 156 000a B1F5807F 		cmp	r1, #256
 157 000e 26D8     		bhi	.L17
 149:Generated_Source\PSoC5/CyFlash.c ****     {
 150:Generated_Source\PSoC5/CyFlash.c ****         status = CYRET_BAD_PARAM;
 151:Generated_Source\PSoC5/CyFlash.c ****     }        
 152:Generated_Source\PSoC5/CyFlash.c ****     else
 153:Generated_Source\PSoC5/CyFlash.c ****     {
 154:Generated_Source\PSoC5/CyFlash.c ****         if(CySpcLock() == CYRET_SUCCESS)
 158              		.loc 1 154 0
 159 0010 FFF7FEFF 		bl	CySpcLock
 160              	.LVL5:
 161 0014 28BB     		cbnz	r0, .L18
 155:Generated_Source\PSoC5/CyFlash.c ****         {
 156:Generated_Source\PSoC5/CyFlash.c ****             /* Erase flash row */
 157:Generated_Source\PSoC5/CyFlash.c ****             status = CySpcEraseRow(arrayId, rowAddress, dieTemperature[0u], dieTemperature[1u]);
 162              		.loc 1 157 0
 163 0016 144A     		ldr	r2, .L23
 164 0018 2946     		mov	r1, r5
 165 001a 5378     		ldrb	r3, [r2, #1]	@ zero_extendqisi2
 166 001c 2046     		mov	r0, r4
 167 001e 1278     		ldrb	r2, [r2]	@ zero_extendqisi2
 168 0020 FFF7FEFF 		bl	CySpcEraseRow
 169              	.LVL6:
 158:Generated_Source\PSoC5/CyFlash.c ****             
 159:Generated_Source\PSoC5/CyFlash.c ****             if(CYRET_STARTED == status)
 170              		.loc 1 159 0
 171 0024 0728     		cmp	r0, #7
 172 0026 01D1     		bne	.L21
 160:Generated_Source\PSoC5/CyFlash.c ****             {
 161:Generated_Source\PSoC5/CyFlash.c ****                 while(CY_SPC_BUSY)
 173              		.loc 1 161 0
 174 0028 104C     		ldr	r4, .L23+4
 175 002a 01E0     		b	.L13
 176              	.L21:
 162:Generated_Source\PSoC5/CyFlash.c ****                 {
ARM GAS  C:\Users\rabbit\AppData\Local\Temp\cceL7SSb.s 			page 7


 163:Generated_Source\PSoC5/CyFlash.c ****                     /* Wait for SPC to finish and get SPC status */
 164:Generated_Source\PSoC5/CyFlash.c ****                     CyDelayUs(1u);
 165:Generated_Source\PSoC5/CyFlash.c ****                 }
 166:Generated_Source\PSoC5/CyFlash.c ****                 
 167:Generated_Source\PSoC5/CyFlash.c ****                 /* Hide SPC status */
 168:Generated_Source\PSoC5/CyFlash.c ****                 if(CY_SPC_STATUS_SUCCESS == CY_SPC_READ_STATUS)
 169:Generated_Source\PSoC5/CyFlash.c ****                 {
 170:Generated_Source\PSoC5/CyFlash.c ****                     status = CYRET_SUCCESS;
 171:Generated_Source\PSoC5/CyFlash.c ****                 }
 172:Generated_Source\PSoC5/CyFlash.c ****                 else
 173:Generated_Source\PSoC5/CyFlash.c ****                 {
 174:Generated_Source\PSoC5/CyFlash.c ****                     status = CYRET_UNKNOWN;
 175:Generated_Source\PSoC5/CyFlash.c ****                 }
 176:Generated_Source\PSoC5/CyFlash.c ****             }
 177:Generated_Source\PSoC5/CyFlash.c **** 	        else
 178:Generated_Source\PSoC5/CyFlash.c ****             {
 179:Generated_Source\PSoC5/CyFlash.c ****                 status = CYRET_CANCELED;
 177              		.loc 1 179 0
 178 002c 0924     		movs	r4, #9
 179 002e 13E0     		b	.L14
 180              	.LVL7:
 181              	.L13:
 161:Generated_Source\PSoC5/CyFlash.c ****                 {
 182              		.loc 1 161 0
 183 0030 2278     		ldrb	r2, [r4]	@ zero_extendqisi2
 184 0032 0E4B     		ldr	r3, .L23+4
 185 0034 9107     		lsls	r1, r2, #30
 186 0036 03D4     		bmi	.L22
 164:Generated_Source\PSoC5/CyFlash.c ****                 }
 187              		.loc 1 164 0
 188 0038 0120     		movs	r0, #1
 189 003a FFF7FEFF 		bl	CyDelayUs
 190              	.LVL8:
 191 003e F7E7     		b	.L13
 192              	.L22:
 168:Generated_Source\PSoC5/CyFlash.c ****                 {
 193              		.loc 1 168 0
 194 0040 1A78     		ldrb	r2, [r3]	@ zero_extendqisi2
 195 0042 9207     		lsls	r2, r2, #30
 196 0044 06D5     		bpl	.L19
 168:Generated_Source\PSoC5/CyFlash.c ****                 {
 197              		.loc 1 168 0 is_stmt 0 discriminator 1
 198 0046 1B78     		ldrb	r3, [r3]	@ zero_extendqisi2
 199 0048 9B08     		lsrs	r3, r3, #2
 200 004a 14BF     		ite	ne
 201 004c 4FF0FF34 		movne	r4, #-1
 202 0050 0024     		moveq	r4, #0
 203 0052 01E0     		b	.L14
 204              	.L19:
 174:Generated_Source\PSoC5/CyFlash.c ****                 }
 205              		.loc 1 174 0 is_stmt 1
 206 0054 4FF0FF34 		mov	r4, #-1
 207              	.L14:
 208              	.LVL9:
 180:Generated_Source\PSoC5/CyFlash.c ****             }
 181:Generated_Source\PSoC5/CyFlash.c ****             CySpcUnlock();
 209              		.loc 1 181 0
ARM GAS  C:\Users\rabbit\AppData\Local\Temp\cceL7SSb.s 			page 8


 210 0058 FFF7FEFF 		bl	CySpcUnlock
 211              	.LVL10:
 212 005c 02E0     		b	.L12
 213              	.LVL11:
 214              	.L17:
 146:Generated_Source\PSoC5/CyFlash.c ****     }
 215              		.loc 1 146 0
 216 005e 0124     		movs	r4, #1
 217 0060 00E0     		b	.L12
 218              	.LVL12:
 219              	.L18:
 182:Generated_Source\PSoC5/CyFlash.c ****         }
 183:Generated_Source\PSoC5/CyFlash.c ****         else 
 184:Generated_Source\PSoC5/CyFlash.c ****         {
 185:Generated_Source\PSoC5/CyFlash.c ****             status = CYRET_LOCKED;
 220              		.loc 1 185 0
 221 0062 0424     		movs	r4, #4
 222              	.LVL13:
 223              	.L12:
 186:Generated_Source\PSoC5/CyFlash.c ****         }
 187:Generated_Source\PSoC5/CyFlash.c ****     }
 188:Generated_Source\PSoC5/CyFlash.c ****     
 189:Generated_Source\PSoC5/CyFlash.c ****     return(status);
 190:Generated_Source\PSoC5/CyFlash.c **** }
 224              		.loc 1 190 0
 225 0064 2046     		mov	r0, r4
 226 0066 38BD     		pop	{r3, r4, r5, pc}
 227              	.LVL14:
 228              	.L24:
 229              		.align	2
 230              	.L23:
 231 0068 00000000 		.word	dieTemperature
 232 006c 22470040 		.word	1073760034
 233              		.cfi_endproc
 234              	.LFE2:
 235              		.size	CyFlash_EraseRow, .-CyFlash_EraseRow
 236              		.section	.text.CyFlashGetSpcAlgorithm,"ax",%progbits
 237              		.align	1
 238              		.global	CyFlashGetSpcAlgorithm
 239              		.thumb
 240              		.thumb_func
 241              		.type	CyFlashGetSpcAlgorithm, %function
 242              	CyFlashGetSpcAlgorithm:
 243              	.LFB4:
 191:Generated_Source\PSoC5/CyFlash.c **** 
 192:Generated_Source\PSoC5/CyFlash.c **** 
 193:Generated_Source\PSoC5/CyFlash.c **** /*******************************************************************************
 194:Generated_Source\PSoC5/CyFlash.c **** * Function Name: CySetTempInt
 195:Generated_Source\PSoC5/CyFlash.c **** ****************************************************************************//**
 196:Generated_Source\PSoC5/CyFlash.c **** *
 197:Generated_Source\PSoC5/CyFlash.c **** *  Sends a command to the SPC to read the die temperature. Sets a global value
 198:Generated_Source\PSoC5/CyFlash.c **** *  used by the Write function. This function must be called once before
 199:Generated_Source\PSoC5/CyFlash.c **** *  executing a series of Flash writing functions.
 200:Generated_Source\PSoC5/CyFlash.c **** *
 201:Generated_Source\PSoC5/CyFlash.c **** * \return
 202:Generated_Source\PSoC5/CyFlash.c **** *  status:
 203:Generated_Source\PSoC5/CyFlash.c **** *   CYRET_SUCCESS - if successful
ARM GAS  C:\Users\rabbit\AppData\Local\Temp\cceL7SSb.s 			page 9


 204:Generated_Source\PSoC5/CyFlash.c **** *   CYRET_LOCKED  - if Flash writing already in use
 205:Generated_Source\PSoC5/CyFlash.c **** *   CYRET_UNKNOWN - if there was an SPC error
 206:Generated_Source\PSoC5/CyFlash.c **** *
 207:Generated_Source\PSoC5/CyFlash.c **** *******************************************************************************/
 208:Generated_Source\PSoC5/CyFlash.c **** static cystatus CySetTempInt(void) 
 209:Generated_Source\PSoC5/CyFlash.c **** {
 210:Generated_Source\PSoC5/CyFlash.c ****     cystatus status;
 211:Generated_Source\PSoC5/CyFlash.c **** 
 212:Generated_Source\PSoC5/CyFlash.c ****     /* Make sure SPC is powered */
 213:Generated_Source\PSoC5/CyFlash.c ****     CySpcStart();
 214:Generated_Source\PSoC5/CyFlash.c **** 
 215:Generated_Source\PSoC5/CyFlash.c ****     /* Plan for failure. */
 216:Generated_Source\PSoC5/CyFlash.c ****     status = CYRET_UNKNOWN;
 217:Generated_Source\PSoC5/CyFlash.c **** 
 218:Generated_Source\PSoC5/CyFlash.c ****     if(CySpcLock() == CYRET_SUCCESS)
 219:Generated_Source\PSoC5/CyFlash.c ****     {
 220:Generated_Source\PSoC5/CyFlash.c ****         /* Write the command. */
 221:Generated_Source\PSoC5/CyFlash.c ****         if(CYRET_STARTED == CySpcGetTemp(CY_TEMP_NUMBER_OF_SAMPLES))
 222:Generated_Source\PSoC5/CyFlash.c ****         {
 223:Generated_Source\PSoC5/CyFlash.c ****             do
 224:Generated_Source\PSoC5/CyFlash.c ****             {
 225:Generated_Source\PSoC5/CyFlash.c ****                 if(CySpcReadData(dieTemperature, CY_FLASH_DIE_TEMP_DATA_SIZE) == CY_FLASH_DIE_TEMP_
 226:Generated_Source\PSoC5/CyFlash.c ****                 {
 227:Generated_Source\PSoC5/CyFlash.c ****                     status = CYRET_SUCCESS;
 228:Generated_Source\PSoC5/CyFlash.c **** 
 229:Generated_Source\PSoC5/CyFlash.c ****                     while(CY_SPC_BUSY)
 230:Generated_Source\PSoC5/CyFlash.c ****                     {
 231:Generated_Source\PSoC5/CyFlash.c ****                         /* Spin until idle. */
 232:Generated_Source\PSoC5/CyFlash.c ****                         CyDelayUs(1u);
 233:Generated_Source\PSoC5/CyFlash.c ****                     }
 234:Generated_Source\PSoC5/CyFlash.c ****                     break;
 235:Generated_Source\PSoC5/CyFlash.c ****                 }
 236:Generated_Source\PSoC5/CyFlash.c **** 
 237:Generated_Source\PSoC5/CyFlash.c ****             } while(CY_SPC_BUSY);
 238:Generated_Source\PSoC5/CyFlash.c ****         }
 239:Generated_Source\PSoC5/CyFlash.c **** 
 240:Generated_Source\PSoC5/CyFlash.c ****         CySpcUnlock();
 241:Generated_Source\PSoC5/CyFlash.c ****     }
 242:Generated_Source\PSoC5/CyFlash.c ****     else
 243:Generated_Source\PSoC5/CyFlash.c ****     {
 244:Generated_Source\PSoC5/CyFlash.c ****         status = CYRET_LOCKED;
 245:Generated_Source\PSoC5/CyFlash.c ****     }
 246:Generated_Source\PSoC5/CyFlash.c **** 
 247:Generated_Source\PSoC5/CyFlash.c ****     return (status);
 248:Generated_Source\PSoC5/CyFlash.c **** }
 249:Generated_Source\PSoC5/CyFlash.c **** 
 250:Generated_Source\PSoC5/CyFlash.c **** 
 251:Generated_Source\PSoC5/CyFlash.c **** /*******************************************************************************
 252:Generated_Source\PSoC5/CyFlash.c **** * Function Name: CyFlashGetSpcAlgorithm
 253:Generated_Source\PSoC5/CyFlash.c **** ****************************************************************************//**
 254:Generated_Source\PSoC5/CyFlash.c **** *
 255:Generated_Source\PSoC5/CyFlash.c **** *  Sends a command to the SPC to download code into RAM.
 256:Generated_Source\PSoC5/CyFlash.c **** *
 257:Generated_Source\PSoC5/CyFlash.c **** * \return
 258:Generated_Source\PSoC5/CyFlash.c **** *  status:
 259:Generated_Source\PSoC5/CyFlash.c **** *   CYRET_SUCCESS - if successful
 260:Generated_Source\PSoC5/CyFlash.c **** *   CYRET_LOCKED  - if Flash writing already in use
ARM GAS  C:\Users\rabbit\AppData\Local\Temp\cceL7SSb.s 			page 10


 261:Generated_Source\PSoC5/CyFlash.c **** *   CYRET_UNKNOWN - if there was an SPC error
 262:Generated_Source\PSoC5/CyFlash.c **** *
 263:Generated_Source\PSoC5/CyFlash.c **** *******************************************************************************/
 264:Generated_Source\PSoC5/CyFlash.c **** cystatus CyFlashGetSpcAlgorithm(void) 
 265:Generated_Source\PSoC5/CyFlash.c **** {
 244              		.loc 1 265 0
 245              		.cfi_startproc
 246              		@ args = 0, pretend = 0, frame = 0
 247              		@ frame_needed = 0, uses_anonymous_args = 0
 248 0000 38B5     		push	{r3, r4, r5, lr}
 249              		.cfi_def_cfa_offset 16
 250              		.cfi_offset 3, -16
 251              		.cfi_offset 4, -12
 252              		.cfi_offset 5, -8
 253              		.cfi_offset 14, -4
 266:Generated_Source\PSoC5/CyFlash.c ****     cystatus status;
 267:Generated_Source\PSoC5/CyFlash.c **** 
 268:Generated_Source\PSoC5/CyFlash.c ****     /* Make sure SPC is powered */
 269:Generated_Source\PSoC5/CyFlash.c ****     CySpcStart();
 254              		.loc 1 269 0
 255 0002 FFF7FEFF 		bl	CySpcStart
 256              	.LVL15:
 270:Generated_Source\PSoC5/CyFlash.c **** 
 271:Generated_Source\PSoC5/CyFlash.c ****     if(CySpcLock() == CYRET_SUCCESS)
 257              		.loc 1 271 0
 258 0006 FFF7FEFF 		bl	CySpcLock
 259              	.LVL16:
 260 000a C0B9     		cbnz	r0, .L30
 261              	.LBB4:
 262              	.LBB5:
 272:Generated_Source\PSoC5/CyFlash.c ****     {
 273:Generated_Source\PSoC5/CyFlash.c ****         status = CySpcGetAlgorithm();
 263              		.loc 1 273 0
 264 000c FFF7FEFF 		bl	CySpcGetAlgorithm
 265              	.LVL17:
 274:Generated_Source\PSoC5/CyFlash.c **** 
 275:Generated_Source\PSoC5/CyFlash.c ****         if(CYRET_STARTED == status)
 266              		.loc 1 275 0
 267 0010 0728     		cmp	r0, #7
 273:Generated_Source\PSoC5/CyFlash.c **** 
 268              		.loc 1 273 0
 269 0012 0446     		mov	r4, r0
 270              	.LVL18:
 271              		.loc 1 275 0
 272 0014 10D1     		bne	.L28
 276:Generated_Source\PSoC5/CyFlash.c ****         {
 277:Generated_Source\PSoC5/CyFlash.c ****             while(CY_SPC_BUSY)
 273              		.loc 1 277 0
 274 0016 0B4D     		ldr	r5, .L36
 275              	.LVL19:
 276              	.L27:
 277 0018 2A78     		ldrb	r2, [r5]	@ zero_extendqisi2
 278 001a 0A4B     		ldr	r3, .L36
 279 001c 9107     		lsls	r1, r2, #30
 280 001e 03D4     		bmi	.L35
 278:Generated_Source\PSoC5/CyFlash.c ****             {
 279:Generated_Source\PSoC5/CyFlash.c ****                 /* Spin until idle. */
ARM GAS  C:\Users\rabbit\AppData\Local\Temp\cceL7SSb.s 			page 11


 280:Generated_Source\PSoC5/CyFlash.c ****                 CyDelayUs(1u);
 281              		.loc 1 280 0
 282 0020 0120     		movs	r0, #1
 283 0022 FFF7FEFF 		bl	CyDelayUs
 284              	.LVL20:
 285 0026 F7E7     		b	.L27
 286              	.L35:
 281:Generated_Source\PSoC5/CyFlash.c ****             }
 282:Generated_Source\PSoC5/CyFlash.c **** 
 283:Generated_Source\PSoC5/CyFlash.c ****             if(CY_SPC_STATUS_SUCCESS == CY_SPC_READ_STATUS)
 287              		.loc 1 283 0
 288 0028 1A78     		ldrb	r2, [r3]	@ zero_extendqisi2
 289 002a 9207     		lsls	r2, r2, #30
 290 002c 04D5     		bpl	.L28
 291 002e 1B78     		ldrb	r3, [r3]	@ zero_extendqisi2
 284:Generated_Source\PSoC5/CyFlash.c ****             {
 285:Generated_Source\PSoC5/CyFlash.c ****                 status = CYRET_SUCCESS;
 292              		.loc 1 285 0
 293 0030 9B08     		lsrs	r3, r3, #2
 294 0032 14BF     		ite	ne
 295 0034 0724     		movne	r4, #7
 296              	.LVL21:
 297 0036 0024     		moveq	r4, #0
 298              	.L28:
 299              	.LVL22:
 286:Generated_Source\PSoC5/CyFlash.c ****             }
 287:Generated_Source\PSoC5/CyFlash.c ****         }
 288:Generated_Source\PSoC5/CyFlash.c ****         CySpcUnlock();
 300              		.loc 1 288 0
 301 0038 FFF7FEFF 		bl	CySpcUnlock
 302              	.LVL23:
 303 003c 00E0     		b	.L26
 304              	.L30:
 305              	.LBE5:
 306              	.LBE4:
 289:Generated_Source\PSoC5/CyFlash.c ****     }
 290:Generated_Source\PSoC5/CyFlash.c ****     else
 291:Generated_Source\PSoC5/CyFlash.c ****     {
 292:Generated_Source\PSoC5/CyFlash.c ****         status = CYRET_LOCKED;
 307              		.loc 1 292 0
 308 003e 0424     		movs	r4, #4
 309              	.L26:
 310              	.LVL24:
 293:Generated_Source\PSoC5/CyFlash.c ****     }
 294:Generated_Source\PSoC5/CyFlash.c **** 
 295:Generated_Source\PSoC5/CyFlash.c ****     return (status);
 296:Generated_Source\PSoC5/CyFlash.c **** }
 311              		.loc 1 296 0
 312 0040 2046     		mov	r0, r4
 313 0042 38BD     		pop	{r3, r4, r5, pc}
 314              	.LVL25:
 315              	.L37:
 316              		.align	2
 317              	.L36:
 318 0044 22470040 		.word	1073760034
 319              		.cfi_endproc
 320              	.LFE4:
ARM GAS  C:\Users\rabbit\AppData\Local\Temp\cceL7SSb.s 			page 12


 321              		.size	CyFlashGetSpcAlgorithm, .-CyFlashGetSpcAlgorithm
 322              		.section	.text.CySetTemp,"ax",%progbits
 323              		.align	1
 324              		.global	CySetTemp
 325              		.thumb
 326              		.thumb_func
 327              		.type	CySetTemp, %function
 328              	CySetTemp:
 329              	.LFB5:
 297:Generated_Source\PSoC5/CyFlash.c **** 
 298:Generated_Source\PSoC5/CyFlash.c **** 
 299:Generated_Source\PSoC5/CyFlash.c **** /*******************************************************************************
 300:Generated_Source\PSoC5/CyFlash.c **** * Function Name: CySetTemp
 301:Generated_Source\PSoC5/CyFlash.c **** ****************************************************************************//**
 302:Generated_Source\PSoC5/CyFlash.c **** *
 303:Generated_Source\PSoC5/CyFlash.c **** *  This is a wraparound for CySetTempInt(). It is used to return the second
 304:Generated_Source\PSoC5/CyFlash.c **** *  successful read of the temperature value.
 305:Generated_Source\PSoC5/CyFlash.c **** *
 306:Generated_Source\PSoC5/CyFlash.c **** * \return
 307:Generated_Source\PSoC5/CyFlash.c **** *  status:
 308:Generated_Source\PSoC5/CyFlash.c **** *   CYRET_SUCCESS if successful.
 309:Generated_Source\PSoC5/CyFlash.c **** *   CYRET_LOCKED  if Flash writing already in use
 310:Generated_Source\PSoC5/CyFlash.c **** *   CYRET_UNKNOWN if there was an SPC error.
 311:Generated_Source\PSoC5/CyFlash.c **** *
 312:Generated_Source\PSoC5/CyFlash.c **** *  uint8 dieTemperature[2]:
 313:Generated_Source\PSoC5/CyFlash.c **** *   Holds the die temperature for the flash writing algorithm. The first byte is
 314:Generated_Source\PSoC5/CyFlash.c **** *   the sign of the temperature (0 = negative, 1 = positive). The second byte is
 315:Generated_Source\PSoC5/CyFlash.c **** *   the magnitude.
 316:Generated_Source\PSoC5/CyFlash.c **** *
 317:Generated_Source\PSoC5/CyFlash.c **** *******************************************************************************/
 318:Generated_Source\PSoC5/CyFlash.c **** cystatus CySetTemp(void) 
 319:Generated_Source\PSoC5/CyFlash.c **** {
 330              		.loc 1 319 0
 331              		.cfi_startproc
 332              		@ args = 0, pretend = 0, frame = 0
 333              		@ frame_needed = 0, uses_anonymous_args = 0
 334 0000 70B5     		push	{r4, r5, r6, lr}
 335              		.cfi_def_cfa_offset 16
 336              		.cfi_offset 4, -16
 337              		.cfi_offset 5, -12
 338              		.cfi_offset 6, -8
 339              		.cfi_offset 14, -4
 320:Generated_Source\PSoC5/CyFlash.c ****     cystatus status = CyFlashGetSpcAlgorithm();
 340              		.loc 1 320 0
 341 0002 FFF7FEFF 		bl	CyFlashGetSpcAlgorithm
 342              	.LVL26:
 321:Generated_Source\PSoC5/CyFlash.c **** 
 322:Generated_Source\PSoC5/CyFlash.c ****     if(status == CYRET_SUCCESS)
 343              		.loc 1 322 0
 344 0006 0446     		mov	r4, r0
 345 0008 10BB     		cbnz	r0, .L39
 346              	.LBB8:
 347              	.LBB9:
 213:Generated_Source\PSoC5/CyFlash.c **** 
 348              		.loc 1 213 0
 349 000a FFF7FEFF 		bl	CySpcStart
 350              	.LVL27:
ARM GAS  C:\Users\rabbit\AppData\Local\Temp\cceL7SSb.s 			page 13


 218:Generated_Source\PSoC5/CyFlash.c ****     {
 351              		.loc 1 218 0
 352 000e FFF7FEFF 		bl	CySpcLock
 353              	.LVL28:
 354 0012 E0B9     		cbnz	r0, .L46
 221:Generated_Source\PSoC5/CyFlash.c ****         {
 355              		.loc 1 221 0
 356 0014 0120     		movs	r0, #1
 357 0016 FFF7FEFF 		bl	CySpcGetTemp
 358              	.LVL29:
 359 001a 0728     		cmp	r0, #7
 360 001c 0AD1     		bne	.L45
 361 001e 0D4D     		ldr	r5, .L52
 362              	.L40:
 225:Generated_Source\PSoC5/CyFlash.c ****                 {
 363              		.loc 1 225 0
 364 0020 0221     		movs	r1, #2
 365 0022 0D48     		ldr	r0, .L52+4
 366 0024 FFF7FEFF 		bl	CySpcReadData
 367              	.LVL30:
 368 0028 0228     		cmp	r0, #2
 369 002a 0A4E     		ldr	r6, .L52
 370 002c 05D0     		beq	.L42
 237:Generated_Source\PSoC5/CyFlash.c ****         }
 371              		.loc 1 237 0
 372 002e 2B78     		ldrb	r3, [r5]	@ zero_extendqisi2
 373 0030 9B07     		lsls	r3, r3, #30
 374 0032 F5D5     		bpl	.L40
 375              	.L45:
 216:Generated_Source\PSoC5/CyFlash.c **** 
 376              		.loc 1 216 0
 377 0034 4FF0FF34 		mov	r4, #-1
 378              	.LVL31:
 379 0038 06E0     		b	.L41
 380              	.LVL32:
 381              	.L42:
 229:Generated_Source\PSoC5/CyFlash.c ****                     {
 382              		.loc 1 229 0
 383 003a 3378     		ldrb	r3, [r6]	@ zero_extendqisi2
 384 003c 9A07     		lsls	r2, r3, #30
 385 003e 03D4     		bmi	.L41
 232:Generated_Source\PSoC5/CyFlash.c ****                     }
 386              		.loc 1 232 0
 387 0040 0120     		movs	r0, #1
 388 0042 FFF7FEFF 		bl	CyDelayUs
 389              	.LVL33:
 390 0046 F8E7     		b	.L42
 391              	.LVL34:
 392              	.L41:
 240:Generated_Source\PSoC5/CyFlash.c ****     }
 393              		.loc 1 240 0
 394 0048 FFF7FEFF 		bl	CySpcUnlock
 395              	.LVL35:
 396 004c 00E0     		b	.L39
 397              	.LVL36:
 398              	.L46:
 244:Generated_Source\PSoC5/CyFlash.c ****     }
ARM GAS  C:\Users\rabbit\AppData\Local\Temp\cceL7SSb.s 			page 14


 399              		.loc 1 244 0
 400 004e 0424     		movs	r4, #4
 401              	.LVL37:
 402              	.L39:
 403              	.LBE9:
 404              	.LBE8:
 323:Generated_Source\PSoC5/CyFlash.c ****     {
 324:Generated_Source\PSoC5/CyFlash.c ****         status = CySetTempInt();
 325:Generated_Source\PSoC5/CyFlash.c ****     }
 326:Generated_Source\PSoC5/CyFlash.c **** 
 327:Generated_Source\PSoC5/CyFlash.c ****     return (status);
 328:Generated_Source\PSoC5/CyFlash.c **** }
 405              		.loc 1 328 0
 406 0050 2046     		mov	r0, r4
 407 0052 70BD     		pop	{r4, r5, r6, pc}
 408              	.LVL38:
 409              	.L53:
 410              		.align	2
 411              	.L52:
 412 0054 22470040 		.word	1073760034
 413 0058 00000000 		.word	dieTemperature
 414              		.cfi_endproc
 415              	.LFE5:
 416              		.size	CySetTemp, .-CySetTemp
 417              		.section	.text.CySetFlashEEBuffer,"ax",%progbits
 418              		.align	1
 419              		.global	CySetFlashEEBuffer
 420              		.thumb
 421              		.thumb_func
 422              		.type	CySetFlashEEBuffer, %function
 423              	CySetFlashEEBuffer:
 424              	.LFB6:
 329:Generated_Source\PSoC5/CyFlash.c **** 
 330:Generated_Source\PSoC5/CyFlash.c **** 
 331:Generated_Source\PSoC5/CyFlash.c **** /*******************************************************************************
 332:Generated_Source\PSoC5/CyFlash.c **** * Function Name: CySetFlashEEBuffer
 333:Generated_Source\PSoC5/CyFlash.c **** ****************************************************************************//**
 334:Generated_Source\PSoC5/CyFlash.c **** *
 335:Generated_Source\PSoC5/CyFlash.c **** *  Sets the user supplied temporary buffer to store SPC data while performing
 336:Generated_Source\PSoC5/CyFlash.c **** *  Flash and EEPROM commands. This buffer is only necessary when the Flash ECC
 337:Generated_Source\PSoC5/CyFlash.c **** *  is disabled.
 338:Generated_Source\PSoC5/CyFlash.c **** *
 339:Generated_Source\PSoC5/CyFlash.c **** *  \param buffer:
 340:Generated_Source\PSoC5/CyFlash.c **** *   The address of a block of memory to store temporary memory. The size of the
 341:Generated_Source\PSoC5/CyFlash.c **** *   block of memory is CYDEV_FLS_ROW_SIZE + CYDEV_ECC_ROW_SIZE.
 342:Generated_Source\PSoC5/CyFlash.c **** *
 343:Generated_Source\PSoC5/CyFlash.c **** * \return
 344:Generated_Source\PSoC5/CyFlash.c **** *  status:
 345:Generated_Source\PSoC5/CyFlash.c **** *   CYRET_SUCCESS if successful.
 346:Generated_Source\PSoC5/CyFlash.c **** *   CYRET_BAD_PARAM if the buffer is NULL
 347:Generated_Source\PSoC5/CyFlash.c **** *
 348:Generated_Source\PSoC5/CyFlash.c **** *******************************************************************************/
 349:Generated_Source\PSoC5/CyFlash.c **** cystatus CySetFlashEEBuffer(uint8 * buffer) 
 350:Generated_Source\PSoC5/CyFlash.c **** {
 425              		.loc 1 350 0
 426              		.cfi_startproc
 427              		@ args = 0, pretend = 0, frame = 0
ARM GAS  C:\Users\rabbit\AppData\Local\Temp\cceL7SSb.s 			page 15


 428              		@ frame_needed = 0, uses_anonymous_args = 0
 429              	.LVL39:
 430 0000 10B5     		push	{r4, lr}
 431              		.cfi_def_cfa_offset 8
 432              		.cfi_offset 4, -8
 433              		.cfi_offset 14, -4
 434              		.loc 1 350 0
 435 0002 0446     		mov	r4, r0
 351:Generated_Source\PSoC5/CyFlash.c ****     cystatus status = CYRET_SUCCESS;
 352:Generated_Source\PSoC5/CyFlash.c **** 
 353:Generated_Source\PSoC5/CyFlash.c ****     CySpcStart();
 436              		.loc 1 353 0
 437 0004 FFF7FEFF 		bl	CySpcStart
 438              	.LVL40:
 354:Generated_Source\PSoC5/CyFlash.c **** 
 355:Generated_Source\PSoC5/CyFlash.c ****     #if(CYDEV_ECC_ENABLE == 0)
 356:Generated_Source\PSoC5/CyFlash.c **** 
 357:Generated_Source\PSoC5/CyFlash.c ****         if(NULL == buffer)
 439              		.loc 1 357 0
 440 0008 3CB1     		cbz	r4, .L56
 358:Generated_Source\PSoC5/CyFlash.c ****         {
 359:Generated_Source\PSoC5/CyFlash.c ****             rowBuffer = rowBuffer;
 360:Generated_Source\PSoC5/CyFlash.c ****             status = CYRET_BAD_PARAM;
 361:Generated_Source\PSoC5/CyFlash.c ****         }
 362:Generated_Source\PSoC5/CyFlash.c ****         else if(CySpcLock() != CYRET_SUCCESS)
 441              		.loc 1 362 0
 442 000a FFF7FEFF 		bl	CySpcLock
 443              	.LVL41:
 444 000e 0446     		mov	r4, r0
 445              	.LVL42:
 446 0010 28B9     		cbnz	r0, .L57
 363:Generated_Source\PSoC5/CyFlash.c ****         {
 364:Generated_Source\PSoC5/CyFlash.c ****             rowBuffer = rowBuffer;
 365:Generated_Source\PSoC5/CyFlash.c ****             status = CYRET_LOCKED;
 366:Generated_Source\PSoC5/CyFlash.c ****         }
 367:Generated_Source\PSoC5/CyFlash.c ****         else
 368:Generated_Source\PSoC5/CyFlash.c ****         {
 369:Generated_Source\PSoC5/CyFlash.c ****             rowBuffer = buffer;
 370:Generated_Source\PSoC5/CyFlash.c ****             CySpcUnlock();
 447              		.loc 1 370 0
 448 0012 FFF7FEFF 		bl	CySpcUnlock
 449              	.LVL43:
 351:Generated_Source\PSoC5/CyFlash.c **** 
 450              		.loc 1 351 0
 451 0016 2046     		mov	r0, r4
 452 0018 10BD     		pop	{r4, pc}
 453              	.LVL44:
 454              	.L56:
 360:Generated_Source\PSoC5/CyFlash.c ****         }
 455              		.loc 1 360 0
 456 001a 0120     		movs	r0, #1
 457 001c 10BD     		pop	{r4, pc}
 458              	.LVL45:
 459              	.L57:
 365:Generated_Source\PSoC5/CyFlash.c ****         }
 460              		.loc 1 365 0
 461 001e 0420     		movs	r0, #4
ARM GAS  C:\Users\rabbit\AppData\Local\Temp\cceL7SSb.s 			page 16


 462              	.LVL46:
 371:Generated_Source\PSoC5/CyFlash.c ****         }
 372:Generated_Source\PSoC5/CyFlash.c **** 
 373:Generated_Source\PSoC5/CyFlash.c ****     #else
 374:Generated_Source\PSoC5/CyFlash.c **** 
 375:Generated_Source\PSoC5/CyFlash.c ****         /* To suppress warning */
 376:Generated_Source\PSoC5/CyFlash.c ****         buffer = buffer;
 377:Generated_Source\PSoC5/CyFlash.c **** 
 378:Generated_Source\PSoC5/CyFlash.c ****     #endif  /* (CYDEV_ECC_ENABLE == 0u) */
 379:Generated_Source\PSoC5/CyFlash.c **** 
 380:Generated_Source\PSoC5/CyFlash.c ****     return(status);
 381:Generated_Source\PSoC5/CyFlash.c **** }
 463              		.loc 1 381 0
 464 0020 10BD     		pop	{r4, pc}
 465              		.cfi_endproc
 466              	.LFE6:
 467              		.size	CySetFlashEEBuffer, .-CySetFlashEEBuffer
 468              		.section	.text.CyWriteRowFull,"ax",%progbits
 469              		.align	1
 470              		.global	CyWriteRowFull
 471              		.thumb
 472              		.thumb_func
 473              		.type	CyWriteRowFull, %function
 474              	CyWriteRowFull:
 475              	.LFB8:
 382:Generated_Source\PSoC5/CyFlash.c **** 
 383:Generated_Source\PSoC5/CyFlash.c **** 
 384:Generated_Source\PSoC5/CyFlash.c **** /*******************************************************************************
 385:Generated_Source\PSoC5/CyFlash.c **** * Function Name: CyWriteRowData
 386:Generated_Source\PSoC5/CyFlash.c **** ****************************************************************************//**
 387:Generated_Source\PSoC5/CyFlash.c **** *
 388:Generated_Source\PSoC5/CyFlash.c **** *  Sends a command to the SPC to load and program a row of data in
 389:Generated_Source\PSoC5/CyFlash.c **** *  Flash or EEPROM.
 390:Generated_Source\PSoC5/CyFlash.c **** *
 391:Generated_Source\PSoC5/CyFlash.c **** *  \param arrayID:    ID of the array to write.
 392:Generated_Source\PSoC5/CyFlash.c **** *   The type of write, Flash or EEPROM, is determined from the array ID.
 393:Generated_Source\PSoC5/CyFlash.c **** *   The arrays in the part are sequential starting at the first ID for the
 394:Generated_Source\PSoC5/CyFlash.c **** *   specific memory type. The array ID for the Flash memory lasts from 0x00 to
 395:Generated_Source\PSoC5/CyFlash.c **** *   0x3F and for the EEPROM memory it lasts from 0x40 to 0x7F.
 396:Generated_Source\PSoC5/CyFlash.c **** *  \param rowAddress: rowAddress of flash row to program.
 397:Generated_Source\PSoC5/CyFlash.c **** *  \param rowData:    Array of bytes to write.
 398:Generated_Source\PSoC5/CyFlash.c **** *
 399:Generated_Source\PSoC5/CyFlash.c **** * \return
 400:Generated_Source\PSoC5/CyFlash.c **** *  status:
 401:Generated_Source\PSoC5/CyFlash.c **** *   CYRET_SUCCESS if successful.
 402:Generated_Source\PSoC5/CyFlash.c **** *   CYRET_LOCKED if the SPC is already in use.
 403:Generated_Source\PSoC5/CyFlash.c **** *   CYRET_CANCELED if command not accepted
 404:Generated_Source\PSoC5/CyFlash.c **** *   CYRET_UNKNOWN if there was an SPC error.
 405:Generated_Source\PSoC5/CyFlash.c **** *
 406:Generated_Source\PSoC5/CyFlash.c **** *******************************************************************************/
 407:Generated_Source\PSoC5/CyFlash.c **** cystatus CyWriteRowData(uint8 arrayId, uint16 rowAddress, const uint8 * rowData) 
 408:Generated_Source\PSoC5/CyFlash.c **** {
 409:Generated_Source\PSoC5/CyFlash.c ****     uint16 rowSize;
 410:Generated_Source\PSoC5/CyFlash.c ****     cystatus status;
 411:Generated_Source\PSoC5/CyFlash.c **** 
 412:Generated_Source\PSoC5/CyFlash.c ****     rowSize = (arrayId > CY_SPC_LAST_FLASH_ARRAYID) ? CYDEV_EEPROM_ROW_SIZE : CYDEV_FLS_ROW_SIZE;
 413:Generated_Source\PSoC5/CyFlash.c ****     status = CyWriteRowFull(arrayId, rowAddress, rowData, rowSize);
ARM GAS  C:\Users\rabbit\AppData\Local\Temp\cceL7SSb.s 			page 17


 414:Generated_Source\PSoC5/CyFlash.c **** 
 415:Generated_Source\PSoC5/CyFlash.c ****     return(status);
 416:Generated_Source\PSoC5/CyFlash.c **** }
 417:Generated_Source\PSoC5/CyFlash.c **** 
 418:Generated_Source\PSoC5/CyFlash.c **** 
 419:Generated_Source\PSoC5/CyFlash.c **** /*******************************************************************
 420:Generated_Source\PSoC5/CyFlash.c **** * If "Enable Error Correcting Code (ECC)" and "Store Configuration
 421:Generated_Source\PSoC5/CyFlash.c **** * Data in ECC" DWR options are disabled, ECC section is available
 422:Generated_Source\PSoC5/CyFlash.c **** * for user data.
 423:Generated_Source\PSoC5/CyFlash.c **** *******************************************************************/
 424:Generated_Source\PSoC5/CyFlash.c **** #if ((CYDEV_ECC_ENABLE == 0u) && (CYDEV_CONFIGURATION_ECC == 0u))
 425:Generated_Source\PSoC5/CyFlash.c **** 
 426:Generated_Source\PSoC5/CyFlash.c ****     /*******************************************************************************
 427:Generated_Source\PSoC5/CyFlash.c ****     * Function Name: CyWriteRowConfig
 428:Generated_Source\PSoC5/CyFlash.c ****     ****************************************************************************//**
 429:Generated_Source\PSoC5/CyFlash.c ****     *
 430:Generated_Source\PSoC5/CyFlash.c ****     *  Sends a command to the SPC to load and program a row of config data in the
 431:Generated_Source\PSoC5/CyFlash.c ****     *  Flash. This function is only valid for Flash array IDs (not for EEPROM).
 432:Generated_Source\PSoC5/CyFlash.c ****     *
 433:Generated_Source\PSoC5/CyFlash.c ****     *  \param arrayId:      ID of the array to write
 434:Generated_Source\PSoC5/CyFlash.c ****     *   The arrays in the part are sequential starting at the first ID for the
 435:Generated_Source\PSoC5/CyFlash.c ****     *   specific memory type. The array ID for the Flash memory lasts
 436:Generated_Source\PSoC5/CyFlash.c ****     *   from 0x00 to 0x3F.
 437:Generated_Source\PSoC5/CyFlash.c ****     *  \param rowAddress:   The address of the sector to erase.
 438:Generated_Source\PSoC5/CyFlash.c ****     *  \param rowECC:       The array of bytes to write.
 439:Generated_Source\PSoC5/CyFlash.c ****     *
 440:Generated_Source\PSoC5/CyFlash.c ****     * \return
 441:Generated_Source\PSoC5/CyFlash.c ****     *  status:
 442:Generated_Source\PSoC5/CyFlash.c ****     *   CYRET_SUCCESS if successful.
 443:Generated_Source\PSoC5/CyFlash.c ****     *   CYRET_LOCKED if the SPC is already in use.
 444:Generated_Source\PSoC5/CyFlash.c ****     *   CYRET_CANCELED if command not accepted
 445:Generated_Source\PSoC5/CyFlash.c ****     *   CYRET_UNKNOWN if there was an SPC error.
 446:Generated_Source\PSoC5/CyFlash.c ****     *
 447:Generated_Source\PSoC5/CyFlash.c ****     *******************************************************************************/
 448:Generated_Source\PSoC5/CyFlash.c ****     cystatus CyWriteRowConfig(uint8 arrayId, uint16 rowAddress, const uint8 * rowECC)\
 449:Generated_Source\PSoC5/CyFlash.c ****     
 450:Generated_Source\PSoC5/CyFlash.c ****     {
 451:Generated_Source\PSoC5/CyFlash.c ****         cystatus status;
 452:Generated_Source\PSoC5/CyFlash.c **** 
 453:Generated_Source\PSoC5/CyFlash.c ****         status = CyWriteRowFull(arrayId, rowAddress, rowECC, CYDEV_ECC_ROW_SIZE);
 454:Generated_Source\PSoC5/CyFlash.c **** 
 455:Generated_Source\PSoC5/CyFlash.c ****         return (status);
 456:Generated_Source\PSoC5/CyFlash.c ****     }
 457:Generated_Source\PSoC5/CyFlash.c **** 
 458:Generated_Source\PSoC5/CyFlash.c **** #endif  /* ((CYDEV_ECC_ENABLE == 0u) && (CYDEV_CONFIGURATION_ECC == 0u)) */
 459:Generated_Source\PSoC5/CyFlash.c **** 
 460:Generated_Source\PSoC5/CyFlash.c **** 
 461:Generated_Source\PSoC5/CyFlash.c **** 
 462:Generated_Source\PSoC5/CyFlash.c **** /*******************************************************************************
 463:Generated_Source\PSoC5/CyFlash.c **** * Function Name: CyWriteRowFull
 464:Generated_Source\PSoC5/CyFlash.c **** ****************************************************************************//**
 465:Generated_Source\PSoC5/CyFlash.c **** *  Sends a command to the SPC to load and program a row of data in the Flash.
 466:Generated_Source\PSoC5/CyFlash.c **** *  rowData array is expected to contain Flash and ECC data if needed.
 467:Generated_Source\PSoC5/CyFlash.c **** *
 468:Generated_Source\PSoC5/CyFlash.c **** *  \param arrayId:    FLASH or EEPROM array id.
 469:Generated_Source\PSoC5/CyFlash.c **** *  \param rowData:    Pointer to a row of data to write.
 470:Generated_Source\PSoC5/CyFlash.c **** *  \param rowNumber:  Zero based number of the row.
ARM GAS  C:\Users\rabbit\AppData\Local\Temp\cceL7SSb.s 			page 18


 471:Generated_Source\PSoC5/CyFlash.c **** *  \param rowSize:    Size of the row.
 472:Generated_Source\PSoC5/CyFlash.c **** *
 473:Generated_Source\PSoC5/CyFlash.c **** * \return
 474:Generated_Source\PSoC5/CyFlash.c **** *  CYRET_SUCCESS if successful.
 475:Generated_Source\PSoC5/CyFlash.c **** *  CYRET_LOCKED if the SPC is already in use.
 476:Generated_Source\PSoC5/CyFlash.c **** *  CYRET_CANCELED if command not accepted
 477:Generated_Source\PSoC5/CyFlash.c **** *  CYRET_UNKNOWN if there was an SPC error.
 478:Generated_Source\PSoC5/CyFlash.c **** *
 479:Generated_Source\PSoC5/CyFlash.c **** *******************************************************************************/
 480:Generated_Source\PSoC5/CyFlash.c **** cystatus CyWriteRowFull(uint8 arrayId, uint16 rowNumber, const uint8* rowData, uint16 rowSize) \
 481:Generated_Source\PSoC5/CyFlash.c ****         
 482:Generated_Source\PSoC5/CyFlash.c **** {
 476              		.loc 1 482 0
 477              		.cfi_startproc
 478              		@ args = 0, pretend = 0, frame = 0
 479              		@ frame_needed = 0, uses_anonymous_args = 0
 480              	.LVL47:
 483:Generated_Source\PSoC5/CyFlash.c ****     cystatus status = CYRET_SUCCESS;
 484:Generated_Source\PSoC5/CyFlash.c **** 
 485:Generated_Source\PSoC5/CyFlash.c ****     if((arrayId <=  CY_SPC_LAST_FLASH_ARRAYID) && (arrayId > (CY_FLASH_NUMBER_ARRAYS  + CY_SPC_FIRS
 486:Generated_Source\PSoC5/CyFlash.c ****     {
 487:Generated_Source\PSoC5/CyFlash.c ****         status = CYRET_BAD_PARAM;
 488:Generated_Source\PSoC5/CyFlash.c ****     }
 489:Generated_Source\PSoC5/CyFlash.c **** 
 490:Generated_Source\PSoC5/CyFlash.c ****     if(arrayId > CY_SPC_LAST_EE_ARRAYID)
 491:Generated_Source\PSoC5/CyFlash.c ****     {
 492:Generated_Source\PSoC5/CyFlash.c ****         status = CYRET_BAD_PARAM;
 493:Generated_Source\PSoC5/CyFlash.c ****     }
 494:Generated_Source\PSoC5/CyFlash.c **** 
 495:Generated_Source\PSoC5/CyFlash.c ****     if((arrayId >= CY_SPC_FIRST_EE_ARRAYID) && (arrayId > (CY_FLASH_EEPROM_NUMBER_ARRAYS + CY_SPC_F
 481              		.loc 1 495 0
 482 0000 4128     		cmp	r0, #65
 482:Generated_Source\PSoC5/CyFlash.c ****     cystatus status = CYRET_SUCCESS;
 483              		.loc 1 482 0
 484 0002 2DE9F041 		push	{r4, r5, r6, r7, r8, lr}
 485              		.cfi_def_cfa_offset 24
 486              		.cfi_offset 4, -24
 487              		.cfi_offset 5, -20
 488              		.cfi_offset 6, -16
 489              		.cfi_offset 7, -12
 490              		.cfi_offset 8, -8
 491              		.cfi_offset 14, -4
 482:Generated_Source\PSoC5/CyFlash.c ****     cystatus status = CYRET_SUCCESS;
 492              		.loc 1 482 0
 493 0006 0546     		mov	r5, r0
 494 0008 0E46     		mov	r6, r1
 495 000a 1746     		mov	r7, r2
 496 000c 9846     		mov	r8, r3
 497              		.loc 1 495 0
 498 000e 0AD8     		bhi	.L70
 483:Generated_Source\PSoC5/CyFlash.c ****     cystatus status = CYRET_SUCCESS;
 499              		.loc 1 483 0
 500 0010 C41E     		subs	r4, r0, #3
 501 0012 3C2C     		cmp	r4, #60
 502 0014 8CBF     		ite	hi
 503 0016 0024     		movhi	r4, #0
 504 0018 0124     		movls	r4, #1
ARM GAS  C:\Users\rabbit\AppData\Local\Temp\cceL7SSb.s 			page 19


 496:Generated_Source\PSoC5/CyFlash.c ****     {
 497:Generated_Source\PSoC5/CyFlash.c ****         status = CYRET_BAD_PARAM;
 498:Generated_Source\PSoC5/CyFlash.c ****     }
 499:Generated_Source\PSoC5/CyFlash.c **** 
 500:Generated_Source\PSoC5/CyFlash.c ****     if(arrayId <=  CY_SPC_LAST_FLASH_ARRAYID)
 505              		.loc 1 500 0
 506 001a 3F28     		cmp	r0, #63
 507 001c 04D8     		bhi	.L59
 501:Generated_Source\PSoC5/CyFlash.c ****     {
 502:Generated_Source\PSoC5/CyFlash.c ****         /* Flash */
 503:Generated_Source\PSoC5/CyFlash.c ****         if(rowNumber > (CY_FLASH_NUMBER_ROWS/CY_FLASH_NUMBER_ARRAYS))
 508              		.loc 1 503 0
 509 001e B1F5807F 		cmp	r1, #256
 510 0022 30D8     		bhi	.L74
 511 0024 06E0     		b	.L61
 512              	.L70:
 513 0026 0124     		movs	r4, #1
 514              	.L59:
 515              	.LVL48:
 504:Generated_Source\PSoC5/CyFlash.c ****         {
 505:Generated_Source\PSoC5/CyFlash.c ****             status = CYRET_BAD_PARAM;
 506:Generated_Source\PSoC5/CyFlash.c ****         }
 507:Generated_Source\PSoC5/CyFlash.c ****     }
 508:Generated_Source\PSoC5/CyFlash.c ****     else
 509:Generated_Source\PSoC5/CyFlash.c ****     {
 510:Generated_Source\PSoC5/CyFlash.c ****         /* EEPROM */
 511:Generated_Source\PSoC5/CyFlash.c ****         if(rowNumber > (CY_EEPROM_NUMBER_ROWS/CY_FLASH_EEPROM_NUMBER_ARRAYS))
 512:Generated_Source\PSoC5/CyFlash.c ****         {
 513:Generated_Source\PSoC5/CyFlash.c ****             status = CYRET_BAD_PARAM;
 516              		.loc 1 513 0
 517 0028 812E     		cmp	r6, #129
 518 002a 28BF     		it	cs
 519 002c 0124     		movcs	r4, #1
 520              	.LVL49:
 514:Generated_Source\PSoC5/CyFlash.c ****         }
 515:Generated_Source\PSoC5/CyFlash.c **** 
 516:Generated_Source\PSoC5/CyFlash.c ****         if(CY_EEPROM_SIZEOF_ROW != rowSize)
 521              		.loc 1 516 0
 522 002e B8F1100F 		cmp	r8, #16
 523 0032 28D1     		bne	.L74
 524              	.LVL50:
 525              	.L61:
 517:Generated_Source\PSoC5/CyFlash.c ****         {
 518:Generated_Source\PSoC5/CyFlash.c ****             status = CYRET_BAD_PARAM;
 519:Generated_Source\PSoC5/CyFlash.c ****         }
 520:Generated_Source\PSoC5/CyFlash.c ****     }
 521:Generated_Source\PSoC5/CyFlash.c **** 
 522:Generated_Source\PSoC5/CyFlash.c ****     if(rowData == NULL)
 526              		.loc 1 522 0
 527 0034 3FB3     		cbz	r7, .L74
 523:Generated_Source\PSoC5/CyFlash.c ****     {
 524:Generated_Source\PSoC5/CyFlash.c ****         status = CYRET_BAD_PARAM;
 525:Generated_Source\PSoC5/CyFlash.c ****     }
 526:Generated_Source\PSoC5/CyFlash.c **** 
 527:Generated_Source\PSoC5/CyFlash.c **** 
 528:Generated_Source\PSoC5/CyFlash.c ****     if(status == CYRET_SUCCESS)
 528              		.loc 1 528 0
ARM GAS  C:\Users\rabbit\AppData\Local\Temp\cceL7SSb.s 			page 20


 529 0036 34BB     		cbnz	r4, .L74
 529:Generated_Source\PSoC5/CyFlash.c ****     {
 530:Generated_Source\PSoC5/CyFlash.c ****         if(CySpcLock() == CYRET_SUCCESS)
 530              		.loc 1 530 0
 531 0038 FFF7FEFF 		bl	CySpcLock
 532              	.LVL51:
 533 003c 28BB     		cbnz	r0, .L75
 534              	.LVL52:
 535              	.LBB12:
 536              	.LBB13:
 531:Generated_Source\PSoC5/CyFlash.c ****         {
 532:Generated_Source\PSoC5/CyFlash.c ****             /* Load row data into SPC internal latch */
 533:Generated_Source\PSoC5/CyFlash.c ****             status = CySpcLoadRowFull(arrayId, rowNumber, rowData, rowSize);
 537              		.loc 1 533 0
 538 003e 4346     		mov	r3, r8
 539 0040 3A46     		mov	r2, r7
 540 0042 3146     		mov	r1, r6
 541 0044 2846     		mov	r0, r5
 542 0046 FFF7FEFF 		bl	CySpcLoadRowFull
 543              	.LVL53:
 534:Generated_Source\PSoC5/CyFlash.c **** 
 535:Generated_Source\PSoC5/CyFlash.c ****             if(CYRET_STARTED == status)
 544              		.loc 1 535 0
 545 004a 0728     		cmp	r0, #7
 546 004c 34D1     		bne	.L89
 536:Generated_Source\PSoC5/CyFlash.c ****             {
 537:Generated_Source\PSoC5/CyFlash.c ****                 while(CY_SPC_BUSY)
 547              		.loc 1 537 0
 548 004e DFF87480 		ldr	r8, .L93
 549              	.LVL54:
 550              	.L63:
 551 0052 98F80020 		ldrb	r2, [r8]	@ zero_extendqisi2
 552 0056 1B4B     		ldr	r3, .L93
 553 0058 12F0020F 		tst	r2, #2
 554 005c 1F46     		mov	r7, r3
 555 005e 03D1     		bne	.L90
 538:Generated_Source\PSoC5/CyFlash.c ****                 {
 539:Generated_Source\PSoC5/CyFlash.c ****                     /* Wait for SPC to finish and get SPC status */
 540:Generated_Source\PSoC5/CyFlash.c ****                     CyDelayUs(1u);
 556              		.loc 1 540 0
 557 0060 0120     		movs	r0, #1
 558 0062 FFF7FEFF 		bl	CyDelayUs
 559              	.LVL55:
 560 0066 F4E7     		b	.L63
 561              	.L90:
 541:Generated_Source\PSoC5/CyFlash.c ****                 }
 542:Generated_Source\PSoC5/CyFlash.c **** 
 543:Generated_Source\PSoC5/CyFlash.c ****                 /* Hide SPC status */
 544:Generated_Source\PSoC5/CyFlash.c ****                 if(CY_SPC_STATUS_SUCCESS == CY_SPC_READ_STATUS)
 562              		.loc 1 544 0
 563 0068 1A78     		ldrb	r2, [r3]	@ zero_extendqisi2
 564 006a 9007     		lsls	r0, r2, #30
 565 006c 06D5     		bpl	.L66
 566 006e 1B78     		ldrb	r3, [r3]	@ zero_extendqisi2
 567 0070 9B08     		lsrs	r3, r3, #2
 568 0072 0CD0     		beq	.L67
 569 0074 02E0     		b	.L66
ARM GAS  C:\Users\rabbit\AppData\Local\Temp\cceL7SSb.s 			page 21


 570              	.L92:
 545:Generated_Source\PSoC5/CyFlash.c ****                 {
 546:Generated_Source\PSoC5/CyFlash.c ****                     status = CYRET_SUCCESS;
 547:Generated_Source\PSoC5/CyFlash.c ****                 }
 548:Generated_Source\PSoC5/CyFlash.c ****                 else
 549:Generated_Source\PSoC5/CyFlash.c ****                 {
 550:Generated_Source\PSoC5/CyFlash.c ****                     status = CYRET_UNKNOWN;
 551:Generated_Source\PSoC5/CyFlash.c ****                 }
 552:Generated_Source\PSoC5/CyFlash.c **** 
 553:Generated_Source\PSoC5/CyFlash.c ****                 if(CYRET_SUCCESS == status)
 554:Generated_Source\PSoC5/CyFlash.c ****                 {
 555:Generated_Source\PSoC5/CyFlash.c ****                     /* Erase and program flash with data from SPC interval latch */
 556:Generated_Source\PSoC5/CyFlash.c ****                     status = CySpcWriteRow(arrayId, rowNumber, dieTemperature[0u], dieTemperature[1
 557:Generated_Source\PSoC5/CyFlash.c **** 
 558:Generated_Source\PSoC5/CyFlash.c ****                     if(CYRET_STARTED == status)
 559:Generated_Source\PSoC5/CyFlash.c ****                     {
 560:Generated_Source\PSoC5/CyFlash.c ****                         while(CY_SPC_BUSY)
 561:Generated_Source\PSoC5/CyFlash.c ****                         {
 562:Generated_Source\PSoC5/CyFlash.c ****                             /* Wait for SPC to finish and get SPC status */
 563:Generated_Source\PSoC5/CyFlash.c ****                             CyDelayUs(1u);
 564:Generated_Source\PSoC5/CyFlash.c ****                         }
 565:Generated_Source\PSoC5/CyFlash.c **** 
 566:Generated_Source\PSoC5/CyFlash.c ****                         /* Hide SPC status */
 567:Generated_Source\PSoC5/CyFlash.c ****                         if(CY_SPC_STATUS_SUCCESS == CY_SPC_READ_STATUS)
 571              		.loc 1 567 0
 572 0076 1A78     		ldrb	r2, [r3]	@ zero_extendqisi2
 573 0078 9207     		lsls	r2, r2, #30
 574 007a 19D4     		bmi	.L91
 575              	.L66:
 576              	.LVL56:
 568:Generated_Source\PSoC5/CyFlash.c ****                         {
 569:Generated_Source\PSoC5/CyFlash.c ****                             status = CYRET_SUCCESS;
 570:Generated_Source\PSoC5/CyFlash.c ****                         }
 571:Generated_Source\PSoC5/CyFlash.c ****                         else
 572:Generated_Source\PSoC5/CyFlash.c ****                         {
 573:Generated_Source\PSoC5/CyFlash.c ****                             status = CYRET_UNKNOWN;
 577              		.loc 1 573 0
 578 007c 4FF0FF34 		mov	r4, #-1
 579              	.LVL57:
 580              	.L64:
 574:Generated_Source\PSoC5/CyFlash.c ****                         }
 575:Generated_Source\PSoC5/CyFlash.c ****                     }
 576:Generated_Source\PSoC5/CyFlash.c ****                 }
 577:Generated_Source\PSoC5/CyFlash.c ****             }
 578:Generated_Source\PSoC5/CyFlash.c ****             CySpcUnlock();
 581              		.loc 1 578 0
 582 0080 FFF7FEFF 		bl	CySpcUnlock
 583              	.LVL58:
 584 0084 1AE0     		b	.L88
 585              	.LVL59:
 586              	.L74:
 587              	.LBE13:
 588              	.LBE12:
 589 0086 0124     		movs	r4, #1
 590 0088 18E0     		b	.L88
 591              	.LVL60:
 592              	.L75:
ARM GAS  C:\Users\rabbit\AppData\Local\Temp\cceL7SSb.s 			page 22


 579:Generated_Source\PSoC5/CyFlash.c ****         }   /* if(CySpcLock() == CYRET_SUCCESS) */
 580:Generated_Source\PSoC5/CyFlash.c ****         else
 581:Generated_Source\PSoC5/CyFlash.c ****         {
 582:Generated_Source\PSoC5/CyFlash.c ****             status = CYRET_LOCKED;
 593              		.loc 1 582 0
 594 008a 0424     		movs	r4, #4
 595              	.LVL61:
 583:Generated_Source\PSoC5/CyFlash.c ****         }
 584:Generated_Source\PSoC5/CyFlash.c ****     }
 585:Generated_Source\PSoC5/CyFlash.c **** 
 586:Generated_Source\PSoC5/CyFlash.c ****     return(status);
 596              		.loc 1 586 0
 597 008c 16E0     		b	.L88
 598              	.LVL62:
 599              	.L67:
 600              	.LBB15:
 601              	.LBB14:
 556:Generated_Source\PSoC5/CyFlash.c **** 
 602              		.loc 1 556 0
 603 008e 0E4A     		ldr	r2, .L93+4
 604 0090 3146     		mov	r1, r6
 605 0092 5378     		ldrb	r3, [r2, #1]	@ zero_extendqisi2
 606 0094 2846     		mov	r0, r5
 607 0096 1278     		ldrb	r2, [r2]	@ zero_extendqisi2
 608 0098 FFF7FEFF 		bl	CySpcWriteRow
 609              	.LVL63:
 558:Generated_Source\PSoC5/CyFlash.c ****                     {
 610              		.loc 1 558 0
 611 009c 0728     		cmp	r0, #7
 612 009e 0BD1     		bne	.L89
 613              	.LVL64:
 614              	.L69:
 560:Generated_Source\PSoC5/CyFlash.c ****                         {
 615              		.loc 1 560 0
 616 00a0 3A78     		ldrb	r2, [r7]	@ zero_extendqisi2
 617 00a2 084B     		ldr	r3, .L93
 618 00a4 9107     		lsls	r1, r2, #30
 619 00a6 E6D4     		bmi	.L92
 563:Generated_Source\PSoC5/CyFlash.c ****                         }
 620              		.loc 1 563 0
 621 00a8 0120     		movs	r0, #1
 622 00aa FFF7FEFF 		bl	CyDelayUs
 623              	.LVL65:
 624 00ae F7E7     		b	.L69
 625              	.L91:
 567:Generated_Source\PSoC5/CyFlash.c ****                         {
 626              		.loc 1 567 0
 627 00b0 1B78     		ldrb	r3, [r3]	@ zero_extendqisi2
 628 00b2 9B08     		lsrs	r3, r3, #2
 629 00b4 E4D0     		beq	.L64
 630 00b6 E1E7     		b	.L66
 631              	.LVL66:
 632              	.L89:
 558:Generated_Source\PSoC5/CyFlash.c ****                     {
 633              		.loc 1 558 0
 634 00b8 0446     		mov	r4, r0
 635              	.LVL67:
ARM GAS  C:\Users\rabbit\AppData\Local\Temp\cceL7SSb.s 			page 23


 636 00ba E1E7     		b	.L64
 637              	.LVL68:
 638              	.L88:
 639              	.LBE14:
 640              	.LBE15:
 587:Generated_Source\PSoC5/CyFlash.c **** }
 641              		.loc 1 587 0
 642 00bc 2046     		mov	r0, r4
 643 00be BDE8F081 		pop	{r4, r5, r6, r7, r8, pc}
 644              	.L94:
 645 00c2 00BF     		.align	2
 646              	.L93:
 647 00c4 22470040 		.word	1073760034
 648 00c8 00000000 		.word	dieTemperature
 649              		.cfi_endproc
 650              	.LFE8:
 651              		.size	CyWriteRowFull, .-CyWriteRowFull
 652              		.section	.text.CyWriteRowData,"ax",%progbits
 653              		.align	1
 654              		.global	CyWriteRowData
 655              		.thumb
 656              		.thumb_func
 657              		.type	CyWriteRowData, %function
 658              	CyWriteRowData:
 659              	.LFB7:
 408:Generated_Source\PSoC5/CyFlash.c ****     uint16 rowSize;
 660              		.loc 1 408 0
 661              		.cfi_startproc
 662              		@ args = 0, pretend = 0, frame = 0
 663              		@ frame_needed = 0, uses_anonymous_args = 0
 664              		@ link register save eliminated.
 665              	.LVL69:
 412:Generated_Source\PSoC5/CyFlash.c ****     status = CyWriteRowFull(arrayId, rowAddress, rowData, rowSize);
 666              		.loc 1 412 0
 667 0000 3F28     		cmp	r0, #63
 668              	.LVL70:
 413:Generated_Source\PSoC5/CyFlash.c **** 
 669              		.loc 1 413 0
 670 0002 8CBF     		ite	hi
 671 0004 1023     		movhi	r3, #16
 672 0006 4FF48073 		movls	r3, #256
 673 000a FFF7FEBF 		b	CyWriteRowFull
 674              	.LVL71:
 675              		.cfi_endproc
 676              	.LFE7:
 677              		.size	CyWriteRowData, .-CyWriteRowData
 678              		.section	.text.CyFlash_SetWaitCycles,"ax",%progbits
 679              		.align	1
 680              		.global	CyFlash_SetWaitCycles
 681              		.thumb
 682              		.thumb_func
 683              		.type	CyFlash_SetWaitCycles, %function
 684              	CyFlash_SetWaitCycles:
 685              	.LFB9:
 588:Generated_Source\PSoC5/CyFlash.c **** 
 589:Generated_Source\PSoC5/CyFlash.c **** 
 590:Generated_Source\PSoC5/CyFlash.c **** /*******************************************************************************
ARM GAS  C:\Users\rabbit\AppData\Local\Temp\cceL7SSb.s 			page 24


 591:Generated_Source\PSoC5/CyFlash.c **** * Function Name: CyFlash_SetWaitCycles
 592:Generated_Source\PSoC5/CyFlash.c **** ****************************************************************************//**
 593:Generated_Source\PSoC5/CyFlash.c **** *
 594:Generated_Source\PSoC5/CyFlash.c **** *  Sets the number of clock cycles the cache will wait before it samples data
 595:Generated_Source\PSoC5/CyFlash.c **** *  coming back from the Flash. This function must be called before increasing
 596:Generated_Source\PSoC5/CyFlash.c **** *  the CPU clock frequency. It can optionally be called after lowering the CPU
 597:Generated_Source\PSoC5/CyFlash.c **** *  clock frequency in order to improve the CPU performance.
 598:Generated_Source\PSoC5/CyFlash.c **** *
 599:Generated_Source\PSoC5/CyFlash.c **** *  \param uint8 freq:
 600:Generated_Source\PSoC5/CyFlash.c **** *   Frequency of operation in Megahertz.
 601:Generated_Source\PSoC5/CyFlash.c **** *
 602:Generated_Source\PSoC5/CyFlash.c **** *******************************************************************************/
 603:Generated_Source\PSoC5/CyFlash.c **** void CyFlash_SetWaitCycles(uint8 freq) 
 604:Generated_Source\PSoC5/CyFlash.c **** {
 686              		.loc 1 604 0
 687              		.cfi_startproc
 688              		@ args = 0, pretend = 0, frame = 0
 689              		@ frame_needed = 0, uses_anonymous_args = 0
 690              	.LVL72:
 691 0000 10B5     		push	{r4, lr}
 692              		.cfi_def_cfa_offset 8
 693              		.cfi_offset 4, -8
 694              		.cfi_offset 14, -4
 695              		.loc 1 604 0
 696 0002 0446     		mov	r4, r0
 605:Generated_Source\PSoC5/CyFlash.c ****     uint8 interruptState;
 606:Generated_Source\PSoC5/CyFlash.c **** 
 607:Generated_Source\PSoC5/CyFlash.c ****     /* Save current global interrupt enable and disable it */
 608:Generated_Source\PSoC5/CyFlash.c ****     interruptState = CyEnterCriticalSection();
 697              		.loc 1 608 0
 698 0004 FFF7FEFF 		bl	CyEnterCriticalSection
 699              	.LVL73:
 609:Generated_Source\PSoC5/CyFlash.c **** 
 610:Generated_Source\PSoC5/CyFlash.c ****     /***************************************************************************
 611:Generated_Source\PSoC5/CyFlash.c ****     * The number of clock cycles the cache will wait before it samples data
 612:Generated_Source\PSoC5/CyFlash.c ****     * coming back from the Flash must be equal or greater to to the CPU frequency
 613:Generated_Source\PSoC5/CyFlash.c ****     * outlined in clock cycles.
 614:Generated_Source\PSoC5/CyFlash.c ****     ***************************************************************************/
 615:Generated_Source\PSoC5/CyFlash.c **** 
 616:Generated_Source\PSoC5/CyFlash.c ****     if (freq < CY_FLASH_CACHE_WS_1_FREQ_MAX)
 700              		.loc 1 616 0
 701 0008 0F2C     		cmp	r4, #15
 702 000a 06D8     		bhi	.L99
 617:Generated_Source\PSoC5/CyFlash.c ****     {
 618:Generated_Source\PSoC5/CyFlash.c ****         CY_FLASH_CONTROL_REG = (CY_FLASH_CONTROL_REG & (uint8)(~CY_FLASH_CACHE_WS_VALUE_MASK)) |
 703              		.loc 1 618 0
 704 000c 164A     		ldr	r2, .L105
 705 000e 1378     		ldrb	r3, [r2]	@ zero_extendqisi2
 706 0010 03F01F03 		and	r3, r3, #31
 707 0014 43F04003 		orr	r3, r3, #64
 708 0018 20E0     		b	.L104
 709              	.L99:
 619:Generated_Source\PSoC5/CyFlash.c ****                                     CY_FLASH_CACHE_WS_1_VALUE_MASK;
 620:Generated_Source\PSoC5/CyFlash.c ****     }
 621:Generated_Source\PSoC5/CyFlash.c ****     else if (freq < CY_FLASH_CACHE_WS_2_FREQ_MAX)
 710              		.loc 1 621 0
 711 001a 202C     		cmp	r4, #32
ARM GAS  C:\Users\rabbit\AppData\Local\Temp\cceL7SSb.s 			page 25


 712 001c 06D8     		bhi	.L101
 622:Generated_Source\PSoC5/CyFlash.c ****     {
 623:Generated_Source\PSoC5/CyFlash.c ****         CY_FLASH_CONTROL_REG = (CY_FLASH_CONTROL_REG & (uint8)(~CY_FLASH_CACHE_WS_VALUE_MASK)) |
 713              		.loc 1 623 0
 714 001e 124A     		ldr	r2, .L105
 715 0020 1378     		ldrb	r3, [r2]	@ zero_extendqisi2
 716 0022 03F01F03 		and	r3, r3, #31
 717 0026 43F08003 		orr	r3, r3, #128
 718 002a 17E0     		b	.L104
 719              	.L101:
 624:Generated_Source\PSoC5/CyFlash.c ****                                     CY_FLASH_CACHE_WS_2_VALUE_MASK;
 625:Generated_Source\PSoC5/CyFlash.c ****     }
 626:Generated_Source\PSoC5/CyFlash.c ****     else if (freq < CY_FLASH_CACHE_WS_3_FREQ_MAX)
 720              		.loc 1 626 0
 721 002c 312C     		cmp	r4, #49
 722 002e 06D8     		bhi	.L102
 627:Generated_Source\PSoC5/CyFlash.c ****     {
 628:Generated_Source\PSoC5/CyFlash.c ****         CY_FLASH_CONTROL_REG = (CY_FLASH_CONTROL_REG & (uint8)(~CY_FLASH_CACHE_WS_VALUE_MASK)) |
 723              		.loc 1 628 0
 724 0030 0D4A     		ldr	r2, .L105
 725 0032 1378     		ldrb	r3, [r2]	@ zero_extendqisi2
 726 0034 03F01F03 		and	r3, r3, #31
 727 0038 43F0C003 		orr	r3, r3, #192
 728 003c 0EE0     		b	.L104
 729              	.L102:
 629:Generated_Source\PSoC5/CyFlash.c ****                                     CY_FLASH_CACHE_WS_3_VALUE_MASK;
 630:Generated_Source\PSoC5/CyFlash.c ****     }
 631:Generated_Source\PSoC5/CyFlash.c **** #if (CY_PSOC5)
 632:Generated_Source\PSoC5/CyFlash.c ****     else if (freq < CY_FLASH_CACHE_WS_4_FREQ_MAX)
 730              		.loc 1 632 0
 731 003e 422C     		cmp	r4, #66
 732 0040 04D8     		bhi	.L103
 633:Generated_Source\PSoC5/CyFlash.c ****     {
 634:Generated_Source\PSoC5/CyFlash.c ****         CY_FLASH_CONTROL_REG = (CY_FLASH_CONTROL_REG & (uint8)(~CY_FLASH_CACHE_WS_VALUE_MASK)) |
 733              		.loc 1 634 0
 734 0042 094A     		ldr	r2, .L105
 735 0044 1378     		ldrb	r3, [r2]	@ zero_extendqisi2
 736 0046 03F01F03 		and	r3, r3, #31
 737 004a 07E0     		b	.L104
 738              	.L103:
 635:Generated_Source\PSoC5/CyFlash.c ****                                     CY_FLASH_CACHE_WS_4_VALUE_MASK;
 636:Generated_Source\PSoC5/CyFlash.c ****     }
 637:Generated_Source\PSoC5/CyFlash.c ****     else if (freq <= CY_FLASH_CACHE_WS_5_FREQ_MAX)
 739              		.loc 1 637 0
 740 004c 532C     		cmp	r4, #83
 741 004e 06D8     		bhi	.L100
 638:Generated_Source\PSoC5/CyFlash.c ****     {
 639:Generated_Source\PSoC5/CyFlash.c ****         CY_FLASH_CONTROL_REG = (CY_FLASH_CONTROL_REG & (uint8)(~CY_FLASH_CACHE_WS_VALUE_MASK)) |
 742              		.loc 1 639 0
 743 0050 054A     		ldr	r2, .L105
 744 0052 1378     		ldrb	r3, [r2]	@ zero_extendqisi2
 745 0054 03F01F03 		and	r3, r3, #31
 746 0058 43F02003 		orr	r3, r3, #32
 747              	.L104:
 748 005c 1370     		strb	r3, [r2]
 749              	.L100:
 640:Generated_Source\PSoC5/CyFlash.c ****                                     CY_FLASH_CACHE_WS_5_VALUE_MASK;
ARM GAS  C:\Users\rabbit\AppData\Local\Temp\cceL7SSb.s 			page 26


 641:Generated_Source\PSoC5/CyFlash.c ****     }
 642:Generated_Source\PSoC5/CyFlash.c **** #endif  /* (CY_PSOC5) */
 643:Generated_Source\PSoC5/CyFlash.c ****     else
 644:Generated_Source\PSoC5/CyFlash.c ****     {
 645:Generated_Source\PSoC5/CyFlash.c ****         /* Halt CPU in debug mode if frequency is invalid */
 646:Generated_Source\PSoC5/CyFlash.c ****         CYASSERT(0u != 0u);
 647:Generated_Source\PSoC5/CyFlash.c ****     }
 648:Generated_Source\PSoC5/CyFlash.c **** 
 649:Generated_Source\PSoC5/CyFlash.c ****     /* Restore global interrupt enable state */
 650:Generated_Source\PSoC5/CyFlash.c ****     CyExitCriticalSection(interruptState);
 651:Generated_Source\PSoC5/CyFlash.c **** }
 750              		.loc 1 651 0
 751 005e BDE81040 		pop	{r4, lr}
 752              		.cfi_restore 14
 753              		.cfi_restore 4
 754              		.cfi_def_cfa_offset 0
 650:Generated_Source\PSoC5/CyFlash.c **** }
 755              		.loc 1 650 0
 756 0062 FFF7FEBF 		b	CyExitCriticalSection
 757              	.LVL74:
 758              	.L106:
 759 0066 00BF     		.align	2
 760              	.L105:
 761 0068 00480040 		.word	1073760256
 762              		.cfi_endproc
 763              	.LFE9:
 764              		.size	CyFlash_SetWaitCycles, .-CyFlash_SetWaitCycles
 765              		.section	.text.CyEEPROM_Start,"ax",%progbits
 766              		.align	1
 767              		.global	CyEEPROM_Start
 768              		.thumb
 769              		.thumb_func
 770              		.type	CyEEPROM_Start, %function
 771              	CyEEPROM_Start:
 772              	.LFB10:
 652:Generated_Source\PSoC5/CyFlash.c **** 
 653:Generated_Source\PSoC5/CyFlash.c **** 
 654:Generated_Source\PSoC5/CyFlash.c **** /*******************************************************************************
 655:Generated_Source\PSoC5/CyFlash.c **** * Function Name: CyEEPROM_Start
 656:Generated_Source\PSoC5/CyFlash.c **** ****************************************************************************//**
 657:Generated_Source\PSoC5/CyFlash.c **** *
 658:Generated_Source\PSoC5/CyFlash.c **** *  Enable the EEPROM.
 659:Generated_Source\PSoC5/CyFlash.c **** *
 660:Generated_Source\PSoC5/CyFlash.c **** *******************************************************************************/
 661:Generated_Source\PSoC5/CyFlash.c **** void CyEEPROM_Start(void) 
 662:Generated_Source\PSoC5/CyFlash.c **** {
 773              		.loc 1 662 0
 774              		.cfi_startproc
 775              		@ args = 0, pretend = 0, frame = 0
 776              		@ frame_needed = 0, uses_anonymous_args = 0
 777 0000 08B5     		push	{r3, lr}
 778              		.cfi_def_cfa_offset 8
 779              		.cfi_offset 3, -8
 780              		.cfi_offset 14, -4
 663:Generated_Source\PSoC5/CyFlash.c ****     uint8 interruptState;
 664:Generated_Source\PSoC5/CyFlash.c **** 
 665:Generated_Source\PSoC5/CyFlash.c ****     interruptState = CyEnterCriticalSection();
ARM GAS  C:\Users\rabbit\AppData\Local\Temp\cceL7SSb.s 			page 27


 781              		.loc 1 665 0
 782 0002 FFF7FEFF 		bl	CyEnterCriticalSection
 783              	.LVL75:
 666:Generated_Source\PSoC5/CyFlash.c **** 
 667:Generated_Source\PSoC5/CyFlash.c **** 
 668:Generated_Source\PSoC5/CyFlash.c ****     /***************************************************************************
 669:Generated_Source\PSoC5/CyFlash.c ****     * Enable SPC clock. This also internally enables the 36MHz IMO, since this
 670:Generated_Source\PSoC5/CyFlash.c ****     * is required for the SPC to function.
 671:Generated_Source\PSoC5/CyFlash.c ****     ***************************************************************************/
 672:Generated_Source\PSoC5/CyFlash.c ****     CY_FLASH_PM_ACT_CFG0_REG    |= CY_FLASH_PM_ACT_CFG0_EN_CLK_SPC;
 784              		.loc 1 672 0
 785 0006 0F4A     		ldr	r2, .L111
 786 0008 1378     		ldrb	r3, [r2]	@ zero_extendqisi2
 787 000a 43F00803 		orr	r3, r3, #8
 788 000e 1370     		strb	r3, [r2]
 673:Generated_Source\PSoC5/CyFlash.c ****     CY_FLASH_PM_ALTACT_CFG0_REG |= CY_FLASH_PM_ALTACT_CFG0_EN_CLK_SPC;
 789              		.loc 1 673 0
 790 0010 137C     		ldrb	r3, [r2, #16]	@ zero_extendqisi2
 791 0012 43F00803 		orr	r3, r3, #8
 792 0016 1374     		strb	r3, [r2, #16]
 674:Generated_Source\PSoC5/CyFlash.c **** 
 675:Generated_Source\PSoC5/CyFlash.c **** 
 676:Generated_Source\PSoC5/CyFlash.c ****     /***************************************************************************
 677:Generated_Source\PSoC5/CyFlash.c ****     * The wake count defines the number of Bus Clock cycles it takes for the
 678:Generated_Source\PSoC5/CyFlash.c ****     * flash or EEPROM to wake up from a low power mode independent of the chip
 679:Generated_Source\PSoC5/CyFlash.c ****     * power mode. Wake up time for these blocks is 5 us.
 680:Generated_Source\PSoC5/CyFlash.c ****     * The granularity of this register is 2 Bus Clock cycles, so a value of 0x1E
 681:Generated_Source\PSoC5/CyFlash.c ****     * (30d) defines the wake up time as 60 cycles of the Bus Clock.
 682:Generated_Source\PSoC5/CyFlash.c ****     * This register needs to be written with a value dependent on the Bus Clock
 683:Generated_Source\PSoC5/CyFlash.c ****     * frequency so that the duration of the cycles is equal to or greater than
 684:Generated_Source\PSoC5/CyFlash.c ****     * the 5 us delay required.
 685:Generated_Source\PSoC5/CyFlash.c ****     ***************************************************************************/
 686:Generated_Source\PSoC5/CyFlash.c ****     CY_FLASH_SPC_FM_EE_WAKE_CNT_REG = CY_FLASH_SPC_FM_EE_WAKE_CNT_80MHZ;
 793              		.loc 1 686 0
 794 0018 0B4B     		ldr	r3, .L111+4
 795 001a C822     		movs	r2, #200
 796 001c 1A70     		strb	r2, [r3]
 687:Generated_Source\PSoC5/CyFlash.c **** 
 688:Generated_Source\PSoC5/CyFlash.c **** 
 689:Generated_Source\PSoC5/CyFlash.c ****     /***************************************************************************
 690:Generated_Source\PSoC5/CyFlash.c ****     * Enable EEPROM. Re-enabling an EEPROM macro takes 5us. During this time,
 691:Generated_Source\PSoC5/CyFlash.c ****     * the EE will not acknowledge a PHUB request.
 692:Generated_Source\PSoC5/CyFlash.c ****     ***************************************************************************/
 693:Generated_Source\PSoC5/CyFlash.c ****     CY_FLASH_PM_ACT_CFG12_REG    |= CY_FLASH_PM_ACT_CFG12_EN_EE;
 797              		.loc 1 693 0
 798 001e 0B4A     		ldr	r2, .L111+8
 799 0020 1378     		ldrb	r3, [r2]	@ zero_extendqisi2
 800 0022 43F01003 		orr	r3, r3, #16
 801 0026 1370     		strb	r3, [r2]
 694:Generated_Source\PSoC5/CyFlash.c ****     CY_FLASH_PM_ALTACT_CFG12_REG |= CY_FLASH_PM_ALTACT_CFG12_EN_EE;
 802              		.loc 1 694 0
 803 0028 137C     		ldrb	r3, [r2, #16]	@ zero_extendqisi2
 804 002a 43F01003 		orr	r3, r3, #16
 805 002e 1374     		strb	r3, [r2, #16]
 695:Generated_Source\PSoC5/CyFlash.c **** 
 696:Generated_Source\PSoC5/CyFlash.c ****     while(0u == (CY_FLASH_SPC_FM_EE_CR_REG & CY_FLASH_EE_EE_AWAKE))
 806              		.loc 1 696 0
ARM GAS  C:\Users\rabbit\AppData\Local\Temp\cceL7SSb.s 			page 28


 807 0030 02F55572 		add	r2, r2, #852
 808              	.L108:
 809              		.loc 1 696 0 is_stmt 0 discriminator 1
 810 0034 1378     		ldrb	r3, [r2]	@ zero_extendqisi2
 811 0036 9B06     		lsls	r3, r3, #26
 812 0038 FCD5     		bpl	.L108
 697:Generated_Source\PSoC5/CyFlash.c ****     {
 698:Generated_Source\PSoC5/CyFlash.c ****         /* Non-zero status denotes that the EEPROM/Flash is awake & powered. */
 699:Generated_Source\PSoC5/CyFlash.c ****     }
 700:Generated_Source\PSoC5/CyFlash.c **** 
 701:Generated_Source\PSoC5/CyFlash.c ****     CyExitCriticalSection(interruptState);
 702:Generated_Source\PSoC5/CyFlash.c **** }
 813              		.loc 1 702 0 is_stmt 1
 814 003a BDE80840 		pop	{r3, lr}
 815              		.cfi_restore 14
 816              		.cfi_restore 3
 817              		.cfi_def_cfa_offset 0
 701:Generated_Source\PSoC5/CyFlash.c **** }
 818              		.loc 1 701 0
 819 003e FFF7FEBF 		b	CyExitCriticalSection
 820              	.LVL76:
 821              	.L112:
 822 0042 00BF     		.align	2
 823              	.L111:
 824 0044 A0430040 		.word	1073759136
 825 0048 01470040 		.word	1073760001
 826 004c AC430040 		.word	1073759148
 827              		.cfi_endproc
 828              	.LFE10:
 829              		.size	CyEEPROM_Start, .-CyEEPROM_Start
 830              		.section	.text.CyEEPROM_Stop,"ax",%progbits
 831              		.align	1
 832              		.global	CyEEPROM_Stop
 833              		.thumb
 834              		.thumb_func
 835              		.type	CyEEPROM_Stop, %function
 836              	CyEEPROM_Stop:
 837              	.LFB11:
 703:Generated_Source\PSoC5/CyFlash.c **** 
 704:Generated_Source\PSoC5/CyFlash.c **** 
 705:Generated_Source\PSoC5/CyFlash.c **** /*******************************************************************************
 706:Generated_Source\PSoC5/CyFlash.c **** * Function Name: CyEEPROM_Stop
 707:Generated_Source\PSoC5/CyFlash.c **** ****************************************************************************//**
 708:Generated_Source\PSoC5/CyFlash.c **** *
 709:Generated_Source\PSoC5/CyFlash.c **** *  Disable the EEPROM.
 710:Generated_Source\PSoC5/CyFlash.c **** *
 711:Generated_Source\PSoC5/CyFlash.c **** *******************************************************************************/
 712:Generated_Source\PSoC5/CyFlash.c **** void CyEEPROM_Stop (void) 
 713:Generated_Source\PSoC5/CyFlash.c **** {
 838              		.loc 1 713 0
 839              		.cfi_startproc
 840              		@ args = 0, pretend = 0, frame = 0
 841              		@ frame_needed = 0, uses_anonymous_args = 0
 842 0000 08B5     		push	{r3, lr}
 843              		.cfi_def_cfa_offset 8
 844              		.cfi_offset 3, -8
 845              		.cfi_offset 14, -4
ARM GAS  C:\Users\rabbit\AppData\Local\Temp\cceL7SSb.s 			page 29


 714:Generated_Source\PSoC5/CyFlash.c ****     uint8 interruptState;
 715:Generated_Source\PSoC5/CyFlash.c **** 
 716:Generated_Source\PSoC5/CyFlash.c ****     interruptState = CyEnterCriticalSection();
 846              		.loc 1 716 0
 847 0002 FFF7FEFF 		bl	CyEnterCriticalSection
 848              	.LVL77:
 717:Generated_Source\PSoC5/CyFlash.c **** 
 718:Generated_Source\PSoC5/CyFlash.c ****     CY_FLASH_PM_ACT_CFG12_REG    &= ((uint8)(~CY_FLASH_PM_ACT_CFG12_EN_EE));
 849              		.loc 1 718 0
 850 0006 064A     		ldr	r2, .L114
 851 0008 1378     		ldrb	r3, [r2]	@ zero_extendqisi2
 852 000a 03F0EF03 		and	r3, r3, #239
 853 000e 1370     		strb	r3, [r2]
 719:Generated_Source\PSoC5/CyFlash.c ****     CY_FLASH_PM_ALTACT_CFG12_REG &= ((uint8)(~CY_FLASH_PM_ALTACT_CFG12_EN_EE));
 854              		.loc 1 719 0
 855 0010 137C     		ldrb	r3, [r2, #16]	@ zero_extendqisi2
 856 0012 03F0EF03 		and	r3, r3, #239
 857 0016 1374     		strb	r3, [r2, #16]
 720:Generated_Source\PSoC5/CyFlash.c **** 
 721:Generated_Source\PSoC5/CyFlash.c ****     CyExitCriticalSection(interruptState);
 722:Generated_Source\PSoC5/CyFlash.c **** }
 858              		.loc 1 722 0
 859 0018 BDE80840 		pop	{r3, lr}
 860              		.cfi_restore 14
 861              		.cfi_restore 3
 862              		.cfi_def_cfa_offset 0
 721:Generated_Source\PSoC5/CyFlash.c **** }
 863              		.loc 1 721 0
 864 001c FFF7FEBF 		b	CyExitCriticalSection
 865              	.LVL78:
 866              	.L115:
 867              		.align	2
 868              	.L114:
 869 0020 AC430040 		.word	1073759148
 870              		.cfi_endproc
 871              	.LFE11:
 872              		.size	CyEEPROM_Stop, .-CyEEPROM_Stop
 873              		.section	.text.CyEEPROM_ReadReserve,"ax",%progbits
 874              		.align	1
 875              		.global	CyEEPROM_ReadReserve
 876              		.thumb
 877              		.thumb_func
 878              		.type	CyEEPROM_ReadReserve, %function
 879              	CyEEPROM_ReadReserve:
 880              	.LFB12:
 723:Generated_Source\PSoC5/CyFlash.c **** 
 724:Generated_Source\PSoC5/CyFlash.c **** 
 725:Generated_Source\PSoC5/CyFlash.c **** /*******************************************************************************
 726:Generated_Source\PSoC5/CyFlash.c **** * Function Name: CyEEPROM_ReadReserve
 727:Generated_Source\PSoC5/CyFlash.c **** ****************************************************************************//**
 728:Generated_Source\PSoC5/CyFlash.c **** *
 729:Generated_Source\PSoC5/CyFlash.c **** *  Request access to the EEPROM for reading and wait until access is available.
 730:Generated_Source\PSoC5/CyFlash.c **** *
 731:Generated_Source\PSoC5/CyFlash.c **** *******************************************************************************/
 732:Generated_Source\PSoC5/CyFlash.c **** void CyEEPROM_ReadReserve(void) 
 733:Generated_Source\PSoC5/CyFlash.c **** {
 881              		.loc 1 733 0
ARM GAS  C:\Users\rabbit\AppData\Local\Temp\cceL7SSb.s 			page 30


 882              		.cfi_startproc
 883              		@ args = 0, pretend = 0, frame = 0
 884              		@ frame_needed = 0, uses_anonymous_args = 0
 885              		@ link register save eliminated.
 734:Generated_Source\PSoC5/CyFlash.c ****     /* Make request for PHUB to have access */
 735:Generated_Source\PSoC5/CyFlash.c ****     CY_FLASH_EE_SCR_REG |= CY_FLASH_EE_SCR_AHB_EE_REQ;
 886              		.loc 1 735 0
 887 0000 044B     		ldr	r3, .L120
 888 0002 1A78     		ldrb	r2, [r3]	@ zero_extendqisi2
 889 0004 42F00102 		orr	r2, r2, #1
 890 0008 1A70     		strb	r2, [r3]
 891              	.L117:
 736:Generated_Source\PSoC5/CyFlash.c **** 
 737:Generated_Source\PSoC5/CyFlash.c ****     while (0u == (CY_FLASH_EE_SCR_REG & CY_FLASH_EE_SCR_AHB_EE_ACK))
 892              		.loc 1 737 0 discriminator 1
 893 000a 1A78     		ldrb	r2, [r3]	@ zero_extendqisi2
 894 000c 9207     		lsls	r2, r2, #30
 895 000e FCD5     		bpl	.L117
 738:Generated_Source\PSoC5/CyFlash.c ****     {
 739:Generated_Source\PSoC5/CyFlash.c ****         /* Wait for acknowledgment from PHUB */
 740:Generated_Source\PSoC5/CyFlash.c ****     }
 741:Generated_Source\PSoC5/CyFlash.c **** }
 896              		.loc 1 741 0
 897 0010 7047     		bx	lr
 898              	.L121:
 899 0012 00BF     		.align	2
 900              	.L120:
 901 0014 02470040 		.word	1073760002
 902              		.cfi_endproc
 903              	.LFE12:
 904              		.size	CyEEPROM_ReadReserve, .-CyEEPROM_ReadReserve
 905              		.section	.text.CyEEPROM_ReadRelease,"ax",%progbits
 906              		.align	1
 907              		.global	CyEEPROM_ReadRelease
 908              		.thumb
 909              		.thumb_func
 910              		.type	CyEEPROM_ReadRelease, %function
 911              	CyEEPROM_ReadRelease:
 912              	.LFB13:
 742:Generated_Source\PSoC5/CyFlash.c **** 
 743:Generated_Source\PSoC5/CyFlash.c **** 
 744:Generated_Source\PSoC5/CyFlash.c **** /*******************************************************************************
 745:Generated_Source\PSoC5/CyFlash.c **** * Function Name: CyEEPROM_ReadRelease
 746:Generated_Source\PSoC5/CyFlash.c **** ****************************************************************************//**
 747:Generated_Source\PSoC5/CyFlash.c **** *
 748:Generated_Source\PSoC5/CyFlash.c **** *  Release the read reservation of the EEPROM.
 749:Generated_Source\PSoC5/CyFlash.c **** *
 750:Generated_Source\PSoC5/CyFlash.c **** *******************************************************************************/
 751:Generated_Source\PSoC5/CyFlash.c **** void CyEEPROM_ReadRelease(void) 
 752:Generated_Source\PSoC5/CyFlash.c **** {
 913              		.loc 1 752 0
 914              		.cfi_startproc
 915              		@ args = 0, pretend = 0, frame = 0
 916              		@ frame_needed = 0, uses_anonymous_args = 0
 917              		@ link register save eliminated.
 753:Generated_Source\PSoC5/CyFlash.c ****     CY_FLASH_EE_SCR_REG &= (uint8)(~CY_FLASH_EE_SCR_AHB_EE_REQ);
 918              		.loc 1 753 0
ARM GAS  C:\Users\rabbit\AppData\Local\Temp\cceL7SSb.s 			page 31


 919 0000 024A     		ldr	r2, .L123
 920 0002 1378     		ldrb	r3, [r2]	@ zero_extendqisi2
 921 0004 03F0FE03 		and	r3, r3, #254
 922 0008 1370     		strb	r3, [r2]
 923 000a 7047     		bx	lr
 924              	.L124:
 925              		.align	2
 926              	.L123:
 927 000c 02470040 		.word	1073760002
 928              		.cfi_endproc
 929              	.LFE13:
 930              		.size	CyEEPROM_ReadRelease, .-CyEEPROM_ReadRelease
 931              		.comm	dieTemperature,2,1
 932              		.text
 933              	.Letext0:
 934              		.file 2 "Generated_Source\\PSoC5\\cytypes.h"
 935              		.file 3 "Generated_Source\\PSoC5\\CyLib.h"
 936              		.file 4 "Generated_Source\\PSoC5\\CySpc.h"