ARM GAS  C:\Users\rabbit\AppData\Local\Temp\ccLfhbzh.s 			page 1


   1              		.syntax unified
   2              		.cpu cortex-m3
   3              		.fpu softvfp
   4              		.eabi_attribute 20, 1
   5              		.eabi_attribute 21, 1
   6              		.eabi_attribute 23, 3
   7              		.eabi_attribute 24, 1
   8              		.eabi_attribute 25, 1
   9              		.eabi_attribute 26, 1
  10              		.eabi_attribute 30, 4
  11              		.eabi_attribute 34, 1
  12              		.eabi_attribute 18, 4
  13              		.thumb
  14              		.syntax unified
  15              		.file	"CySpc.c"
  16              		.text
  17              	.Ltext0:
  18              		.cfi_sections	.debug_frame
  19              		.section	.text.CySpcStart,"ax",%progbits
  20              		.align	1
  21              		.global	CySpcStart
  22              		.thumb
  23              		.thumb_func
  24              		.type	CySpcStart, %function
  25              	CySpcStart:
  26              	.LFB0:
  27              		.file 1 "Generated_Source\\PSoC5\\CySpc.c"
   1:Generated_Source\PSoC5/CySpc.c **** /***************************************************************************//**
   2:Generated_Source\PSoC5/CySpc.c **** * \file CySpc.c
   3:Generated_Source\PSoC5/CySpc.c **** * \version 6.10
   4:Generated_Source\PSoC5/CySpc.c **** *
   5:Generated_Source\PSoC5/CySpc.c **** * \brief Provides an API for the System Performance Component.
   6:Generated_Source\PSoC5/CySpc.c **** * The SPC functions are not meant to be called directly by the user
   7:Generated_Source\PSoC5/CySpc.c **** * application.
   8:Generated_Source\PSoC5/CySpc.c **** *
   9:Generated_Source\PSoC5/CySpc.c **** ********************************************************************************
  10:Generated_Source\PSoC5/CySpc.c **** * \copyright
  11:Generated_Source\PSoC5/CySpc.c **** * Copyright 2008-2021, Cypress Semiconductor Corporation.  All rights reserved.
  12:Generated_Source\PSoC5/CySpc.c **** * You may use this file only in accordance with the license, terms, conditions,
  13:Generated_Source\PSoC5/CySpc.c **** * disclaimers, and limitations in the end user license agreement accompanying
  14:Generated_Source\PSoC5/CySpc.c **** * the software package with which this file was provided.
  15:Generated_Source\PSoC5/CySpc.c **** *******************************************************************************/
  16:Generated_Source\PSoC5/CySpc.c **** 
  17:Generated_Source\PSoC5/CySpc.c **** #include "CySpc.h"
  18:Generated_Source\PSoC5/CySpc.c **** 
  19:Generated_Source\PSoC5/CySpc.c **** #define CY_SPC_KEY_ONE                      (0xB6u)
  20:Generated_Source\PSoC5/CySpc.c **** #define CY_SPC_KEY_TWO(x)                   ((uint8) (((uint16) 0xD3u) + ((uint16) (x))))
  21:Generated_Source\PSoC5/CySpc.c **** 
  22:Generated_Source\PSoC5/CySpc.c **** /* Command Codes */
  23:Generated_Source\PSoC5/CySpc.c **** #define CY_SPC_CMD_LD_BYTE                  (0x00u)
  24:Generated_Source\PSoC5/CySpc.c **** #define CY_SPC_CMD_LD_MULTI_BYTE            (0x01u)
  25:Generated_Source\PSoC5/CySpc.c **** #define CY_SPC_CMD_LD_ROW                   (0x02u)
  26:Generated_Source\PSoC5/CySpc.c **** #define CY_SPC_CMD_RD_BYTE                  (0x03u)
  27:Generated_Source\PSoC5/CySpc.c **** #define CY_SPC_CMD_RD_MULTI_BYTE            (0x04u)
  28:Generated_Source\PSoC5/CySpc.c **** #define CY_SPC_CMD_WR_ROW                   (0x05u)
  29:Generated_Source\PSoC5/CySpc.c **** #define CY_SPC_CMD_WR_USER_NVL              (0x06u)
  30:Generated_Source\PSoC5/CySpc.c **** #define CY_SPC_CMD_PRG_ROW                  (0x07u)
ARM GAS  C:\Users\rabbit\AppData\Local\Temp\ccLfhbzh.s 			page 2


  31:Generated_Source\PSoC5/CySpc.c **** #define CY_SPC_CMD_ER_SECTOR                (0x08u)
  32:Generated_Source\PSoC5/CySpc.c **** #define CY_SPC_CMD_ER_ALL                   (0x09u)
  33:Generated_Source\PSoC5/CySpc.c **** #define CY_SPC_CMD_RD_HIDDEN                (0x0Au)
  34:Generated_Source\PSoC5/CySpc.c **** #define CY_SPC_CMD_PRG_PROTECT              (0x0Bu)
  35:Generated_Source\PSoC5/CySpc.c **** #define CY_SPC_CMD_CHECKSUM                 (0x0Cu)
  36:Generated_Source\PSoC5/CySpc.c **** #define CY_SPC_CMD_DWNLD_ALGORITHM          (0x0Du)
  37:Generated_Source\PSoC5/CySpc.c **** #define CY_SPC_CMD_GET_TEMP                 (0x0Eu)
  38:Generated_Source\PSoC5/CySpc.c **** #define CY_SPC_CMD_GET_ADC                  (0x0Fu)
  39:Generated_Source\PSoC5/CySpc.c **** #define CY_SPC_CMD_RD_NVL_VOLATILE          (0x10u)
  40:Generated_Source\PSoC5/CySpc.c **** #define CY_SPC_CMD_SETUP_TS                 (0x11u)
  41:Generated_Source\PSoC5/CySpc.c **** #define CY_SPC_CMD_DISABLE_TS               (0x12u)
  42:Generated_Source\PSoC5/CySpc.c **** #define CY_SPC_CMD_ER_ROW                   (0x13u)
  43:Generated_Source\PSoC5/CySpc.c **** 
  44:Generated_Source\PSoC5/CySpc.c **** /* Enable bit in Active and Alternate Active mode templates */
  45:Generated_Source\PSoC5/CySpc.c **** #define PM_SPC_PM_EN                        (0x08u)
  46:Generated_Source\PSoC5/CySpc.c **** 
  47:Generated_Source\PSoC5/CySpc.c **** /* Gate calls to the SPC. */
  48:Generated_Source\PSoC5/CySpc.c **** uint8 SpcLockState = CY_SPC_UNLOCKED;
  49:Generated_Source\PSoC5/CySpc.c **** 
  50:Generated_Source\PSoC5/CySpc.c **** 
  51:Generated_Source\PSoC5/CySpc.c **** #if(CY_PSOC5)
  52:Generated_Source\PSoC5/CySpc.c **** 
  53:Generated_Source\PSoC5/CySpc.c ****     /***************************************************************************
  54:Generated_Source\PSoC5/CySpc.c ****     * The wait-state pipeline must be enabled prior to accessing the SPC
  55:Generated_Source\PSoC5/CySpc.c ****     * register interface regardless of CPU frequency. The CySpcLock() saves
  56:Generated_Source\PSoC5/CySpc.c ****     * current wait-state pipeline state and enables it. The CySpcUnlock()
  57:Generated_Source\PSoC5/CySpc.c ****     * function, which must be called after SPC transaction, restores original
  58:Generated_Source\PSoC5/CySpc.c ****     * state.
  59:Generated_Source\PSoC5/CySpc.c ****     ***************************************************************************/
  60:Generated_Source\PSoC5/CySpc.c ****     static uint32 spcWaitPipeBypass = 0u;
  61:Generated_Source\PSoC5/CySpc.c **** 
  62:Generated_Source\PSoC5/CySpc.c **** #endif  /* (CY_PSOC5) */
  63:Generated_Source\PSoC5/CySpc.c **** 
  64:Generated_Source\PSoC5/CySpc.c **** 
  65:Generated_Source\PSoC5/CySpc.c **** /*******************************************************************************
  66:Generated_Source\PSoC5/CySpc.c **** * Function Name: CySpcStart
  67:Generated_Source\PSoC5/CySpc.c **** ****************************************************************************//**
  68:Generated_Source\PSoC5/CySpc.c **** *  Starts the SPC.
  69:Generated_Source\PSoC5/CySpc.c **** *
  70:Generated_Source\PSoC5/CySpc.c **** *******************************************************************************/
  71:Generated_Source\PSoC5/CySpc.c **** void CySpcStart(void) 
  72:Generated_Source\PSoC5/CySpc.c **** {
  28              		.loc 1 72 0
  29              		.cfi_startproc
  30              		@ args = 0, pretend = 0, frame = 0
  31              		@ frame_needed = 0, uses_anonymous_args = 0
  32 0000 08B5     		push	{r3, lr}
  33              		.cfi_def_cfa_offset 8
  34              		.cfi_offset 3, -8
  35              		.cfi_offset 14, -4
  73:Generated_Source\PSoC5/CySpc.c ****     /* Save current global interrupt enable and disable it */
  74:Generated_Source\PSoC5/CySpc.c ****     uint8 interruptState = CyEnterCriticalSection();
  36              		.loc 1 74 0
  37 0002 FFF7FEFF 		bl	CyEnterCriticalSection
  38              	.LVL0:
  75:Generated_Source\PSoC5/CySpc.c **** 
  76:Generated_Source\PSoC5/CySpc.c ****     CY_SPC_PM_ACT_REG  |= PM_SPC_PM_EN;
ARM GAS  C:\Users\rabbit\AppData\Local\Temp\ccLfhbzh.s 			page 3


  39              		.loc 1 76 0
  40 0006 064A     		ldr	r2, .L2
  41 0008 1378     		ldrb	r3, [r2]	@ zero_extendqisi2
  42 000a 43F00803 		orr	r3, r3, #8
  43 000e 1370     		strb	r3, [r2]
  77:Generated_Source\PSoC5/CySpc.c ****     CY_SPC_PM_STBY_REG |= PM_SPC_PM_EN;
  44              		.loc 1 77 0
  45 0010 137C     		ldrb	r3, [r2, #16]	@ zero_extendqisi2
  46 0012 43F00803 		orr	r3, r3, #8
  47 0016 1374     		strb	r3, [r2, #16]
  78:Generated_Source\PSoC5/CySpc.c **** 
  79:Generated_Source\PSoC5/CySpc.c ****     /* Restore global interrupt enable state */
  80:Generated_Source\PSoC5/CySpc.c ****     CyExitCriticalSection(interruptState);
  81:Generated_Source\PSoC5/CySpc.c **** }
  48              		.loc 1 81 0
  49 0018 BDE80840 		pop	{r3, lr}
  50              		.cfi_restore 14
  51              		.cfi_restore 3
  52              		.cfi_def_cfa_offset 0
  80:Generated_Source\PSoC5/CySpc.c **** }
  53              		.loc 1 80 0
  54 001c FFF7FEBF 		b	CyExitCriticalSection
  55              	.LVL1:
  56              	.L3:
  57              		.align	2
  58              	.L2:
  59 0020 A0430040 		.word	1073759136
  60              		.cfi_endproc
  61              	.LFE0:
  62              		.size	CySpcStart, .-CySpcStart
  63              		.section	.text.CySpcStop,"ax",%progbits
  64              		.align	1
  65              		.global	CySpcStop
  66              		.thumb
  67              		.thumb_func
  68              		.type	CySpcStop, %function
  69              	CySpcStop:
  70              	.LFB1:
  82:Generated_Source\PSoC5/CySpc.c **** 
  83:Generated_Source\PSoC5/CySpc.c **** 
  84:Generated_Source\PSoC5/CySpc.c **** /*******************************************************************************
  85:Generated_Source\PSoC5/CySpc.c **** * Function Name: CySpcStop
  86:Generated_Source\PSoC5/CySpc.c **** ****************************************************************************//**
  87:Generated_Source\PSoC5/CySpc.c **** *  Stops the SPC.
  88:Generated_Source\PSoC5/CySpc.c **** *
  89:Generated_Source\PSoC5/CySpc.c **** *******************************************************************************/
  90:Generated_Source\PSoC5/CySpc.c **** void CySpcStop(void) 
  91:Generated_Source\PSoC5/CySpc.c **** {
  71              		.loc 1 91 0
  72              		.cfi_startproc
  73              		@ args = 0, pretend = 0, frame = 0
  74              		@ frame_needed = 0, uses_anonymous_args = 0
  75 0000 08B5     		push	{r3, lr}
  76              		.cfi_def_cfa_offset 8
  77              		.cfi_offset 3, -8
  78              		.cfi_offset 14, -4
  92:Generated_Source\PSoC5/CySpc.c ****     /* Save current global interrupt enable and disable it */
ARM GAS  C:\Users\rabbit\AppData\Local\Temp\ccLfhbzh.s 			page 4


  93:Generated_Source\PSoC5/CySpc.c ****     uint8 interruptState = CyEnterCriticalSection();
  79              		.loc 1 93 0
  80 0002 FFF7FEFF 		bl	CyEnterCriticalSection
  81              	.LVL2:
  94:Generated_Source\PSoC5/CySpc.c **** 
  95:Generated_Source\PSoC5/CySpc.c ****     CY_SPC_PM_ACT_REG  &= ((uint8)(~PM_SPC_PM_EN));
  82              		.loc 1 95 0
  83 0006 064A     		ldr	r2, .L5
  84 0008 1378     		ldrb	r3, [r2]	@ zero_extendqisi2
  85 000a 03F0F703 		and	r3, r3, #247
  86 000e 1370     		strb	r3, [r2]
  96:Generated_Source\PSoC5/CySpc.c ****     CY_SPC_PM_STBY_REG &= ((uint8)(~PM_SPC_PM_EN));
  87              		.loc 1 96 0
  88 0010 137C     		ldrb	r3, [r2, #16]	@ zero_extendqisi2
  89 0012 03F0F703 		and	r3, r3, #247
  90 0016 1374     		strb	r3, [r2, #16]
  97:Generated_Source\PSoC5/CySpc.c **** 
  98:Generated_Source\PSoC5/CySpc.c ****     /* Restore global interrupt enable state */
  99:Generated_Source\PSoC5/CySpc.c ****     CyExitCriticalSection(interruptState);
 100:Generated_Source\PSoC5/CySpc.c **** }
  91              		.loc 1 100 0
  92 0018 BDE80840 		pop	{r3, lr}
  93              		.cfi_restore 14
  94              		.cfi_restore 3
  95              		.cfi_def_cfa_offset 0
  99:Generated_Source\PSoC5/CySpc.c **** }
  96              		.loc 1 99 0
  97 001c FFF7FEBF 		b	CyExitCriticalSection
  98              	.LVL3:
  99              	.L6:
 100              		.align	2
 101              	.L5:
 102 0020 A0430040 		.word	1073759136
 103              		.cfi_endproc
 104              	.LFE1:
 105              		.size	CySpcStop, .-CySpcStop
 106              		.section	.text.CySpcReadData,"ax",%progbits
 107              		.align	1
 108              		.global	CySpcReadData
 109              		.thumb
 110              		.thumb_func
 111              		.type	CySpcReadData, %function
 112              	CySpcReadData:
 113              	.LFB2:
 101:Generated_Source\PSoC5/CySpc.c **** 
 102:Generated_Source\PSoC5/CySpc.c **** 
 103:Generated_Source\PSoC5/CySpc.c **** /*******************************************************************************
 104:Generated_Source\PSoC5/CySpc.c **** * Function Name: CySpcReadData
 105:Generated_Source\PSoC5/CySpc.c **** ****************************************************************************//**
 106:Generated_Source\PSoC5/CySpc.c **** *  Reads data from the SPC.
 107:Generated_Source\PSoC5/CySpc.c **** *
 108:Generated_Source\PSoC5/CySpc.c **** *  \param uint8 buffer:
 109:Generated_Source\PSoC5/CySpc.c **** *   Address to store data read.
 110:Generated_Source\PSoC5/CySpc.c **** *
 111:Generated_Source\PSoC5/CySpc.c **** *  \param uint8 size:
 112:Generated_Source\PSoC5/CySpc.c **** *   Number of bytes to read from the SPC.
 113:Generated_Source\PSoC5/CySpc.c **** *
ARM GAS  C:\Users\rabbit\AppData\Local\Temp\ccLfhbzh.s 			page 5


 114:Generated_Source\PSoC5/CySpc.c **** * \return
 115:Generated_Source\PSoC5/CySpc.c **** *  uint8:
 116:Generated_Source\PSoC5/CySpc.c **** *   The number of bytes read from the SPC.
 117:Generated_Source\PSoC5/CySpc.c **** *
 118:Generated_Source\PSoC5/CySpc.c **** *******************************************************************************/
 119:Generated_Source\PSoC5/CySpc.c **** uint8 CySpcReadData(uint8 buffer[], uint8 size) 
 120:Generated_Source\PSoC5/CySpc.c **** {
 114              		.loc 1 120 0
 115              		.cfi_startproc
 116              		@ args = 0, pretend = 0, frame = 0
 117              		@ frame_needed = 0, uses_anonymous_args = 0
 118              	.LVL4:
 119 0000 2DE9F041 		push	{r4, r5, r6, r7, r8, lr}
 120              		.cfi_def_cfa_offset 24
 121              		.cfi_offset 4, -24
 122              		.cfi_offset 5, -20
 123              		.cfi_offset 6, -16
 124              		.cfi_offset 7, -12
 125              		.cfi_offset 8, -8
 126              		.cfi_offset 14, -4
 127              		.loc 1 120 0
 128 0004 0E46     		mov	r6, r1
 129 0006 4B1E     		subs	r3, r1, #1
 121:Generated_Source\PSoC5/CySpc.c ****     uint8 i;
 122:Generated_Source\PSoC5/CySpc.c **** 
 123:Generated_Source\PSoC5/CySpc.c ****     for(i = 0u; i < size; i++)
 124:Generated_Source\PSoC5/CySpc.c ****     {
 125:Generated_Source\PSoC5/CySpc.c ****         while(!CY_SPC_DATA_READY)
 130              		.loc 1 125 0
 131 0008 0A4F     		ldr	r7, .L15
 126:Generated_Source\PSoC5/CySpc.c ****         {
 127:Generated_Source\PSoC5/CySpc.c ****             CyDelayUs(1u);
 128:Generated_Source\PSoC5/CySpc.c ****         }
 129:Generated_Source\PSoC5/CySpc.c ****         buffer[i] = CY_SPC_CPU_DATA_REG;
 132              		.loc 1 129 0
 133 000a DFF82C80 		ldr	r8, .L15+4
 134 000e 451E     		subs	r5, r0, #1
 135 0010 C418     		adds	r4, r0, r3
 136              	.LVL5:
 137              	.L8:
 123:Generated_Source\PSoC5/CySpc.c ****     {
 138              		.loc 1 123 0 discriminator 1
 139 0012 A542     		cmp	r5, r4
 140 0014 0BD0     		beq	.L13
 141              	.L11:
 125:Generated_Source\PSoC5/CySpc.c ****         {
 142              		.loc 1 125 0
 143 0016 3B78     		ldrb	r3, [r7]	@ zero_extendqisi2
 144 0018 DB07     		lsls	r3, r3, #31
 145 001a 03D4     		bmi	.L14
 127:Generated_Source\PSoC5/CySpc.c ****         }
 146              		.loc 1 127 0
 147 001c 0120     		movs	r0, #1
 148 001e FFF7FEFF 		bl	CyDelayUs
 149              	.LVL6:
 150 0022 F8E7     		b	.L11
 151              	.L14:
ARM GAS  C:\Users\rabbit\AppData\Local\Temp\ccLfhbzh.s 			page 6


 152              		.loc 1 129 0 discriminator 2
 153 0024 98F80030 		ldrb	r3, [r8]	@ zero_extendqisi2
 154 0028 05F8013F 		strb	r3, [r5, #1]!
 155              	.LVL7:
 156 002c F1E7     		b	.L8
 157              	.L13:
 130:Generated_Source\PSoC5/CySpc.c ****     }
 131:Generated_Source\PSoC5/CySpc.c **** 
 132:Generated_Source\PSoC5/CySpc.c ****     return(i);
 133:Generated_Source\PSoC5/CySpc.c **** }
 158              		.loc 1 133 0
 159 002e 3046     		mov	r0, r6
 160 0030 BDE8F081 		pop	{r4, r5, r6, r7, r8, pc}
 161              	.LVL8:
 162              	.L16:
 163              		.align	2
 164              	.L15:
 165 0034 22470040 		.word	1073760034
 166 0038 20470040 		.word	1073760032
 167              		.cfi_endproc
 168              	.LFE2:
 169              		.size	CySpcReadData, .-CySpcReadData
 170              		.section	.text.CySpcLoadMultiByte,"ax",%progbits
 171              		.align	1
 172              		.global	CySpcLoadMultiByte
 173              		.thumb
 174              		.thumb_func
 175              		.type	CySpcLoadMultiByte, %function
 176              	CySpcLoadMultiByte:
 177              	.LFB3:
 134:Generated_Source\PSoC5/CySpc.c **** 
 135:Generated_Source\PSoC5/CySpc.c **** 
 136:Generated_Source\PSoC5/CySpc.c **** /*******************************************************************************
 137:Generated_Source\PSoC5/CySpc.c **** * Function Name: CySpcLoadMultiByte
 138:Generated_Source\PSoC5/CySpc.c **** ****************************************************************************//**
 139:Generated_Source\PSoC5/CySpc.c **** *  Loads 1 to 32 bytes of data into the row latch of a Flash/EEPROM array.
 140:Generated_Source\PSoC5/CySpc.c **** *
 141:Generated_Source\PSoC5/CySpc.c **** *  \param uint8 array:
 142:Generated_Source\PSoC5/CySpc.c **** *   Id of the array.
 143:Generated_Source\PSoC5/CySpc.c **** *
 144:Generated_Source\PSoC5/CySpc.c **** *  \param uint16 address:
 145:Generated_Source\PSoC5/CySpc.c **** *   Flash/eeprom addrress
 146:Generated_Source\PSoC5/CySpc.c **** *
 147:Generated_Source\PSoC5/CySpc.c **** *  \param uint8* buffer:
 148:Generated_Source\PSoC5/CySpc.c **** *   Data to load to the row latch
 149:Generated_Source\PSoC5/CySpc.c **** *
 150:Generated_Source\PSoC5/CySpc.c **** *  \param uint16 number:
 151:Generated_Source\PSoC5/CySpc.c **** *   Number bytes to load.
 152:Generated_Source\PSoC5/CySpc.c **** *
 153:Generated_Source\PSoC5/CySpc.c **** * \return
 154:Generated_Source\PSoC5/CySpc.c **** *  CYRET_STARTED
 155:Generated_Source\PSoC5/CySpc.c **** *  CYRET_CANCELED
 156:Generated_Source\PSoC5/CySpc.c **** *  CYRET_LOCKED
 157:Generated_Source\PSoC5/CySpc.c **** *  CYRET_BAD_PARAM
 158:Generated_Source\PSoC5/CySpc.c **** *
 159:Generated_Source\PSoC5/CySpc.c **** *******************************************************************************/
 160:Generated_Source\PSoC5/CySpc.c **** cystatus CySpcLoadMultiByte(uint8 array, uint16 address, const uint8 buffer[], uint8 size)\
ARM GAS  C:\Users\rabbit\AppData\Local\Temp\ccLfhbzh.s 			page 7


 161:Generated_Source\PSoC5/CySpc.c **** 
 162:Generated_Source\PSoC5/CySpc.c **** {
 178              		.loc 1 162 0
 179              		.cfi_startproc
 180              		@ args = 0, pretend = 0, frame = 0
 181              		@ frame_needed = 0, uses_anonymous_args = 0
 182              	.LVL9:
 163:Generated_Source\PSoC5/CySpc.c ****     cystatus status = CYRET_STARTED;
 164:Generated_Source\PSoC5/CySpc.c ****     uint8 i;
 165:Generated_Source\PSoC5/CySpc.c **** 
 166:Generated_Source\PSoC5/CySpc.c ****     /***************************************************************************
 167:Generated_Source\PSoC5/CySpc.c ****     * Check if number is correct for array. Number must be less than
 168:Generated_Source\PSoC5/CySpc.c ****     * 32 for Flash or less than 16 for EEPROM.
 169:Generated_Source\PSoC5/CySpc.c ****     ***************************************************************************/
 170:Generated_Source\PSoC5/CySpc.c ****     if(((array < CY_SPC_LAST_FLASH_ARRAYID) && (size < 32u)) ||
 183              		.loc 1 170 0
 184 0000 3E28     		cmp	r0, #62
 162:Generated_Source\PSoC5/CySpc.c ****     cystatus status = CYRET_STARTED;
 185              		.loc 1 162 0
 186 0002 70B5     		push	{r4, r5, r6, lr}
 187              		.cfi_def_cfa_offset 16
 188              		.cfi_offset 4, -16
 189              		.cfi_offset 5, -12
 190              		.cfi_offset 6, -8
 191              		.cfi_offset 14, -4
 192              		.loc 1 170 0
 193 0004 01D8     		bhi	.L18
 194              		.loc 1 170 0 is_stmt 0 discriminator 1
 195 0006 1F2B     		cmp	r3, #31
 196 0008 02E0     		b	.L28
 197              	.L18:
 198              		.loc 1 170 0 discriminator 3
 199 000a 3F28     		cmp	r0, #63
 200 000c 23D0     		beq	.L24
 171:Generated_Source\PSoC5/CySpc.c ****        ((array > CY_SPC_LAST_FLASH_ARRAYID) && (size < 16u)))
 201              		.loc 1 171 0 is_stmt 1
 202 000e 0F2B     		cmp	r3, #15
 203              	.L28:
 204 0010 21D8     		bhi	.L24
 172:Generated_Source\PSoC5/CySpc.c ****     {
 173:Generated_Source\PSoC5/CySpc.c ****         if(CY_SPC_IDLE)
 205              		.loc 1 173 0
 206 0012 144D     		ldr	r5, .L30
 207 0014 2C78     		ldrb	r4, [r5]	@ zero_extendqisi2
 208 0016 A607     		lsls	r6, r4, #30
 209 0018 1FD5     		bpl	.L25
 174:Generated_Source\PSoC5/CySpc.c ****         {
 175:Generated_Source\PSoC5/CySpc.c ****             CY_SPC_CPU_DATA_REG = CY_SPC_KEY_ONE;
 210              		.loc 1 175 0
 211 001a 134C     		ldr	r4, .L30+4
 212 001c B626     		movs	r6, #182
 213 001e 2670     		strb	r6, [r4]
 176:Generated_Source\PSoC5/CySpc.c ****             CY_SPC_CPU_DATA_REG = CY_SPC_KEY_TWO(CY_SPC_CMD_LD_MULTI_BYTE);
 214              		.loc 1 176 0
 215 0020 D426     		movs	r6, #212
 216 0022 2670     		strb	r6, [r4]
 177:Generated_Source\PSoC5/CySpc.c ****             CY_SPC_CPU_DATA_REG = CY_SPC_CMD_LD_MULTI_BYTE;
ARM GAS  C:\Users\rabbit\AppData\Local\Temp\ccLfhbzh.s 			page 8


 217              		.loc 1 177 0
 218 0024 0126     		movs	r6, #1
 219 0026 2670     		strb	r6, [r4]
 178:Generated_Source\PSoC5/CySpc.c **** 
 179:Generated_Source\PSoC5/CySpc.c ****             if(CY_SPC_BUSY)
 220              		.loc 1 179 0
 221 0028 2D78     		ldrb	r5, [r5]	@ zero_extendqisi2
 222 002a AD07     		lsls	r5, r5, #30
 223 002c 17D4     		bmi	.L26
 180:Generated_Source\PSoC5/CySpc.c ****             {
 181:Generated_Source\PSoC5/CySpc.c ****                 CY_SPC_CPU_DATA_REG = array;
 224              		.loc 1 181 0
 225 002e 2070     		strb	r0, [r4]
 182:Generated_Source\PSoC5/CySpc.c ****                 CY_SPC_CPU_DATA_REG = 1u & HI8(address);
 226              		.loc 1 182 0
 227 0030 C1F30020 		ubfx	r0, r1, #8, #1
 228              	.LVL10:
 229 0034 2070     		strb	r0, [r4]
 230              	.LVL11:
 183:Generated_Source\PSoC5/CySpc.c ****                 CY_SPC_CPU_DATA_REG = LO8(address);
 184:Generated_Source\PSoC5/CySpc.c ****                 CY_SPC_CPU_DATA_REG = ((uint8)(size - 1u));
 185:Generated_Source\PSoC5/CySpc.c **** 
 186:Generated_Source\PSoC5/CySpc.c ****                 for(i = 0u; i < size; i++)
 231              		.loc 1 186 0
 232 0036 1046     		mov	r0, r2
 183:Generated_Source\PSoC5/CySpc.c ****                 CY_SPC_CPU_DATA_REG = LO8(address);
 233              		.loc 1 183 0
 234 0038 C9B2     		uxtb	r1, r1
 235              	.LVL12:
 236 003a 2170     		strb	r1, [r4]
 184:Generated_Source\PSoC5/CySpc.c **** 
 237              		.loc 1 184 0
 238 003c 591E     		subs	r1, r3, #1
 239 003e C9B2     		uxtb	r1, r1
 240 0040 2170     		strb	r1, [r4]
 241              	.LVL13:
 242              	.L21:
 243              		.loc 1 186 0 discriminator 1
 244 0042 811A     		subs	r1, r0, r2
 245 0044 C9B2     		uxtb	r1, r1
 246 0046 8B42     		cmp	r3, r1
 247 0048 03D9     		bls	.L29
 187:Generated_Source\PSoC5/CySpc.c ****                 {
 188:Generated_Source\PSoC5/CySpc.c ****                     CY_SPC_CPU_DATA_REG = buffer[i];
 248              		.loc 1 188 0 discriminator 3
 249 004a 10F8011B 		ldrb	r1, [r0], #1	@ zero_extendqisi2
 250              	.LVL14:
 251 004e 2170     		strb	r1, [r4]
 252              	.LVL15:
 253 0050 F7E7     		b	.L21
 254              	.L29:
 163:Generated_Source\PSoC5/CySpc.c ****     uint8 i;
 255              		.loc 1 163 0
 256 0052 0720     		movs	r0, #7
 257              	.LVL16:
 258 0054 70BD     		pop	{r4, r5, r6, pc}
 259              	.LVL17:
ARM GAS  C:\Users\rabbit\AppData\Local\Temp\ccLfhbzh.s 			page 9


 260              	.L24:
 189:Generated_Source\PSoC5/CySpc.c ****                 }
 190:Generated_Source\PSoC5/CySpc.c ****             }
 191:Generated_Source\PSoC5/CySpc.c ****             else
 192:Generated_Source\PSoC5/CySpc.c ****             {
 193:Generated_Source\PSoC5/CySpc.c ****                 status = CYRET_CANCELED;
 194:Generated_Source\PSoC5/CySpc.c ****             }
 195:Generated_Source\PSoC5/CySpc.c ****         }
 196:Generated_Source\PSoC5/CySpc.c ****         else
 197:Generated_Source\PSoC5/CySpc.c ****         {
 198:Generated_Source\PSoC5/CySpc.c ****             status = CYRET_LOCKED;
 199:Generated_Source\PSoC5/CySpc.c ****         }
 200:Generated_Source\PSoC5/CySpc.c ****     }
 201:Generated_Source\PSoC5/CySpc.c ****     else
 202:Generated_Source\PSoC5/CySpc.c ****     {
 203:Generated_Source\PSoC5/CySpc.c ****         status = CYRET_BAD_PARAM;
 261              		.loc 1 203 0
 262 0056 0120     		movs	r0, #1
 263              	.LVL18:
 264 0058 70BD     		pop	{r4, r5, r6, pc}
 265              	.LVL19:
 266              	.L25:
 198:Generated_Source\PSoC5/CySpc.c ****         }
 267              		.loc 1 198 0
 268 005a 0420     		movs	r0, #4
 269              	.LVL20:
 270 005c 70BD     		pop	{r4, r5, r6, pc}
 271              	.LVL21:
 272              	.L26:
 193:Generated_Source\PSoC5/CySpc.c ****             }
 273              		.loc 1 193 0
 274 005e 0920     		movs	r0, #9
 275              	.LVL22:
 204:Generated_Source\PSoC5/CySpc.c ****     }
 205:Generated_Source\PSoC5/CySpc.c **** 
 206:Generated_Source\PSoC5/CySpc.c ****     return(status);
 207:Generated_Source\PSoC5/CySpc.c **** }
 276              		.loc 1 207 0
 277 0060 70BD     		pop	{r4, r5, r6, pc}
 278              	.L31:
 279 0062 00BF     		.align	2
 280              	.L30:
 281 0064 22470040 		.word	1073760034
 282 0068 20470040 		.word	1073760032
 283              		.cfi_endproc
 284              	.LFE3:
 285              		.size	CySpcLoadMultiByte, .-CySpcLoadMultiByte
 286              		.section	.text.CySpcLoadRow,"ax",%progbits
 287              		.align	1
 288              		.global	CySpcLoadRow
 289              		.thumb
 290              		.thumb_func
 291              		.type	CySpcLoadRow, %function
 292              	CySpcLoadRow:
 293              	.LFB4:
 208:Generated_Source\PSoC5/CySpc.c **** 
 209:Generated_Source\PSoC5/CySpc.c **** 
ARM GAS  C:\Users\rabbit\AppData\Local\Temp\ccLfhbzh.s 			page 10


 210:Generated_Source\PSoC5/CySpc.c **** /*******************************************************************************
 211:Generated_Source\PSoC5/CySpc.c **** * Function Name: CySpcLoadRow
 212:Generated_Source\PSoC5/CySpc.c **** ****************************************************************************//**
 213:Generated_Source\PSoC5/CySpc.c **** *  Loads a row of data into the row latch of a Flash/EEPROM array.
 214:Generated_Source\PSoC5/CySpc.c **** *
 215:Generated_Source\PSoC5/CySpc.c **** *  The buffer pointer should point to the data that should be written to the
 216:Generated_Source\PSoC5/CySpc.c **** *  flash row directly (no data in ECC/flash will be preserved). It is Flash API
 217:Generated_Source\PSoC5/CySpc.c **** *  responsibility to prepare data: the preserved data are copied from flash into
 218:Generated_Source\PSoC5/CySpc.c **** *  array with the modified data.
 219:Generated_Source\PSoC5/CySpc.c **** *
 220:Generated_Source\PSoC5/CySpc.c **** *  \param uint8 array:
 221:Generated_Source\PSoC5/CySpc.c **** *   Id of the array.
 222:Generated_Source\PSoC5/CySpc.c **** *
 223:Generated_Source\PSoC5/CySpc.c **** *  \param uint8* buffer:
 224:Generated_Source\PSoC5/CySpc.c **** *   Data to be loaded to the row latch
 225:Generated_Source\PSoC5/CySpc.c **** *
 226:Generated_Source\PSoC5/CySpc.c **** *  \param uint8 size:
 227:Generated_Source\PSoC5/CySpc.c **** *   The number of data bytes that the SPC expects to be written. Depends on the
 228:Generated_Source\PSoC5/CySpc.c **** *   type of the array and, if the array is Flash, whether ECC is being enabled
 229:Generated_Source\PSoC5/CySpc.c **** *   or not. There are following values: flash row latch size with ECC enabled,
 230:Generated_Source\PSoC5/CySpc.c **** *   flash row latch size with ECC disabled and EEPROM row latch size.
 231:Generated_Source\PSoC5/CySpc.c **** *
 232:Generated_Source\PSoC5/CySpc.c **** * \return
 233:Generated_Source\PSoC5/CySpc.c **** *  CYRET_STARTED
 234:Generated_Source\PSoC5/CySpc.c **** *  CYRET_CANCELED
 235:Generated_Source\PSoC5/CySpc.c **** *  CYRET_LOCKED
 236:Generated_Source\PSoC5/CySpc.c **** *
 237:Generated_Source\PSoC5/CySpc.c **** *******************************************************************************/
 238:Generated_Source\PSoC5/CySpc.c **** cystatus CySpcLoadRow(uint8 array, const uint8 buffer[], uint16 size)
 239:Generated_Source\PSoC5/CySpc.c **** {
 294              		.loc 1 239 0
 295              		.cfi_startproc
 296              		@ args = 0, pretend = 0, frame = 0
 297              		@ frame_needed = 0, uses_anonymous_args = 0
 298              	.LVL23:
 299 0000 30B5     		push	{r4, r5, lr}
 300              		.cfi_def_cfa_offset 12
 301              		.cfi_offset 4, -12
 302              		.cfi_offset 5, -8
 303              		.cfi_offset 14, -4
 240:Generated_Source\PSoC5/CySpc.c ****     cystatus status = CYRET_STARTED;
 241:Generated_Source\PSoC5/CySpc.c ****     uint16 i;
 242:Generated_Source\PSoC5/CySpc.c **** 
 243:Generated_Source\PSoC5/CySpc.c ****     /* Make sure the SPC is ready to accept command */
 244:Generated_Source\PSoC5/CySpc.c ****     if(CY_SPC_IDLE)
 304              		.loc 1 244 0
 305 0002 0F4C     		ldr	r4, .L39
 306 0004 2378     		ldrb	r3, [r4]	@ zero_extendqisi2
 307 0006 9D07     		lsls	r5, r3, #30
 308 0008 15D5     		bpl	.L36
 245:Generated_Source\PSoC5/CySpc.c ****     {
 246:Generated_Source\PSoC5/CySpc.c ****         CY_SPC_CPU_DATA_REG = CY_SPC_KEY_ONE;
 309              		.loc 1 246 0
 310 000a 0E4B     		ldr	r3, .L39+4
 311 000c B625     		movs	r5, #182
 312 000e 1D70     		strb	r5, [r3]
 247:Generated_Source\PSoC5/CySpc.c ****         CY_SPC_CPU_DATA_REG = CY_SPC_KEY_TWO(CY_SPC_CMD_LD_ROW);
ARM GAS  C:\Users\rabbit\AppData\Local\Temp\ccLfhbzh.s 			page 11


 313              		.loc 1 247 0
 314 0010 D525     		movs	r5, #213
 315 0012 1D70     		strb	r5, [r3]
 248:Generated_Source\PSoC5/CySpc.c ****         CY_SPC_CPU_DATA_REG = CY_SPC_CMD_LD_ROW;
 316              		.loc 1 248 0
 317 0014 0225     		movs	r5, #2
 318 0016 1D70     		strb	r5, [r3]
 249:Generated_Source\PSoC5/CySpc.c **** 
 250:Generated_Source\PSoC5/CySpc.c ****         /* Make sure the command was accepted */
 251:Generated_Source\PSoC5/CySpc.c ****         if(CY_SPC_BUSY)
 319              		.loc 1 251 0
 320 0018 2478     		ldrb	r4, [r4]	@ zero_extendqisi2
 321 001a A407     		lsls	r4, r4, #30
 322 001c 0DD4     		bmi	.L37
 252:Generated_Source\PSoC5/CySpc.c ****         {
 253:Generated_Source\PSoC5/CySpc.c ****             CY_SPC_CPU_DATA_REG = array;
 254:Generated_Source\PSoC5/CySpc.c **** 
 255:Generated_Source\PSoC5/CySpc.c ****             for(i = 0u; i < size; i++)
 323              		.loc 1 255 0
 324 001e 0C46     		mov	r4, r1
 253:Generated_Source\PSoC5/CySpc.c **** 
 325              		.loc 1 253 0
 326 0020 1870     		strb	r0, [r3]
 327              	.LVL24:
 328              	.L34:
 329              		.loc 1 255 0 discriminator 1
 330 0022 601A     		subs	r0, r4, r1
 331 0024 80B2     		uxth	r0, r0
 332 0026 8242     		cmp	r2, r0
 333 0028 03D9     		bls	.L38
 256:Generated_Source\PSoC5/CySpc.c ****             {
 257:Generated_Source\PSoC5/CySpc.c ****                 CY_SPC_CPU_DATA_REG = buffer[i];
 334              		.loc 1 257 0 discriminator 3
 335 002a 14F8010B 		ldrb	r0, [r4], #1	@ zero_extendqisi2
 336              	.LVL25:
 337 002e 1870     		strb	r0, [r3]
 338              	.LVL26:
 339 0030 F7E7     		b	.L34
 340              	.L38:
 240:Generated_Source\PSoC5/CySpc.c ****     uint16 i;
 341              		.loc 1 240 0
 342 0032 0720     		movs	r0, #7
 343 0034 30BD     		pop	{r4, r5, pc}
 344              	.LVL27:
 345              	.L36:
 258:Generated_Source\PSoC5/CySpc.c ****             }
 259:Generated_Source\PSoC5/CySpc.c ****         }
 260:Generated_Source\PSoC5/CySpc.c ****         else
 261:Generated_Source\PSoC5/CySpc.c ****         {
 262:Generated_Source\PSoC5/CySpc.c ****             status = CYRET_CANCELED;
 263:Generated_Source\PSoC5/CySpc.c ****         }
 264:Generated_Source\PSoC5/CySpc.c ****     }
 265:Generated_Source\PSoC5/CySpc.c ****     else
 266:Generated_Source\PSoC5/CySpc.c ****     {
 267:Generated_Source\PSoC5/CySpc.c ****         status = CYRET_LOCKED;
 346              		.loc 1 267 0
 347 0036 0420     		movs	r0, #4
ARM GAS  C:\Users\rabbit\AppData\Local\Temp\ccLfhbzh.s 			page 12


 348              	.LVL28:
 349 0038 30BD     		pop	{r4, r5, pc}
 350              	.LVL29:
 351              	.L37:
 262:Generated_Source\PSoC5/CySpc.c ****         }
 352              		.loc 1 262 0
 353 003a 0920     		movs	r0, #9
 354              	.LVL30:
 268:Generated_Source\PSoC5/CySpc.c ****     }
 269:Generated_Source\PSoC5/CySpc.c **** 
 270:Generated_Source\PSoC5/CySpc.c ****     return(status);
 271:Generated_Source\PSoC5/CySpc.c **** }
 355              		.loc 1 271 0
 356 003c 30BD     		pop	{r4, r5, pc}
 357              	.L40:
 358 003e 00BF     		.align	2
 359              	.L39:
 360 0040 22470040 		.word	1073760034
 361 0044 20470040 		.word	1073760032
 362              		.cfi_endproc
 363              	.LFE4:
 364              		.size	CySpcLoadRow, .-CySpcLoadRow
 365              		.section	.text.CySpcLoadRowFull,"ax",%progbits
 366              		.align	1
 367              		.global	CySpcLoadRowFull
 368              		.thumb
 369              		.thumb_func
 370              		.type	CySpcLoadRowFull, %function
 371              	CySpcLoadRowFull:
 372              	.LFB5:
 272:Generated_Source\PSoC5/CySpc.c **** 
 273:Generated_Source\PSoC5/CySpc.c **** 
 274:Generated_Source\PSoC5/CySpc.c **** /*******************************************************************************
 275:Generated_Source\PSoC5/CySpc.c **** * Function Name: CySpcLoadRowFull
 276:Generated_Source\PSoC5/CySpc.c **** ****************************************************************************//**
 277:Generated_Source\PSoC5/CySpc.c **** *  Loads a row of data into the row latch of a Flash/EEPROM array.
 278:Generated_Source\PSoC5/CySpc.c **** *
 279:Generated_Source\PSoC5/CySpc.c **** *  The only data that are going to be changed should be passed. The function
 280:Generated_Source\PSoC5/CySpc.c **** *  will handle unmodified data preservation based on DWR settings and input
 281:Generated_Source\PSoC5/CySpc.c **** *  parameters.
 282:Generated_Source\PSoC5/CySpc.c **** *
 283:Generated_Source\PSoC5/CySpc.c **** *  \param uint8 array:
 284:Generated_Source\PSoC5/CySpc.c **** *   Id of the array.
 285:Generated_Source\PSoC5/CySpc.c **** *
 286:Generated_Source\PSoC5/CySpc.c **** *  \param uint16 row:
 287:Generated_Source\PSoC5/CySpc.c **** *   Flash row number to be loaded.
 288:Generated_Source\PSoC5/CySpc.c **** *
 289:Generated_Source\PSoC5/CySpc.c **** *  \param uint8* buffer:
 290:Generated_Source\PSoC5/CySpc.c **** *   Data to be loaded to the row latch
 291:Generated_Source\PSoC5/CySpc.c **** *
 292:Generated_Source\PSoC5/CySpc.c **** *  \param uint8 size:
 293:Generated_Source\PSoC5/CySpc.c **** *   The number of data bytes that the SPC expects to be written. Depends on the
 294:Generated_Source\PSoC5/CySpc.c **** *   type of the array and, if the array is Flash, whether ECC is being enabled
 295:Generated_Source\PSoC5/CySpc.c **** *   or not. There are following values: flash row latch size with ECC enabled,
 296:Generated_Source\PSoC5/CySpc.c **** *   flash row latch size with ECC disabled and EEPROM row latch size.
 297:Generated_Source\PSoC5/CySpc.c **** *
 298:Generated_Source\PSoC5/CySpc.c **** * \return
ARM GAS  C:\Users\rabbit\AppData\Local\Temp\ccLfhbzh.s 			page 13


 299:Generated_Source\PSoC5/CySpc.c **** *  CYRET_STARTED
 300:Generated_Source\PSoC5/CySpc.c **** *  CYRET_CANCELED
 301:Generated_Source\PSoC5/CySpc.c **** *  CYRET_LOCKED
 302:Generated_Source\PSoC5/CySpc.c **** *
 303:Generated_Source\PSoC5/CySpc.c **** *******************************************************************************/
 304:Generated_Source\PSoC5/CySpc.c **** cystatus CySpcLoadRowFull(uint8 array, uint16 row, const uint8 buffer[], uint16 size)\
 305:Generated_Source\PSoC5/CySpc.c **** 
 306:Generated_Source\PSoC5/CySpc.c **** {
 373              		.loc 1 306 0
 374              		.cfi_startproc
 375              		@ args = 0, pretend = 0, frame = 0
 376              		@ frame_needed = 0, uses_anonymous_args = 0
 377              	.LVL31:
 378 0000 70B5     		push	{r4, r5, r6, lr}
 379              		.cfi_def_cfa_offset 16
 380              		.cfi_offset 4, -16
 381              		.cfi_offset 5, -12
 382              		.cfi_offset 6, -8
 383              		.cfi_offset 14, -4
 307:Generated_Source\PSoC5/CySpc.c ****     cystatus status = CYRET_STARTED;
 308:Generated_Source\PSoC5/CySpc.c ****     uint16 i;
 309:Generated_Source\PSoC5/CySpc.c **** 
 310:Generated_Source\PSoC5/CySpc.c ****     #if (CYDEV_ECC_ENABLE == 0)
 311:Generated_Source\PSoC5/CySpc.c ****         uint32 offset;
 312:Generated_Source\PSoC5/CySpc.c ****     #endif /* (CYDEV_ECC_ENABLE == 0) */
 313:Generated_Source\PSoC5/CySpc.c **** 
 314:Generated_Source\PSoC5/CySpc.c ****     /* Make sure the SPC is ready to accept command */
 315:Generated_Source\PSoC5/CySpc.c ****     if(CY_SPC_IDLE)
 384              		.loc 1 315 0
 385 0002 184D     		ldr	r5, .L52
 386 0004 2C78     		ldrb	r4, [r5]	@ zero_extendqisi2
 387 0006 A607     		lsls	r6, r4, #30
 388 0008 27D5     		bpl	.L48
 316:Generated_Source\PSoC5/CySpc.c ****     {
 317:Generated_Source\PSoC5/CySpc.c ****         CY_SPC_CPU_DATA_REG = CY_SPC_KEY_ONE;
 389              		.loc 1 317 0
 390 000a 174C     		ldr	r4, .L52+4
 391 000c B626     		movs	r6, #182
 392 000e 2670     		strb	r6, [r4]
 318:Generated_Source\PSoC5/CySpc.c ****         CY_SPC_CPU_DATA_REG = CY_SPC_KEY_TWO(CY_SPC_CMD_LD_ROW);
 393              		.loc 1 318 0
 394 0010 D526     		movs	r6, #213
 395 0012 2670     		strb	r6, [r4]
 319:Generated_Source\PSoC5/CySpc.c ****         CY_SPC_CPU_DATA_REG = CY_SPC_CMD_LD_ROW;
 396              		.loc 1 319 0
 397 0014 0226     		movs	r6, #2
 398 0016 2670     		strb	r6, [r4]
 320:Generated_Source\PSoC5/CySpc.c **** 
 321:Generated_Source\PSoC5/CySpc.c ****         /* Make sure the command was accepted */
 322:Generated_Source\PSoC5/CySpc.c ****         if(CY_SPC_BUSY)
 399              		.loc 1 322 0
 400 0018 2D78     		ldrb	r5, [r5]	@ zero_extendqisi2
 401 001a AD07     		lsls	r5, r5, #30
 402 001c 1FD4     		bmi	.L49
 323:Generated_Source\PSoC5/CySpc.c ****         {
 324:Generated_Source\PSoC5/CySpc.c ****             CY_SPC_CPU_DATA_REG = array;
 325:Generated_Source\PSoC5/CySpc.c **** 
ARM GAS  C:\Users\rabbit\AppData\Local\Temp\ccLfhbzh.s 			page 14


 326:Generated_Source\PSoC5/CySpc.c ****             /*******************************************************************
 327:Generated_Source\PSoC5/CySpc.c ****             * If "Enable Error Correcting Code (ECC)" and "Store Configuration
 328:Generated_Source\PSoC5/CySpc.c ****             * Data in ECC" DWR options are disabled, ECC section is available
 329:Generated_Source\PSoC5/CySpc.c ****             * for user data.
 330:Generated_Source\PSoC5/CySpc.c ****             *******************************************************************/
 331:Generated_Source\PSoC5/CySpc.c ****             #if ((CYDEV_ECC_ENABLE == 0u) && (CYDEV_CONFIGURATION_ECC == 0u))
 332:Generated_Source\PSoC5/CySpc.c **** 
 333:Generated_Source\PSoC5/CySpc.c ****                 /*******************************************************************
 334:Generated_Source\PSoC5/CySpc.c ****                 * If size parameter equals size of the ECC row and selected array
 335:Generated_Source\PSoC5/CySpc.c ****                 * identification corresponds to the flash array (but not to EEPROM
 336:Generated_Source\PSoC5/CySpc.c ****                 * array) then data are going to be written to the ECC section.
 337:Generated_Source\PSoC5/CySpc.c ****                 * In this case flash data must be preserved. The flash data copied
 338:Generated_Source\PSoC5/CySpc.c ****                 * from flash data section to the SPC data register.
 339:Generated_Source\PSoC5/CySpc.c ****                 *******************************************************************/
 340:Generated_Source\PSoC5/CySpc.c ****                 if ((size == CYDEV_ECC_ROW_SIZE) && (array <= CY_SPC_LAST_FLASH_ARRAYID))
 341:Generated_Source\PSoC5/CySpc.c ****                 {
 342:Generated_Source\PSoC5/CySpc.c ****                     offset = CYDEV_FLS_BASE +
 343:Generated_Source\PSoC5/CySpc.c ****                              ((uint32) array * CYDEV_FLS_SECTOR_SIZE) +
 344:Generated_Source\PSoC5/CySpc.c ****                              ((uint32)   row * CYDEV_FLS_ROW_SIZE   );
 345:Generated_Source\PSoC5/CySpc.c **** 
 346:Generated_Source\PSoC5/CySpc.c ****                     for (i = 0u; i < CYDEV_FLS_ROW_SIZE; i++)
 347:Generated_Source\PSoC5/CySpc.c ****                     {
 348:Generated_Source\PSoC5/CySpc.c ****                         CY_SPC_CPU_DATA_REG = CY_GET_XTND_REG8((void CYFAR *)(offset + i));
 349:Generated_Source\PSoC5/CySpc.c ****                     }
 350:Generated_Source\PSoC5/CySpc.c ****                 }
 351:Generated_Source\PSoC5/CySpc.c **** 
 352:Generated_Source\PSoC5/CySpc.c ****             #endif /* ((CYDEV_ECC_ENABLE == 0u) && (CYDEV_CONFIGURATION_ECC == 0u)) */
 353:Generated_Source\PSoC5/CySpc.c **** 
 354:Generated_Source\PSoC5/CySpc.c **** 
 355:Generated_Source\PSoC5/CySpc.c ****             for(i = 0u; i < size; i++)
 403              		.loc 1 355 0
 404 001e 1646     		mov	r6, r2
 324:Generated_Source\PSoC5/CySpc.c **** 
 405              		.loc 1 324 0
 406 0020 2070     		strb	r0, [r4]
 407              	.LVL32:
 408              	.L43:
 409              		.loc 1 355 0 discriminator 1
 410 0022 B51A     		subs	r5, r6, r2
 411 0024 ADB2     		uxth	r5, r5
 412 0026 AB42     		cmp	r3, r5
 413 0028 03D9     		bls	.L51
 356:Generated_Source\PSoC5/CySpc.c ****             {
 357:Generated_Source\PSoC5/CySpc.c ****                 CY_SPC_CPU_DATA_REG = buffer[i];
 414              		.loc 1 357 0 discriminator 3
 415 002a 16F8015B 		ldrb	r5, [r6], #1	@ zero_extendqisi2
 416              	.LVL33:
 417 002e 2570     		strb	r5, [r4]
 418              	.LVL34:
 419 0030 F7E7     		b	.L43
 420              	.L51:
 358:Generated_Source\PSoC5/CySpc.c ****             }
 359:Generated_Source\PSoC5/CySpc.c **** 
 360:Generated_Source\PSoC5/CySpc.c **** 
 361:Generated_Source\PSoC5/CySpc.c ****             /*******************************************************************
 362:Generated_Source\PSoC5/CySpc.c ****             * If "Enable Error Correcting Code (ECC)" DWR option is disabled,
 363:Generated_Source\PSoC5/CySpc.c ****             * ECC section can be used for storing device configuration data
ARM GAS  C:\Users\rabbit\AppData\Local\Temp\ccLfhbzh.s 			page 15


 364:Generated_Source\PSoC5/CySpc.c ****             * ("Store Configuration Data in ECC" DWR option is enabled) or for
 365:Generated_Source\PSoC5/CySpc.c ****             * storing user data in the ECC section ("Store Configuration Data in
 366:Generated_Source\PSoC5/CySpc.c ****             * ECC" DWR option is enabled). In both cases, the data in the ECC
 367:Generated_Source\PSoC5/CySpc.c ****             * section must be preserved if flash data is written.
 368:Generated_Source\PSoC5/CySpc.c ****             *******************************************************************/
 369:Generated_Source\PSoC5/CySpc.c ****             #if (CYDEV_ECC_ENABLE == 0)
 370:Generated_Source\PSoC5/CySpc.c **** 
 371:Generated_Source\PSoC5/CySpc.c **** 
 372:Generated_Source\PSoC5/CySpc.c ****                 /*******************************************************************
 373:Generated_Source\PSoC5/CySpc.c ****                 * If size parameter equals size of the flash row and selected array
 374:Generated_Source\PSoC5/CySpc.c ****                 * identification corresponds to the flash array (but not to EEPROM
 375:Generated_Source\PSoC5/CySpc.c ****                 * array) then data are going to be written to the flash data
 376:Generated_Source\PSoC5/CySpc.c ****                 * section. In this case, ECC section data must be preserved.
 377:Generated_Source\PSoC5/CySpc.c ****                 * The ECC section data copied from ECC section to the SPC data
 378:Generated_Source\PSoC5/CySpc.c ****                 * register.
 379:Generated_Source\PSoC5/CySpc.c ****                 *******************************************************************/
 380:Generated_Source\PSoC5/CySpc.c ****                 if ((size == CYDEV_FLS_ROW_SIZE) && (array <= CY_SPC_LAST_FLASH_ARRAYID))
 421              		.loc 1 380 0
 422 0032 B3F5807F 		cmp	r3, #256
 423 0036 01D0     		beq	.L45
 424              	.LVL35:
 425              	.L46:
 307:Generated_Source\PSoC5/CySpc.c ****     uint16 i;
 426              		.loc 1 307 0
 427 0038 0720     		movs	r0, #7
 428 003a 70BD     		pop	{r4, r5, r6, pc}
 429              	.LVL36:
 430              	.L45:
 431              		.loc 1 380 0 discriminator 1
 432 003c 3F28     		cmp	r0, #63
 433 003e FBD8     		bhi	.L46
 381:Generated_Source\PSoC5/CySpc.c ****                 {
 382:Generated_Source\PSoC5/CySpc.c ****                     offset = CYDEV_ECC_BASE +
 434              		.loc 1 382 0
 435 0040 00F51030 		add	r0, r0, #147456
 436              	.LVL37:
 437 0044 01EB0021 		add	r1, r1, r0, lsl #8
 438              	.LVL38:
 439 0048 4901     		lsls	r1, r1, #5
 440              	.LVL39:
 441 004a 0023     		movs	r3, #0
 442              	.LVL40:
 443              	.L47:
 383:Generated_Source\PSoC5/CySpc.c ****                             ((uint32) array * CYDEV_ECC_SECTOR_SIZE) +
 384:Generated_Source\PSoC5/CySpc.c ****                             ((uint32) row   * CYDEV_ECC_ROW_SIZE   );
 385:Generated_Source\PSoC5/CySpc.c **** 
 386:Generated_Source\PSoC5/CySpc.c ****                     for (i = 0u; i < CYDEV_ECC_ROW_SIZE; i++)
 387:Generated_Source\PSoC5/CySpc.c ****                     {
 388:Generated_Source\PSoC5/CySpc.c ****                         CY_SPC_CPU_DATA_REG = CY_GET_XTND_REG8((void CYFAR *)(offset + i));
 444              		.loc 1 388 0 discriminator 3
 445 004c 5A5C     		ldrb	r2, [r3, r1]	@ zero_extendqisi2
 446 004e 0133     		adds	r3, r3, #1
 447              	.LVL41:
 448 0050 D2B2     		uxtb	r2, r2
 386:Generated_Source\PSoC5/CySpc.c ****                     {
 449              		.loc 1 386 0 discriminator 3
 450 0052 202B     		cmp	r3, #32
ARM GAS  C:\Users\rabbit\AppData\Local\Temp\ccLfhbzh.s 			page 16


 451              		.loc 1 388 0 discriminator 3
 452 0054 2270     		strb	r2, [r4]
 386:Generated_Source\PSoC5/CySpc.c ****                     {
 453              		.loc 1 386 0 discriminator 3
 454 0056 F9D1     		bne	.L47
 455 0058 EEE7     		b	.L46
 456              	.LVL42:
 457              	.L48:
 389:Generated_Source\PSoC5/CySpc.c ****                     }
 390:Generated_Source\PSoC5/CySpc.c ****                 }
 391:Generated_Source\PSoC5/CySpc.c **** 
 392:Generated_Source\PSoC5/CySpc.c ****             #else
 393:Generated_Source\PSoC5/CySpc.c **** 
 394:Generated_Source\PSoC5/CySpc.c ****                 if(0u != row)
 395:Generated_Source\PSoC5/CySpc.c ****                 {
 396:Generated_Source\PSoC5/CySpc.c ****                     /* To remove unreferenced local variable warning */
 397:Generated_Source\PSoC5/CySpc.c ****                 }
 398:Generated_Source\PSoC5/CySpc.c **** 
 399:Generated_Source\PSoC5/CySpc.c ****             #endif /* (CYDEV_ECC_ENABLE == 0) */
 400:Generated_Source\PSoC5/CySpc.c ****         }
 401:Generated_Source\PSoC5/CySpc.c ****         else
 402:Generated_Source\PSoC5/CySpc.c ****         {
 403:Generated_Source\PSoC5/CySpc.c ****             status = CYRET_CANCELED;
 404:Generated_Source\PSoC5/CySpc.c ****         }
 405:Generated_Source\PSoC5/CySpc.c ****     }
 406:Generated_Source\PSoC5/CySpc.c ****     else
 407:Generated_Source\PSoC5/CySpc.c ****     {
 408:Generated_Source\PSoC5/CySpc.c ****         status = CYRET_LOCKED;
 458              		.loc 1 408 0
 459 005a 0420     		movs	r0, #4
 460              	.LVL43:
 461 005c 70BD     		pop	{r4, r5, r6, pc}
 462              	.LVL44:
 463              	.L49:
 403:Generated_Source\PSoC5/CySpc.c ****         }
 464              		.loc 1 403 0
 465 005e 0920     		movs	r0, #9
 466              	.LVL45:
 409:Generated_Source\PSoC5/CySpc.c ****     }
 410:Generated_Source\PSoC5/CySpc.c **** 
 411:Generated_Source\PSoC5/CySpc.c ****     return(status);
 412:Generated_Source\PSoC5/CySpc.c **** }
 467              		.loc 1 412 0
 468 0060 70BD     		pop	{r4, r5, r6, pc}
 469              	.L53:
 470 0062 00BF     		.align	2
 471              	.L52:
 472 0064 22470040 		.word	1073760034
 473 0068 20470040 		.word	1073760032
 474              		.cfi_endproc
 475              	.LFE5:
 476              		.size	CySpcLoadRowFull, .-CySpcLoadRowFull
 477              		.section	.text.CySpcWriteRow,"ax",%progbits
 478              		.align	1
 479              		.global	CySpcWriteRow
 480              		.thumb
 481              		.thumb_func
ARM GAS  C:\Users\rabbit\AppData\Local\Temp\ccLfhbzh.s 			page 17


 482              		.type	CySpcWriteRow, %function
 483              	CySpcWriteRow:
 484              	.LFB6:
 413:Generated_Source\PSoC5/CySpc.c **** 
 414:Generated_Source\PSoC5/CySpc.c **** 
 415:Generated_Source\PSoC5/CySpc.c **** /*******************************************************************************
 416:Generated_Source\PSoC5/CySpc.c **** * Function Name: CySpcWriteRow
 417:Generated_Source\PSoC5/CySpc.c **** ****************************************************************************//**
 418:Generated_Source\PSoC5/CySpc.c **** *  Erases then programs a row in Flash/EEPROM with data in row latch.
 419:Generated_Source\PSoC5/CySpc.c **** *
 420:Generated_Source\PSoC5/CySpc.c **** *  \param uint8 array:
 421:Generated_Source\PSoC5/CySpc.c **** *   Id of the array.
 422:Generated_Source\PSoC5/CySpc.c **** *
 423:Generated_Source\PSoC5/CySpc.c **** *  \param uint16 address:
 424:Generated_Source\PSoC5/CySpc.c **** *   flash/eeprom addrress
 425:Generated_Source\PSoC5/CySpc.c **** *
 426:Generated_Source\PSoC5/CySpc.c **** *  \param uint8 tempPolarity:
 427:Generated_Source\PSoC5/CySpc.c **** *   temperature polarity.
 428:Generated_Source\PSoC5/CySpc.c **** *   \param 1: the Temp Magnitude is interpreted as a positive value
 429:Generated_Source\PSoC5/CySpc.c **** *   \param 0: the Temp Magnitude is interpreted as a negative value
 430:Generated_Source\PSoC5/CySpc.c **** *
 431:Generated_Source\PSoC5/CySpc.c **** *  \param uint8 tempMagnitude:
 432:Generated_Source\PSoC5/CySpc.c **** *   temperature magnitude.
 433:Generated_Source\PSoC5/CySpc.c **** *
 434:Generated_Source\PSoC5/CySpc.c **** * \return
 435:Generated_Source\PSoC5/CySpc.c **** *  CYRET_STARTED
 436:Generated_Source\PSoC5/CySpc.c **** *  CYRET_CANCELED
 437:Generated_Source\PSoC5/CySpc.c **** *  CYRET_LOCKED
 438:Generated_Source\PSoC5/CySpc.c **** *
 439:Generated_Source\PSoC5/CySpc.c **** *******************************************************************************/
 440:Generated_Source\PSoC5/CySpc.c **** cystatus CySpcWriteRow(uint8 array, uint16 address, uint8 tempPolarity, uint8 tempMagnitude)\
 441:Generated_Source\PSoC5/CySpc.c **** 
 442:Generated_Source\PSoC5/CySpc.c **** {
 485              		.loc 1 442 0
 486              		.cfi_startproc
 487              		@ args = 0, pretend = 0, frame = 0
 488              		@ frame_needed = 0, uses_anonymous_args = 0
 489              	.LVL46:
 490 0000 70B5     		push	{r4, r5, r6, lr}
 491              		.cfi_def_cfa_offset 16
 492              		.cfi_offset 4, -16
 493              		.cfi_offset 5, -12
 494              		.cfi_offset 6, -8
 495              		.cfi_offset 14, -4
 443:Generated_Source\PSoC5/CySpc.c ****     cystatus status = CYRET_STARTED;
 444:Generated_Source\PSoC5/CySpc.c **** 
 445:Generated_Source\PSoC5/CySpc.c ****     /* Make sure the SPC is ready to accept command */
 446:Generated_Source\PSoC5/CySpc.c ****     if(CY_SPC_IDLE)
 496              		.loc 1 446 0
 497 0002 0D4D     		ldr	r5, .L58
 498 0004 2C78     		ldrb	r4, [r5]	@ zero_extendqisi2
 499 0006 A607     		lsls	r6, r4, #30
 500 0008 12D5     		bpl	.L56
 447:Generated_Source\PSoC5/CySpc.c ****     {
 448:Generated_Source\PSoC5/CySpc.c ****         CY_SPC_CPU_DATA_REG = CY_SPC_KEY_ONE;
 501              		.loc 1 448 0
 502 000a 0C4C     		ldr	r4, .L58+4
ARM GAS  C:\Users\rabbit\AppData\Local\Temp\ccLfhbzh.s 			page 18


 503 000c B626     		movs	r6, #182
 504 000e 2670     		strb	r6, [r4]
 449:Generated_Source\PSoC5/CySpc.c ****         CY_SPC_CPU_DATA_REG = CY_SPC_KEY_TWO(CY_SPC_CMD_WR_ROW);
 505              		.loc 1 449 0
 506 0010 D826     		movs	r6, #216
 507 0012 2670     		strb	r6, [r4]
 450:Generated_Source\PSoC5/CySpc.c ****         CY_SPC_CPU_DATA_REG = CY_SPC_CMD_WR_ROW;
 508              		.loc 1 450 0
 509 0014 0526     		movs	r6, #5
 510 0016 2670     		strb	r6, [r4]
 451:Generated_Source\PSoC5/CySpc.c **** 
 452:Generated_Source\PSoC5/CySpc.c ****         /* Make sure the command was accepted */
 453:Generated_Source\PSoC5/CySpc.c ****         if(CY_SPC_BUSY)
 511              		.loc 1 453 0
 512 0018 2D78     		ldrb	r5, [r5]	@ zero_extendqisi2
 513 001a AD07     		lsls	r5, r5, #30
 514 001c 0AD4     		bmi	.L57
 454:Generated_Source\PSoC5/CySpc.c ****         {
 455:Generated_Source\PSoC5/CySpc.c ****             CY_SPC_CPU_DATA_REG = array;
 515              		.loc 1 455 0
 516 001e 2070     		strb	r0, [r4]
 456:Generated_Source\PSoC5/CySpc.c ****             CY_SPC_CPU_DATA_REG = HI8(address);
 517              		.loc 1 456 0
 518 0020 080A     		lsrs	r0, r1, #8
 519              	.LVL47:
 457:Generated_Source\PSoC5/CySpc.c ****             CY_SPC_CPU_DATA_REG = LO8(address);
 520              		.loc 1 457 0
 521 0022 C9B2     		uxtb	r1, r1
 522              	.LVL48:
 456:Generated_Source\PSoC5/CySpc.c ****             CY_SPC_CPU_DATA_REG = HI8(address);
 523              		.loc 1 456 0
 524 0024 2070     		strb	r0, [r4]
 525              	.LVL49:
 526              		.loc 1 457 0
 527 0026 2170     		strb	r1, [r4]
 458:Generated_Source\PSoC5/CySpc.c ****             CY_SPC_CPU_DATA_REG = tempPolarity;
 528              		.loc 1 458 0
 529 0028 2270     		strb	r2, [r4]
 459:Generated_Source\PSoC5/CySpc.c ****             CY_SPC_CPU_DATA_REG = tempMagnitude;
 530              		.loc 1 459 0
 531 002a 2370     		strb	r3, [r4]
 443:Generated_Source\PSoC5/CySpc.c **** 
 532              		.loc 1 443 0
 533 002c 0720     		movs	r0, #7
 534 002e 70BD     		pop	{r4, r5, r6, pc}
 535              	.LVL50:
 536              	.L56:
 460:Generated_Source\PSoC5/CySpc.c ****         }
 461:Generated_Source\PSoC5/CySpc.c ****         else
 462:Generated_Source\PSoC5/CySpc.c ****         {
 463:Generated_Source\PSoC5/CySpc.c ****             status = CYRET_CANCELED;
 464:Generated_Source\PSoC5/CySpc.c ****         }
 465:Generated_Source\PSoC5/CySpc.c ****     }
 466:Generated_Source\PSoC5/CySpc.c ****     else
 467:Generated_Source\PSoC5/CySpc.c ****     {
 468:Generated_Source\PSoC5/CySpc.c ****         status = CYRET_LOCKED;
 537              		.loc 1 468 0
ARM GAS  C:\Users\rabbit\AppData\Local\Temp\ccLfhbzh.s 			page 19


 538 0030 0420     		movs	r0, #4
 539              	.LVL51:
 540 0032 70BD     		pop	{r4, r5, r6, pc}
 541              	.LVL52:
 542              	.L57:
 463:Generated_Source\PSoC5/CySpc.c ****         }
 543              		.loc 1 463 0
 544 0034 0920     		movs	r0, #9
 545              	.LVL53:
 469:Generated_Source\PSoC5/CySpc.c ****     }
 470:Generated_Source\PSoC5/CySpc.c **** 
 471:Generated_Source\PSoC5/CySpc.c ****     return(status);
 472:Generated_Source\PSoC5/CySpc.c **** }
 546              		.loc 1 472 0
 547 0036 70BD     		pop	{r4, r5, r6, pc}
 548              	.L59:
 549              		.align	2
 550              	.L58:
 551 0038 22470040 		.word	1073760034
 552 003c 20470040 		.word	1073760032
 553              		.cfi_endproc
 554              	.LFE6:
 555              		.size	CySpcWriteRow, .-CySpcWriteRow
 556              		.section	.text.CySpcEraseSector,"ax",%progbits
 557              		.align	1
 558              		.global	CySpcEraseSector
 559              		.thumb
 560              		.thumb_func
 561              		.type	CySpcEraseSector, %function
 562              	CySpcEraseSector:
 563              	.LFB7:
 473:Generated_Source\PSoC5/CySpc.c **** 
 474:Generated_Source\PSoC5/CySpc.c **** 
 475:Generated_Source\PSoC5/CySpc.c **** /*******************************************************************************
 476:Generated_Source\PSoC5/CySpc.c **** * Function Name: CySpcEraseSector
 477:Generated_Source\PSoC5/CySpc.c **** ****************************************************************************//**
 478:Generated_Source\PSoC5/CySpc.c **** *  Erases all data in the addressed sector (block of 64 rows).
 479:Generated_Source\PSoC5/CySpc.c **** *
 480:Generated_Source\PSoC5/CySpc.c **** *  \param uint8 array:
 481:Generated_Source\PSoC5/CySpc.c **** *   Id of the array.
 482:Generated_Source\PSoC5/CySpc.c **** *
 483:Generated_Source\PSoC5/CySpc.c **** *  \param uint8 sectorNumber:
 484:Generated_Source\PSoC5/CySpc.c **** *   Zero based sector number within Flash/EEPROM array
 485:Generated_Source\PSoC5/CySpc.c **** *
 486:Generated_Source\PSoC5/CySpc.c **** * \return
 487:Generated_Source\PSoC5/CySpc.c **** *  CYRET_STARTED
 488:Generated_Source\PSoC5/CySpc.c **** *  CYRET_CANCELED
 489:Generated_Source\PSoC5/CySpc.c **** *  CYRET_LOCKED
 490:Generated_Source\PSoC5/CySpc.c **** *
 491:Generated_Source\PSoC5/CySpc.c **** *******************************************************************************/
 492:Generated_Source\PSoC5/CySpc.c **** cystatus CySpcEraseSector(uint8 array, uint8 sectorNumber)
 493:Generated_Source\PSoC5/CySpc.c **** {
 564              		.loc 1 493 0
 565              		.cfi_startproc
 566              		@ args = 0, pretend = 0, frame = 0
 567              		@ frame_needed = 0, uses_anonymous_args = 0
 568              	.LVL54:
ARM GAS  C:\Users\rabbit\AppData\Local\Temp\ccLfhbzh.s 			page 20


 569 0000 10B5     		push	{r4, lr}
 570              		.cfi_def_cfa_offset 8
 571              		.cfi_offset 4, -8
 572              		.cfi_offset 14, -4
 494:Generated_Source\PSoC5/CySpc.c ****     cystatus status = CYRET_STARTED;
 495:Generated_Source\PSoC5/CySpc.c **** 
 496:Generated_Source\PSoC5/CySpc.c ****     /* Make sure the SPC is ready to accept command */
 497:Generated_Source\PSoC5/CySpc.c ****     if(CY_SPC_IDLE)
 573              		.loc 1 497 0
 574 0002 0B4A     		ldr	r2, .L64
 575 0004 1378     		ldrb	r3, [r2]	@ zero_extendqisi2
 576 0006 9C07     		lsls	r4, r3, #30
 577 0008 0DD5     		bpl	.L62
 498:Generated_Source\PSoC5/CySpc.c ****     {
 499:Generated_Source\PSoC5/CySpc.c ****         CY_SPC_CPU_DATA_REG = CY_SPC_KEY_ONE;
 578              		.loc 1 499 0
 579 000a 0A4B     		ldr	r3, .L64+4
 580 000c B624     		movs	r4, #182
 581 000e 1C70     		strb	r4, [r3]
 500:Generated_Source\PSoC5/CySpc.c ****         CY_SPC_CPU_DATA_REG = CY_SPC_KEY_TWO(CY_SPC_CMD_ER_SECTOR);
 582              		.loc 1 500 0
 583 0010 DB24     		movs	r4, #219
 584 0012 1C70     		strb	r4, [r3]
 501:Generated_Source\PSoC5/CySpc.c ****         CY_SPC_CPU_DATA_REG = CY_SPC_CMD_ER_SECTOR;
 585              		.loc 1 501 0
 586 0014 0824     		movs	r4, #8
 587 0016 1C70     		strb	r4, [r3]
 502:Generated_Source\PSoC5/CySpc.c **** 
 503:Generated_Source\PSoC5/CySpc.c ****         /* Make sure the command was accepted */
 504:Generated_Source\PSoC5/CySpc.c ****         if(CY_SPC_BUSY)
 588              		.loc 1 504 0
 589 0018 1278     		ldrb	r2, [r2]	@ zero_extendqisi2
 590 001a 9207     		lsls	r2, r2, #30
 591 001c 05D4     		bmi	.L63
 505:Generated_Source\PSoC5/CySpc.c ****         {
 506:Generated_Source\PSoC5/CySpc.c ****             CY_SPC_CPU_DATA_REG = array;
 592              		.loc 1 506 0
 593 001e 1870     		strb	r0, [r3]
 507:Generated_Source\PSoC5/CySpc.c ****             CY_SPC_CPU_DATA_REG = sectorNumber;
 594              		.loc 1 507 0
 595 0020 1970     		strb	r1, [r3]
 494:Generated_Source\PSoC5/CySpc.c **** 
 596              		.loc 1 494 0
 597 0022 0720     		movs	r0, #7
 598              	.LVL55:
 599 0024 10BD     		pop	{r4, pc}
 600              	.LVL56:
 601              	.L62:
 508:Generated_Source\PSoC5/CySpc.c ****         }
 509:Generated_Source\PSoC5/CySpc.c ****         else
 510:Generated_Source\PSoC5/CySpc.c ****         {
 511:Generated_Source\PSoC5/CySpc.c ****             status = CYRET_CANCELED;
 512:Generated_Source\PSoC5/CySpc.c ****         }
 513:Generated_Source\PSoC5/CySpc.c ****     }
 514:Generated_Source\PSoC5/CySpc.c ****     else
 515:Generated_Source\PSoC5/CySpc.c ****     {
 516:Generated_Source\PSoC5/CySpc.c ****         status = CYRET_LOCKED;
ARM GAS  C:\Users\rabbit\AppData\Local\Temp\ccLfhbzh.s 			page 21


 602              		.loc 1 516 0
 603 0026 0420     		movs	r0, #4
 604              	.LVL57:
 605 0028 10BD     		pop	{r4, pc}
 606              	.LVL58:
 607              	.L63:
 511:Generated_Source\PSoC5/CySpc.c ****         }
 608              		.loc 1 511 0
 609 002a 0920     		movs	r0, #9
 610              	.LVL59:
 517:Generated_Source\PSoC5/CySpc.c ****     }
 518:Generated_Source\PSoC5/CySpc.c **** 
 519:Generated_Source\PSoC5/CySpc.c ****     return(status);
 520:Generated_Source\PSoC5/CySpc.c **** }
 611              		.loc 1 520 0
 612 002c 10BD     		pop	{r4, pc}
 613              	.L65:
 614 002e 00BF     		.align	2
 615              	.L64:
 616 0030 22470040 		.word	1073760034
 617 0034 20470040 		.word	1073760032
 618              		.cfi_endproc
 619              	.LFE7:
 620              		.size	CySpcEraseSector, .-CySpcEraseSector
 621              		.section	.text.CySpcEraseRow,"ax",%progbits
 622              		.align	1
 623              		.global	CySpcEraseRow
 624              		.thumb
 625              		.thumb_func
 626              		.type	CySpcEraseRow, %function
 627              	CySpcEraseRow:
 628              	.LFB8:
 521:Generated_Source\PSoC5/CySpc.c **** 
 522:Generated_Source\PSoC5/CySpc.c **** 
 523:Generated_Source\PSoC5/CySpc.c **** /*******************************************************************************
 524:Generated_Source\PSoC5/CySpc.c **** * Function Name: CySpcEraseRow
 525:Generated_Source\PSoC5/CySpc.c **** ****************************************************************************//**
 526:Generated_Source\PSoC5/CySpc.c **** *  Erases a row in Flash.
 527:Generated_Source\PSoC5/CySpc.c **** *
 528:Generated_Source\PSoC5/CySpc.c **** *  \param uint8 array:
 529:Generated_Source\PSoC5/CySpc.c **** *   Id of the array.
 530:Generated_Source\PSoC5/CySpc.c **** *
 531:Generated_Source\PSoC5/CySpc.c **** *  \param uint16 address:
 532:Generated_Source\PSoC5/CySpc.c **** *   Flash address
 533:Generated_Source\PSoC5/CySpc.c **** *
 534:Generated_Source\PSoC5/CySpc.c **** *  \param uint8 tempPolarity:
 535:Generated_Source\PSoC5/CySpc.c **** *   temperature polarity.
 536:Generated_Source\PSoC5/CySpc.c **** *   \param 1: the Temp Magnitude is interpreted as a positive value
 537:Generated_Source\PSoC5/CySpc.c **** *   \param 0: the Temp Magnitude is interpreted as a negative value
 538:Generated_Source\PSoC5/CySpc.c **** *
 539:Generated_Source\PSoC5/CySpc.c **** *  \param uint8 tempMagnitude:
 540:Generated_Source\PSoC5/CySpc.c **** *   temperature magnitude.
 541:Generated_Source\PSoC5/CySpc.c **** *
 542:Generated_Source\PSoC5/CySpc.c **** * \return
 543:Generated_Source\PSoC5/CySpc.c **** *  CYRET_STARTED
 544:Generated_Source\PSoC5/CySpc.c **** *  CYRET_CANCELED
 545:Generated_Source\PSoC5/CySpc.c **** *  CYRET_LOCKED
ARM GAS  C:\Users\rabbit\AppData\Local\Temp\ccLfhbzh.s 			page 22


 546:Generated_Source\PSoC5/CySpc.c **** *
 547:Generated_Source\PSoC5/CySpc.c **** *******************************************************************************/
 548:Generated_Source\PSoC5/CySpc.c **** cystatus CySpcEraseRow(uint8 array, uint16 address, uint8 tempPolarity, uint8 tempMagnitude)\
 549:Generated_Source\PSoC5/CySpc.c **** 
 550:Generated_Source\PSoC5/CySpc.c **** {
 629              		.loc 1 550 0
 630              		.cfi_startproc
 631              		@ args = 0, pretend = 0, frame = 0
 632              		@ frame_needed = 0, uses_anonymous_args = 0
 633              	.LVL60:
 634 0000 70B5     		push	{r4, r5, r6, lr}
 635              		.cfi_def_cfa_offset 16
 636              		.cfi_offset 4, -16
 637              		.cfi_offset 5, -12
 638              		.cfi_offset 6, -8
 639              		.cfi_offset 14, -4
 551:Generated_Source\PSoC5/CySpc.c ****     cystatus status = CYRET_STARTED;
 552:Generated_Source\PSoC5/CySpc.c **** 
 553:Generated_Source\PSoC5/CySpc.c ****     /* Make sure the SPC is ready to accept command */
 554:Generated_Source\PSoC5/CySpc.c ****     if(CY_SPC_IDLE)
 640              		.loc 1 554 0
 641 0002 0D4D     		ldr	r5, .L70
 642 0004 2C78     		ldrb	r4, [r5]	@ zero_extendqisi2
 643 0006 A607     		lsls	r6, r4, #30
 644 0008 12D5     		bpl	.L68
 555:Generated_Source\PSoC5/CySpc.c ****     {
 556:Generated_Source\PSoC5/CySpc.c ****         CY_SPC_CPU_DATA_REG = CY_SPC_KEY_ONE;
 645              		.loc 1 556 0
 646 000a 0C4C     		ldr	r4, .L70+4
 647 000c B626     		movs	r6, #182
 648 000e 2670     		strb	r6, [r4]
 557:Generated_Source\PSoC5/CySpc.c ****         CY_SPC_CPU_DATA_REG = CY_SPC_KEY_TWO(CY_SPC_CMD_ER_ROW);
 649              		.loc 1 557 0
 650 0010 E626     		movs	r6, #230
 651 0012 2670     		strb	r6, [r4]
 558:Generated_Source\PSoC5/CySpc.c ****         CY_SPC_CPU_DATA_REG = CY_SPC_CMD_ER_ROW;
 652              		.loc 1 558 0
 653 0014 1326     		movs	r6, #19
 654 0016 2670     		strb	r6, [r4]
 559:Generated_Source\PSoC5/CySpc.c **** 
 560:Generated_Source\PSoC5/CySpc.c ****         /* Make sure the command was accepted */
 561:Generated_Source\PSoC5/CySpc.c ****         if(CY_SPC_BUSY)
 655              		.loc 1 561 0
 656 0018 2D78     		ldrb	r5, [r5]	@ zero_extendqisi2
 657 001a AD07     		lsls	r5, r5, #30
 658 001c 0AD4     		bmi	.L69
 562:Generated_Source\PSoC5/CySpc.c ****         {
 563:Generated_Source\PSoC5/CySpc.c ****             CY_SPC_CPU_DATA_REG = array;
 659              		.loc 1 563 0
 660 001e 2070     		strb	r0, [r4]
 564:Generated_Source\PSoC5/CySpc.c ****             CY_SPC_CPU_DATA_REG = HI8(address);
 661              		.loc 1 564 0
 662 0020 080A     		lsrs	r0, r1, #8
 663              	.LVL61:
 565:Generated_Source\PSoC5/CySpc.c ****             CY_SPC_CPU_DATA_REG = LO8(address);
 664              		.loc 1 565 0
 665 0022 C9B2     		uxtb	r1, r1
ARM GAS  C:\Users\rabbit\AppData\Local\Temp\ccLfhbzh.s 			page 23


 666              	.LVL62:
 564:Generated_Source\PSoC5/CySpc.c ****             CY_SPC_CPU_DATA_REG = HI8(address);
 667              		.loc 1 564 0
 668 0024 2070     		strb	r0, [r4]
 669              	.LVL63:
 670              		.loc 1 565 0
 671 0026 2170     		strb	r1, [r4]
 566:Generated_Source\PSoC5/CySpc.c ****             CY_SPC_CPU_DATA_REG = tempPolarity;
 672              		.loc 1 566 0
 673 0028 2270     		strb	r2, [r4]
 567:Generated_Source\PSoC5/CySpc.c ****             CY_SPC_CPU_DATA_REG = tempMagnitude;
 674              		.loc 1 567 0
 675 002a 2370     		strb	r3, [r4]
 551:Generated_Source\PSoC5/CySpc.c **** 
 676              		.loc 1 551 0
 677 002c 0720     		movs	r0, #7
 678 002e 70BD     		pop	{r4, r5, r6, pc}
 679              	.LVL64:
 680              	.L68:
 568:Generated_Source\PSoC5/CySpc.c ****         }
 569:Generated_Source\PSoC5/CySpc.c ****         else
 570:Generated_Source\PSoC5/CySpc.c ****         {
 571:Generated_Source\PSoC5/CySpc.c ****             status = CYRET_CANCELED;
 572:Generated_Source\PSoC5/CySpc.c ****         }
 573:Generated_Source\PSoC5/CySpc.c ****     }
 574:Generated_Source\PSoC5/CySpc.c ****     else
 575:Generated_Source\PSoC5/CySpc.c ****     {
 576:Generated_Source\PSoC5/CySpc.c ****         status = CYRET_LOCKED;
 681              		.loc 1 576 0
 682 0030 0420     		movs	r0, #4
 683              	.LVL65:
 684 0032 70BD     		pop	{r4, r5, r6, pc}
 685              	.LVL66:
 686              	.L69:
 571:Generated_Source\PSoC5/CySpc.c ****         }
 687              		.loc 1 571 0
 688 0034 0920     		movs	r0, #9
 689              	.LVL67:
 577:Generated_Source\PSoC5/CySpc.c ****     }
 578:Generated_Source\PSoC5/CySpc.c **** 
 579:Generated_Source\PSoC5/CySpc.c ****     return(status);
 580:Generated_Source\PSoC5/CySpc.c **** }
 690              		.loc 1 580 0
 691 0036 70BD     		pop	{r4, r5, r6, pc}
 692              	.L71:
 693              		.align	2
 694              	.L70:
 695 0038 22470040 		.word	1073760034
 696 003c 20470040 		.word	1073760032
 697              		.cfi_endproc
 698              	.LFE8:
 699              		.size	CySpcEraseRow, .-CySpcEraseRow
 700              		.section	.text.CySpcGetTemp,"ax",%progbits
 701              		.align	1
 702              		.global	CySpcGetTemp
 703              		.thumb
 704              		.thumb_func
ARM GAS  C:\Users\rabbit\AppData\Local\Temp\ccLfhbzh.s 			page 24


 705              		.type	CySpcGetTemp, %function
 706              	CySpcGetTemp:
 707              	.LFB9:
 581:Generated_Source\PSoC5/CySpc.c **** 
 582:Generated_Source\PSoC5/CySpc.c **** 
 583:Generated_Source\PSoC5/CySpc.c **** /*******************************************************************************
 584:Generated_Source\PSoC5/CySpc.c **** * Function Name: CySpcGetTemp
 585:Generated_Source\PSoC5/CySpc.c **** ****************************************************************************//**
 586:Generated_Source\PSoC5/CySpc.c **** *  Returns the internal die temperature
 587:Generated_Source\PSoC5/CySpc.c **** *
 588:Generated_Source\PSoC5/CySpc.c **** *  \param uint8 numSamples:
 589:Generated_Source\PSoC5/CySpc.c **** *   Number of samples. Valid values are 1-5, resulting in 2 - 32 samples
 590:Generated_Source\PSoC5/CySpc.c **** *   respectively.
 591:Generated_Source\PSoC5/CySpc.c **** *
 592:Generated_Source\PSoC5/CySpc.c **** * \param uint16 timerPeriod:
 593:Generated_Source\PSoC5/CySpc.c **** *   Number of ADC ACLK cycles. A valid 14 bit value is accepted, higher 2 bits
 594:Generated_Source\PSoC5/CySpc.c **** *   of 16 bit values are ignored.
 595:Generated_Source\PSoC5/CySpc.c **** *
 596:Generated_Source\PSoC5/CySpc.c **** * \param uint8 clkDivSelect:
 597:Generated_Source\PSoC5/CySpc.c **** *   ADC ACLK clock divide value. Valid values are 2 - 225.
 598:Generated_Source\PSoC5/CySpc.c **** *
 599:Generated_Source\PSoC5/CySpc.c **** * \return
 600:Generated_Source\PSoC5/CySpc.c **** *  CYRET_STARTED
 601:Generated_Source\PSoC5/CySpc.c **** *  CYRET_CANCELED
 602:Generated_Source\PSoC5/CySpc.c **** *  CYRET_LOCKED
 603:Generated_Source\PSoC5/CySpc.c **** *
 604:Generated_Source\PSoC5/CySpc.c **** *******************************************************************************/
 605:Generated_Source\PSoC5/CySpc.c **** cystatus CySpcGetTemp(uint8 numSamples)
 606:Generated_Source\PSoC5/CySpc.c **** {
 708              		.loc 1 606 0
 709              		.cfi_startproc
 710              		@ args = 0, pretend = 0, frame = 0
 711              		@ frame_needed = 0, uses_anonymous_args = 0
 712              		@ link register save eliminated.
 713              	.LVL68:
 607:Generated_Source\PSoC5/CySpc.c ****     cystatus status = CYRET_STARTED;
 608:Generated_Source\PSoC5/CySpc.c **** 
 609:Generated_Source\PSoC5/CySpc.c ****     /* Make sure the SPC is ready to accept command */
 610:Generated_Source\PSoC5/CySpc.c ****     if(CY_SPC_IDLE)
 714              		.loc 1 610 0
 715 0000 0A4A     		ldr	r2, .L76
 716 0002 1378     		ldrb	r3, [r2]	@ zero_extendqisi2
 717 0004 9907     		lsls	r1, r3, #30
 718 0006 0CD5     		bpl	.L74
 611:Generated_Source\PSoC5/CySpc.c ****     {
 612:Generated_Source\PSoC5/CySpc.c ****         CY_SPC_CPU_DATA_REG = CY_SPC_KEY_ONE;
 719              		.loc 1 612 0
 720 0008 094B     		ldr	r3, .L76+4
 721 000a B621     		movs	r1, #182
 722 000c 1970     		strb	r1, [r3]
 613:Generated_Source\PSoC5/CySpc.c ****         CY_SPC_CPU_DATA_REG = CY_SPC_KEY_TWO(CY_SPC_CMD_GET_TEMP);
 723              		.loc 1 613 0
 724 000e E121     		movs	r1, #225
 725 0010 1970     		strb	r1, [r3]
 614:Generated_Source\PSoC5/CySpc.c ****         CY_SPC_CPU_DATA_REG = CY_SPC_CMD_GET_TEMP;
 726              		.loc 1 614 0
 727 0012 0E21     		movs	r1, #14
ARM GAS  C:\Users\rabbit\AppData\Local\Temp\ccLfhbzh.s 			page 25


 728 0014 1970     		strb	r1, [r3]
 615:Generated_Source\PSoC5/CySpc.c **** 
 616:Generated_Source\PSoC5/CySpc.c ****         /* Make sure the command was accepted */
 617:Generated_Source\PSoC5/CySpc.c ****         if(CY_SPC_BUSY)
 729              		.loc 1 617 0
 730 0016 1278     		ldrb	r2, [r2]	@ zero_extendqisi2
 731 0018 9207     		lsls	r2, r2, #30
 732 001a 04D4     		bmi	.L75
 618:Generated_Source\PSoC5/CySpc.c ****         {
 619:Generated_Source\PSoC5/CySpc.c ****             CY_SPC_CPU_DATA_REG = numSamples;
 733              		.loc 1 619 0
 734 001c 1870     		strb	r0, [r3]
 607:Generated_Source\PSoC5/CySpc.c **** 
 735              		.loc 1 607 0
 736 001e 0720     		movs	r0, #7
 737              	.LVL69:
 738 0020 7047     		bx	lr
 739              	.LVL70:
 740              	.L74:
 620:Generated_Source\PSoC5/CySpc.c ****         }
 621:Generated_Source\PSoC5/CySpc.c ****         else
 622:Generated_Source\PSoC5/CySpc.c ****         {
 623:Generated_Source\PSoC5/CySpc.c ****             status = CYRET_CANCELED;
 624:Generated_Source\PSoC5/CySpc.c ****         }
 625:Generated_Source\PSoC5/CySpc.c ****     }
 626:Generated_Source\PSoC5/CySpc.c ****     else
 627:Generated_Source\PSoC5/CySpc.c ****     {
 628:Generated_Source\PSoC5/CySpc.c ****         status = CYRET_LOCKED;
 741              		.loc 1 628 0
 742 0022 0420     		movs	r0, #4
 743              	.LVL71:
 744 0024 7047     		bx	lr
 745              	.LVL72:
 746              	.L75:
 623:Generated_Source\PSoC5/CySpc.c ****         }
 747              		.loc 1 623 0
 748 0026 0920     		movs	r0, #9
 749              	.LVL73:
 629:Generated_Source\PSoC5/CySpc.c ****     }
 630:Generated_Source\PSoC5/CySpc.c **** 
 631:Generated_Source\PSoC5/CySpc.c ****     return(status);
 632:Generated_Source\PSoC5/CySpc.c **** }
 750              		.loc 1 632 0
 751 0028 7047     		bx	lr
 752              	.L77:
 753 002a 00BF     		.align	2
 754              	.L76:
 755 002c 22470040 		.word	1073760034
 756 0030 20470040 		.word	1073760032
 757              		.cfi_endproc
 758              	.LFE9:
 759              		.size	CySpcGetTemp, .-CySpcGetTemp
 760              		.section	.text.CySpcLock,"ax",%progbits
 761              		.align	1
 762              		.global	CySpcLock
 763              		.thumb
 764              		.thumb_func
ARM GAS  C:\Users\rabbit\AppData\Local\Temp\ccLfhbzh.s 			page 26


 765              		.type	CySpcLock, %function
 766              	CySpcLock:
 767              	.LFB10:
 633:Generated_Source\PSoC5/CySpc.c **** 
 634:Generated_Source\PSoC5/CySpc.c **** 
 635:Generated_Source\PSoC5/CySpc.c **** /*******************************************************************************
 636:Generated_Source\PSoC5/CySpc.c **** * Function Name: CySpcLock
 637:Generated_Source\PSoC5/CySpc.c **** ****************************************************************************//**
 638:Generated_Source\PSoC5/CySpc.c **** *  Locks the SPC so it can not be used by someone else:
 639:Generated_Source\PSoC5/CySpc.c **** *   - Saves wait-pipeline enable state and enable pipeline (PSoC5)
 640:Generated_Source\PSoC5/CySpc.c **** *
 641:Generated_Source\PSoC5/CySpc.c **** * \return
 642:Generated_Source\PSoC5/CySpc.c **** *  CYRET_SUCCESS - if the resource was free.
 643:Generated_Source\PSoC5/CySpc.c **** *  CYRET_LOCKED  - if the SPC is in use.
 644:Generated_Source\PSoC5/CySpc.c **** *
 645:Generated_Source\PSoC5/CySpc.c **** *******************************************************************************/
 646:Generated_Source\PSoC5/CySpc.c **** cystatus CySpcLock(void)
 647:Generated_Source\PSoC5/CySpc.c **** {
 768              		.loc 1 647 0
 769              		.cfi_startproc
 770              		@ args = 0, pretend = 0, frame = 0
 771              		@ frame_needed = 0, uses_anonymous_args = 0
 772              	.LVL74:
 773 0000 38B5     		push	{r3, r4, r5, lr}
 774              		.cfi_def_cfa_offset 16
 775              		.cfi_offset 3, -16
 776              		.cfi_offset 4, -12
 777              		.cfi_offset 5, -8
 778              		.cfi_offset 14, -4
 648:Generated_Source\PSoC5/CySpc.c ****     cystatus status = CYRET_LOCKED;
 649:Generated_Source\PSoC5/CySpc.c ****     uint8 interruptState;
 650:Generated_Source\PSoC5/CySpc.c **** 
 651:Generated_Source\PSoC5/CySpc.c ****     /* Enter critical section */
 652:Generated_Source\PSoC5/CySpc.c ****     interruptState = CyEnterCriticalSection();
 779              		.loc 1 652 0
 780 0002 FFF7FEFF 		bl	CyEnterCriticalSection
 781              	.LVL75:
 653:Generated_Source\PSoC5/CySpc.c **** 
 654:Generated_Source\PSoC5/CySpc.c ****     if(CY_SPC_UNLOCKED == SpcLockState)
 782              		.loc 1 654 0
 783 0006 0C4A     		ldr	r2, .L82
 784 0008 1478     		ldrb	r4, [r2]	@ zero_extendqisi2
 785 000a 74B9     		cbnz	r4, .L80
 655:Generated_Source\PSoC5/CySpc.c ****     {
 656:Generated_Source\PSoC5/CySpc.c ****         SpcLockState = CY_SPC_LOCKED;
 786              		.loc 1 656 0
 787 000c 0125     		movs	r5, #1
 657:Generated_Source\PSoC5/CySpc.c ****         status = CYRET_SUCCESS;
 658:Generated_Source\PSoC5/CySpc.c **** 
 659:Generated_Source\PSoC5/CySpc.c ****         #if(CY_PSOC5)
 660:Generated_Source\PSoC5/CySpc.c **** 
 661:Generated_Source\PSoC5/CySpc.c ****             if(0u != (CY_SPC_CPU_WAITPIPE_REG & CY_SPC_CPU_WAITPIPE_BYPASS))
 788              		.loc 1 661 0
 789 000e 0B49     		ldr	r1, .L82+4
 656:Generated_Source\PSoC5/CySpc.c ****         status = CYRET_SUCCESS;
 790              		.loc 1 656 0
 791 0010 1570     		strb	r5, [r2]
ARM GAS  C:\Users\rabbit\AppData\Local\Temp\ccLfhbzh.s 			page 27


 792              	.LVL76:
 793              		.loc 1 661 0
 794 0012 0B68     		ldr	r3, [r1]
 795 0014 2B40     		ands	r3, r3, r5
 796 0016 0AD0     		beq	.L81
 662:Generated_Source\PSoC5/CySpc.c ****             {
 663:Generated_Source\PSoC5/CySpc.c ****                 /* Enable pipeline registers */
 664:Generated_Source\PSoC5/CySpc.c ****                 CY_SPC_CPU_WAITPIPE_REG &= ((uint32)(~CY_SPC_CPU_WAITPIPE_BYPASS));
 797              		.loc 1 664 0
 798 0018 0B68     		ldr	r3, [r1]
 799 001a 23F00103 		bic	r3, r3, #1
 800 001e 0B60     		str	r3, [r1]
 665:Generated_Source\PSoC5/CySpc.c **** 
 666:Generated_Source\PSoC5/CySpc.c ****                 /* At least 2 NOP instructions are recommended */
 667:Generated_Source\PSoC5/CySpc.c ****                 CY_NOP;
 801              		.loc 1 667 0
 802              		.syntax unified
 803              	@ 667 "Generated_Source\PSoC5\CySpc.c" 1
 804 0020 00BF     		NOP
 805              	
 806              	@ 0 "" 2
 668:Generated_Source\PSoC5/CySpc.c ****                 CY_NOP;
 807              		.loc 1 668 0
 808              	@ 668 "Generated_Source\PSoC5\CySpc.c" 1
 809 0022 00BF     		NOP
 810              	
 811              	@ 0 "" 2
 669:Generated_Source\PSoC5/CySpc.c ****                 CY_NOP;
 812              		.loc 1 669 0
 813              	@ 669 "Generated_Source\PSoC5\CySpc.c" 1
 814 0024 00BF     		NOP
 815              	
 816              	@ 0 "" 2
 670:Generated_Source\PSoC5/CySpc.c **** 
 671:Generated_Source\PSoC5/CySpc.c ****                 spcWaitPipeBypass = CY_SPC_CPU_WAITPIPE_BYPASS;
 817              		.loc 1 671 0
 818              		.thumb
 819              		.syntax unified
 820 0026 5560     		str	r5, [r2, #4]
 821 0028 02E0     		b	.L79
 822              	.LVL77:
 823              	.L80:
 648:Generated_Source\PSoC5/CySpc.c ****     uint8 interruptState;
 824              		.loc 1 648 0
 825 002a 0424     		movs	r4, #4
 826 002c 00E0     		b	.L79
 827              	.LVL78:
 828              	.L81:
 657:Generated_Source\PSoC5/CySpc.c **** 
 829              		.loc 1 657 0
 830 002e 1C46     		mov	r4, r3
 831              	.LVL79:
 832              	.L79:
 672:Generated_Source\PSoC5/CySpc.c ****             }
 673:Generated_Source\PSoC5/CySpc.c **** 
 674:Generated_Source\PSoC5/CySpc.c ****         #endif  /* (CY_PSOC5) */
 675:Generated_Source\PSoC5/CySpc.c ****     }
ARM GAS  C:\Users\rabbit\AppData\Local\Temp\ccLfhbzh.s 			page 28


 676:Generated_Source\PSoC5/CySpc.c **** 
 677:Generated_Source\PSoC5/CySpc.c ****     /* Exit critical section */
 678:Generated_Source\PSoC5/CySpc.c ****     CyExitCriticalSection(interruptState);
 833              		.loc 1 678 0
 834 0030 FFF7FEFF 		bl	CyExitCriticalSection
 835              	.LVL80:
 679:Generated_Source\PSoC5/CySpc.c **** 
 680:Generated_Source\PSoC5/CySpc.c ****     return(status);
 681:Generated_Source\PSoC5/CySpc.c **** }
 836              		.loc 1 681 0
 837 0034 2046     		mov	r0, r4
 838 0036 38BD     		pop	{r3, r4, r5, pc}
 839              	.LVL81:
 840              	.L83:
 841              		.align	2
 842              	.L82:
 843 0038 00000000 		.word	.LANCHOR0
 844 003c 04000840 		.word	1074266116
 845              		.cfi_endproc
 846              	.LFE10:
 847              		.size	CySpcLock, .-CySpcLock
 848              		.section	.text.CySpcUnlock,"ax",%progbits
 849              		.align	1
 850              		.global	CySpcUnlock
 851              		.thumb
 852              		.thumb_func
 853              		.type	CySpcUnlock, %function
 854              	CySpcUnlock:
 855              	.LFB11:
 682:Generated_Source\PSoC5/CySpc.c **** 
 683:Generated_Source\PSoC5/CySpc.c **** 
 684:Generated_Source\PSoC5/CySpc.c **** /*******************************************************************************
 685:Generated_Source\PSoC5/CySpc.c **** * Function Name: CySpcUnlock
 686:Generated_Source\PSoC5/CySpc.c **** ****************************************************************************//**
 687:Generated_Source\PSoC5/CySpc.c **** *  Unlocks the SPC so it can be used by someone else:
 688:Generated_Source\PSoC5/CySpc.c **** *   - Restores wait-pipeline enable state (PSoC5)
 689:Generated_Source\PSoC5/CySpc.c **** *
 690:Generated_Source\PSoC5/CySpc.c **** *******************************************************************************/
 691:Generated_Source\PSoC5/CySpc.c **** void CySpcUnlock(void)
 692:Generated_Source\PSoC5/CySpc.c **** {
 856              		.loc 1 692 0
 857              		.cfi_startproc
 858              		@ args = 0, pretend = 0, frame = 0
 859              		@ frame_needed = 0, uses_anonymous_args = 0
 860 0000 10B5     		push	{r4, lr}
 861              		.cfi_def_cfa_offset 8
 862              		.cfi_offset 4, -8
 863              		.cfi_offset 14, -4
 693:Generated_Source\PSoC5/CySpc.c ****     uint8 interruptState;
 694:Generated_Source\PSoC5/CySpc.c **** 
 695:Generated_Source\PSoC5/CySpc.c ****     /* Enter critical section */
 696:Generated_Source\PSoC5/CySpc.c ****     interruptState = CyEnterCriticalSection();
 864              		.loc 1 696 0
 865 0002 FFF7FEFF 		bl	CyEnterCriticalSection
 866              	.LVL82:
 697:Generated_Source\PSoC5/CySpc.c **** 
 698:Generated_Source\PSoC5/CySpc.c ****     /* Release the SPC object */
ARM GAS  C:\Users\rabbit\AppData\Local\Temp\ccLfhbzh.s 			page 29


 699:Generated_Source\PSoC5/CySpc.c ****     SpcLockState = CY_SPC_UNLOCKED;
 867              		.loc 1 699 0
 868 0006 094B     		ldr	r3, .L86
 869 0008 0021     		movs	r1, #0
 700:Generated_Source\PSoC5/CySpc.c **** 
 701:Generated_Source\PSoC5/CySpc.c ****     #if(CY_PSOC5)
 702:Generated_Source\PSoC5/CySpc.c **** 
 703:Generated_Source\PSoC5/CySpc.c ****         if(CY_SPC_CPU_WAITPIPE_BYPASS == spcWaitPipeBypass)
 870              		.loc 1 703 0
 871 000a 5A68     		ldr	r2, [r3, #4]
 699:Generated_Source\PSoC5/CySpc.c **** 
 872              		.loc 1 699 0
 873 000c 1970     		strb	r1, [r3]
 874              		.loc 1 703 0
 875 000e 012A     		cmp	r2, #1
 876 0010 08D1     		bne	.L85
 704:Generated_Source\PSoC5/CySpc.c ****         {
 705:Generated_Source\PSoC5/CySpc.c ****             /* Force to bypass pipeline registers */
 706:Generated_Source\PSoC5/CySpc.c ****             CY_SPC_CPU_WAITPIPE_REG |= CY_SPC_CPU_WAITPIPE_BYPASS;
 877              		.loc 1 706 0
 878 0012 074C     		ldr	r4, .L86+4
 879 0014 2268     		ldr	r2, [r4]
 880 0016 42F00102 		orr	r2, r2, #1
 881 001a 2260     		str	r2, [r4]
 707:Generated_Source\PSoC5/CySpc.c **** 
 708:Generated_Source\PSoC5/CySpc.c ****             /* At least 2 NOP instructions are recommended */
 709:Generated_Source\PSoC5/CySpc.c ****             CY_NOP;
 882              		.loc 1 709 0
 883              		.syntax unified
 884              	@ 709 "Generated_Source\PSoC5\CySpc.c" 1
 885 001c 00BF     		NOP
 886              	
 887              	@ 0 "" 2
 710:Generated_Source\PSoC5/CySpc.c ****             CY_NOP;
 888              		.loc 1 710 0
 889              	@ 710 "Generated_Source\PSoC5\CySpc.c" 1
 890 001e 00BF     		NOP
 891              	
 892              	@ 0 "" 2
 711:Generated_Source\PSoC5/CySpc.c ****             CY_NOP;
 893              		.loc 1 711 0
 894              	@ 711 "Generated_Source\PSoC5\CySpc.c" 1
 895 0020 00BF     		NOP
 896              	
 897              	@ 0 "" 2
 712:Generated_Source\PSoC5/CySpc.c **** 
 713:Generated_Source\PSoC5/CySpc.c ****             spcWaitPipeBypass = 0u;
 898              		.loc 1 713 0
 899              		.thumb
 900              		.syntax unified
 901 0022 5960     		str	r1, [r3, #4]
 902              	.L85:
 714:Generated_Source\PSoC5/CySpc.c ****         }
 715:Generated_Source\PSoC5/CySpc.c **** 
 716:Generated_Source\PSoC5/CySpc.c ****     #endif  /* (CY_PSOC5) */
 717:Generated_Source\PSoC5/CySpc.c **** 
 718:Generated_Source\PSoC5/CySpc.c ****     /* Exit critical section */
ARM GAS  C:\Users\rabbit\AppData\Local\Temp\ccLfhbzh.s 			page 30


 719:Generated_Source\PSoC5/CySpc.c ****     CyExitCriticalSection(interruptState);
 720:Generated_Source\PSoC5/CySpc.c **** }
 903              		.loc 1 720 0
 904 0024 BDE81040 		pop	{r4, lr}
 905              		.cfi_restore 14
 906              		.cfi_restore 4
 907              		.cfi_def_cfa_offset 0
 719:Generated_Source\PSoC5/CySpc.c **** }
 908              		.loc 1 719 0
 909 0028 FFF7FEBF 		b	CyExitCriticalSection
 910              	.LVL83:
 911              	.L87:
 912              		.align	2
 913              	.L86:
 914 002c 00000000 		.word	.LANCHOR0
 915 0030 04000840 		.word	1074266116
 916              		.cfi_endproc
 917              	.LFE11:
 918              		.size	CySpcUnlock, .-CySpcUnlock
 919              		.section	.text.CySpcGetAlgorithm,"ax",%progbits
 920              		.align	1
 921              		.global	CySpcGetAlgorithm
 922              		.thumb
 923              		.thumb_func
 924              		.type	CySpcGetAlgorithm, %function
 925              	CySpcGetAlgorithm:
 926              	.LFB12:
 721:Generated_Source\PSoC5/CySpc.c **** 
 722:Generated_Source\PSoC5/CySpc.c **** 
 723:Generated_Source\PSoC5/CySpc.c **** /*******************************************************************************
 724:Generated_Source\PSoC5/CySpc.c **** * Function Name: CySpcGetAlgorithm
 725:Generated_Source\PSoC5/CySpc.c **** ****************************************************************************//**
 726:Generated_Source\PSoC5/CySpc.c **** *  Downloads SPC algorithm from SPC SROM into SRAM.
 727:Generated_Source\PSoC5/CySpc.c **** *
 728:Generated_Source\PSoC5/CySpc.c **** * \return
 729:Generated_Source\PSoC5/CySpc.c **** *  CYRET_STARTED
 730:Generated_Source\PSoC5/CySpc.c **** *  CYRET_LOCKED
 731:Generated_Source\PSoC5/CySpc.c **** *
 732:Generated_Source\PSoC5/CySpc.c **** *******************************************************************************/
 733:Generated_Source\PSoC5/CySpc.c **** cystatus CySpcGetAlgorithm(void)
 734:Generated_Source\PSoC5/CySpc.c **** {
 927              		.loc 1 734 0
 928              		.cfi_startproc
 929              		@ args = 0, pretend = 0, frame = 0
 930              		@ frame_needed = 0, uses_anonymous_args = 0
 931              		@ link register save eliminated.
 932              	.LVL84:
 735:Generated_Source\PSoC5/CySpc.c ****     cystatus status = CYRET_STARTED;
 736:Generated_Source\PSoC5/CySpc.c **** 
 737:Generated_Source\PSoC5/CySpc.c ****     /* Make sure the SPC is ready to accept command */
 738:Generated_Source\PSoC5/CySpc.c ****     if(CY_SPC_IDLE)
 933              		.loc 1 738 0
 934 0000 074B     		ldr	r3, .L91
 935 0002 1B78     		ldrb	r3, [r3]	@ zero_extendqisi2
 936 0004 9B07     		lsls	r3, r3, #30
 937 0006 08D5     		bpl	.L90
 739:Generated_Source\PSoC5/CySpc.c ****     {
ARM GAS  C:\Users\rabbit\AppData\Local\Temp\ccLfhbzh.s 			page 31


 740:Generated_Source\PSoC5/CySpc.c ****         CY_SPC_CPU_DATA_REG = CY_SPC_KEY_ONE;
 938              		.loc 1 740 0
 939 0008 064B     		ldr	r3, .L91+4
 940 000a B622     		movs	r2, #182
 941 000c 1A70     		strb	r2, [r3]
 741:Generated_Source\PSoC5/CySpc.c ****         CY_SPC_CPU_DATA_REG = CY_SPC_KEY_TWO(CY_SPC_CMD_DWNLD_ALGORITHM);
 942              		.loc 1 741 0
 943 000e E022     		movs	r2, #224
 944 0010 1A70     		strb	r2, [r3]
 742:Generated_Source\PSoC5/CySpc.c ****         CY_SPC_CPU_DATA_REG = CY_SPC_CMD_DWNLD_ALGORITHM;
 945              		.loc 1 742 0
 946 0012 0D22     		movs	r2, #13
 947 0014 1A70     		strb	r2, [r3]
 735:Generated_Source\PSoC5/CySpc.c **** 
 948              		.loc 1 735 0
 949 0016 0720     		movs	r0, #7
 950 0018 7047     		bx	lr
 951              	.L90:
 743:Generated_Source\PSoC5/CySpc.c ****     }
 744:Generated_Source\PSoC5/CySpc.c ****     else
 745:Generated_Source\PSoC5/CySpc.c ****     {
 746:Generated_Source\PSoC5/CySpc.c ****         status = CYRET_LOCKED;
 952              		.loc 1 746 0
 953 001a 0420     		movs	r0, #4
 954              	.LVL85:
 747:Generated_Source\PSoC5/CySpc.c ****     }
 748:Generated_Source\PSoC5/CySpc.c **** 
 749:Generated_Source\PSoC5/CySpc.c ****     return(status);
 750:Generated_Source\PSoC5/CySpc.c **** }
 955              		.loc 1 750 0
 956 001c 7047     		bx	lr
 957              	.L92:
 958 001e 00BF     		.align	2
 959              	.L91:
 960 0020 22470040 		.word	1073760034
 961 0024 20470040 		.word	1073760032
 962              		.cfi_endproc
 963              	.LFE12:
 964              		.size	CySpcGetAlgorithm, .-CySpcGetAlgorithm
 965              		.global	SpcLockState
 966              		.bss
 967              		.align	2
 968              		.set	.LANCHOR0,. + 0
 969              		.type	SpcLockState, %object
 970              		.size	SpcLockState, 1
 971              	SpcLockState:
 972 0000 00       		.space	1
 973 0001 000000   		.space	3
 974              		.type	spcWaitPipeBypass, %object
 975              		.size	spcWaitPipeBypass, 4
 976              	spcWaitPipeBypass:
 977 0004 00000000 		.space	4
 978              		.text
 979              	.Letext0:
 980              		.file 2 "Generated_Source\\PSoC5\\cytypes.h"
 981              		.file 3 "Generated_Source\\PSoC5\\CyLib.h"