ARM GAS  C:\Users\rabbit\AppData\Local\Temp\ccp2Ql9D.s 			page 1


   1              		.syntax unified
   2              		.cpu cortex-m3
   3              		.fpu softvfp
   4              		.eabi_attribute 20, 1
   5              		.eabi_attribute 21, 1
   6              		.eabi_attribute 23, 3
   7              		.eabi_attribute 24, 1
   8              		.eabi_attribute 25, 1
   9              		.eabi_attribute 26, 1
  10              		.eabi_attribute 30, 4
  11              		.eabi_attribute 34, 1
  12              		.eabi_attribute 18, 4
  13              		.thumb
  14              		.syntax unified
  15              		.file	"SD_PULLUP.c"
  16              		.text
  17              	.Ltext0:
  18              		.cfi_sections	.debug_frame
  19              		.section	.text.SD_PULLUP_Write,"ax",%progbits
  20              		.align	1
  21              		.global	SD_PULLUP_Write
  22              		.thumb
  23              		.thumb_func
  24              		.type	SD_PULLUP_Write, %function
  25              	SD_PULLUP_Write:
  26              	.LFB0:
  27              		.file 1 "Generated_Source\\PSoC5\\SD_PULLUP.c"
   1:Generated_Source\PSoC5/SD_PULLUP.c **** /*******************************************************************************
   2:Generated_Source\PSoC5/SD_PULLUP.c **** * File Name: SD_PULLUP.c  
   3:Generated_Source\PSoC5/SD_PULLUP.c **** * Version 2.20
   4:Generated_Source\PSoC5/SD_PULLUP.c **** *
   5:Generated_Source\PSoC5/SD_PULLUP.c **** * Description:
   6:Generated_Source\PSoC5/SD_PULLUP.c **** *  This file contains API to enable firmware control of a Pins component.
   7:Generated_Source\PSoC5/SD_PULLUP.c **** *
   8:Generated_Source\PSoC5/SD_PULLUP.c **** * Note:
   9:Generated_Source\PSoC5/SD_PULLUP.c **** *
  10:Generated_Source\PSoC5/SD_PULLUP.c **** ********************************************************************************
  11:Generated_Source\PSoC5/SD_PULLUP.c **** * Copyright 2008-2015, Cypress Semiconductor Corporation.  All rights reserved.
  12:Generated_Source\PSoC5/SD_PULLUP.c **** * You may use this file only in accordance with the license, terms, conditions, 
  13:Generated_Source\PSoC5/SD_PULLUP.c **** * disclaimers, and limitations in the end user license agreement accompanying 
  14:Generated_Source\PSoC5/SD_PULLUP.c **** * the software package with which this file was provided.
  15:Generated_Source\PSoC5/SD_PULLUP.c **** *******************************************************************************/
  16:Generated_Source\PSoC5/SD_PULLUP.c **** 
  17:Generated_Source\PSoC5/SD_PULLUP.c **** #include "cytypes.h"
  18:Generated_Source\PSoC5/SD_PULLUP.c **** #include "SD_PULLUP.h"
  19:Generated_Source\PSoC5/SD_PULLUP.c **** 
  20:Generated_Source\PSoC5/SD_PULLUP.c **** /* APIs are not generated for P15[7:6] on PSoC 5 */
  21:Generated_Source\PSoC5/SD_PULLUP.c **** #if !(CY_PSOC5A &&\
  22:Generated_Source\PSoC5/SD_PULLUP.c **** 	 SD_PULLUP__PORT == 15 && ((SD_PULLUP__MASK & 0xC0) != 0))
  23:Generated_Source\PSoC5/SD_PULLUP.c **** 
  24:Generated_Source\PSoC5/SD_PULLUP.c **** 
  25:Generated_Source\PSoC5/SD_PULLUP.c **** /*******************************************************************************
  26:Generated_Source\PSoC5/SD_PULLUP.c **** * Function Name: SD_PULLUP_Write
  27:Generated_Source\PSoC5/SD_PULLUP.c **** ****************************************************************************//**
  28:Generated_Source\PSoC5/SD_PULLUP.c **** *
  29:Generated_Source\PSoC5/SD_PULLUP.c **** * \brief Writes the value to the physical port (data output register), masking
  30:Generated_Source\PSoC5/SD_PULLUP.c **** *  and shifting the bits appropriately. 
ARM GAS  C:\Users\rabbit\AppData\Local\Temp\ccp2Ql9D.s 			page 2


  31:Generated_Source\PSoC5/SD_PULLUP.c **** *
  32:Generated_Source\PSoC5/SD_PULLUP.c **** * The data output register controls the signal applied to the physical pin in 
  33:Generated_Source\PSoC5/SD_PULLUP.c **** * conjunction with the drive mode parameter. This function avoids changing 
  34:Generated_Source\PSoC5/SD_PULLUP.c **** * other bits in the port by using the appropriate method (read-modify-write or
  35:Generated_Source\PSoC5/SD_PULLUP.c **** * bit banding).
  36:Generated_Source\PSoC5/SD_PULLUP.c **** *
  37:Generated_Source\PSoC5/SD_PULLUP.c **** * <b>Note</b> This function should not be used on a hardware digital output pin 
  38:Generated_Source\PSoC5/SD_PULLUP.c **** * as it is driven by the hardware signal attached to it.
  39:Generated_Source\PSoC5/SD_PULLUP.c **** *
  40:Generated_Source\PSoC5/SD_PULLUP.c **** * \param value
  41:Generated_Source\PSoC5/SD_PULLUP.c **** *  Value to write to the component instance.
  42:Generated_Source\PSoC5/SD_PULLUP.c **** *
  43:Generated_Source\PSoC5/SD_PULLUP.c **** * \return 
  44:Generated_Source\PSoC5/SD_PULLUP.c **** *  None 
  45:Generated_Source\PSoC5/SD_PULLUP.c **** *
  46:Generated_Source\PSoC5/SD_PULLUP.c **** * \sideeffect
  47:Generated_Source\PSoC5/SD_PULLUP.c **** *  If you use read-modify-write operations that are not atomic; the Interrupt 
  48:Generated_Source\PSoC5/SD_PULLUP.c **** *  Service Routines (ISR) can cause corruption of this function. An ISR that 
  49:Generated_Source\PSoC5/SD_PULLUP.c **** *  interrupts this function and performs writes to the Pins component data 
  50:Generated_Source\PSoC5/SD_PULLUP.c **** *  register can cause corrupted port data. To avoid this issue, you should 
  51:Generated_Source\PSoC5/SD_PULLUP.c **** *  either use the Per-Pin APIs (primary method) or disable interrupts around 
  52:Generated_Source\PSoC5/SD_PULLUP.c **** *  this function.
  53:Generated_Source\PSoC5/SD_PULLUP.c **** *
  54:Generated_Source\PSoC5/SD_PULLUP.c **** * \funcusage
  55:Generated_Source\PSoC5/SD_PULLUP.c **** *  \snippet SD_PULLUP_SUT.c usage_SD_PULLUP_Write
  56:Generated_Source\PSoC5/SD_PULLUP.c **** *******************************************************************************/
  57:Generated_Source\PSoC5/SD_PULLUP.c **** void SD_PULLUP_Write(uint8 value)
  58:Generated_Source\PSoC5/SD_PULLUP.c **** {
  28              		.loc 1 58 0
  29              		.cfi_startproc
  30              		@ args = 0, pretend = 0, frame = 0
  31              		@ frame_needed = 0, uses_anonymous_args = 0
  32              		@ link register save eliminated.
  33              	.LVL0:
  59:Generated_Source\PSoC5/SD_PULLUP.c ****     uint8 staticBits = (SD_PULLUP_DR & (uint8)(~SD_PULLUP_MASK));
  34              		.loc 1 59 0
  35 0000 044A     		ldr	r2, .L2
  60:Generated_Source\PSoC5/SD_PULLUP.c ****     SD_PULLUP_DR = staticBits | ((uint8)(value << SD_PULLUP_SHIFT) & SD_PULLUP_MASK);
  36              		.loc 1 60 0
  37 0002 4000     		lsls	r0, r0, #1
  38              	.LVL1:
  59:Generated_Source\PSoC5/SD_PULLUP.c ****     uint8 staticBits = (SD_PULLUP_DR & (uint8)(~SD_PULLUP_MASK));
  39              		.loc 1 59 0
  40 0004 1378     		ldrb	r3, [r2]	@ zero_extendqisi2
  41              	.LVL2:
  42              		.loc 1 60 0
  43 0006 00F03E00 		and	r0, r0, #62
  44 000a 03F0C103 		and	r3, r3, #193
  45              	.LVL3:
  46 000e 0343     		orrs	r3, r3, r0
  47 0010 1370     		strb	r3, [r2]
  48 0012 7047     		bx	lr
  49              	.L3:
  50              		.align	2
  51              	.L2:
  52 0014 30510040 		.word	1073762608
  53              		.cfi_endproc
ARM GAS  C:\Users\rabbit\AppData\Local\Temp\ccp2Ql9D.s 			page 3


  54              	.LFE0:
  55              		.size	SD_PULLUP_Write, .-SD_PULLUP_Write
  56              		.section	.text.SD_PULLUP_SetDriveMode,"ax",%progbits
  57              		.align	1
  58              		.global	SD_PULLUP_SetDriveMode
  59              		.thumb
  60              		.thumb_func
  61              		.type	SD_PULLUP_SetDriveMode, %function
  62              	SD_PULLUP_SetDriveMode:
  63              	.LFB1:
  61:Generated_Source\PSoC5/SD_PULLUP.c **** }
  62:Generated_Source\PSoC5/SD_PULLUP.c **** 
  63:Generated_Source\PSoC5/SD_PULLUP.c **** 
  64:Generated_Source\PSoC5/SD_PULLUP.c **** /*******************************************************************************
  65:Generated_Source\PSoC5/SD_PULLUP.c **** * Function Name: SD_PULLUP_SetDriveMode
  66:Generated_Source\PSoC5/SD_PULLUP.c **** ****************************************************************************//**
  67:Generated_Source\PSoC5/SD_PULLUP.c **** *
  68:Generated_Source\PSoC5/SD_PULLUP.c **** * \brief Sets the drive mode for each of the Pins component's pins.
  69:Generated_Source\PSoC5/SD_PULLUP.c **** * 
  70:Generated_Source\PSoC5/SD_PULLUP.c **** * <b>Note</b> This affects all pins in the Pins component instance. Use the
  71:Generated_Source\PSoC5/SD_PULLUP.c **** * Per-Pin APIs if you wish to control individual pin's drive modes.
  72:Generated_Source\PSoC5/SD_PULLUP.c **** *
  73:Generated_Source\PSoC5/SD_PULLUP.c **** * \param mode
  74:Generated_Source\PSoC5/SD_PULLUP.c **** *  Mode for the selected signals. Valid options are documented in 
  75:Generated_Source\PSoC5/SD_PULLUP.c **** *  \ref driveMode.
  76:Generated_Source\PSoC5/SD_PULLUP.c **** *
  77:Generated_Source\PSoC5/SD_PULLUP.c **** * \return
  78:Generated_Source\PSoC5/SD_PULLUP.c **** *  None
  79:Generated_Source\PSoC5/SD_PULLUP.c **** *
  80:Generated_Source\PSoC5/SD_PULLUP.c **** * \sideeffect
  81:Generated_Source\PSoC5/SD_PULLUP.c **** *  If you use read-modify-write operations that are not atomic, the ISR can
  82:Generated_Source\PSoC5/SD_PULLUP.c **** *  cause corruption of this function. An ISR that interrupts this function 
  83:Generated_Source\PSoC5/SD_PULLUP.c **** *  and performs writes to the Pins component Drive Mode registers can cause 
  84:Generated_Source\PSoC5/SD_PULLUP.c **** *  corrupted port data. To avoid this issue, you should either use the Per-Pin
  85:Generated_Source\PSoC5/SD_PULLUP.c **** *  APIs (primary method) or disable interrupts around this function.
  86:Generated_Source\PSoC5/SD_PULLUP.c **** *
  87:Generated_Source\PSoC5/SD_PULLUP.c **** * \funcusage
  88:Generated_Source\PSoC5/SD_PULLUP.c **** *  \snippet SD_PULLUP_SUT.c usage_SD_PULLUP_SetDriveMode
  89:Generated_Source\PSoC5/SD_PULLUP.c **** *******************************************************************************/
  90:Generated_Source\PSoC5/SD_PULLUP.c **** void SD_PULLUP_SetDriveMode(uint8 mode)
  91:Generated_Source\PSoC5/SD_PULLUP.c **** {
  64              		.loc 1 91 0
  65              		.cfi_startproc
  66              		@ args = 0, pretend = 0, frame = 0
  67              		@ frame_needed = 0, uses_anonymous_args = 0
  68              		@ link register save eliminated.
  69              	.LVL4:
  92:Generated_Source\PSoC5/SD_PULLUP.c **** 	CyPins_SetPinDriveMode(SD_PULLUP_0, mode);
  70              		.loc 1 92 0
  71 0000 0E4A     		ldr	r2, .L5
  72 0002 00F00E00 		and	r0, r0, #14
  73              	.LVL5:
  74 0006 1378     		ldrb	r3, [r2]	@ zero_extendqisi2
  75 0008 03F0F103 		and	r3, r3, #241
  76 000c 0343     		orrs	r3, r3, r0
  77 000e 1370     		strb	r3, [r2]
  93:Generated_Source\PSoC5/SD_PULLUP.c **** 	CyPins_SetPinDriveMode(SD_PULLUP_1, mode);
ARM GAS  C:\Users\rabbit\AppData\Local\Temp\ccp2Ql9D.s 			page 4


  78              		.loc 1 93 0
  79 0010 5378     		ldrb	r3, [r2, #1]	@ zero_extendqisi2
  80 0012 03F0F103 		and	r3, r3, #241
  81 0016 0343     		orrs	r3, r3, r0
  82 0018 5370     		strb	r3, [r2, #1]
  94:Generated_Source\PSoC5/SD_PULLUP.c **** 	CyPins_SetPinDriveMode(SD_PULLUP_2, mode);
  83              		.loc 1 94 0
  84 001a 9378     		ldrb	r3, [r2, #2]	@ zero_extendqisi2
  85 001c 03F0F103 		and	r3, r3, #241
  86 0020 0343     		orrs	r3, r3, r0
  87 0022 9370     		strb	r3, [r2, #2]
  95:Generated_Source\PSoC5/SD_PULLUP.c **** 	CyPins_SetPinDriveMode(SD_PULLUP_3, mode);
  88              		.loc 1 95 0
  89 0024 D378     		ldrb	r3, [r2, #3]	@ zero_extendqisi2
  90 0026 03F0F103 		and	r3, r3, #241
  91 002a 0343     		orrs	r3, r3, r0
  92 002c D370     		strb	r3, [r2, #3]
  96:Generated_Source\PSoC5/SD_PULLUP.c **** 	CyPins_SetPinDriveMode(SD_PULLUP_4, mode);
  93              		.loc 1 96 0
  94 002e 1379     		ldrb	r3, [r2, #4]	@ zero_extendqisi2
  95 0030 03F0F103 		and	r3, r3, #241
  96 0034 1843     		orrs	r0, r0, r3
  97 0036 1071     		strb	r0, [r2, #4]
  98 0038 7047     		bx	lr
  99              	.L6:
 100 003a 00BF     		.align	2
 101              	.L5:
 102 003c 19500040 		.word	1073762329
 103              		.cfi_endproc
 104              	.LFE1:
 105              		.size	SD_PULLUP_SetDriveMode, .-SD_PULLUP_SetDriveMode
 106              		.section	.text.SD_PULLUP_Read,"ax",%progbits
 107              		.align	1
 108              		.global	SD_PULLUP_Read
 109              		.thumb
 110              		.thumb_func
 111              		.type	SD_PULLUP_Read, %function
 112              	SD_PULLUP_Read:
 113              	.LFB2:
  97:Generated_Source\PSoC5/SD_PULLUP.c **** }
  98:Generated_Source\PSoC5/SD_PULLUP.c **** 
  99:Generated_Source\PSoC5/SD_PULLUP.c **** 
 100:Generated_Source\PSoC5/SD_PULLUP.c **** /*******************************************************************************
 101:Generated_Source\PSoC5/SD_PULLUP.c **** * Function Name: SD_PULLUP_Read
 102:Generated_Source\PSoC5/SD_PULLUP.c **** ****************************************************************************//**
 103:Generated_Source\PSoC5/SD_PULLUP.c **** *
 104:Generated_Source\PSoC5/SD_PULLUP.c **** * \brief Reads the associated physical port (pin status register) and masks 
 105:Generated_Source\PSoC5/SD_PULLUP.c **** *  the required bits according to the width and bit position of the component
 106:Generated_Source\PSoC5/SD_PULLUP.c **** *  instance. 
 107:Generated_Source\PSoC5/SD_PULLUP.c **** *
 108:Generated_Source\PSoC5/SD_PULLUP.c **** * The pin's status register returns the current logic level present on the 
 109:Generated_Source\PSoC5/SD_PULLUP.c **** * physical pin.
 110:Generated_Source\PSoC5/SD_PULLUP.c **** *
 111:Generated_Source\PSoC5/SD_PULLUP.c **** * \return 
 112:Generated_Source\PSoC5/SD_PULLUP.c **** *  The current value for the pins in the component as a right justified number.
 113:Generated_Source\PSoC5/SD_PULLUP.c **** *
 114:Generated_Source\PSoC5/SD_PULLUP.c **** * \funcusage
ARM GAS  C:\Users\rabbit\AppData\Local\Temp\ccp2Ql9D.s 			page 5


 115:Generated_Source\PSoC5/SD_PULLUP.c **** *  \snippet SD_PULLUP_SUT.c usage_SD_PULLUP_Read  
 116:Generated_Source\PSoC5/SD_PULLUP.c **** *******************************************************************************/
 117:Generated_Source\PSoC5/SD_PULLUP.c **** uint8 SD_PULLUP_Read(void)
 118:Generated_Source\PSoC5/SD_PULLUP.c **** {
 114              		.loc 1 118 0
 115              		.cfi_startproc
 116              		@ args = 0, pretend = 0, frame = 0
 117              		@ frame_needed = 0, uses_anonymous_args = 0
 118              		@ link register save eliminated.
 119:Generated_Source\PSoC5/SD_PULLUP.c ****     return (SD_PULLUP_PS & SD_PULLUP_MASK) >> SD_PULLUP_SHIFT;
 119              		.loc 1 119 0
 120 0000 024B     		ldr	r3, .L8
 121 0002 1878     		ldrb	r0, [r3]	@ zero_extendqisi2
 120:Generated_Source\PSoC5/SD_PULLUP.c **** }
 122              		.loc 1 120 0
 123 0004 C0F34400 		ubfx	r0, r0, #1, #5
 124 0008 7047     		bx	lr
 125              	.L9:
 126 000a 00BF     		.align	2
 127              	.L8:
 128 000c 31510040 		.word	1073762609
 129              		.cfi_endproc
 130              	.LFE2:
 131              		.size	SD_PULLUP_Read, .-SD_PULLUP_Read
 132              		.section	.text.SD_PULLUP_ReadDataReg,"ax",%progbits
 133              		.align	1
 134              		.global	SD_PULLUP_ReadDataReg
 135              		.thumb
 136              		.thumb_func
 137              		.type	SD_PULLUP_ReadDataReg, %function
 138              	SD_PULLUP_ReadDataReg:
 139              	.LFB3:
 121:Generated_Source\PSoC5/SD_PULLUP.c **** 
 122:Generated_Source\PSoC5/SD_PULLUP.c **** 
 123:Generated_Source\PSoC5/SD_PULLUP.c **** /*******************************************************************************
 124:Generated_Source\PSoC5/SD_PULLUP.c **** * Function Name: SD_PULLUP_ReadDataReg
 125:Generated_Source\PSoC5/SD_PULLUP.c **** ****************************************************************************//**
 126:Generated_Source\PSoC5/SD_PULLUP.c **** *
 127:Generated_Source\PSoC5/SD_PULLUP.c **** * \brief Reads the associated physical port's data output register and masks 
 128:Generated_Source\PSoC5/SD_PULLUP.c **** *  the correct bits according to the width and bit position of the component 
 129:Generated_Source\PSoC5/SD_PULLUP.c **** *  instance. 
 130:Generated_Source\PSoC5/SD_PULLUP.c **** *
 131:Generated_Source\PSoC5/SD_PULLUP.c **** * The data output register controls the signal applied to the physical pin in 
 132:Generated_Source\PSoC5/SD_PULLUP.c **** * conjunction with the drive mode parameter. This is not the same as the 
 133:Generated_Source\PSoC5/SD_PULLUP.c **** * preferred SD_PULLUP_Read() API because the 
 134:Generated_Source\PSoC5/SD_PULLUP.c **** * SD_PULLUP_ReadDataReg() reads the data register instead of the status 
 135:Generated_Source\PSoC5/SD_PULLUP.c **** * register. For output pins this is a useful function to determine the value 
 136:Generated_Source\PSoC5/SD_PULLUP.c **** * just written to the pin.
 137:Generated_Source\PSoC5/SD_PULLUP.c **** *
 138:Generated_Source\PSoC5/SD_PULLUP.c **** * \return 
 139:Generated_Source\PSoC5/SD_PULLUP.c **** *  The current value of the data register masked and shifted into a right 
 140:Generated_Source\PSoC5/SD_PULLUP.c **** *  justified number for the component instance.
 141:Generated_Source\PSoC5/SD_PULLUP.c **** *
 142:Generated_Source\PSoC5/SD_PULLUP.c **** * \funcusage
 143:Generated_Source\PSoC5/SD_PULLUP.c **** *  \snippet SD_PULLUP_SUT.c usage_SD_PULLUP_ReadDataReg 
 144:Generated_Source\PSoC5/SD_PULLUP.c **** *******************************************************************************/
 145:Generated_Source\PSoC5/SD_PULLUP.c **** uint8 SD_PULLUP_ReadDataReg(void)
ARM GAS  C:\Users\rabbit\AppData\Local\Temp\ccp2Ql9D.s 			page 6


 146:Generated_Source\PSoC5/SD_PULLUP.c **** {
 140              		.loc 1 146 0
 141              		.cfi_startproc
 142              		@ args = 0, pretend = 0, frame = 0
 143              		@ frame_needed = 0, uses_anonymous_args = 0
 144              		@ link register save eliminated.
 147:Generated_Source\PSoC5/SD_PULLUP.c ****     return (SD_PULLUP_DR & SD_PULLUP_MASK) >> SD_PULLUP_SHIFT;
 145              		.loc 1 147 0
 146 0000 024B     		ldr	r3, .L11
 147 0002 1878     		ldrb	r0, [r3]	@ zero_extendqisi2
 148:Generated_Source\PSoC5/SD_PULLUP.c **** }
 148              		.loc 1 148 0
 149 0004 C0F34400 		ubfx	r0, r0, #1, #5
 150 0008 7047     		bx	lr
 151              	.L12:
 152 000a 00BF     		.align	2
 153              	.L11:
 154 000c 30510040 		.word	1073762608
 155              		.cfi_endproc
 156              	.LFE3:
 157              		.size	SD_PULLUP_ReadDataReg, .-SD_PULLUP_ReadDataReg
 158              		.text
 159              	.Letext0:
 160              		.file 2 "Generated_Source\\PSoC5\\cytypes.h"