ARM GAS  C:\Users\rabbit\AppData\Local\Temp\ccpSu9WQ.s 			page 1


   1              		.syntax unified
   2              		.cpu cortex-m3
   3              		.fpu softvfp
   4              		.eabi_attribute 20, 1
   5              		.eabi_attribute 21, 1
   6              		.eabi_attribute 23, 3
   7              		.eabi_attribute 24, 1
   8              		.eabi_attribute 25, 1
   9              		.eabi_attribute 26, 1
  10              		.eabi_attribute 30, 4
  11              		.eabi_attribute 34, 1
  12              		.eabi_attribute 18, 4
  13              		.thumb
  14              		.syntax unified
  15              		.file	"SPI_PULLUP_3.c"
  16              		.text
  17              	.Ltext0:
  18              		.cfi_sections	.debug_frame
  19              		.section	.text.SPI_PULLUP_3_Write,"ax",%progbits
  20              		.align	1
  21              		.global	SPI_PULLUP_3_Write
  22              		.thumb
  23              		.thumb_func
  24              		.type	SPI_PULLUP_3_Write, %function
  25              	SPI_PULLUP_3_Write:
  26              	.LFB0:
  27              		.file 1 "Generated_Source\\PSoC5\\SPI_PULLUP_3.c"
   1:Generated_Source\PSoC5/SPI_PULLUP_3.c **** /*******************************************************************************
   2:Generated_Source\PSoC5/SPI_PULLUP_3.c **** * File Name: SPI_PULLUP_3.c  
   3:Generated_Source\PSoC5/SPI_PULLUP_3.c **** * Version 2.20
   4:Generated_Source\PSoC5/SPI_PULLUP_3.c **** *
   5:Generated_Source\PSoC5/SPI_PULLUP_3.c **** * Description:
   6:Generated_Source\PSoC5/SPI_PULLUP_3.c **** *  This file contains API to enable firmware control of a Pins component.
   7:Generated_Source\PSoC5/SPI_PULLUP_3.c **** *
   8:Generated_Source\PSoC5/SPI_PULLUP_3.c **** * Note:
   9:Generated_Source\PSoC5/SPI_PULLUP_3.c **** *
  10:Generated_Source\PSoC5/SPI_PULLUP_3.c **** ********************************************************************************
  11:Generated_Source\PSoC5/SPI_PULLUP_3.c **** * Copyright 2008-2015, Cypress Semiconductor Corporation.  All rights reserved.
  12:Generated_Source\PSoC5/SPI_PULLUP_3.c **** * You may use this file only in accordance with the license, terms, conditions, 
  13:Generated_Source\PSoC5/SPI_PULLUP_3.c **** * disclaimers, and limitations in the end user license agreement accompanying 
  14:Generated_Source\PSoC5/SPI_PULLUP_3.c **** * the software package with which this file was provided.
  15:Generated_Source\PSoC5/SPI_PULLUP_3.c **** *******************************************************************************/
  16:Generated_Source\PSoC5/SPI_PULLUP_3.c **** 
  17:Generated_Source\PSoC5/SPI_PULLUP_3.c **** #include "cytypes.h"
  18:Generated_Source\PSoC5/SPI_PULLUP_3.c **** #include "SPI_PULLUP_3.h"
  19:Generated_Source\PSoC5/SPI_PULLUP_3.c **** 
  20:Generated_Source\PSoC5/SPI_PULLUP_3.c **** /* APIs are not generated for P15[7:6] on PSoC 5 */
  21:Generated_Source\PSoC5/SPI_PULLUP_3.c **** #if !(CY_PSOC5A &&\
  22:Generated_Source\PSoC5/SPI_PULLUP_3.c **** 	 SPI_PULLUP_3__PORT == 15 && ((SPI_PULLUP_3__MASK & 0xC0) != 0))
  23:Generated_Source\PSoC5/SPI_PULLUP_3.c **** 
  24:Generated_Source\PSoC5/SPI_PULLUP_3.c **** 
  25:Generated_Source\PSoC5/SPI_PULLUP_3.c **** /*******************************************************************************
  26:Generated_Source\PSoC5/SPI_PULLUP_3.c **** * Function Name: SPI_PULLUP_3_Write
  27:Generated_Source\PSoC5/SPI_PULLUP_3.c **** ****************************************************************************//**
  28:Generated_Source\PSoC5/SPI_PULLUP_3.c **** *
  29:Generated_Source\PSoC5/SPI_PULLUP_3.c **** * \brief Writes the value to the physical port (data output register), masking
  30:Generated_Source\PSoC5/SPI_PULLUP_3.c **** *  and shifting the bits appropriately. 
ARM GAS  C:\Users\rabbit\AppData\Local\Temp\ccpSu9WQ.s 			page 2


  31:Generated_Source\PSoC5/SPI_PULLUP_3.c **** *
  32:Generated_Source\PSoC5/SPI_PULLUP_3.c **** * The data output register controls the signal applied to the physical pin in 
  33:Generated_Source\PSoC5/SPI_PULLUP_3.c **** * conjunction with the drive mode parameter. This function avoids changing 
  34:Generated_Source\PSoC5/SPI_PULLUP_3.c **** * other bits in the port by using the appropriate method (read-modify-write or
  35:Generated_Source\PSoC5/SPI_PULLUP_3.c **** * bit banding).
  36:Generated_Source\PSoC5/SPI_PULLUP_3.c **** *
  37:Generated_Source\PSoC5/SPI_PULLUP_3.c **** * <b>Note</b> This function should not be used on a hardware digital output pin 
  38:Generated_Source\PSoC5/SPI_PULLUP_3.c **** * as it is driven by the hardware signal attached to it.
  39:Generated_Source\PSoC5/SPI_PULLUP_3.c **** *
  40:Generated_Source\PSoC5/SPI_PULLUP_3.c **** * \param value
  41:Generated_Source\PSoC5/SPI_PULLUP_3.c **** *  Value to write to the component instance.
  42:Generated_Source\PSoC5/SPI_PULLUP_3.c **** *
  43:Generated_Source\PSoC5/SPI_PULLUP_3.c **** * \return 
  44:Generated_Source\PSoC5/SPI_PULLUP_3.c **** *  None 
  45:Generated_Source\PSoC5/SPI_PULLUP_3.c **** *
  46:Generated_Source\PSoC5/SPI_PULLUP_3.c **** * \sideeffect
  47:Generated_Source\PSoC5/SPI_PULLUP_3.c **** *  If you use read-modify-write operations that are not atomic; the Interrupt 
  48:Generated_Source\PSoC5/SPI_PULLUP_3.c **** *  Service Routines (ISR) can cause corruption of this function. An ISR that 
  49:Generated_Source\PSoC5/SPI_PULLUP_3.c **** *  interrupts this function and performs writes to the Pins component data 
  50:Generated_Source\PSoC5/SPI_PULLUP_3.c **** *  register can cause corrupted port data. To avoid this issue, you should 
  51:Generated_Source\PSoC5/SPI_PULLUP_3.c **** *  either use the Per-Pin APIs (primary method) or disable interrupts around 
  52:Generated_Source\PSoC5/SPI_PULLUP_3.c **** *  this function.
  53:Generated_Source\PSoC5/SPI_PULLUP_3.c **** *
  54:Generated_Source\PSoC5/SPI_PULLUP_3.c **** * \funcusage
  55:Generated_Source\PSoC5/SPI_PULLUP_3.c **** *  \snippet SPI_PULLUP_3_SUT.c usage_SPI_PULLUP_3_Write
  56:Generated_Source\PSoC5/SPI_PULLUP_3.c **** *******************************************************************************/
  57:Generated_Source\PSoC5/SPI_PULLUP_3.c **** void SPI_PULLUP_3_Write(uint8 value)
  58:Generated_Source\PSoC5/SPI_PULLUP_3.c **** {
  28              		.loc 1 58 0
  29              		.cfi_startproc
  30              		@ args = 0, pretend = 0, frame = 0
  31              		@ frame_needed = 0, uses_anonymous_args = 0
  32              		@ link register save eliminated.
  33              	.LVL0:
  59:Generated_Source\PSoC5/SPI_PULLUP_3.c ****     uint8 staticBits = (SPI_PULLUP_3_DR & (uint8)(~SPI_PULLUP_3_MASK));
  34              		.loc 1 59 0
  35 0000 044A     		ldr	r2, .L2
  60:Generated_Source\PSoC5/SPI_PULLUP_3.c ****     SPI_PULLUP_3_DR = staticBits | ((uint8)(value << SPI_PULLUP_3_SHIFT) & SPI_PULLUP_3_MASK);
  36              		.loc 1 60 0
  37 0002 8000     		lsls	r0, r0, #2
  38              	.LVL1:
  59:Generated_Source\PSoC5/SPI_PULLUP_3.c ****     uint8 staticBits = (SPI_PULLUP_3_DR & (uint8)(~SPI_PULLUP_3_MASK));
  39              		.loc 1 59 0
  40 0004 1378     		ldrb	r3, [r2]	@ zero_extendqisi2
  41              	.LVL2:
  42              		.loc 1 60 0
  43 0006 00F00C00 		and	r0, r0, #12
  44 000a 03F0F303 		and	r3, r3, #243
  45              	.LVL3:
  46 000e 0343     		orrs	r3, r3, r0
  47 0010 1370     		strb	r3, [r2]
  48 0012 7047     		bx	lr
  49              	.L3:
  50              		.align	2
  51              	.L2:
  52 0014 F0510040 		.word	1073762800
  53              		.cfi_endproc
ARM GAS  C:\Users\rabbit\AppData\Local\Temp\ccpSu9WQ.s 			page 3


  54              	.LFE0:
  55              		.size	SPI_PULLUP_3_Write, .-SPI_PULLUP_3_Write
  56              		.section	.text.SPI_PULLUP_3_SetDriveMode,"ax",%progbits
  57              		.align	1
  58              		.global	SPI_PULLUP_3_SetDriveMode
  59              		.thumb
  60              		.thumb_func
  61              		.type	SPI_PULLUP_3_SetDriveMode, %function
  62              	SPI_PULLUP_3_SetDriveMode:
  63              	.LFB1:
  61:Generated_Source\PSoC5/SPI_PULLUP_3.c **** }
  62:Generated_Source\PSoC5/SPI_PULLUP_3.c **** 
  63:Generated_Source\PSoC5/SPI_PULLUP_3.c **** 
  64:Generated_Source\PSoC5/SPI_PULLUP_3.c **** /*******************************************************************************
  65:Generated_Source\PSoC5/SPI_PULLUP_3.c **** * Function Name: SPI_PULLUP_3_SetDriveMode
  66:Generated_Source\PSoC5/SPI_PULLUP_3.c **** ****************************************************************************//**
  67:Generated_Source\PSoC5/SPI_PULLUP_3.c **** *
  68:Generated_Source\PSoC5/SPI_PULLUP_3.c **** * \brief Sets the drive mode for each of the Pins component's pins.
  69:Generated_Source\PSoC5/SPI_PULLUP_3.c **** * 
  70:Generated_Source\PSoC5/SPI_PULLUP_3.c **** * <b>Note</b> This affects all pins in the Pins component instance. Use the
  71:Generated_Source\PSoC5/SPI_PULLUP_3.c **** * Per-Pin APIs if you wish to control individual pin's drive modes.
  72:Generated_Source\PSoC5/SPI_PULLUP_3.c **** *
  73:Generated_Source\PSoC5/SPI_PULLUP_3.c **** * \param mode
  74:Generated_Source\PSoC5/SPI_PULLUP_3.c **** *  Mode for the selected signals. Valid options are documented in 
  75:Generated_Source\PSoC5/SPI_PULLUP_3.c **** *  \ref driveMode.
  76:Generated_Source\PSoC5/SPI_PULLUP_3.c **** *
  77:Generated_Source\PSoC5/SPI_PULLUP_3.c **** * \return
  78:Generated_Source\PSoC5/SPI_PULLUP_3.c **** *  None
  79:Generated_Source\PSoC5/SPI_PULLUP_3.c **** *
  80:Generated_Source\PSoC5/SPI_PULLUP_3.c **** * \sideeffect
  81:Generated_Source\PSoC5/SPI_PULLUP_3.c **** *  If you use read-modify-write operations that are not atomic, the ISR can
  82:Generated_Source\PSoC5/SPI_PULLUP_3.c **** *  cause corruption of this function. An ISR that interrupts this function 
  83:Generated_Source\PSoC5/SPI_PULLUP_3.c **** *  and performs writes to the Pins component Drive Mode registers can cause 
  84:Generated_Source\PSoC5/SPI_PULLUP_3.c **** *  corrupted port data. To avoid this issue, you should either use the Per-Pin
  85:Generated_Source\PSoC5/SPI_PULLUP_3.c **** *  APIs (primary method) or disable interrupts around this function.
  86:Generated_Source\PSoC5/SPI_PULLUP_3.c **** *
  87:Generated_Source\PSoC5/SPI_PULLUP_3.c **** * \funcusage
  88:Generated_Source\PSoC5/SPI_PULLUP_3.c **** *  \snippet SPI_PULLUP_3_SUT.c usage_SPI_PULLUP_3_SetDriveMode
  89:Generated_Source\PSoC5/SPI_PULLUP_3.c **** *******************************************************************************/
  90:Generated_Source\PSoC5/SPI_PULLUP_3.c **** void SPI_PULLUP_3_SetDriveMode(uint8 mode)
  91:Generated_Source\PSoC5/SPI_PULLUP_3.c **** {
  64              		.loc 1 91 0
  65              		.cfi_startproc
  66              		@ args = 0, pretend = 0, frame = 0
  67              		@ frame_needed = 0, uses_anonymous_args = 0
  68              		@ link register save eliminated.
  69              	.LVL4:
  92:Generated_Source\PSoC5/SPI_PULLUP_3.c **** 	CyPins_SetPinDriveMode(SPI_PULLUP_3_0, mode);
  70              		.loc 1 92 0
  71 0000 064A     		ldr	r2, .L5
  72 0002 00F00E00 		and	r0, r0, #14
  73              	.LVL5:
  74 0006 1378     		ldrb	r3, [r2]	@ zero_extendqisi2
  75 0008 03F0F103 		and	r3, r3, #241
  76 000c 0343     		orrs	r3, r3, r0
  77 000e 1370     		strb	r3, [r2]
  93:Generated_Source\PSoC5/SPI_PULLUP_3.c **** 	CyPins_SetPinDriveMode(SPI_PULLUP_3_1, mode);
ARM GAS  C:\Users\rabbit\AppData\Local\Temp\ccpSu9WQ.s 			page 4


  78              		.loc 1 93 0
  79 0010 5378     		ldrb	r3, [r2, #1]	@ zero_extendqisi2
  80 0012 03F0F103 		and	r3, r3, #241
  81 0016 1843     		orrs	r0, r0, r3
  82 0018 5070     		strb	r0, [r2, #1]
  83 001a 7047     		bx	lr
  84              	.L6:
  85              		.align	2
  86              	.L5:
  87 001c 7A500040 		.word	1073762426
  88              		.cfi_endproc
  89              	.LFE1:
  90              		.size	SPI_PULLUP_3_SetDriveMode, .-SPI_PULLUP_3_SetDriveMode
  91              		.section	.text.SPI_PULLUP_3_Read,"ax",%progbits
  92              		.align	1
  93              		.global	SPI_PULLUP_3_Read
  94              		.thumb
  95              		.thumb_func
  96              		.type	SPI_PULLUP_3_Read, %function
  97              	SPI_PULLUP_3_Read:
  98              	.LFB2:
  94:Generated_Source\PSoC5/SPI_PULLUP_3.c **** }
  95:Generated_Source\PSoC5/SPI_PULLUP_3.c **** 
  96:Generated_Source\PSoC5/SPI_PULLUP_3.c **** 
  97:Generated_Source\PSoC5/SPI_PULLUP_3.c **** /*******************************************************************************
  98:Generated_Source\PSoC5/SPI_PULLUP_3.c **** * Function Name: SPI_PULLUP_3_Read
  99:Generated_Source\PSoC5/SPI_PULLUP_3.c **** ****************************************************************************//**
 100:Generated_Source\PSoC5/SPI_PULLUP_3.c **** *
 101:Generated_Source\PSoC5/SPI_PULLUP_3.c **** * \brief Reads the associated physical port (pin status register) and masks 
 102:Generated_Source\PSoC5/SPI_PULLUP_3.c **** *  the required bits according to the width and bit position of the component
 103:Generated_Source\PSoC5/SPI_PULLUP_3.c **** *  instance. 
 104:Generated_Source\PSoC5/SPI_PULLUP_3.c **** *
 105:Generated_Source\PSoC5/SPI_PULLUP_3.c **** * The pin's status register returns the current logic level present on the 
 106:Generated_Source\PSoC5/SPI_PULLUP_3.c **** * physical pin.
 107:Generated_Source\PSoC5/SPI_PULLUP_3.c **** *
 108:Generated_Source\PSoC5/SPI_PULLUP_3.c **** * \return 
 109:Generated_Source\PSoC5/SPI_PULLUP_3.c **** *  The current value for the pins in the component as a right justified number.
 110:Generated_Source\PSoC5/SPI_PULLUP_3.c **** *
 111:Generated_Source\PSoC5/SPI_PULLUP_3.c **** * \funcusage
 112:Generated_Source\PSoC5/SPI_PULLUP_3.c **** *  \snippet SPI_PULLUP_3_SUT.c usage_SPI_PULLUP_3_Read  
 113:Generated_Source\PSoC5/SPI_PULLUP_3.c **** *******************************************************************************/
 114:Generated_Source\PSoC5/SPI_PULLUP_3.c **** uint8 SPI_PULLUP_3_Read(void)
 115:Generated_Source\PSoC5/SPI_PULLUP_3.c **** {
  99              		.loc 1 115 0
 100              		.cfi_startproc
 101              		@ args = 0, pretend = 0, frame = 0
 102              		@ frame_needed = 0, uses_anonymous_args = 0
 103              		@ link register save eliminated.
 116:Generated_Source\PSoC5/SPI_PULLUP_3.c ****     return (SPI_PULLUP_3_PS & SPI_PULLUP_3_MASK) >> SPI_PULLUP_3_SHIFT;
 104              		.loc 1 116 0
 105 0000 024B     		ldr	r3, .L8
 106 0002 1878     		ldrb	r0, [r3]	@ zero_extendqisi2
 117:Generated_Source\PSoC5/SPI_PULLUP_3.c **** }
 107              		.loc 1 117 0
 108 0004 C0F38100 		ubfx	r0, r0, #2, #2
 109 0008 7047     		bx	lr
 110              	.L9:
ARM GAS  C:\Users\rabbit\AppData\Local\Temp\ccpSu9WQ.s 			page 5


 111 000a 00BF     		.align	2
 112              	.L8:
 113 000c F1510040 		.word	1073762801
 114              		.cfi_endproc
 115              	.LFE2:
 116              		.size	SPI_PULLUP_3_Read, .-SPI_PULLUP_3_Read
 117              		.section	.text.SPI_PULLUP_3_ReadDataReg,"ax",%progbits
 118              		.align	1
 119              		.global	SPI_PULLUP_3_ReadDataReg
 120              		.thumb
 121              		.thumb_func
 122              		.type	SPI_PULLUP_3_ReadDataReg, %function
 123              	SPI_PULLUP_3_ReadDataReg:
 124              	.LFB3:
 118:Generated_Source\PSoC5/SPI_PULLUP_3.c **** 
 119:Generated_Source\PSoC5/SPI_PULLUP_3.c **** 
 120:Generated_Source\PSoC5/SPI_PULLUP_3.c **** /*******************************************************************************
 121:Generated_Source\PSoC5/SPI_PULLUP_3.c **** * Function Name: SPI_PULLUP_3_ReadDataReg
 122:Generated_Source\PSoC5/SPI_PULLUP_3.c **** ****************************************************************************//**
 123:Generated_Source\PSoC5/SPI_PULLUP_3.c **** *
 124:Generated_Source\PSoC5/SPI_PULLUP_3.c **** * \brief Reads the associated physical port's data output register and masks 
 125:Generated_Source\PSoC5/SPI_PULLUP_3.c **** *  the correct bits according to the width and bit position of the component 
 126:Generated_Source\PSoC5/SPI_PULLUP_3.c **** *  instance. 
 127:Generated_Source\PSoC5/SPI_PULLUP_3.c **** *
 128:Generated_Source\PSoC5/SPI_PULLUP_3.c **** * The data output register controls the signal applied to the physical pin in 
 129:Generated_Source\PSoC5/SPI_PULLUP_3.c **** * conjunction with the drive mode parameter. This is not the same as the 
 130:Generated_Source\PSoC5/SPI_PULLUP_3.c **** * preferred SPI_PULLUP_3_Read() API because the 
 131:Generated_Source\PSoC5/SPI_PULLUP_3.c **** * SPI_PULLUP_3_ReadDataReg() reads the data register instead of the status 
 132:Generated_Source\PSoC5/SPI_PULLUP_3.c **** * register. For output pins this is a useful function to determine the value 
 133:Generated_Source\PSoC5/SPI_PULLUP_3.c **** * just written to the pin.
 134:Generated_Source\PSoC5/SPI_PULLUP_3.c **** *
 135:Generated_Source\PSoC5/SPI_PULLUP_3.c **** * \return 
 136:Generated_Source\PSoC5/SPI_PULLUP_3.c **** *  The current value of the data register masked and shifted into a right 
 137:Generated_Source\PSoC5/SPI_PULLUP_3.c **** *  justified number for the component instance.
 138:Generated_Source\PSoC5/SPI_PULLUP_3.c **** *
 139:Generated_Source\PSoC5/SPI_PULLUP_3.c **** * \funcusage
 140:Generated_Source\PSoC5/SPI_PULLUP_3.c **** *  \snippet SPI_PULLUP_3_SUT.c usage_SPI_PULLUP_3_ReadDataReg 
 141:Generated_Source\PSoC5/SPI_PULLUP_3.c **** *******************************************************************************/
 142:Generated_Source\PSoC5/SPI_PULLUP_3.c **** uint8 SPI_PULLUP_3_ReadDataReg(void)
 143:Generated_Source\PSoC5/SPI_PULLUP_3.c **** {
 125              		.loc 1 143 0
 126              		.cfi_startproc
 127              		@ args = 0, pretend = 0, frame = 0
 128              		@ frame_needed = 0, uses_anonymous_args = 0
 129              		@ link register save eliminated.
 144:Generated_Source\PSoC5/SPI_PULLUP_3.c ****     return (SPI_PULLUP_3_DR & SPI_PULLUP_3_MASK) >> SPI_PULLUP_3_SHIFT;
 130              		.loc 1 144 0
 131 0000 024B     		ldr	r3, .L11
 132 0002 1878     		ldrb	r0, [r3]	@ zero_extendqisi2
 145:Generated_Source\PSoC5/SPI_PULLUP_3.c **** }
 133              		.loc 1 145 0
 134 0004 C0F38100 		ubfx	r0, r0, #2, #2
 135 0008 7047     		bx	lr
 136              	.L12:
 137 000a 00BF     		.align	2
 138              	.L11:
 139 000c F0510040 		.word	1073762800
ARM GAS  C:\Users\rabbit\AppData\Local\Temp\ccpSu9WQ.s 			page 6


 140              		.cfi_endproc
 141              	.LFE3:
 142              		.size	SPI_PULLUP_3_ReadDataReg, .-SPI_PULLUP_3_ReadDataReg
 143              		.text
 144              	.Letext0:
 145              		.file 2 "Generated_Source\\PSoC5\\cytypes.h"