ARM GAS  C:\Users\rabbit\AppData\Local\Temp\ccbFaJW4.s 			page 1


   1              		.syntax unified
   2              		.cpu cortex-m3
   3              		.fpu softvfp
   4              		.eabi_attribute 20, 1
   5              		.eabi_attribute 21, 1
   6              		.eabi_attribute 23, 3
   7              		.eabi_attribute 24, 1
   8              		.eabi_attribute 25, 1
   9              		.eabi_attribute 26, 1
  10              		.eabi_attribute 30, 4
  11              		.eabi_attribute 34, 1
  12              		.eabi_attribute 18, 4
  13              		.thumb
  14              		.syntax unified
  15              		.file	"SPI_PULLUP_1.c"
  16              		.text
  17              	.Ltext0:
  18              		.cfi_sections	.debug_frame
  19              		.section	.text.SPI_PULLUP_1_Write,"ax",%progbits
  20              		.align	1
  21              		.global	SPI_PULLUP_1_Write
  22              		.thumb
  23              		.thumb_func
  24              		.type	SPI_PULLUP_1_Write, %function
  25              	SPI_PULLUP_1_Write:
  26              	.LFB0:
  27              		.file 1 "Generated_Source\\PSoC5\\SPI_PULLUP_1.c"
   1:Generated_Source\PSoC5/SPI_PULLUP_1.c **** /*******************************************************************************
   2:Generated_Source\PSoC5/SPI_PULLUP_1.c **** * File Name: SPI_PULLUP_1.c  
   3:Generated_Source\PSoC5/SPI_PULLUP_1.c **** * Version 2.20
   4:Generated_Source\PSoC5/SPI_PULLUP_1.c **** *
   5:Generated_Source\PSoC5/SPI_PULLUP_1.c **** * Description:
   6:Generated_Source\PSoC5/SPI_PULLUP_1.c **** *  This file contains API to enable firmware control of a Pins component.
   7:Generated_Source\PSoC5/SPI_PULLUP_1.c **** *
   8:Generated_Source\PSoC5/SPI_PULLUP_1.c **** * Note:
   9:Generated_Source\PSoC5/SPI_PULLUP_1.c **** *
  10:Generated_Source\PSoC5/SPI_PULLUP_1.c **** ********************************************************************************
  11:Generated_Source\PSoC5/SPI_PULLUP_1.c **** * Copyright 2008-2015, Cypress Semiconductor Corporation.  All rights reserved.
  12:Generated_Source\PSoC5/SPI_PULLUP_1.c **** * You may use this file only in accordance with the license, terms, conditions, 
  13:Generated_Source\PSoC5/SPI_PULLUP_1.c **** * disclaimers, and limitations in the end user license agreement accompanying 
  14:Generated_Source\PSoC5/SPI_PULLUP_1.c **** * the software package with which this file was provided.
  15:Generated_Source\PSoC5/SPI_PULLUP_1.c **** *******************************************************************************/
  16:Generated_Source\PSoC5/SPI_PULLUP_1.c **** 
  17:Generated_Source\PSoC5/SPI_PULLUP_1.c **** #include "cytypes.h"
  18:Generated_Source\PSoC5/SPI_PULLUP_1.c **** #include "SPI_PULLUP_1.h"
  19:Generated_Source\PSoC5/SPI_PULLUP_1.c **** 
  20:Generated_Source\PSoC5/SPI_PULLUP_1.c **** /* APIs are not generated for P15[7:6] on PSoC 5 */
  21:Generated_Source\PSoC5/SPI_PULLUP_1.c **** #if !(CY_PSOC5A &&\
  22:Generated_Source\PSoC5/SPI_PULLUP_1.c **** 	 SPI_PULLUP_1__PORT == 15 && ((SPI_PULLUP_1__MASK & 0xC0) != 0))
  23:Generated_Source\PSoC5/SPI_PULLUP_1.c **** 
  24:Generated_Source\PSoC5/SPI_PULLUP_1.c **** 
  25:Generated_Source\PSoC5/SPI_PULLUP_1.c **** /*******************************************************************************
  26:Generated_Source\PSoC5/SPI_PULLUP_1.c **** * Function Name: SPI_PULLUP_1_Write
  27:Generated_Source\PSoC5/SPI_PULLUP_1.c **** ****************************************************************************//**
  28:Generated_Source\PSoC5/SPI_PULLUP_1.c **** *
  29:Generated_Source\PSoC5/SPI_PULLUP_1.c **** * \brief Writes the value to the physical port (data output register), masking
  30:Generated_Source\PSoC5/SPI_PULLUP_1.c **** *  and shifting the bits appropriately. 
ARM GAS  C:\Users\rabbit\AppData\Local\Temp\ccbFaJW4.s 			page 2


  31:Generated_Source\PSoC5/SPI_PULLUP_1.c **** *
  32:Generated_Source\PSoC5/SPI_PULLUP_1.c **** * The data output register controls the signal applied to the physical pin in 
  33:Generated_Source\PSoC5/SPI_PULLUP_1.c **** * conjunction with the drive mode parameter. This function avoids changing 
  34:Generated_Source\PSoC5/SPI_PULLUP_1.c **** * other bits in the port by using the appropriate method (read-modify-write or
  35:Generated_Source\PSoC5/SPI_PULLUP_1.c **** * bit banding).
  36:Generated_Source\PSoC5/SPI_PULLUP_1.c **** *
  37:Generated_Source\PSoC5/SPI_PULLUP_1.c **** * <b>Note</b> This function should not be used on a hardware digital output pin 
  38:Generated_Source\PSoC5/SPI_PULLUP_1.c **** * as it is driven by the hardware signal attached to it.
  39:Generated_Source\PSoC5/SPI_PULLUP_1.c **** *
  40:Generated_Source\PSoC5/SPI_PULLUP_1.c **** * \param value
  41:Generated_Source\PSoC5/SPI_PULLUP_1.c **** *  Value to write to the component instance.
  42:Generated_Source\PSoC5/SPI_PULLUP_1.c **** *
  43:Generated_Source\PSoC5/SPI_PULLUP_1.c **** * \return 
  44:Generated_Source\PSoC5/SPI_PULLUP_1.c **** *  None 
  45:Generated_Source\PSoC5/SPI_PULLUP_1.c **** *
  46:Generated_Source\PSoC5/SPI_PULLUP_1.c **** * \sideeffect
  47:Generated_Source\PSoC5/SPI_PULLUP_1.c **** *  If you use read-modify-write operations that are not atomic; the Interrupt 
  48:Generated_Source\PSoC5/SPI_PULLUP_1.c **** *  Service Routines (ISR) can cause corruption of this function. An ISR that 
  49:Generated_Source\PSoC5/SPI_PULLUP_1.c **** *  interrupts this function and performs writes to the Pins component data 
  50:Generated_Source\PSoC5/SPI_PULLUP_1.c **** *  register can cause corrupted port data. To avoid this issue, you should 
  51:Generated_Source\PSoC5/SPI_PULLUP_1.c **** *  either use the Per-Pin APIs (primary method) or disable interrupts around 
  52:Generated_Source\PSoC5/SPI_PULLUP_1.c **** *  this function.
  53:Generated_Source\PSoC5/SPI_PULLUP_1.c **** *
  54:Generated_Source\PSoC5/SPI_PULLUP_1.c **** * \funcusage
  55:Generated_Source\PSoC5/SPI_PULLUP_1.c **** *  \snippet SPI_PULLUP_1_SUT.c usage_SPI_PULLUP_1_Write
  56:Generated_Source\PSoC5/SPI_PULLUP_1.c **** *******************************************************************************/
  57:Generated_Source\PSoC5/SPI_PULLUP_1.c **** void SPI_PULLUP_1_Write(uint8 value)
  58:Generated_Source\PSoC5/SPI_PULLUP_1.c **** {
  28              		.loc 1 58 0
  29              		.cfi_startproc
  30              		@ args = 0, pretend = 0, frame = 0
  31              		@ frame_needed = 0, uses_anonymous_args = 0
  32              		@ link register save eliminated.
  33              	.LVL0:
  59:Generated_Source\PSoC5/SPI_PULLUP_1.c ****     uint8 staticBits = (SPI_PULLUP_1_DR & (uint8)(~SPI_PULLUP_1_MASK));
  34              		.loc 1 59 0
  35 0000 044A     		ldr	r2, .L2
  36 0002 1378     		ldrb	r3, [r2]	@ zero_extendqisi2
  37              	.LVL1:
  60:Generated_Source\PSoC5/SPI_PULLUP_1.c ****     SPI_PULLUP_1_DR = staticBits | ((uint8)(value << SPI_PULLUP_1_SHIFT) & SPI_PULLUP_1_MASK);
  38              		.loc 1 60 0
  39 0004 03F03F03 		and	r3, r3, #63
  40              	.LVL2:
  41 0008 43EA8010 		orr	r0, r3, r0, lsl #6
  42              	.LVL3:
  43 000c C0B2     		uxtb	r0, r0
  44 000e 1070     		strb	r0, [r2]
  45 0010 7047     		bx	lr
  46              	.L3:
  47 0012 00BF     		.align	2
  48              	.L2:
  49 0014 30510040 		.word	1073762608
  50              		.cfi_endproc
  51              	.LFE0:
  52              		.size	SPI_PULLUP_1_Write, .-SPI_PULLUP_1_Write
  53              		.section	.text.SPI_PULLUP_1_SetDriveMode,"ax",%progbits
  54              		.align	1
ARM GAS  C:\Users\rabbit\AppData\Local\Temp\ccbFaJW4.s 			page 3


  55              		.global	SPI_PULLUP_1_SetDriveMode
  56              		.thumb
  57              		.thumb_func
  58              		.type	SPI_PULLUP_1_SetDriveMode, %function
  59              	SPI_PULLUP_1_SetDriveMode:
  60              	.LFB1:
  61:Generated_Source\PSoC5/SPI_PULLUP_1.c **** }
  62:Generated_Source\PSoC5/SPI_PULLUP_1.c **** 
  63:Generated_Source\PSoC5/SPI_PULLUP_1.c **** 
  64:Generated_Source\PSoC5/SPI_PULLUP_1.c **** /*******************************************************************************
  65:Generated_Source\PSoC5/SPI_PULLUP_1.c **** * Function Name: SPI_PULLUP_1_SetDriveMode
  66:Generated_Source\PSoC5/SPI_PULLUP_1.c **** ****************************************************************************//**
  67:Generated_Source\PSoC5/SPI_PULLUP_1.c **** *
  68:Generated_Source\PSoC5/SPI_PULLUP_1.c **** * \brief Sets the drive mode for each of the Pins component's pins.
  69:Generated_Source\PSoC5/SPI_PULLUP_1.c **** * 
  70:Generated_Source\PSoC5/SPI_PULLUP_1.c **** * <b>Note</b> This affects all pins in the Pins component instance. Use the
  71:Generated_Source\PSoC5/SPI_PULLUP_1.c **** * Per-Pin APIs if you wish to control individual pin's drive modes.
  72:Generated_Source\PSoC5/SPI_PULLUP_1.c **** *
  73:Generated_Source\PSoC5/SPI_PULLUP_1.c **** * \param mode
  74:Generated_Source\PSoC5/SPI_PULLUP_1.c **** *  Mode for the selected signals. Valid options are documented in 
  75:Generated_Source\PSoC5/SPI_PULLUP_1.c **** *  \ref driveMode.
  76:Generated_Source\PSoC5/SPI_PULLUP_1.c **** *
  77:Generated_Source\PSoC5/SPI_PULLUP_1.c **** * \return
  78:Generated_Source\PSoC5/SPI_PULLUP_1.c **** *  None
  79:Generated_Source\PSoC5/SPI_PULLUP_1.c **** *
  80:Generated_Source\PSoC5/SPI_PULLUP_1.c **** * \sideeffect
  81:Generated_Source\PSoC5/SPI_PULLUP_1.c **** *  If you use read-modify-write operations that are not atomic, the ISR can
  82:Generated_Source\PSoC5/SPI_PULLUP_1.c **** *  cause corruption of this function. An ISR that interrupts this function 
  83:Generated_Source\PSoC5/SPI_PULLUP_1.c **** *  and performs writes to the Pins component Drive Mode registers can cause 
  84:Generated_Source\PSoC5/SPI_PULLUP_1.c **** *  corrupted port data. To avoid this issue, you should either use the Per-Pin
  85:Generated_Source\PSoC5/SPI_PULLUP_1.c **** *  APIs (primary method) or disable interrupts around this function.
  86:Generated_Source\PSoC5/SPI_PULLUP_1.c **** *
  87:Generated_Source\PSoC5/SPI_PULLUP_1.c **** * \funcusage
  88:Generated_Source\PSoC5/SPI_PULLUP_1.c **** *  \snippet SPI_PULLUP_1_SUT.c usage_SPI_PULLUP_1_SetDriveMode
  89:Generated_Source\PSoC5/SPI_PULLUP_1.c **** *******************************************************************************/
  90:Generated_Source\PSoC5/SPI_PULLUP_1.c **** void SPI_PULLUP_1_SetDriveMode(uint8 mode)
  91:Generated_Source\PSoC5/SPI_PULLUP_1.c **** {
  61              		.loc 1 91 0
  62              		.cfi_startproc
  63              		@ args = 0, pretend = 0, frame = 0
  64              		@ frame_needed = 0, uses_anonymous_args = 0
  65              		@ link register save eliminated.
  66              	.LVL4:
  92:Generated_Source\PSoC5/SPI_PULLUP_1.c **** 	CyPins_SetPinDriveMode(SPI_PULLUP_1_0, mode);
  67              		.loc 1 92 0
  68 0000 064A     		ldr	r2, .L5
  69 0002 00F00E00 		and	r0, r0, #14
  70              	.LVL5:
  71 0006 1378     		ldrb	r3, [r2]	@ zero_extendqisi2
  72 0008 03F0F103 		and	r3, r3, #241
  73 000c 0343     		orrs	r3, r3, r0
  74 000e 1370     		strb	r3, [r2]
  93:Generated_Source\PSoC5/SPI_PULLUP_1.c **** 	CyPins_SetPinDriveMode(SPI_PULLUP_1_1, mode);
  75              		.loc 1 93 0
  76 0010 5378     		ldrb	r3, [r2, #1]	@ zero_extendqisi2
  77 0012 03F0F103 		and	r3, r3, #241
  78 0016 1843     		orrs	r0, r0, r3
ARM GAS  C:\Users\rabbit\AppData\Local\Temp\ccbFaJW4.s 			page 4


  79 0018 5070     		strb	r0, [r2, #1]
  80 001a 7047     		bx	lr
  81              	.L6:
  82              		.align	2
  83              	.L5:
  84 001c 1E500040 		.word	1073762334
  85              		.cfi_endproc
  86              	.LFE1:
  87              		.size	SPI_PULLUP_1_SetDriveMode, .-SPI_PULLUP_1_SetDriveMode
  88              		.section	.text.SPI_PULLUP_1_Read,"ax",%progbits
  89              		.align	1
  90              		.global	SPI_PULLUP_1_Read
  91              		.thumb
  92              		.thumb_func
  93              		.type	SPI_PULLUP_1_Read, %function
  94              	SPI_PULLUP_1_Read:
  95              	.LFB2:
  94:Generated_Source\PSoC5/SPI_PULLUP_1.c **** }
  95:Generated_Source\PSoC5/SPI_PULLUP_1.c **** 
  96:Generated_Source\PSoC5/SPI_PULLUP_1.c **** 
  97:Generated_Source\PSoC5/SPI_PULLUP_1.c **** /*******************************************************************************
  98:Generated_Source\PSoC5/SPI_PULLUP_1.c **** * Function Name: SPI_PULLUP_1_Read
  99:Generated_Source\PSoC5/SPI_PULLUP_1.c **** ****************************************************************************//**
 100:Generated_Source\PSoC5/SPI_PULLUP_1.c **** *
 101:Generated_Source\PSoC5/SPI_PULLUP_1.c **** * \brief Reads the associated physical port (pin status register) and masks 
 102:Generated_Source\PSoC5/SPI_PULLUP_1.c **** *  the required bits according to the width and bit position of the component
 103:Generated_Source\PSoC5/SPI_PULLUP_1.c **** *  instance. 
 104:Generated_Source\PSoC5/SPI_PULLUP_1.c **** *
 105:Generated_Source\PSoC5/SPI_PULLUP_1.c **** * The pin's status register returns the current logic level present on the 
 106:Generated_Source\PSoC5/SPI_PULLUP_1.c **** * physical pin.
 107:Generated_Source\PSoC5/SPI_PULLUP_1.c **** *
 108:Generated_Source\PSoC5/SPI_PULLUP_1.c **** * \return 
 109:Generated_Source\PSoC5/SPI_PULLUP_1.c **** *  The current value for the pins in the component as a right justified number.
 110:Generated_Source\PSoC5/SPI_PULLUP_1.c **** *
 111:Generated_Source\PSoC5/SPI_PULLUP_1.c **** * \funcusage
 112:Generated_Source\PSoC5/SPI_PULLUP_1.c **** *  \snippet SPI_PULLUP_1_SUT.c usage_SPI_PULLUP_1_Read  
 113:Generated_Source\PSoC5/SPI_PULLUP_1.c **** *******************************************************************************/
 114:Generated_Source\PSoC5/SPI_PULLUP_1.c **** uint8 SPI_PULLUP_1_Read(void)
 115:Generated_Source\PSoC5/SPI_PULLUP_1.c **** {
  96              		.loc 1 115 0
  97              		.cfi_startproc
  98              		@ args = 0, pretend = 0, frame = 0
  99              		@ frame_needed = 0, uses_anonymous_args = 0
 100              		@ link register save eliminated.
 116:Generated_Source\PSoC5/SPI_PULLUP_1.c ****     return (SPI_PULLUP_1_PS & SPI_PULLUP_1_MASK) >> SPI_PULLUP_1_SHIFT;
 101              		.loc 1 116 0
 102 0000 014B     		ldr	r3, .L8
 103 0002 1878     		ldrb	r0, [r3]	@ zero_extendqisi2
 117:Generated_Source\PSoC5/SPI_PULLUP_1.c **** }
 104              		.loc 1 117 0
 105 0004 8009     		lsrs	r0, r0, #6
 106 0006 7047     		bx	lr
 107              	.L9:
 108              		.align	2
 109              	.L8:
 110 0008 31510040 		.word	1073762609
 111              		.cfi_endproc
ARM GAS  C:\Users\rabbit\AppData\Local\Temp\ccbFaJW4.s 			page 5


 112              	.LFE2:
 113              		.size	SPI_PULLUP_1_Read, .-SPI_PULLUP_1_Read
 114              		.section	.text.SPI_PULLUP_1_ReadDataReg,"ax",%progbits
 115              		.align	1
 116              		.global	SPI_PULLUP_1_ReadDataReg
 117              		.thumb
 118              		.thumb_func
 119              		.type	SPI_PULLUP_1_ReadDataReg, %function
 120              	SPI_PULLUP_1_ReadDataReg:
 121              	.LFB3:
 118:Generated_Source\PSoC5/SPI_PULLUP_1.c **** 
 119:Generated_Source\PSoC5/SPI_PULLUP_1.c **** 
 120:Generated_Source\PSoC5/SPI_PULLUP_1.c **** /*******************************************************************************
 121:Generated_Source\PSoC5/SPI_PULLUP_1.c **** * Function Name: SPI_PULLUP_1_ReadDataReg
 122:Generated_Source\PSoC5/SPI_PULLUP_1.c **** ****************************************************************************//**
 123:Generated_Source\PSoC5/SPI_PULLUP_1.c **** *
 124:Generated_Source\PSoC5/SPI_PULLUP_1.c **** * \brief Reads the associated physical port's data output register and masks 
 125:Generated_Source\PSoC5/SPI_PULLUP_1.c **** *  the correct bits according to the width and bit position of the component 
 126:Generated_Source\PSoC5/SPI_PULLUP_1.c **** *  instance. 
 127:Generated_Source\PSoC5/SPI_PULLUP_1.c **** *
 128:Generated_Source\PSoC5/SPI_PULLUP_1.c **** * The data output register controls the signal applied to the physical pin in 
 129:Generated_Source\PSoC5/SPI_PULLUP_1.c **** * conjunction with the drive mode parameter. This is not the same as the 
 130:Generated_Source\PSoC5/SPI_PULLUP_1.c **** * preferred SPI_PULLUP_1_Read() API because the 
 131:Generated_Source\PSoC5/SPI_PULLUP_1.c **** * SPI_PULLUP_1_ReadDataReg() reads the data register instead of the status 
 132:Generated_Source\PSoC5/SPI_PULLUP_1.c **** * register. For output pins this is a useful function to determine the value 
 133:Generated_Source\PSoC5/SPI_PULLUP_1.c **** * just written to the pin.
 134:Generated_Source\PSoC5/SPI_PULLUP_1.c **** *
 135:Generated_Source\PSoC5/SPI_PULLUP_1.c **** * \return 
 136:Generated_Source\PSoC5/SPI_PULLUP_1.c **** *  The current value of the data register masked and shifted into a right 
 137:Generated_Source\PSoC5/SPI_PULLUP_1.c **** *  justified number for the component instance.
 138:Generated_Source\PSoC5/SPI_PULLUP_1.c **** *
 139:Generated_Source\PSoC5/SPI_PULLUP_1.c **** * \funcusage
 140:Generated_Source\PSoC5/SPI_PULLUP_1.c **** *  \snippet SPI_PULLUP_1_SUT.c usage_SPI_PULLUP_1_ReadDataReg 
 141:Generated_Source\PSoC5/SPI_PULLUP_1.c **** *******************************************************************************/
 142:Generated_Source\PSoC5/SPI_PULLUP_1.c **** uint8 SPI_PULLUP_1_ReadDataReg(void)
 143:Generated_Source\PSoC5/SPI_PULLUP_1.c **** {
 122              		.loc 1 143 0
 123              		.cfi_startproc
 124              		@ args = 0, pretend = 0, frame = 0
 125              		@ frame_needed = 0, uses_anonymous_args = 0
 126              		@ link register save eliminated.
 144:Generated_Source\PSoC5/SPI_PULLUP_1.c ****     return (SPI_PULLUP_1_DR & SPI_PULLUP_1_MASK) >> SPI_PULLUP_1_SHIFT;
 127              		.loc 1 144 0
 128 0000 014B     		ldr	r3, .L11
 129 0002 1878     		ldrb	r0, [r3]	@ zero_extendqisi2
 145:Generated_Source\PSoC5/SPI_PULLUP_1.c **** }
 130              		.loc 1 145 0
 131 0004 8009     		lsrs	r0, r0, #6
 132 0006 7047     		bx	lr
 133              	.L12:
 134              		.align	2
 135              	.L11:
 136 0008 30510040 		.word	1073762608
 137              		.cfi_endproc
 138              	.LFE3:
 139              		.size	SPI_PULLUP_1_ReadDataReg, .-SPI_PULLUP_1_ReadDataReg
 140              		.text
ARM GAS  C:\Users\rabbit\AppData\Local\Temp\ccbFaJW4.s 			page 6


 141              	.Letext0:
 142              		.file 2 "Generated_Source\\PSoC5\\cytypes.h"