ARM GAS  C:\Users\rabbit\AppData\Local\Temp\cccb5bWv.s 			page 1


   1              		.syntax unified
   2              		.cpu cortex-m3
   3              		.fpu softvfp
   4              		.eabi_attribute 20, 1
   5              		.eabi_attribute 21, 1
   6              		.eabi_attribute 23, 3
   7              		.eabi_attribute 24, 1
   8              		.eabi_attribute 25, 1
   9              		.eabi_attribute 26, 1
  10              		.eabi_attribute 30, 4
  11              		.eabi_attribute 34, 1
  12              		.eabi_attribute 18, 4
  13              		.thumb
  14              		.syntax unified
  15              		.file	"USBFS_std.c"
  16              		.text
  17              	.Ltext0:
  18              		.cfi_sections	.debug_frame
  19              		.section	.text.USBFS_ConfigReg,"ax",%progbits
  20              		.align	1
  21              		.global	USBFS_ConfigReg
  22              		.thumb
  23              		.thumb_func
  24              		.type	USBFS_ConfigReg, %function
  25              	USBFS_ConfigReg:
  26              	.LFB1:
  27              		.file 1 "Generated_Source\\PSoC5\\USBFS_std.c"
   1:Generated_Source\PSoC5/USBFS_std.c **** /***************************************************************************//**
   2:Generated_Source\PSoC5/USBFS_std.c **** * \file USBFS_std.c
   3:Generated_Source\PSoC5/USBFS_std.c **** * \version 3.20
   4:Generated_Source\PSoC5/USBFS_std.c **** *
   5:Generated_Source\PSoC5/USBFS_std.c **** * \brief
   6:Generated_Source\PSoC5/USBFS_std.c **** *  This file contains the USB Standard request handler.
   7:Generated_Source\PSoC5/USBFS_std.c **** *
   8:Generated_Source\PSoC5/USBFS_std.c **** ********************************************************************************
   9:Generated_Source\PSoC5/USBFS_std.c **** * \copyright
  10:Generated_Source\PSoC5/USBFS_std.c **** * Copyright 2008-2016, Cypress Semiconductor Corporation.  All rights reserved.
  11:Generated_Source\PSoC5/USBFS_std.c **** * You may use this file only in accordance with the license, terms, conditions,
  12:Generated_Source\PSoC5/USBFS_std.c **** * disclaimers, and limitations in the end user license agreement accompanying
  13:Generated_Source\PSoC5/USBFS_std.c **** * the software package with which this file was provided.
  14:Generated_Source\PSoC5/USBFS_std.c **** *******************************************************************************/
  15:Generated_Source\PSoC5/USBFS_std.c **** 
  16:Generated_Source\PSoC5/USBFS_std.c **** #include "USBFS_pvt.h"
  17:Generated_Source\PSoC5/USBFS_std.c **** 
  18:Generated_Source\PSoC5/USBFS_std.c **** /***************************************
  19:Generated_Source\PSoC5/USBFS_std.c **** *   Static data allocation
  20:Generated_Source\PSoC5/USBFS_std.c **** ***************************************/
  21:Generated_Source\PSoC5/USBFS_std.c **** 
  22:Generated_Source\PSoC5/USBFS_std.c **** #if defined(USBFS_ENABLE_FWSN_STRING)
  23:Generated_Source\PSoC5/USBFS_std.c ****     static volatile uint8* USBFS_fwSerialNumberStringDescriptor;
  24:Generated_Source\PSoC5/USBFS_std.c ****     static volatile uint8  USBFS_snStringConfirm = USBFS_FALSE;
  25:Generated_Source\PSoC5/USBFS_std.c **** #endif  /* (USBFS_ENABLE_FWSN_STRING) */
  26:Generated_Source\PSoC5/USBFS_std.c **** 
  27:Generated_Source\PSoC5/USBFS_std.c **** #if defined(USBFS_ENABLE_FWSN_STRING)
  28:Generated_Source\PSoC5/USBFS_std.c ****     /***************************************************************************
  29:Generated_Source\PSoC5/USBFS_std.c ****     * Function Name: USBFS_SerialNumString
  30:Generated_Source\PSoC5/USBFS_std.c ****     ************************************************************************//**
ARM GAS  C:\Users\rabbit\AppData\Local\Temp\cccb5bWv.s 			page 2


  31:Generated_Source\PSoC5/USBFS_std.c ****     *
  32:Generated_Source\PSoC5/USBFS_std.c ****     *  This function is available only when the User Call Back option in the 
  33:Generated_Source\PSoC5/USBFS_std.c ****     *  Serial Number String descriptor properties is selected. Application 
  34:Generated_Source\PSoC5/USBFS_std.c ****     *  firmware can provide the source of the USB device serial number string 
  35:Generated_Source\PSoC5/USBFS_std.c ****     *  descriptor during run time. The default string is used if the application 
  36:Generated_Source\PSoC5/USBFS_std.c ****     *  firmware does not use this function or sets the wrong string descriptor.
  37:Generated_Source\PSoC5/USBFS_std.c ****     *
  38:Generated_Source\PSoC5/USBFS_std.c ****     *  \param snString:  Pointer to the user-defined string descriptor. The 
  39:Generated_Source\PSoC5/USBFS_std.c ****     *  string descriptor should meet the Universal Serial Bus Specification 
  40:Generated_Source\PSoC5/USBFS_std.c ****     *  revision 2.0 chapter 9.6.7
  41:Generated_Source\PSoC5/USBFS_std.c ****     *  Offset|Size|Value|Description
  42:Generated_Source\PSoC5/USBFS_std.c ****     *  ------|----|------|---------------------------------
  43:Generated_Source\PSoC5/USBFS_std.c ****     *  0     |1   |N     |Size of this descriptor in bytes
  44:Generated_Source\PSoC5/USBFS_std.c ****     *  1     |1   |0x03  |STRING Descriptor Type
  45:Generated_Source\PSoC5/USBFS_std.c ****     *  2     |N-2 |Number|UNICODE encoded string
  46:Generated_Source\PSoC5/USBFS_std.c ****     *  
  47:Generated_Source\PSoC5/USBFS_std.c ****     * *For example:* uint8 snString[16]={0x0E,0x03,'F',0,'W',0,'S',0,'N',0,'0',0,'1',0};
  48:Generated_Source\PSoC5/USBFS_std.c ****     *
  49:Generated_Source\PSoC5/USBFS_std.c ****     * \reentrant
  50:Generated_Source\PSoC5/USBFS_std.c ****     *  No.
  51:Generated_Source\PSoC5/USBFS_std.c ****     *
  52:Generated_Source\PSoC5/USBFS_std.c ****     ***************************************************************************/
  53:Generated_Source\PSoC5/USBFS_std.c ****     void  USBFS_SerialNumString(uint8 snString[]) 
  54:Generated_Source\PSoC5/USBFS_std.c ****     {
  55:Generated_Source\PSoC5/USBFS_std.c ****         USBFS_snStringConfirm = USBFS_FALSE;
  56:Generated_Source\PSoC5/USBFS_std.c ****         
  57:Generated_Source\PSoC5/USBFS_std.c ****         if (snString != NULL)
  58:Generated_Source\PSoC5/USBFS_std.c ****         {
  59:Generated_Source\PSoC5/USBFS_std.c ****             /* Check descriptor validation */
  60:Generated_Source\PSoC5/USBFS_std.c ****             if ((snString[0u] > 1u) && (snString[1u] == USBFS_DESCR_STRING))
  61:Generated_Source\PSoC5/USBFS_std.c ****             {
  62:Generated_Source\PSoC5/USBFS_std.c ****                 USBFS_fwSerialNumberStringDescriptor = snString;
  63:Generated_Source\PSoC5/USBFS_std.c ****                 USBFS_snStringConfirm = USBFS_TRUE;
  64:Generated_Source\PSoC5/USBFS_std.c ****             }
  65:Generated_Source\PSoC5/USBFS_std.c ****         }
  66:Generated_Source\PSoC5/USBFS_std.c ****     }
  67:Generated_Source\PSoC5/USBFS_std.c **** #endif  /* USBFS_ENABLE_FWSN_STRING */
  68:Generated_Source\PSoC5/USBFS_std.c **** 
  69:Generated_Source\PSoC5/USBFS_std.c **** 
  70:Generated_Source\PSoC5/USBFS_std.c **** /*******************************************************************************
  71:Generated_Source\PSoC5/USBFS_std.c **** * Function Name: USBFS_HandleStandardRqst
  72:Generated_Source\PSoC5/USBFS_std.c **** ****************************************************************************//**
  73:Generated_Source\PSoC5/USBFS_std.c **** *
  74:Generated_Source\PSoC5/USBFS_std.c **** *  This Routine dispatches standard requests
  75:Generated_Source\PSoC5/USBFS_std.c **** *
  76:Generated_Source\PSoC5/USBFS_std.c **** *
  77:Generated_Source\PSoC5/USBFS_std.c **** * \return
  78:Generated_Source\PSoC5/USBFS_std.c **** *  TRUE if request handled.
  79:Generated_Source\PSoC5/USBFS_std.c **** *
  80:Generated_Source\PSoC5/USBFS_std.c **** * \reentrant
  81:Generated_Source\PSoC5/USBFS_std.c **** *  No.
  82:Generated_Source\PSoC5/USBFS_std.c **** *
  83:Generated_Source\PSoC5/USBFS_std.c **** *******************************************************************************/
  84:Generated_Source\PSoC5/USBFS_std.c **** uint8 USBFS_HandleStandardRqst(void) 
  85:Generated_Source\PSoC5/USBFS_std.c **** {
  86:Generated_Source\PSoC5/USBFS_std.c ****     uint8 requestHandled = USBFS_FALSE;
  87:Generated_Source\PSoC5/USBFS_std.c ****     uint8 interfaceNumber;
ARM GAS  C:\Users\rabbit\AppData\Local\Temp\cccb5bWv.s 			page 3


  88:Generated_Source\PSoC5/USBFS_std.c ****     uint8 configurationN;
  89:Generated_Source\PSoC5/USBFS_std.c ****     uint8 bmRequestType = USBFS_bmRequestTypeReg;
  90:Generated_Source\PSoC5/USBFS_std.c **** 
  91:Generated_Source\PSoC5/USBFS_std.c **** #if defined(USBFS_ENABLE_STRINGS)
  92:Generated_Source\PSoC5/USBFS_std.c ****     volatile uint8 *pStr = 0u;
  93:Generated_Source\PSoC5/USBFS_std.c ****     #if defined(USBFS_ENABLE_DESCRIPTOR_STRINGS)
  94:Generated_Source\PSoC5/USBFS_std.c ****         uint8 nStr;
  95:Generated_Source\PSoC5/USBFS_std.c ****         uint8 descrLength;
  96:Generated_Source\PSoC5/USBFS_std.c ****     #endif /* (USBFS_ENABLE_DESCRIPTOR_STRINGS) */
  97:Generated_Source\PSoC5/USBFS_std.c **** #endif /* (USBFS_ENABLE_STRINGS) */
  98:Generated_Source\PSoC5/USBFS_std.c ****     
  99:Generated_Source\PSoC5/USBFS_std.c ****     static volatile uint8 USBFS_tBuffer[USBFS_STATUS_LENGTH_MAX];
 100:Generated_Source\PSoC5/USBFS_std.c ****     const T_USBFS_LUT CYCODE *pTmp;
 101:Generated_Source\PSoC5/USBFS_std.c **** 
 102:Generated_Source\PSoC5/USBFS_std.c ****     USBFS_currentTD.count = 0u;
 103:Generated_Source\PSoC5/USBFS_std.c **** 
 104:Generated_Source\PSoC5/USBFS_std.c ****     if (USBFS_RQST_DIR_D2H == (bmRequestType & USBFS_RQST_DIR_MASK))
 105:Generated_Source\PSoC5/USBFS_std.c ****     {
 106:Generated_Source\PSoC5/USBFS_std.c ****         /* Control Read */
 107:Generated_Source\PSoC5/USBFS_std.c ****         switch (USBFS_bRequestReg)
 108:Generated_Source\PSoC5/USBFS_std.c ****         {
 109:Generated_Source\PSoC5/USBFS_std.c ****             case USBFS_GET_DESCRIPTOR:
 110:Generated_Source\PSoC5/USBFS_std.c ****                 if (USBFS_DESCR_DEVICE ==USBFS_wValueHiReg)
 111:Generated_Source\PSoC5/USBFS_std.c ****                 {
 112:Generated_Source\PSoC5/USBFS_std.c ****                     pTmp = USBFS_GetDeviceTablePtr();
 113:Generated_Source\PSoC5/USBFS_std.c ****                     USBFS_currentTD.pData = (volatile uint8 *)pTmp->p_list;
 114:Generated_Source\PSoC5/USBFS_std.c ****                     USBFS_currentTD.count = USBFS_DEVICE_DESCR_LENGTH;
 115:Generated_Source\PSoC5/USBFS_std.c ****                     
 116:Generated_Source\PSoC5/USBFS_std.c ****                     requestHandled  = USBFS_InitControlRead();
 117:Generated_Source\PSoC5/USBFS_std.c ****                 }
 118:Generated_Source\PSoC5/USBFS_std.c ****                 else if (USBFS_DESCR_CONFIG == USBFS_wValueHiReg)
 119:Generated_Source\PSoC5/USBFS_std.c ****                 {
 120:Generated_Source\PSoC5/USBFS_std.c ****                     pTmp = USBFS_GetConfigTablePtr((uint8) USBFS_wValueLoReg);
 121:Generated_Source\PSoC5/USBFS_std.c ****                     
 122:Generated_Source\PSoC5/USBFS_std.c ****                     /* Verify that requested descriptor exists */
 123:Generated_Source\PSoC5/USBFS_std.c ****                     if (pTmp != NULL)
 124:Generated_Source\PSoC5/USBFS_std.c ****                     {
 125:Generated_Source\PSoC5/USBFS_std.c ****                         USBFS_currentTD.pData = (volatile uint8 *)pTmp->p_list;
 126:Generated_Source\PSoC5/USBFS_std.c ****                         USBFS_currentTD.count = (uint16)((uint16)(USBFS_currentTD.pData)[USBFS_CONF
 127:Generated_Source\PSoC5/USBFS_std.c ****                                                                             (USBFS_currentTD.pData)
 128:Generated_Source\PSoC5/USBFS_std.c ****                         requestHandled  = USBFS_InitControlRead();
 129:Generated_Source\PSoC5/USBFS_std.c ****                     }
 130:Generated_Source\PSoC5/USBFS_std.c ****                 }
 131:Generated_Source\PSoC5/USBFS_std.c ****                 
 132:Generated_Source\PSoC5/USBFS_std.c ****             #if(USBFS_BOS_ENABLE)
 133:Generated_Source\PSoC5/USBFS_std.c ****                 else if (USBFS_DESCR_BOS == USBFS_wValueHiReg)
 134:Generated_Source\PSoC5/USBFS_std.c ****                 {
 135:Generated_Source\PSoC5/USBFS_std.c ****                     pTmp = USBFS_GetBOSPtr();
 136:Generated_Source\PSoC5/USBFS_std.c ****                     
 137:Generated_Source\PSoC5/USBFS_std.c ****                     /* Verify that requested descriptor exists */
 138:Generated_Source\PSoC5/USBFS_std.c ****                     if (pTmp != NULL)
 139:Generated_Source\PSoC5/USBFS_std.c ****                     {
 140:Generated_Source\PSoC5/USBFS_std.c ****                         USBFS_currentTD.pData = (volatile uint8 *)pTmp;
 141:Generated_Source\PSoC5/USBFS_std.c ****                         USBFS_currentTD.count = ((uint16)((uint16)(USBFS_currentTD.pData)[USBFS_BOS
 142:Generated_Source\PSoC5/USBFS_std.c ****                                                                              (USBFS_currentTD.pData
 143:Generated_Source\PSoC5/USBFS_std.c ****                         requestHandled  = USBFS_InitControlRead();
 144:Generated_Source\PSoC5/USBFS_std.c ****                     }
ARM GAS  C:\Users\rabbit\AppData\Local\Temp\cccb5bWv.s 			page 4


 145:Generated_Source\PSoC5/USBFS_std.c ****                 }
 146:Generated_Source\PSoC5/USBFS_std.c ****             #endif /*(USBFS_BOS_ENABLE)*/
 147:Generated_Source\PSoC5/USBFS_std.c ****             
 148:Generated_Source\PSoC5/USBFS_std.c ****             #if defined(USBFS_ENABLE_STRINGS)
 149:Generated_Source\PSoC5/USBFS_std.c ****                 else if (USBFS_DESCR_STRING == USBFS_wValueHiReg)
 150:Generated_Source\PSoC5/USBFS_std.c ****                 {
 151:Generated_Source\PSoC5/USBFS_std.c ****                 /* Descriptor Strings */
 152:Generated_Source\PSoC5/USBFS_std.c ****                 #if defined(USBFS_ENABLE_DESCRIPTOR_STRINGS)
 153:Generated_Source\PSoC5/USBFS_std.c ****                     nStr = 0u;
 154:Generated_Source\PSoC5/USBFS_std.c ****                     pStr = (volatile uint8 *) &USBFS_STRING_DESCRIPTORS[0u];
 155:Generated_Source\PSoC5/USBFS_std.c ****                     
 156:Generated_Source\PSoC5/USBFS_std.c ****                     while ((USBFS_wValueLoReg > nStr) && (*pStr != 0u))
 157:Generated_Source\PSoC5/USBFS_std.c ****                     {
 158:Generated_Source\PSoC5/USBFS_std.c ****                         /* Read descriptor length from 1st byte */
 159:Generated_Source\PSoC5/USBFS_std.c ****                         descrLength = *pStr;
 160:Generated_Source\PSoC5/USBFS_std.c ****                         /* Move to next string descriptor */
 161:Generated_Source\PSoC5/USBFS_std.c ****                         pStr = &pStr[descrLength];
 162:Generated_Source\PSoC5/USBFS_std.c ****                         nStr++;
 163:Generated_Source\PSoC5/USBFS_std.c ****                     }
 164:Generated_Source\PSoC5/USBFS_std.c ****                 #endif /* (USBFS_ENABLE_DESCRIPTOR_STRINGS) */
 165:Generated_Source\PSoC5/USBFS_std.c ****                 
 166:Generated_Source\PSoC5/USBFS_std.c ****                 /* Microsoft OS String */
 167:Generated_Source\PSoC5/USBFS_std.c ****                 #if defined(USBFS_ENABLE_MSOS_STRING)
 168:Generated_Source\PSoC5/USBFS_std.c ****                     if (USBFS_STRING_MSOS == USBFS_wValueLoReg)
 169:Generated_Source\PSoC5/USBFS_std.c ****                     {
 170:Generated_Source\PSoC5/USBFS_std.c ****                         pStr = (volatile uint8 *)& USBFS_MSOS_DESCRIPTOR[0u];
 171:Generated_Source\PSoC5/USBFS_std.c ****                     }
 172:Generated_Source\PSoC5/USBFS_std.c ****                 #endif /* (USBFS_ENABLE_MSOS_STRING) */
 173:Generated_Source\PSoC5/USBFS_std.c ****                 
 174:Generated_Source\PSoC5/USBFS_std.c ****                 /* SN string */
 175:Generated_Source\PSoC5/USBFS_std.c ****                 #if defined(USBFS_ENABLE_SN_STRING)
 176:Generated_Source\PSoC5/USBFS_std.c ****                     if ((USBFS_wValueLoReg != 0u) && 
 177:Generated_Source\PSoC5/USBFS_std.c ****                         (USBFS_wValueLoReg == USBFS_DEVICE0_DESCR[USBFS_DEVICE_DESCR_SN_SHIFT]))
 178:Generated_Source\PSoC5/USBFS_std.c ****                     {
 179:Generated_Source\PSoC5/USBFS_std.c ****                     #if defined(USBFS_ENABLE_IDSN_STRING)
 180:Generated_Source\PSoC5/USBFS_std.c ****                         /* Read DIE ID and generate string descriptor in RAM */
 181:Generated_Source\PSoC5/USBFS_std.c ****                         USBFS_ReadDieID(USBFS_idSerialNumberStringDescriptor);
 182:Generated_Source\PSoC5/USBFS_std.c ****                         pStr = USBFS_idSerialNumberStringDescriptor;
 183:Generated_Source\PSoC5/USBFS_std.c ****                     #elif defined(USBFS_ENABLE_FWSN_STRING)
 184:Generated_Source\PSoC5/USBFS_std.c ****                         
 185:Generated_Source\PSoC5/USBFS_std.c ****                         if(USBFS_snStringConfirm != USBFS_FALSE)
 186:Generated_Source\PSoC5/USBFS_std.c ****                         {
 187:Generated_Source\PSoC5/USBFS_std.c ****                             pStr = USBFS_fwSerialNumberStringDescriptor;
 188:Generated_Source\PSoC5/USBFS_std.c ****                         }
 189:Generated_Source\PSoC5/USBFS_std.c ****                         else
 190:Generated_Source\PSoC5/USBFS_std.c ****                         {
 191:Generated_Source\PSoC5/USBFS_std.c ****                             pStr = (volatile uint8 *)&USBFS_SN_STRING_DESCRIPTOR[0u];
 192:Generated_Source\PSoC5/USBFS_std.c ****                         }
 193:Generated_Source\PSoC5/USBFS_std.c ****                     #else
 194:Generated_Source\PSoC5/USBFS_std.c ****                         pStr = (volatile uint8 *)&USBFS_SN_STRING_DESCRIPTOR[0u];
 195:Generated_Source\PSoC5/USBFS_std.c ****                     #endif  /* (USBFS_ENABLE_IDSN_STRING) */
 196:Generated_Source\PSoC5/USBFS_std.c ****                     }
 197:Generated_Source\PSoC5/USBFS_std.c ****                 #endif /* (USBFS_ENABLE_SN_STRING) */
 198:Generated_Source\PSoC5/USBFS_std.c ****                 
 199:Generated_Source\PSoC5/USBFS_std.c ****                     if (*pStr != 0u)
 200:Generated_Source\PSoC5/USBFS_std.c ****                     {
 201:Generated_Source\PSoC5/USBFS_std.c ****                         USBFS_currentTD.count = *pStr;
ARM GAS  C:\Users\rabbit\AppData\Local\Temp\cccb5bWv.s 			page 5


 202:Generated_Source\PSoC5/USBFS_std.c ****                         USBFS_currentTD.pData = pStr;
 203:Generated_Source\PSoC5/USBFS_std.c ****                         requestHandled  = USBFS_InitControlRead();
 204:Generated_Source\PSoC5/USBFS_std.c ****                     }
 205:Generated_Source\PSoC5/USBFS_std.c ****                 }
 206:Generated_Source\PSoC5/USBFS_std.c ****             #endif /*  USBFS_ENABLE_STRINGS */
 207:Generated_Source\PSoC5/USBFS_std.c ****                 else
 208:Generated_Source\PSoC5/USBFS_std.c ****                 {
 209:Generated_Source\PSoC5/USBFS_std.c ****                     requestHandled = USBFS_DispatchClassRqst();
 210:Generated_Source\PSoC5/USBFS_std.c ****                 }
 211:Generated_Source\PSoC5/USBFS_std.c ****                 break;
 212:Generated_Source\PSoC5/USBFS_std.c ****                 
 213:Generated_Source\PSoC5/USBFS_std.c ****             case USBFS_GET_STATUS:
 214:Generated_Source\PSoC5/USBFS_std.c ****                 switch (bmRequestType & USBFS_RQST_RCPT_MASK)
 215:Generated_Source\PSoC5/USBFS_std.c ****                 {
 216:Generated_Source\PSoC5/USBFS_std.c ****                     case USBFS_RQST_RCPT_EP:
 217:Generated_Source\PSoC5/USBFS_std.c ****                         USBFS_currentTD.count = USBFS_EP_STATUS_LENGTH;
 218:Generated_Source\PSoC5/USBFS_std.c ****                         USBFS_tBuffer[0u]     = USBFS_EP[USBFS_wIndexLoReg & USBFS_DIR_UNUSED].hwEp
 219:Generated_Source\PSoC5/USBFS_std.c ****                         USBFS_tBuffer[1u]     = 0u;
 220:Generated_Source\PSoC5/USBFS_std.c ****                         USBFS_currentTD.pData = &USBFS_tBuffer[0u];
 221:Generated_Source\PSoC5/USBFS_std.c ****                         
 222:Generated_Source\PSoC5/USBFS_std.c ****                         requestHandled  = USBFS_InitControlRead();
 223:Generated_Source\PSoC5/USBFS_std.c ****                         break;
 224:Generated_Source\PSoC5/USBFS_std.c ****                     case USBFS_RQST_RCPT_DEV:
 225:Generated_Source\PSoC5/USBFS_std.c ****                         USBFS_currentTD.count = USBFS_DEVICE_STATUS_LENGTH;
 226:Generated_Source\PSoC5/USBFS_std.c ****                         USBFS_tBuffer[0u]     = USBFS_deviceStatus;
 227:Generated_Source\PSoC5/USBFS_std.c ****                         USBFS_tBuffer[1u]     = 0u;
 228:Generated_Source\PSoC5/USBFS_std.c ****                         USBFS_currentTD.pData = &USBFS_tBuffer[0u];
 229:Generated_Source\PSoC5/USBFS_std.c ****                         
 230:Generated_Source\PSoC5/USBFS_std.c ****                         requestHandled  = USBFS_InitControlRead();
 231:Generated_Source\PSoC5/USBFS_std.c ****                         break;
 232:Generated_Source\PSoC5/USBFS_std.c ****                     default:    /* requestHandled is initialized as FALSE by default */
 233:Generated_Source\PSoC5/USBFS_std.c ****                         break;
 234:Generated_Source\PSoC5/USBFS_std.c ****                 }
 235:Generated_Source\PSoC5/USBFS_std.c ****                 break;
 236:Generated_Source\PSoC5/USBFS_std.c ****                 
 237:Generated_Source\PSoC5/USBFS_std.c ****             case USBFS_GET_CONFIGURATION:
 238:Generated_Source\PSoC5/USBFS_std.c ****                 USBFS_currentTD.count = 1u;
 239:Generated_Source\PSoC5/USBFS_std.c ****                 USBFS_currentTD.pData = (volatile uint8 *) &USBFS_configuration;
 240:Generated_Source\PSoC5/USBFS_std.c ****                 requestHandled  = USBFS_InitControlRead();
 241:Generated_Source\PSoC5/USBFS_std.c ****                 break;
 242:Generated_Source\PSoC5/USBFS_std.c ****                 
 243:Generated_Source\PSoC5/USBFS_std.c ****             case USBFS_GET_INTERFACE:
 244:Generated_Source\PSoC5/USBFS_std.c ****                 USBFS_currentTD.count = 1u;
 245:Generated_Source\PSoC5/USBFS_std.c ****                 USBFS_currentTD.pData = (volatile uint8 *) &USBFS_interfaceSetting[USBFS_wIndexLoRe
 246:Generated_Source\PSoC5/USBFS_std.c ****                 requestHandled  = USBFS_InitControlRead();
 247:Generated_Source\PSoC5/USBFS_std.c ****                 break;
 248:Generated_Source\PSoC5/USBFS_std.c ****                 
 249:Generated_Source\PSoC5/USBFS_std.c ****             default: /* requestHandled is initialized as FALSE by default */
 250:Generated_Source\PSoC5/USBFS_std.c ****                 break;
 251:Generated_Source\PSoC5/USBFS_std.c ****         }
 252:Generated_Source\PSoC5/USBFS_std.c ****     }
 253:Generated_Source\PSoC5/USBFS_std.c ****     else
 254:Generated_Source\PSoC5/USBFS_std.c ****     {
 255:Generated_Source\PSoC5/USBFS_std.c ****         /* Control Write */
 256:Generated_Source\PSoC5/USBFS_std.c ****         switch (USBFS_bRequestReg)
 257:Generated_Source\PSoC5/USBFS_std.c ****         {
 258:Generated_Source\PSoC5/USBFS_std.c ****             case USBFS_SET_ADDRESS:
ARM GAS  C:\Users\rabbit\AppData\Local\Temp\cccb5bWv.s 			page 6


 259:Generated_Source\PSoC5/USBFS_std.c ****                 /* Store address to be set in USBFS_NoDataControlStatusStage(). */
 260:Generated_Source\PSoC5/USBFS_std.c ****                 USBFS_deviceAddress = (uint8) USBFS_wValueLoReg;
 261:Generated_Source\PSoC5/USBFS_std.c ****                 requestHandled = USBFS_InitNoDataControlTransfer();
 262:Generated_Source\PSoC5/USBFS_std.c ****                 break;
 263:Generated_Source\PSoC5/USBFS_std.c ****                 
 264:Generated_Source\PSoC5/USBFS_std.c ****             case USBFS_SET_CONFIGURATION:
 265:Generated_Source\PSoC5/USBFS_std.c ****                 configurationN = USBFS_wValueLoReg;
 266:Generated_Source\PSoC5/USBFS_std.c ****                 
 267:Generated_Source\PSoC5/USBFS_std.c ****                 /* Verify that configuration descriptor exists */
 268:Generated_Source\PSoC5/USBFS_std.c ****                 if(configurationN > 0u)
 269:Generated_Source\PSoC5/USBFS_std.c ****                 {
 270:Generated_Source\PSoC5/USBFS_std.c ****                     pTmp = USBFS_GetConfigTablePtr((uint8) configurationN - 1u);
 271:Generated_Source\PSoC5/USBFS_std.c ****                 }
 272:Generated_Source\PSoC5/USBFS_std.c ****                 
 273:Generated_Source\PSoC5/USBFS_std.c ****                 /* Responds with a Request Error when configuration number is invalid */
 274:Generated_Source\PSoC5/USBFS_std.c ****                 if (((configurationN > 0u) && (pTmp != NULL)) || (configurationN == 0u))
 275:Generated_Source\PSoC5/USBFS_std.c ****                 {
 276:Generated_Source\PSoC5/USBFS_std.c ****                     /* Set new configuration if it has been changed */
 277:Generated_Source\PSoC5/USBFS_std.c ****                     if(configurationN != USBFS_configuration)
 278:Generated_Source\PSoC5/USBFS_std.c ****                     {
 279:Generated_Source\PSoC5/USBFS_std.c ****                         USBFS_configuration = (uint8) configurationN;
 280:Generated_Source\PSoC5/USBFS_std.c ****                         USBFS_configurationChanged = USBFS_TRUE;
 281:Generated_Source\PSoC5/USBFS_std.c ****                         USBFS_Config(USBFS_TRUE);
 282:Generated_Source\PSoC5/USBFS_std.c ****                     }
 283:Generated_Source\PSoC5/USBFS_std.c ****                     requestHandled = USBFS_InitNoDataControlTransfer();
 284:Generated_Source\PSoC5/USBFS_std.c ****                 }
 285:Generated_Source\PSoC5/USBFS_std.c ****                 break;
 286:Generated_Source\PSoC5/USBFS_std.c ****                 
 287:Generated_Source\PSoC5/USBFS_std.c ****             case USBFS_SET_INTERFACE:
 288:Generated_Source\PSoC5/USBFS_std.c ****                 if (0u != USBFS_ValidateAlternateSetting())
 289:Generated_Source\PSoC5/USBFS_std.c ****                 {
 290:Generated_Source\PSoC5/USBFS_std.c ****                     /* Get interface number from the request. */
 291:Generated_Source\PSoC5/USBFS_std.c ****                     interfaceNumber = USBFS_wIndexLoReg;
 292:Generated_Source\PSoC5/USBFS_std.c ****                     USBFS_interfaceNumber = (uint8) USBFS_wIndexLoReg;
 293:Generated_Source\PSoC5/USBFS_std.c ****                      
 294:Generated_Source\PSoC5/USBFS_std.c ****                     /* Check if alternate settings is changed for interface. */
 295:Generated_Source\PSoC5/USBFS_std.c ****                     if (USBFS_interfaceSettingLast[interfaceNumber] != USBFS_interfaceSetting[inter
 296:Generated_Source\PSoC5/USBFS_std.c ****                     {
 297:Generated_Source\PSoC5/USBFS_std.c ****                         USBFS_configurationChanged = USBFS_TRUE;
 298:Generated_Source\PSoC5/USBFS_std.c ****                     
 299:Generated_Source\PSoC5/USBFS_std.c ****                         /* Change alternate setting for the endpoints. */
 300:Generated_Source\PSoC5/USBFS_std.c ****                     #if (USBFS_EP_MANAGEMENT_MANUAL && USBFS_EP_ALLOC_DYNAMIC)
 301:Generated_Source\PSoC5/USBFS_std.c ****                         USBFS_Config(USBFS_FALSE);
 302:Generated_Source\PSoC5/USBFS_std.c ****                     #else
 303:Generated_Source\PSoC5/USBFS_std.c ****                         USBFS_ConfigAltChanged();
 304:Generated_Source\PSoC5/USBFS_std.c ****                     #endif /* (USBFS_EP_MANAGEMENT_MANUAL && USBFS_EP_ALLOC_DYNAMIC) */
 305:Generated_Source\PSoC5/USBFS_std.c ****                     }
 306:Generated_Source\PSoC5/USBFS_std.c ****                     
 307:Generated_Source\PSoC5/USBFS_std.c ****                     requestHandled = USBFS_InitNoDataControlTransfer();
 308:Generated_Source\PSoC5/USBFS_std.c ****                 }
 309:Generated_Source\PSoC5/USBFS_std.c ****                 break;
 310:Generated_Source\PSoC5/USBFS_std.c ****                 
 311:Generated_Source\PSoC5/USBFS_std.c ****             case USBFS_CLEAR_FEATURE:
 312:Generated_Source\PSoC5/USBFS_std.c ****                 switch (bmRequestType & USBFS_RQST_RCPT_MASK)
 313:Generated_Source\PSoC5/USBFS_std.c ****                 {
 314:Generated_Source\PSoC5/USBFS_std.c ****                     case USBFS_RQST_RCPT_EP:
 315:Generated_Source\PSoC5/USBFS_std.c ****                         if (USBFS_wValueLoReg == USBFS_ENDPOINT_HALT)
ARM GAS  C:\Users\rabbit\AppData\Local\Temp\cccb5bWv.s 			page 7


 316:Generated_Source\PSoC5/USBFS_std.c ****                         {
 317:Generated_Source\PSoC5/USBFS_std.c ****                             requestHandled = USBFS_ClearEndpointHalt();
 318:Generated_Source\PSoC5/USBFS_std.c ****                         }
 319:Generated_Source\PSoC5/USBFS_std.c ****                         break;
 320:Generated_Source\PSoC5/USBFS_std.c ****                     case USBFS_RQST_RCPT_DEV:
 321:Generated_Source\PSoC5/USBFS_std.c ****                         /* Clear device REMOTE_WAKEUP */
 322:Generated_Source\PSoC5/USBFS_std.c ****                         if (USBFS_wValueLoReg == USBFS_DEVICE_REMOTE_WAKEUP)
 323:Generated_Source\PSoC5/USBFS_std.c ****                         {
 324:Generated_Source\PSoC5/USBFS_std.c ****                             USBFS_deviceStatus &= (uint8)~USBFS_DEVICE_STATUS_REMOTE_WAKEUP;
 325:Generated_Source\PSoC5/USBFS_std.c ****                             requestHandled = USBFS_InitNoDataControlTransfer();
 326:Generated_Source\PSoC5/USBFS_std.c ****                         }
 327:Generated_Source\PSoC5/USBFS_std.c ****                         break;
 328:Generated_Source\PSoC5/USBFS_std.c ****                     case USBFS_RQST_RCPT_IFC:
 329:Generated_Source\PSoC5/USBFS_std.c ****                         /* Validate interfaceNumber */
 330:Generated_Source\PSoC5/USBFS_std.c ****                         if (USBFS_wIndexLoReg < USBFS_MAX_INTERFACES_NUMBER)
 331:Generated_Source\PSoC5/USBFS_std.c ****                         {
 332:Generated_Source\PSoC5/USBFS_std.c ****                             USBFS_interfaceStatus[USBFS_wIndexLoReg] &= (uint8) ~USBFS_wValueLoReg;
 333:Generated_Source\PSoC5/USBFS_std.c ****                             requestHandled = USBFS_InitNoDataControlTransfer();
 334:Generated_Source\PSoC5/USBFS_std.c ****                         }
 335:Generated_Source\PSoC5/USBFS_std.c ****                         break;
 336:Generated_Source\PSoC5/USBFS_std.c ****                     default:    /* requestHandled is initialized as FALSE by default */
 337:Generated_Source\PSoC5/USBFS_std.c ****                         break;
 338:Generated_Source\PSoC5/USBFS_std.c ****                 }
 339:Generated_Source\PSoC5/USBFS_std.c ****                 break;
 340:Generated_Source\PSoC5/USBFS_std.c ****                 
 341:Generated_Source\PSoC5/USBFS_std.c ****             case USBFS_SET_FEATURE:
 342:Generated_Source\PSoC5/USBFS_std.c ****                 switch (bmRequestType & USBFS_RQST_RCPT_MASK)
 343:Generated_Source\PSoC5/USBFS_std.c ****                 {
 344:Generated_Source\PSoC5/USBFS_std.c ****                     case USBFS_RQST_RCPT_EP:
 345:Generated_Source\PSoC5/USBFS_std.c ****                         if (USBFS_wValueLoReg == USBFS_ENDPOINT_HALT)
 346:Generated_Source\PSoC5/USBFS_std.c ****                         {
 347:Generated_Source\PSoC5/USBFS_std.c ****                             requestHandled = USBFS_SetEndpointHalt();
 348:Generated_Source\PSoC5/USBFS_std.c ****                         }
 349:Generated_Source\PSoC5/USBFS_std.c ****                         break;
 350:Generated_Source\PSoC5/USBFS_std.c ****                         
 351:Generated_Source\PSoC5/USBFS_std.c ****                     case USBFS_RQST_RCPT_DEV:
 352:Generated_Source\PSoC5/USBFS_std.c ****                         /* Set device REMOTE_WAKEUP */
 353:Generated_Source\PSoC5/USBFS_std.c ****                         if (USBFS_wValueLoReg == USBFS_DEVICE_REMOTE_WAKEUP)
 354:Generated_Source\PSoC5/USBFS_std.c ****                         {
 355:Generated_Source\PSoC5/USBFS_std.c ****                             USBFS_deviceStatus |= USBFS_DEVICE_STATUS_REMOTE_WAKEUP;
 356:Generated_Source\PSoC5/USBFS_std.c ****                             requestHandled = USBFS_InitNoDataControlTransfer();
 357:Generated_Source\PSoC5/USBFS_std.c ****                         }
 358:Generated_Source\PSoC5/USBFS_std.c ****                         break;
 359:Generated_Source\PSoC5/USBFS_std.c ****                         
 360:Generated_Source\PSoC5/USBFS_std.c ****                     case USBFS_RQST_RCPT_IFC:
 361:Generated_Source\PSoC5/USBFS_std.c ****                         /* Validate interfaceNumber */
 362:Generated_Source\PSoC5/USBFS_std.c ****                         if (USBFS_wIndexLoReg < USBFS_MAX_INTERFACES_NUMBER)
 363:Generated_Source\PSoC5/USBFS_std.c ****                         {
 364:Generated_Source\PSoC5/USBFS_std.c ****                             USBFS_interfaceStatus[USBFS_wIndexLoReg] &= (uint8) ~USBFS_wValueLoReg;
 365:Generated_Source\PSoC5/USBFS_std.c ****                             requestHandled = USBFS_InitNoDataControlTransfer();
 366:Generated_Source\PSoC5/USBFS_std.c ****                         }
 367:Generated_Source\PSoC5/USBFS_std.c ****                         break;
 368:Generated_Source\PSoC5/USBFS_std.c ****                     
 369:Generated_Source\PSoC5/USBFS_std.c ****                     default:    /* requestHandled is initialized as FALSE by default */
 370:Generated_Source\PSoC5/USBFS_std.c ****                         break;
 371:Generated_Source\PSoC5/USBFS_std.c ****                 }
 372:Generated_Source\PSoC5/USBFS_std.c ****                 break;
ARM GAS  C:\Users\rabbit\AppData\Local\Temp\cccb5bWv.s 			page 8


 373:Generated_Source\PSoC5/USBFS_std.c ****                 
 374:Generated_Source\PSoC5/USBFS_std.c ****             default:    /* requestHandled is initialized as FALSE by default */
 375:Generated_Source\PSoC5/USBFS_std.c ****                 break;
 376:Generated_Source\PSoC5/USBFS_std.c ****         }
 377:Generated_Source\PSoC5/USBFS_std.c ****     }
 378:Generated_Source\PSoC5/USBFS_std.c ****     
 379:Generated_Source\PSoC5/USBFS_std.c ****     return (requestHandled);
 380:Generated_Source\PSoC5/USBFS_std.c **** }
 381:Generated_Source\PSoC5/USBFS_std.c **** 
 382:Generated_Source\PSoC5/USBFS_std.c **** 
 383:Generated_Source\PSoC5/USBFS_std.c **** #if defined(USBFS_ENABLE_IDSN_STRING)
 384:Generated_Source\PSoC5/USBFS_std.c ****     /***************************************************************************
 385:Generated_Source\PSoC5/USBFS_std.c ****     * Function Name: USBFS_ReadDieID
 386:Generated_Source\PSoC5/USBFS_std.c ****     ************************************************************************//**
 387:Generated_Source\PSoC5/USBFS_std.c ****     *
 388:Generated_Source\PSoC5/USBFS_std.c ****     *  This routine read Die ID and generate Serial Number string descriptor.
 389:Generated_Source\PSoC5/USBFS_std.c ****     *
 390:Generated_Source\PSoC5/USBFS_std.c ****     *  \param descr:  pointer on string descriptor. This string size has to be equal or
 391:Generated_Source\PSoC5/USBFS_std.c ****     *          greater than USBFS_IDSN_DESCR_LENGTH.
 392:Generated_Source\PSoC5/USBFS_std.c ****     *
 393:Generated_Source\PSoC5/USBFS_std.c ****     *
 394:Generated_Source\PSoC5/USBFS_std.c ****     * \reentrant
 395:Generated_Source\PSoC5/USBFS_std.c ****     *  No.
 396:Generated_Source\PSoC5/USBFS_std.c ****     *
 397:Generated_Source\PSoC5/USBFS_std.c ****     ***************************************************************************/
 398:Generated_Source\PSoC5/USBFS_std.c ****     void USBFS_ReadDieID(uint8 descr[]) 
 399:Generated_Source\PSoC5/USBFS_std.c ****     {
 400:Generated_Source\PSoC5/USBFS_std.c ****         const char8 CYCODE hex[] = "0123456789ABCDEF";
 401:Generated_Source\PSoC5/USBFS_std.c ****         uint8 i;
 402:Generated_Source\PSoC5/USBFS_std.c ****         uint8 j = 0u;
 403:Generated_Source\PSoC5/USBFS_std.c ****         uint8 uniqueId[8u];
 404:Generated_Source\PSoC5/USBFS_std.c **** 
 405:Generated_Source\PSoC5/USBFS_std.c ****         if (NULL != descr)
 406:Generated_Source\PSoC5/USBFS_std.c ****         {
 407:Generated_Source\PSoC5/USBFS_std.c ****             /* Initialize descriptor header. */
 408:Generated_Source\PSoC5/USBFS_std.c ****             descr[0u] = USBFS_IDSN_DESCR_LENGTH;
 409:Generated_Source\PSoC5/USBFS_std.c ****             descr[1u] = USBFS_DESCR_STRING;
 410:Generated_Source\PSoC5/USBFS_std.c ****             
 411:Generated_Source\PSoC5/USBFS_std.c ****             /* Unique ID size is 8 bytes. */
 412:Generated_Source\PSoC5/USBFS_std.c ****             CyGetUniqueId((uint32 *) uniqueId);
 413:Generated_Source\PSoC5/USBFS_std.c **** 
 414:Generated_Source\PSoC5/USBFS_std.c ****             /* Fill descriptor with unique device ID. */
 415:Generated_Source\PSoC5/USBFS_std.c ****             for (i = 2u; i < USBFS_IDSN_DESCR_LENGTH; i += 4u)
 416:Generated_Source\PSoC5/USBFS_std.c ****             {
 417:Generated_Source\PSoC5/USBFS_std.c ****                 descr[i]      = (uint8) hex[(uniqueId[j] >> 4u)];
 418:Generated_Source\PSoC5/USBFS_std.c ****                 descr[i + 1u] = 0u;
 419:Generated_Source\PSoC5/USBFS_std.c ****                 descr[i + 2u] = (uint8) hex[(uniqueId[j] & 0x0Fu)];
 420:Generated_Source\PSoC5/USBFS_std.c ****                 descr[i + 3u] = 0u;
 421:Generated_Source\PSoC5/USBFS_std.c ****                 ++j;
 422:Generated_Source\PSoC5/USBFS_std.c ****             }
 423:Generated_Source\PSoC5/USBFS_std.c ****         }
 424:Generated_Source\PSoC5/USBFS_std.c ****     }
 425:Generated_Source\PSoC5/USBFS_std.c **** #endif /* (USBFS_ENABLE_IDSN_STRING) */
 426:Generated_Source\PSoC5/USBFS_std.c **** 
 427:Generated_Source\PSoC5/USBFS_std.c **** 
 428:Generated_Source\PSoC5/USBFS_std.c **** /*******************************************************************************
 429:Generated_Source\PSoC5/USBFS_std.c **** * Function Name: USBFS_ConfigReg
ARM GAS  C:\Users\rabbit\AppData\Local\Temp\cccb5bWv.s 			page 9


 430:Generated_Source\PSoC5/USBFS_std.c **** ****************************************************************************//**
 431:Generated_Source\PSoC5/USBFS_std.c **** *
 432:Generated_Source\PSoC5/USBFS_std.c **** *  This routine configures hardware registers from the variables.
 433:Generated_Source\PSoC5/USBFS_std.c **** *  It is called from USBFS_Config() function and from RestoreConfig
 434:Generated_Source\PSoC5/USBFS_std.c **** *  after Wakeup.
 435:Generated_Source\PSoC5/USBFS_std.c **** *
 436:Generated_Source\PSoC5/USBFS_std.c **** *******************************************************************************/
 437:Generated_Source\PSoC5/USBFS_std.c **** void USBFS_ConfigReg(void) 
 438:Generated_Source\PSoC5/USBFS_std.c **** {
  28              		.loc 1 438 0
  29              		.cfi_startproc
  30              		@ args = 0, pretend = 0, frame = 0
  31              		@ frame_needed = 0, uses_anonymous_args = 0
  32              	.LVL0:
  33 0000 2DE9F041 		push	{r4, r5, r6, r7, r8, lr}
  34              		.cfi_def_cfa_offset 24
  35              		.cfi_offset 4, -24
  36              		.cfi_offset 5, -20
  37              		.cfi_offset 6, -16
  38              		.cfi_offset 7, -12
  39              		.cfi_offset 8, -8
  40              		.cfi_offset 14, -4
 439:Generated_Source\PSoC5/USBFS_std.c ****     uint8 ep;
 440:Generated_Source\PSoC5/USBFS_std.c **** 
 441:Generated_Source\PSoC5/USBFS_std.c **** #if (USBFS_EP_MANAGEMENT_DMA_AUTO)
 442:Generated_Source\PSoC5/USBFS_std.c ****     uint8 epType = 0u;
 443:Generated_Source\PSoC5/USBFS_std.c **** #endif /* (USBFS_EP_MANAGEMENT_DMA_AUTO) */
 444:Generated_Source\PSoC5/USBFS_std.c **** 
 445:Generated_Source\PSoC5/USBFS_std.c ****     /* Go thought all endpoints and set hardware configuration */
 446:Generated_Source\PSoC5/USBFS_std.c ****     for (ep = USBFS_EP1; ep < USBFS_MAX_EP; ++ep)
 447:Generated_Source\PSoC5/USBFS_std.c ****     {
 448:Generated_Source\PSoC5/USBFS_std.c ****         USBFS_ARB_EP_BASE.arbEp[ep].epCfg = USBFS_ARB_EPX_CFG_DEFAULT;
 449:Generated_Source\PSoC5/USBFS_std.c ****         
 450:Generated_Source\PSoC5/USBFS_std.c ****     #if (USBFS_EP_MANAGEMENT_DMA)
 451:Generated_Source\PSoC5/USBFS_std.c ****         /* Enable arbiter endpoint interrupt sources */
 452:Generated_Source\PSoC5/USBFS_std.c ****         USBFS_ARB_EP_BASE.arbEp[ep].epIntEn = USBFS_ARB_EPX_INT_MASK;
 453:Generated_Source\PSoC5/USBFS_std.c ****     #endif /* (USBFS_EP_MANAGEMENT_DMA) */
 454:Generated_Source\PSoC5/USBFS_std.c ****     
 455:Generated_Source\PSoC5/USBFS_std.c ****         if (USBFS_EP[ep].epMode != USBFS_MODE_DISABLE)
  41              		.loc 1 455 0
  42 0004 1A4D     		ldr	r5, .L8
 438:Generated_Source\PSoC5/USBFS_std.c ****     uint8 ep;
  43              		.loc 1 438 0
  44 0006 0122     		movs	r2, #1
  45 0008 2E46     		mov	r6, r5
 448:Generated_Source\PSoC5/USBFS_std.c ****         
  46              		.loc 1 448 0
  47 000a 0C20     		movs	r0, #12
 456:Generated_Source\PSoC5/USBFS_std.c ****         {
 457:Generated_Source\PSoC5/USBFS_std.c ****             if (0u != (USBFS_EP[ep].addr & USBFS_DIR_IN))
 458:Generated_Source\PSoC5/USBFS_std.c ****             {
 459:Generated_Source\PSoC5/USBFS_std.c ****                 USBFS_SIE_EP_BASE.sieEp[ep].epCr0 = USBFS_MODE_NAK_IN;
 460:Generated_Source\PSoC5/USBFS_std.c ****                 
 461:Generated_Source\PSoC5/USBFS_std.c ****             #if (USBFS_EP_MANAGEMENT_DMA_AUTO && CY_PSOC4)
 462:Generated_Source\PSoC5/USBFS_std.c ****                 /* Clear DMA_TERMIN for IN endpoint. */
 463:Generated_Source\PSoC5/USBFS_std.c ****                 USBFS_ARB_EP_BASE.arbEp[ep].epIntEn &= (uint32) ~USBFS_ARB_EPX_INT_DMA_TERMIN;
 464:Generated_Source\PSoC5/USBFS_std.c ****             #endif /* (USBFS_EP_MANAGEMENT_DMA_AUTO && CY_PSOC4) */
ARM GAS  C:\Users\rabbit\AppData\Local\Temp\cccb5bWv.s 			page 10


 465:Generated_Source\PSoC5/USBFS_std.c ****             }
 466:Generated_Source\PSoC5/USBFS_std.c ****             else
 467:Generated_Source\PSoC5/USBFS_std.c ****             {
 468:Generated_Source\PSoC5/USBFS_std.c ****                 USBFS_SIE_EP_BASE.sieEp[ep].epCr0 = USBFS_MODE_NAK_OUT;
 469:Generated_Source\PSoC5/USBFS_std.c **** 
 470:Generated_Source\PSoC5/USBFS_std.c ****             #if (USBFS_EP_MANAGEMENT_DMA_AUTO)
 471:Generated_Source\PSoC5/USBFS_std.c ****                 /* (CY_PSOC4): DMA_TERMIN for OUT endpoint is set above. */
 472:Generated_Source\PSoC5/USBFS_std.c ****                 
 473:Generated_Source\PSoC5/USBFS_std.c ****                 /* Prepare endpoint type mask. */
 474:Generated_Source\PSoC5/USBFS_std.c ****                 epType |= (uint8) (0x01u << (ep - USBFS_EP1));
 475:Generated_Source\PSoC5/USBFS_std.c ****             #endif /* (USBFS_EP_MANAGEMENT_DMA_AUTO) */
 476:Generated_Source\PSoC5/USBFS_std.c ****             }
 477:Generated_Source\PSoC5/USBFS_std.c ****         }
 478:Generated_Source\PSoC5/USBFS_std.c ****         else
 479:Generated_Source\PSoC5/USBFS_std.c ****         {
 480:Generated_Source\PSoC5/USBFS_std.c ****             USBFS_SIE_EP_BASE.sieEp[ep].epCr0 = USBFS_MODE_STALL_DATA_EP;
  48              		.loc 1 480 0
  49 000c 8027     		movs	r7, #128
 468:Generated_Source\PSoC5/USBFS_std.c **** 
  50              		.loc 1 468 0
  51 000e 4FF0080E 		mov	lr, #8
  52              	.LVL1:
  53              	.L5:
  54 0012 184B     		ldr	r3, .L8+4
 455:Generated_Source\PSoC5/USBFS_std.c ****         {
  55              		.loc 1 455 0
  56 0014 00FB025C 		mla	ip, r0, r2, r5
  57 0018 1401     		lsls	r4, r2, #4
  58 001a 2344     		add	r3, r3, r4
 448:Generated_Source\PSoC5/USBFS_std.c ****         
  59              		.loc 1 448 0
  60 001c 1870     		strb	r0, [r3]
  61 001e 1649     		ldr	r1, .L8+8
 455:Generated_Source\PSoC5/USBFS_std.c ****         {
  62              		.loc 1 455 0
  63 0020 9CF80580 		ldrb	r8, [ip, #5]	@ zero_extendqisi2
  64 0024 2144     		add	r1, r1, r4
  65 0026 B8F1000F 		cmp	r8, #0
  66 002a 07D0     		beq	.L2
 457:Generated_Source\PSoC5/USBFS_std.c ****             {
  67              		.loc 1 457 0
  68 002c 9CF80440 		ldrb	r4, [ip, #4]	@ zero_extendqisi2
  69 0030 2406     		lsls	r4, r4, #24
 459:Generated_Source\PSoC5/USBFS_std.c ****                 
  70              		.loc 1 459 0
  71 0032 4CBF     		ite	mi
  72 0034 8870     		strbmi	r0, [r1, #2]
 468:Generated_Source\PSoC5/USBFS_std.c **** 
  73              		.loc 1 468 0
  74 0036 81F802E0 		strbpl	lr, [r1, #2]
  75 003a 00E0     		b	.L4
  76              	.L2:
  77              		.loc 1 480 0
  78 003c 8F70     		strb	r7, [r1, #2]
  79              	.L4:
 481:Generated_Source\PSoC5/USBFS_std.c ****         }
 482:Generated_Source\PSoC5/USBFS_std.c ****         
ARM GAS  C:\Users\rabbit\AppData\Local\Temp\cccb5bWv.s 			page 11


 483:Generated_Source\PSoC5/USBFS_std.c ****     #if (!USBFS_EP_MANAGEMENT_DMA_AUTO)
 484:Generated_Source\PSoC5/USBFS_std.c ****         #if (CY_PSOC4)
 485:Generated_Source\PSoC5/USBFS_std.c ****             USBFS_ARB_EP16_BASE.arbEp[ep].rwRa16  = (uint32) USBFS_EP[ep].buffOffset;
 486:Generated_Source\PSoC5/USBFS_std.c ****             USBFS_ARB_EP16_BASE.arbEp[ep].rwWa16  = (uint32) USBFS_EP[ep].buffOffset;
 487:Generated_Source\PSoC5/USBFS_std.c ****         #else
 488:Generated_Source\PSoC5/USBFS_std.c ****             USBFS_ARB_EP_BASE.arbEp[ep].rwRa    = LO8(USBFS_EP[ep].buffOffset);
  80              		.loc 1 488 0 discriminator 2
  81 003e 00FB0261 		mla	r1, r0, r2, r6
  82 0042 CC88     		ldrh	r4, [r1, #6]
  83 0044 0132     		adds	r2, r2, #1
  84              	.LVL2:
  85 0046 E4B2     		uxtb	r4, r4
  86 0048 9C71     		strb	r4, [r3, #6]
 489:Generated_Source\PSoC5/USBFS_std.c ****             USBFS_ARB_EP_BASE.arbEp[ep].rwRaMsb = HI8(USBFS_EP[ep].buffOffset);
  87              		.loc 1 489 0 discriminator 2
  88 004a CC88     		ldrh	r4, [r1, #6]
 446:Generated_Source\PSoC5/USBFS_std.c ****     {
  89              		.loc 1 446 0 discriminator 2
  90 004c 092A     		cmp	r2, #9
  91              		.loc 1 489 0 discriminator 2
  92 004e C4F30724 		ubfx	r4, r4, #8, #8
  93 0052 DC71     		strb	r4, [r3, #7]
 490:Generated_Source\PSoC5/USBFS_std.c ****             USBFS_ARB_EP_BASE.arbEp[ep].rwWa    = LO8(USBFS_EP[ep].buffOffset);
  94              		.loc 1 490 0 discriminator 2
  95 0054 CC88     		ldrh	r4, [r1, #6]
  96 0056 E4B2     		uxtb	r4, r4
  97 0058 1C71     		strb	r4, [r3, #4]
 491:Generated_Source\PSoC5/USBFS_std.c ****             USBFS_ARB_EP_BASE.arbEp[ep].rwWaMsb = HI8(USBFS_EP[ep].buffOffset);
  98              		.loc 1 491 0 discriminator 2
  99 005a C988     		ldrh	r1, [r1, #6]
 100 005c C1F30721 		ubfx	r1, r1, #8, #8
 101 0060 5971     		strb	r1, [r3, #5]
 446:Generated_Source\PSoC5/USBFS_std.c ****     {
 102              		.loc 1 446 0 discriminator 2
 103 0062 D6D1     		bne	.L5
 492:Generated_Source\PSoC5/USBFS_std.c ****         #endif /* (CY_PSOC4) */
 493:Generated_Source\PSoC5/USBFS_std.c ****     #endif /* (!USBFS_EP_MANAGEMENT_DMA_AUTO) */
 494:Generated_Source\PSoC5/USBFS_std.c ****     }
 495:Generated_Source\PSoC5/USBFS_std.c **** 
 496:Generated_Source\PSoC5/USBFS_std.c **** #if (USBFS_EP_MANAGEMENT_DMA_AUTO)
 497:Generated_Source\PSoC5/USBFS_std.c ****      /* BUF_SIZE depend on DMA_THRESS value:0x55-32 bytes  0x44-16 bytes 0x33-8 bytes 0x22-4 bytes 
 498:Generated_Source\PSoC5/USBFS_std.c ****     USBFS_BUF_SIZE_REG = USBFS_DMA_BUF_SIZE;
 499:Generated_Source\PSoC5/USBFS_std.c **** 
 500:Generated_Source\PSoC5/USBFS_std.c ****     /* Configure DMA burst threshold */
 501:Generated_Source\PSoC5/USBFS_std.c **** #if (CY_PSOC4)
 502:Generated_Source\PSoC5/USBFS_std.c ****     USBFS_DMA_THRES16_REG   = USBFS_DMA_BYTES_PER_BURST;
 503:Generated_Source\PSoC5/USBFS_std.c **** #else
 504:Generated_Source\PSoC5/USBFS_std.c ****     USBFS_DMA_THRES_REG     = USBFS_DMA_BYTES_PER_BURST;
 505:Generated_Source\PSoC5/USBFS_std.c ****     USBFS_DMA_THRES_MSB_REG = 0u;
 506:Generated_Source\PSoC5/USBFS_std.c **** #endif /* (CY_PSOC4) */
 507:Generated_Source\PSoC5/USBFS_std.c ****     USBFS_EP_ACTIVE_REG = USBFS_DEFAULT_ARB_INT_EN;
 508:Generated_Source\PSoC5/USBFS_std.c ****     USBFS_EP_TYPE_REG   = epType;
 509:Generated_Source\PSoC5/USBFS_std.c ****     
 510:Generated_Source\PSoC5/USBFS_std.c ****     /* Cfg_cmp bit set to 1 once configuration is complete. */
 511:Generated_Source\PSoC5/USBFS_std.c ****     /* Lock arbiter configtuation */
 512:Generated_Source\PSoC5/USBFS_std.c ****     USBFS_ARB_CFG_REG |= (uint8)  USBFS_ARB_CFG_CFG_CMP;
 513:Generated_Source\PSoC5/USBFS_std.c ****     /* Cfg_cmp bit set to 0 during configuration of PFSUSB Registers. */
ARM GAS  C:\Users\rabbit\AppData\Local\Temp\cccb5bWv.s 			page 12


 514:Generated_Source\PSoC5/USBFS_std.c ****     USBFS_ARB_CFG_REG &= (uint8) ~USBFS_ARB_CFG_CFG_CMP;
 515:Generated_Source\PSoC5/USBFS_std.c **** 
 516:Generated_Source\PSoC5/USBFS_std.c **** #endif /* (USBFS_EP_MANAGEMENT_DMA_AUTO) */
 517:Generated_Source\PSoC5/USBFS_std.c **** 
 518:Generated_Source\PSoC5/USBFS_std.c ****     /* Enable interrupt SIE interurpt source from EP0-EP1 */
 519:Generated_Source\PSoC5/USBFS_std.c ****     USBFS_SIE_EP_INT_EN_REG = (uint8) USBFS_DEFAULT_SIE_EP_INT_EN;
 104              		.loc 1 519 0
 105 0064 054B     		ldr	r3, .L8+12
 106 0066 FF22     		movs	r2, #255
 107 0068 1A70     		strb	r2, [r3]
 108 006a BDE8F081 		pop	{r4, r5, r6, r7, r8, pc}
 109              	.L9:
 110 006e 00BF     		.align	2
 111              	.L8:
 112 0070 00000000 		.word	USBFS_EP
 113 0074 70600040 		.word	1073766512
 114 0078 FC5F0040 		.word	1073766396
 115 007c 0A600040 		.word	1073766410
 116              		.cfi_endproc
 117              	.LFE1:
 118              		.size	USBFS_ConfigReg, .-USBFS_ConfigReg
 119              		.section	.text.USBFS_EpStateInit,"ax",%progbits
 120              		.align	1
 121              		.global	USBFS_EpStateInit
 122              		.thumb
 123              		.thumb_func
 124              		.type	USBFS_EpStateInit, %function
 125              	USBFS_EpStateInit:
 126              	.LFB2:
 520:Generated_Source\PSoC5/USBFS_std.c **** }
 521:Generated_Source\PSoC5/USBFS_std.c **** 
 522:Generated_Source\PSoC5/USBFS_std.c **** 
 523:Generated_Source\PSoC5/USBFS_std.c **** /*******************************************************************************
 524:Generated_Source\PSoC5/USBFS_std.c **** * Function Name: USBFS_EpStateInit
 525:Generated_Source\PSoC5/USBFS_std.c **** ****************************************************************************//**
 526:Generated_Source\PSoC5/USBFS_std.c **** *
 527:Generated_Source\PSoC5/USBFS_std.c **** *  This routine initialize state of Data end points based of its type: 
 528:Generated_Source\PSoC5/USBFS_std.c **** *   IN  - USBFS_IN_BUFFER_EMPTY (USBFS_EVENT_PENDING)
 529:Generated_Source\PSoC5/USBFS_std.c **** *   OUT - USBFS_OUT_BUFFER_EMPTY (USBFS_NO_EVENT_PENDING)
 530:Generated_Source\PSoC5/USBFS_std.c **** *
 531:Generated_Source\PSoC5/USBFS_std.c **** *******************************************************************************/
 532:Generated_Source\PSoC5/USBFS_std.c **** void USBFS_EpStateInit(void) 
 533:Generated_Source\PSoC5/USBFS_std.c **** {
 127              		.loc 1 533 0
 128              		.cfi_startproc
 129              		@ args = 0, pretend = 0, frame = 0
 130              		@ frame_needed = 0, uses_anonymous_args = 0
 131              	.LVL3:
 132 0000 0123     		movs	r3, #1
 133 0002 70B5     		push	{r4, r5, r6, lr}
 134              		.cfi_def_cfa_offset 16
 135              		.cfi_offset 4, -16
 136              		.cfi_offset 5, -12
 137              		.cfi_offset 6, -8
 138              		.cfi_offset 14, -4
 534:Generated_Source\PSoC5/USBFS_std.c ****     uint8 i;
 535:Generated_Source\PSoC5/USBFS_std.c **** 
ARM GAS  C:\Users\rabbit\AppData\Local\Temp\cccb5bWv.s 			page 13


 536:Generated_Source\PSoC5/USBFS_std.c ****     for (i = USBFS_EP1; i < USBFS_MAX_EP; i++)
 537:Generated_Source\PSoC5/USBFS_std.c ****     { 
 538:Generated_Source\PSoC5/USBFS_std.c ****         if (0u != (USBFS_EP[i].addr & USBFS_DIR_IN))
 539:Generated_Source\PSoC5/USBFS_std.c ****         {
 540:Generated_Source\PSoC5/USBFS_std.c ****             /* IN Endpoint */
 541:Generated_Source\PSoC5/USBFS_std.c ****             USBFS_EP[i].apiEpState = USBFS_EVENT_PENDING;
 139              		.loc 1 541 0
 140 0004 1D46     		mov	r5, r3
 538:Generated_Source\PSoC5/USBFS_std.c ****         {
 141              		.loc 1 538 0
 142 0006 0749     		ldr	r1, .L15
 143 0008 0C20     		movs	r0, #12
 542:Generated_Source\PSoC5/USBFS_std.c ****         }
 543:Generated_Source\PSoC5/USBFS_std.c ****         else
 544:Generated_Source\PSoC5/USBFS_std.c ****         {
 545:Generated_Source\PSoC5/USBFS_std.c ****             /* OUT Endpoint */
 546:Generated_Source\PSoC5/USBFS_std.c ****             USBFS_EP[i].apiEpState = USBFS_NO_EVENT_PENDING;
 144              		.loc 1 546 0
 145 000a 0024     		movs	r4, #0
 146              	.LVL4:
 147              	.L13:
 538:Generated_Source\PSoC5/USBFS_std.c ****         {
 148              		.loc 1 538 0
 149 000c 00FB0312 		mla	r2, r0, r3, r1
 150 0010 1679     		ldrb	r6, [r2, #4]	@ zero_extendqisi2
 151 0012 0133     		adds	r3, r3, #1
 152              	.LVL5:
 153 0014 3606     		lsls	r6, r6, #24
 541:Generated_Source\PSoC5/USBFS_std.c ****         }
 154              		.loc 1 541 0
 155 0016 4CBF     		ite	mi
 156 0018 5570     		strbmi	r5, [r2, #1]
 157              		.loc 1 546 0
 158 001a 5470     		strbpl	r4, [r2, #1]
 536:Generated_Source\PSoC5/USBFS_std.c ****     { 
 159              		.loc 1 536 0
 160 001c 092B     		cmp	r3, #9
 161 001e F5D1     		bne	.L13
 547:Generated_Source\PSoC5/USBFS_std.c ****         }
 548:Generated_Source\PSoC5/USBFS_std.c ****     }
 549:Generated_Source\PSoC5/USBFS_std.c ****                     
 550:Generated_Source\PSoC5/USBFS_std.c **** }
 162              		.loc 1 550 0
 163 0020 70BD     		pop	{r4, r5, r6, pc}
 164              	.L16:
 165 0022 00BF     		.align	2
 166              	.L15:
 167 0024 00000000 		.word	USBFS_EP
 168              		.cfi_endproc
 169              	.LFE2:
 170              		.size	USBFS_EpStateInit, .-USBFS_EpStateInit
 171              		.section	.text.USBFS_GetConfigTablePtr,"ax",%progbits
 172              		.align	1
 173              		.global	USBFS_GetConfigTablePtr
 174              		.thumb
 175              		.thumb_func
 176              		.type	USBFS_GetConfigTablePtr, %function
ARM GAS  C:\Users\rabbit\AppData\Local\Temp\cccb5bWv.s 			page 14


 177              	USBFS_GetConfigTablePtr:
 178              	.LFB5:
 551:Generated_Source\PSoC5/USBFS_std.c **** 
 552:Generated_Source\PSoC5/USBFS_std.c **** 
 553:Generated_Source\PSoC5/USBFS_std.c **** /*******************************************************************************
 554:Generated_Source\PSoC5/USBFS_std.c **** * Function Name: USBFS_Config
 555:Generated_Source\PSoC5/USBFS_std.c **** ****************************************************************************//**
 556:Generated_Source\PSoC5/USBFS_std.c **** *
 557:Generated_Source\PSoC5/USBFS_std.c **** *  This routine configures endpoints for the entire configuration by scanning
 558:Generated_Source\PSoC5/USBFS_std.c **** *  the configuration descriptor.
 559:Generated_Source\PSoC5/USBFS_std.c **** *
 560:Generated_Source\PSoC5/USBFS_std.c **** *  \param clearAltSetting: It configures the bAlternateSetting 0 for each interface.
 561:Generated_Source\PSoC5/USBFS_std.c **** *
 562:Generated_Source\PSoC5/USBFS_std.c **** * USBFS_interfaceClass - Initialized class array for each interface.
 563:Generated_Source\PSoC5/USBFS_std.c **** *   It is used for handling Class specific requests depend on interface class.
 564:Generated_Source\PSoC5/USBFS_std.c **** *   Different classes in multiple Alternate settings does not supported.
 565:Generated_Source\PSoC5/USBFS_std.c **** *
 566:Generated_Source\PSoC5/USBFS_std.c **** * \reentrant
 567:Generated_Source\PSoC5/USBFS_std.c **** *  No.
 568:Generated_Source\PSoC5/USBFS_std.c **** *
 569:Generated_Source\PSoC5/USBFS_std.c **** *******************************************************************************/
 570:Generated_Source\PSoC5/USBFS_std.c **** void USBFS_Config(uint8 clearAltSetting) 
 571:Generated_Source\PSoC5/USBFS_std.c **** {
 572:Generated_Source\PSoC5/USBFS_std.c ****     uint8 ep;
 573:Generated_Source\PSoC5/USBFS_std.c ****     uint8 curEp;
 574:Generated_Source\PSoC5/USBFS_std.c ****     uint8 i;
 575:Generated_Source\PSoC5/USBFS_std.c ****     uint8 epType;
 576:Generated_Source\PSoC5/USBFS_std.c ****     const uint8 *pDescr;
 577:Generated_Source\PSoC5/USBFS_std.c ****     
 578:Generated_Source\PSoC5/USBFS_std.c ****     #if (!USBFS_EP_MANAGEMENT_DMA_AUTO)
 579:Generated_Source\PSoC5/USBFS_std.c ****         uint16 buffCount = 0u;
 580:Generated_Source\PSoC5/USBFS_std.c ****     #endif /* (!USBFS_EP_MANAGEMENT_DMA_AUTO) */
 581:Generated_Source\PSoC5/USBFS_std.c **** 
 582:Generated_Source\PSoC5/USBFS_std.c ****     const T_USBFS_LUT CYCODE *pTmp;
 583:Generated_Source\PSoC5/USBFS_std.c ****     const T_USBFS_EP_SETTINGS_BLOCK CYCODE *pEP;
 584:Generated_Source\PSoC5/USBFS_std.c **** 
 585:Generated_Source\PSoC5/USBFS_std.c ****     /* Clear endpoints settings */
 586:Generated_Source\PSoC5/USBFS_std.c ****     for (ep = 0u; ep < USBFS_MAX_EP; ++ep)
 587:Generated_Source\PSoC5/USBFS_std.c ****     {
 588:Generated_Source\PSoC5/USBFS_std.c ****         USBFS_EP[ep].attrib     = 0u;
 589:Generated_Source\PSoC5/USBFS_std.c ****         USBFS_EP[ep].hwEpState  = 0u;
 590:Generated_Source\PSoC5/USBFS_std.c ****         USBFS_EP[ep].epToggle   = 0u;
 591:Generated_Source\PSoC5/USBFS_std.c ****         USBFS_EP[ep].bufferSize = 0u;
 592:Generated_Source\PSoC5/USBFS_std.c ****         USBFS_EP[ep].interface  = 0u;
 593:Generated_Source\PSoC5/USBFS_std.c ****         USBFS_EP[ep].apiEpState = USBFS_NO_EVENT_PENDING;
 594:Generated_Source\PSoC5/USBFS_std.c ****         USBFS_EP[ep].epMode     = USBFS_MODE_DISABLE;   
 595:Generated_Source\PSoC5/USBFS_std.c ****     }
 596:Generated_Source\PSoC5/USBFS_std.c **** 
 597:Generated_Source\PSoC5/USBFS_std.c ****     /* Clear Alternate settings for all interfaces. */
 598:Generated_Source\PSoC5/USBFS_std.c ****     if (0u != clearAltSetting)
 599:Generated_Source\PSoC5/USBFS_std.c ****     {
 600:Generated_Source\PSoC5/USBFS_std.c ****         for (i = 0u; i < USBFS_MAX_INTERFACES_NUMBER; ++i)
 601:Generated_Source\PSoC5/USBFS_std.c ****         {
 602:Generated_Source\PSoC5/USBFS_std.c ****             USBFS_interfaceSetting[i]     = 0u;
 603:Generated_Source\PSoC5/USBFS_std.c ****             USBFS_interfaceSettingLast[i] = 0u;
 604:Generated_Source\PSoC5/USBFS_std.c ****         }
 605:Generated_Source\PSoC5/USBFS_std.c ****     }
ARM GAS  C:\Users\rabbit\AppData\Local\Temp\cccb5bWv.s 			page 15


 606:Generated_Source\PSoC5/USBFS_std.c **** 
 607:Generated_Source\PSoC5/USBFS_std.c ****     /* Init Endpoints and Device Status if configured */
 608:Generated_Source\PSoC5/USBFS_std.c ****     if (USBFS_configuration > 0u)
 609:Generated_Source\PSoC5/USBFS_std.c ****     {
 610:Generated_Source\PSoC5/USBFS_std.c ****         #if defined(USBFS_ENABLE_CDC_CLASS)
 611:Generated_Source\PSoC5/USBFS_std.c ****             uint8 cdcComNums = 0u;
 612:Generated_Source\PSoC5/USBFS_std.c ****         #endif  /* (USBFS_ENABLE_CDC_CLASS) */  
 613:Generated_Source\PSoC5/USBFS_std.c **** 
 614:Generated_Source\PSoC5/USBFS_std.c ****         pTmp = USBFS_GetConfigTablePtr(USBFS_configuration - 1u);
 615:Generated_Source\PSoC5/USBFS_std.c ****         
 616:Generated_Source\PSoC5/USBFS_std.c ****         /* Set Power status for current configuration */
 617:Generated_Source\PSoC5/USBFS_std.c ****         pDescr = (const uint8 *)pTmp->p_list;
 618:Generated_Source\PSoC5/USBFS_std.c ****         if ((pDescr[USBFS_CONFIG_DESCR_ATTRIB] & USBFS_CONFIG_DESCR_ATTRIB_SELF_POWERED) != 0u)
 619:Generated_Source\PSoC5/USBFS_std.c ****         {
 620:Generated_Source\PSoC5/USBFS_std.c ****             USBFS_deviceStatus |= (uint8)  USBFS_DEVICE_STATUS_SELF_POWERED;
 621:Generated_Source\PSoC5/USBFS_std.c ****         }
 622:Generated_Source\PSoC5/USBFS_std.c ****         else
 623:Generated_Source\PSoC5/USBFS_std.c ****         {
 624:Generated_Source\PSoC5/USBFS_std.c ****             USBFS_deviceStatus &= (uint8) ~USBFS_DEVICE_STATUS_SELF_POWERED;
 625:Generated_Source\PSoC5/USBFS_std.c ****         }
 626:Generated_Source\PSoC5/USBFS_std.c ****         
 627:Generated_Source\PSoC5/USBFS_std.c ****         /* Move to next element */
 628:Generated_Source\PSoC5/USBFS_std.c ****         pTmp = &pTmp[1u];
 629:Generated_Source\PSoC5/USBFS_std.c ****         ep = pTmp->c;  /* For this table, c is the number of endpoints configurations  */
 630:Generated_Source\PSoC5/USBFS_std.c **** 
 631:Generated_Source\PSoC5/USBFS_std.c ****         #if (USBFS_EP_MANAGEMENT_MANUAL && USBFS_EP_ALLOC_DYNAMIC)
 632:Generated_Source\PSoC5/USBFS_std.c ****             /* Configure for dynamic EP memory allocation */
 633:Generated_Source\PSoC5/USBFS_std.c ****             /* p_list points the endpoint setting table. */
 634:Generated_Source\PSoC5/USBFS_std.c ****             pEP = (T_USBFS_EP_SETTINGS_BLOCK *) pTmp->p_list;
 635:Generated_Source\PSoC5/USBFS_std.c ****             
 636:Generated_Source\PSoC5/USBFS_std.c ****             for (i = 0u; i < ep; i++)
 637:Generated_Source\PSoC5/USBFS_std.c ****             {     
 638:Generated_Source\PSoC5/USBFS_std.c ****                 /* Compare current Alternate setting with EP Alt */
 639:Generated_Source\PSoC5/USBFS_std.c ****                 if (USBFS_interfaceSetting[pEP->interface] == pEP->altSetting)
 640:Generated_Source\PSoC5/USBFS_std.c ****                 {                                                          
 641:Generated_Source\PSoC5/USBFS_std.c ****                     curEp  = pEP->addr & USBFS_DIR_UNUSED;
 642:Generated_Source\PSoC5/USBFS_std.c ****                     epType = pEP->attributes & USBFS_EP_TYPE_MASK;
 643:Generated_Source\PSoC5/USBFS_std.c ****                     
 644:Generated_Source\PSoC5/USBFS_std.c ****                     USBFS_EP[curEp].addr       = pEP->addr;
 645:Generated_Source\PSoC5/USBFS_std.c ****                     USBFS_EP[curEp].attrib     = pEP->attributes;
 646:Generated_Source\PSoC5/USBFS_std.c ****                     USBFS_EP[curEp].bufferSize = pEP->bufferSize;
 647:Generated_Source\PSoC5/USBFS_std.c **** 
 648:Generated_Source\PSoC5/USBFS_std.c ****                     if (0u != (pEP->addr & USBFS_DIR_IN))
 649:Generated_Source\PSoC5/USBFS_std.c ****                     {
 650:Generated_Source\PSoC5/USBFS_std.c ****                         /* IN Endpoint */
 651:Generated_Source\PSoC5/USBFS_std.c ****                         USBFS_EP[curEp].epMode     = USBFS_GET_ACTIVE_IN_EP_CR0_MODE(epType);
 652:Generated_Source\PSoC5/USBFS_std.c ****                         USBFS_EP[curEp].apiEpState = USBFS_EVENT_PENDING;
 653:Generated_Source\PSoC5/USBFS_std.c ****                     
 654:Generated_Source\PSoC5/USBFS_std.c ****                     #if (defined(USBFS_ENABLE_MIDI_STREAMING) && (USBFS_MIDI_IN_BUFF_SIZE > 0))
 655:Generated_Source\PSoC5/USBFS_std.c ****                         if ((pEP->bMisc == USBFS_CLASS_AUDIO) && (epType == USBFS_EP_TYPE_BULK))
 656:Generated_Source\PSoC5/USBFS_std.c ****                         {
 657:Generated_Source\PSoC5/USBFS_std.c ****                             USBFS_midi_in_ep = curEp;
 658:Generated_Source\PSoC5/USBFS_std.c ****                         }
 659:Generated_Source\PSoC5/USBFS_std.c ****                     #endif  /* (USBFS_ENABLE_MIDI_STREAMING) */
 660:Generated_Source\PSoC5/USBFS_std.c ****                     }
 661:Generated_Source\PSoC5/USBFS_std.c ****                     else
 662:Generated_Source\PSoC5/USBFS_std.c ****                     {
ARM GAS  C:\Users\rabbit\AppData\Local\Temp\cccb5bWv.s 			page 16


 663:Generated_Source\PSoC5/USBFS_std.c ****                         /* OUT Endpoint */
 664:Generated_Source\PSoC5/USBFS_std.c ****                         USBFS_EP[curEp].epMode     = USBFS_GET_ACTIVE_OUT_EP_CR0_MODE(epType);
 665:Generated_Source\PSoC5/USBFS_std.c ****                         USBFS_EP[curEp].apiEpState = USBFS_NO_EVENT_PENDING;
 666:Generated_Source\PSoC5/USBFS_std.c ****                         
 667:Generated_Source\PSoC5/USBFS_std.c ****                     #if (defined(USBFS_ENABLE_MIDI_STREAMING) && (USBFS_MIDI_OUT_BUFF_SIZE > 0))
 668:Generated_Source\PSoC5/USBFS_std.c ****                         if ((pEP->bMisc == USBFS_CLASS_AUDIO) && (epType == USBFS_EP_TYPE_BULK))
 669:Generated_Source\PSoC5/USBFS_std.c ****                         {
 670:Generated_Source\PSoC5/USBFS_std.c ****                             USBFS_midi_out_ep = curEp;
 671:Generated_Source\PSoC5/USBFS_std.c ****                         }
 672:Generated_Source\PSoC5/USBFS_std.c ****                     #endif  /* (USBFS_ENABLE_MIDI_STREAMING) */
 673:Generated_Source\PSoC5/USBFS_std.c ****                     }
 674:Generated_Source\PSoC5/USBFS_std.c **** 
 675:Generated_Source\PSoC5/USBFS_std.c ****                 #if(defined (USBFS_ENABLE_CDC_CLASS))
 676:Generated_Source\PSoC5/USBFS_std.c ****                     if((pEP->bMisc == USBFS_CLASS_CDC_DATA) ||(pEP->bMisc == USBFS_CLASS_CDC))
 677:Generated_Source\PSoC5/USBFS_std.c ****                     {
 678:Generated_Source\PSoC5/USBFS_std.c ****                         cdcComNums = USBFS_Cdc_EpInit(pEP, curEp, cdcComNums);
 679:Generated_Source\PSoC5/USBFS_std.c ****                     }
 680:Generated_Source\PSoC5/USBFS_std.c ****                 #endif  /* (USBFS_ENABLE_CDC_CLASS) */
 681:Generated_Source\PSoC5/USBFS_std.c ****                 }
 682:Generated_Source\PSoC5/USBFS_std.c ****                 
 683:Generated_Source\PSoC5/USBFS_std.c ****                 pEP = &pEP[1u];
 684:Generated_Source\PSoC5/USBFS_std.c ****             }
 685:Generated_Source\PSoC5/USBFS_std.c ****             
 686:Generated_Source\PSoC5/USBFS_std.c ****         #else
 687:Generated_Source\PSoC5/USBFS_std.c ****             for (i = USBFS_EP1; i < USBFS_MAX_EP; ++i)
 688:Generated_Source\PSoC5/USBFS_std.c ****             {
 689:Generated_Source\PSoC5/USBFS_std.c ****                 /* p_list points the endpoint setting table. */
 690:Generated_Source\PSoC5/USBFS_std.c ****                 pEP = (const T_USBFS_EP_SETTINGS_BLOCK CYCODE *) pTmp->p_list;
 691:Generated_Source\PSoC5/USBFS_std.c ****                 /* Find max length for each EP and select it (length could be different in differen
 692:Generated_Source\PSoC5/USBFS_std.c ****                 /* but other settings should be correct with regards to Interface alt Setting */
 693:Generated_Source\PSoC5/USBFS_std.c ****                 
 694:Generated_Source\PSoC5/USBFS_std.c ****                 for (curEp = 0u; curEp < ep; ++curEp)
 695:Generated_Source\PSoC5/USBFS_std.c ****                 {
 696:Generated_Source\PSoC5/USBFS_std.c ****                     if (i == (pEP->addr & USBFS_DIR_UNUSED))
 697:Generated_Source\PSoC5/USBFS_std.c ****                     {
 698:Generated_Source\PSoC5/USBFS_std.c ****                         /* Compare endpoint buffers size with current size to find greater. */
 699:Generated_Source\PSoC5/USBFS_std.c ****                         if (USBFS_EP[i].bufferSize < pEP->bufferSize)
 700:Generated_Source\PSoC5/USBFS_std.c ****                         {
 701:Generated_Source\PSoC5/USBFS_std.c ****                             USBFS_EP[i].bufferSize = pEP->bufferSize;
 702:Generated_Source\PSoC5/USBFS_std.c ****                         }
 703:Generated_Source\PSoC5/USBFS_std.c ****                         
 704:Generated_Source\PSoC5/USBFS_std.c ****                         /* Compare current Alternate setting with EP Alt */
 705:Generated_Source\PSoC5/USBFS_std.c ****                         if (USBFS_interfaceSetting[pEP->interface] == pEP->altSetting)
 706:Generated_Source\PSoC5/USBFS_std.c ****                         {                            
 707:Generated_Source\PSoC5/USBFS_std.c ****                             USBFS_EP[i].addr = pEP->addr;
 708:Generated_Source\PSoC5/USBFS_std.c ****                             USBFS_EP[i].attrib = pEP->attributes;
 709:Generated_Source\PSoC5/USBFS_std.c ****                             
 710:Generated_Source\PSoC5/USBFS_std.c ****                             epType = pEP->attributes & USBFS_EP_TYPE_MASK;
 711:Generated_Source\PSoC5/USBFS_std.c ****                             
 712:Generated_Source\PSoC5/USBFS_std.c ****                             if (0u != (pEP->addr & USBFS_DIR_IN))
 713:Generated_Source\PSoC5/USBFS_std.c ****                             {
 714:Generated_Source\PSoC5/USBFS_std.c ****                                 /* IN Endpoint */
 715:Generated_Source\PSoC5/USBFS_std.c ****                                 USBFS_EP[i].epMode     = USBFS_GET_ACTIVE_IN_EP_CR0_MODE(epType);
 716:Generated_Source\PSoC5/USBFS_std.c ****                                 USBFS_EP[i].apiEpState = USBFS_EVENT_PENDING;
 717:Generated_Source\PSoC5/USBFS_std.c ****                                 
 718:Generated_Source\PSoC5/USBFS_std.c ****                             #if (defined(USBFS_ENABLE_MIDI_STREAMING) && (USBFS_MIDI_IN_BUFF_SIZE >
 719:Generated_Source\PSoC5/USBFS_std.c ****                                 if ((pEP->bMisc == USBFS_CLASS_AUDIO) && (epType == USBFS_EP_TYPE_B
ARM GAS  C:\Users\rabbit\AppData\Local\Temp\cccb5bWv.s 			page 17


 720:Generated_Source\PSoC5/USBFS_std.c ****                                 {
 721:Generated_Source\PSoC5/USBFS_std.c ****                                     USBFS_midi_in_ep = i;
 722:Generated_Source\PSoC5/USBFS_std.c ****                                 }
 723:Generated_Source\PSoC5/USBFS_std.c ****                             #endif  /* (USBFS_ENABLE_MIDI_STREAMING) */
 724:Generated_Source\PSoC5/USBFS_std.c ****                             }
 725:Generated_Source\PSoC5/USBFS_std.c ****                             else
 726:Generated_Source\PSoC5/USBFS_std.c ****                             {
 727:Generated_Source\PSoC5/USBFS_std.c ****                                 /* OUT Endpoint */
 728:Generated_Source\PSoC5/USBFS_std.c ****                                 USBFS_EP[i].epMode     = USBFS_GET_ACTIVE_OUT_EP_CR0_MODE(epType);
 729:Generated_Source\PSoC5/USBFS_std.c ****                                 USBFS_EP[i].apiEpState = USBFS_NO_EVENT_PENDING;
 730:Generated_Source\PSoC5/USBFS_std.c ****                                 
 731:Generated_Source\PSoC5/USBFS_std.c ****                             #if (defined(USBFS_ENABLE_MIDI_STREAMING) && (USBFS_MIDI_OUT_BUFF_SIZE 
 732:Generated_Source\PSoC5/USBFS_std.c ****                                 if ((pEP->bMisc == USBFS_CLASS_AUDIO) && (epType == USBFS_EP_TYPE_B
 733:Generated_Source\PSoC5/USBFS_std.c ****                                 {
 734:Generated_Source\PSoC5/USBFS_std.c ****                                     USBFS_midi_out_ep = i;
 735:Generated_Source\PSoC5/USBFS_std.c ****                                 }
 736:Generated_Source\PSoC5/USBFS_std.c ****                             #endif  /* (USBFS_ENABLE_MIDI_STREAMING) */
 737:Generated_Source\PSoC5/USBFS_std.c ****                             }
 738:Generated_Source\PSoC5/USBFS_std.c **** 
 739:Generated_Source\PSoC5/USBFS_std.c ****                         #if (defined(USBFS_ENABLE_CDC_CLASS))
 740:Generated_Source\PSoC5/USBFS_std.c ****                             if((pEP->bMisc == USBFS_CLASS_CDC_DATA) ||(pEP->bMisc == USBFS_CLASS_CD
 741:Generated_Source\PSoC5/USBFS_std.c ****                             {
 742:Generated_Source\PSoC5/USBFS_std.c ****                                 cdcComNums = USBFS_Cdc_EpInit(pEP, i, cdcComNums);
 743:Generated_Source\PSoC5/USBFS_std.c ****                             }
 744:Generated_Source\PSoC5/USBFS_std.c ****                         #endif  /* (USBFS_ENABLE_CDC_CLASS) */
 745:Generated_Source\PSoC5/USBFS_std.c **** 
 746:Generated_Source\PSoC5/USBFS_std.c ****                             #if (USBFS_EP_MANAGEMENT_DMA_AUTO)
 747:Generated_Source\PSoC5/USBFS_std.c ****                                 break;  /* Use first EP setting in Auto memory management */
 748:Generated_Source\PSoC5/USBFS_std.c ****                             #endif /* (USBFS_EP_MANAGEMENT_DMA_AUTO) */
 749:Generated_Source\PSoC5/USBFS_std.c ****                         }
 750:Generated_Source\PSoC5/USBFS_std.c ****                     }
 751:Generated_Source\PSoC5/USBFS_std.c ****                     
 752:Generated_Source\PSoC5/USBFS_std.c ****                     pEP = &pEP[1u];
 753:Generated_Source\PSoC5/USBFS_std.c ****                 }
 754:Generated_Source\PSoC5/USBFS_std.c ****             }
 755:Generated_Source\PSoC5/USBFS_std.c ****         #endif /*  (USBFS_EP_MANAGEMENT_MANUAL && USBFS_EP_ALLOC_DYNAMIC) */
 756:Generated_Source\PSoC5/USBFS_std.c **** 
 757:Generated_Source\PSoC5/USBFS_std.c ****         /* Init class array for each interface and interface number for each EP.
 758:Generated_Source\PSoC5/USBFS_std.c ****         *  It is used for handling Class specific requests directed to either an
 759:Generated_Source\PSoC5/USBFS_std.c ****         *  interface or the endpoint.
 760:Generated_Source\PSoC5/USBFS_std.c ****         */
 761:Generated_Source\PSoC5/USBFS_std.c ****         /* p_list points the endpoint setting table. */
 762:Generated_Source\PSoC5/USBFS_std.c ****         pEP = (const T_USBFS_EP_SETTINGS_BLOCK CYCODE *) pTmp->p_list;
 763:Generated_Source\PSoC5/USBFS_std.c ****         for (i = 0u; i < ep; i++)
 764:Generated_Source\PSoC5/USBFS_std.c ****         {
 765:Generated_Source\PSoC5/USBFS_std.c ****             /* Configure interface number for each EP */
 766:Generated_Source\PSoC5/USBFS_std.c ****             USBFS_EP[pEP->addr & USBFS_DIR_UNUSED].interface = pEP->interface;
 767:Generated_Source\PSoC5/USBFS_std.c ****             pEP = &pEP[1u];
 768:Generated_Source\PSoC5/USBFS_std.c ****         }
 769:Generated_Source\PSoC5/USBFS_std.c ****         
 770:Generated_Source\PSoC5/USBFS_std.c ****         /* Init pointer on interface class table */
 771:Generated_Source\PSoC5/USBFS_std.c ****         USBFS_interfaceClass = USBFS_GetInterfaceClassTablePtr();
 772:Generated_Source\PSoC5/USBFS_std.c ****         
 773:Generated_Source\PSoC5/USBFS_std.c ****     /* Set the endpoint buffer addresses */
 774:Generated_Source\PSoC5/USBFS_std.c ****     #if (!USBFS_EP_MANAGEMENT_DMA_AUTO)
 775:Generated_Source\PSoC5/USBFS_std.c ****         buffCount = 0u;
 776:Generated_Source\PSoC5/USBFS_std.c ****         for (ep = USBFS_EP1; ep < USBFS_MAX_EP; ++ep)
ARM GAS  C:\Users\rabbit\AppData\Local\Temp\cccb5bWv.s 			page 18


 777:Generated_Source\PSoC5/USBFS_std.c ****         {
 778:Generated_Source\PSoC5/USBFS_std.c ****             USBFS_EP[ep].buffOffset = buffCount;        
 779:Generated_Source\PSoC5/USBFS_std.c ****             buffCount += USBFS_EP[ep].bufferSize;
 780:Generated_Source\PSoC5/USBFS_std.c ****             
 781:Generated_Source\PSoC5/USBFS_std.c ****         #if (USBFS_GEN_16BITS_EP_ACCESS)
 782:Generated_Source\PSoC5/USBFS_std.c ****             /* Align EP buffers to be event size to access 16-bits DR register. */
 783:Generated_Source\PSoC5/USBFS_std.c ****             buffCount += (0u != (buffCount & 0x01u)) ? 1u : 0u;
 784:Generated_Source\PSoC5/USBFS_std.c ****         #endif /* (USBFS_GEN_16BITS_EP_ACCESS) */            
 785:Generated_Source\PSoC5/USBFS_std.c ****         }
 786:Generated_Source\PSoC5/USBFS_std.c ****     #endif /* (!USBFS_EP_MANAGEMENT_DMA_AUTO) */
 787:Generated_Source\PSoC5/USBFS_std.c **** 
 788:Generated_Source\PSoC5/USBFS_std.c ****         /* Configure hardware registers */
 789:Generated_Source\PSoC5/USBFS_std.c ****         USBFS_ConfigReg();
 790:Generated_Source\PSoC5/USBFS_std.c ****     }
 791:Generated_Source\PSoC5/USBFS_std.c **** }
 792:Generated_Source\PSoC5/USBFS_std.c **** 
 793:Generated_Source\PSoC5/USBFS_std.c **** 
 794:Generated_Source\PSoC5/USBFS_std.c **** /*******************************************************************************
 795:Generated_Source\PSoC5/USBFS_std.c **** * Function Name: USBFS_ConfigAltChanged
 796:Generated_Source\PSoC5/USBFS_std.c **** ****************************************************************************//**
 797:Generated_Source\PSoC5/USBFS_std.c **** *
 798:Generated_Source\PSoC5/USBFS_std.c **** *  This routine update configuration for the required endpoints only.
 799:Generated_Source\PSoC5/USBFS_std.c **** *  It is called after SET_INTERFACE request when Static memory allocation used.
 800:Generated_Source\PSoC5/USBFS_std.c **** *
 801:Generated_Source\PSoC5/USBFS_std.c **** * \reentrant
 802:Generated_Source\PSoC5/USBFS_std.c **** *  No.
 803:Generated_Source\PSoC5/USBFS_std.c **** *
 804:Generated_Source\PSoC5/USBFS_std.c **** *******************************************************************************/
 805:Generated_Source\PSoC5/USBFS_std.c **** void USBFS_ConfigAltChanged(void) 
 806:Generated_Source\PSoC5/USBFS_std.c **** {
 807:Generated_Source\PSoC5/USBFS_std.c ****     uint8 ep;
 808:Generated_Source\PSoC5/USBFS_std.c ****     uint8 curEp;
 809:Generated_Source\PSoC5/USBFS_std.c ****     uint8 epType;
 810:Generated_Source\PSoC5/USBFS_std.c ****     uint8 i;
 811:Generated_Source\PSoC5/USBFS_std.c ****     uint8 interfaceNum;
 812:Generated_Source\PSoC5/USBFS_std.c **** 
 813:Generated_Source\PSoC5/USBFS_std.c ****     const T_USBFS_LUT CYCODE *pTmp;
 814:Generated_Source\PSoC5/USBFS_std.c ****     const T_USBFS_EP_SETTINGS_BLOCK CYCODE *pEP;
 815:Generated_Source\PSoC5/USBFS_std.c **** 
 816:Generated_Source\PSoC5/USBFS_std.c ****     /* Init Endpoints and Device Status if configured */
 817:Generated_Source\PSoC5/USBFS_std.c ****     if (USBFS_configuration > 0u)
 818:Generated_Source\PSoC5/USBFS_std.c ****     {
 819:Generated_Source\PSoC5/USBFS_std.c ****         /* Get number of endpoints configurations (ep). */
 820:Generated_Source\PSoC5/USBFS_std.c ****         pTmp = USBFS_GetConfigTablePtr(USBFS_configuration - 1u);
 821:Generated_Source\PSoC5/USBFS_std.c ****         pTmp = &pTmp[1u];
 822:Generated_Source\PSoC5/USBFS_std.c ****         ep = pTmp->c;
 823:Generated_Source\PSoC5/USBFS_std.c **** 
 824:Generated_Source\PSoC5/USBFS_std.c ****         /* Get pointer to endpoints setting table (pEP). */
 825:Generated_Source\PSoC5/USBFS_std.c ****         pEP = (const T_USBFS_EP_SETTINGS_BLOCK CYCODE *) pTmp->p_list;
 826:Generated_Source\PSoC5/USBFS_std.c ****         
 827:Generated_Source\PSoC5/USBFS_std.c ****         /* Look through all possible endpoint configurations. Find endpoints 
 828:Generated_Source\PSoC5/USBFS_std.c ****         * which belong to current interface and alternate settings for 
 829:Generated_Source\PSoC5/USBFS_std.c ****         * re-configuration.
 830:Generated_Source\PSoC5/USBFS_std.c ****         */
 831:Generated_Source\PSoC5/USBFS_std.c ****         interfaceNum = USBFS_interfaceNumber;
 832:Generated_Source\PSoC5/USBFS_std.c ****         for (i = 0u; i < ep; i++)
 833:Generated_Source\PSoC5/USBFS_std.c ****         {
ARM GAS  C:\Users\rabbit\AppData\Local\Temp\cccb5bWv.s 			page 19


 834:Generated_Source\PSoC5/USBFS_std.c ****             /* Find endpoints which belong to current interface and alternate settings. */
 835:Generated_Source\PSoC5/USBFS_std.c ****             if ((interfaceNum == pEP->interface) && 
 836:Generated_Source\PSoC5/USBFS_std.c ****                 (USBFS_interfaceSetting[interfaceNum] == pEP->altSetting))
 837:Generated_Source\PSoC5/USBFS_std.c ****             {
 838:Generated_Source\PSoC5/USBFS_std.c ****                 curEp  = ((uint8) pEP->addr & USBFS_DIR_UNUSED);
 839:Generated_Source\PSoC5/USBFS_std.c ****                 epType = ((uint8) pEP->attributes & USBFS_EP_TYPE_MASK);
 840:Generated_Source\PSoC5/USBFS_std.c ****                 
 841:Generated_Source\PSoC5/USBFS_std.c ****                 /* Change the SIE mode for the selected EP to NAK ALL */
 842:Generated_Source\PSoC5/USBFS_std.c ****                 USBFS_EP[curEp].epToggle   = 0u;
 843:Generated_Source\PSoC5/USBFS_std.c ****                 USBFS_EP[curEp].addr       = pEP->addr;
 844:Generated_Source\PSoC5/USBFS_std.c ****                 USBFS_EP[curEp].attrib     = pEP->attributes;
 845:Generated_Source\PSoC5/USBFS_std.c ****                 USBFS_EP[curEp].bufferSize = pEP->bufferSize;
 846:Generated_Source\PSoC5/USBFS_std.c **** 
 847:Generated_Source\PSoC5/USBFS_std.c ****                 if (0u != (pEP->addr & USBFS_DIR_IN))
 848:Generated_Source\PSoC5/USBFS_std.c ****                 {
 849:Generated_Source\PSoC5/USBFS_std.c ****                     /* IN Endpoint */
 850:Generated_Source\PSoC5/USBFS_std.c ****                     USBFS_EP[curEp].epMode     = USBFS_GET_ACTIVE_IN_EP_CR0_MODE(epType);
 851:Generated_Source\PSoC5/USBFS_std.c ****                     USBFS_EP[curEp].apiEpState = USBFS_EVENT_PENDING;
 852:Generated_Source\PSoC5/USBFS_std.c ****                 }
 853:Generated_Source\PSoC5/USBFS_std.c ****                 else
 854:Generated_Source\PSoC5/USBFS_std.c ****                 {
 855:Generated_Source\PSoC5/USBFS_std.c ****                     /* OUT Endpoint */
 856:Generated_Source\PSoC5/USBFS_std.c ****                     USBFS_EP[curEp].epMode     = USBFS_GET_ACTIVE_OUT_EP_CR0_MODE(epType);
 857:Generated_Source\PSoC5/USBFS_std.c ****                     USBFS_EP[curEp].apiEpState = USBFS_NO_EVENT_PENDING;
 858:Generated_Source\PSoC5/USBFS_std.c ****                 }
 859:Generated_Source\PSoC5/USBFS_std.c ****                 
 860:Generated_Source\PSoC5/USBFS_std.c ****                 /* Make SIE to NAK any endpoint requests */
 861:Generated_Source\PSoC5/USBFS_std.c ****                 USBFS_SIE_EP_BASE.sieEp[curEp].epCr0 = USBFS_MODE_NAK_IN_OUT;
 862:Generated_Source\PSoC5/USBFS_std.c **** 
 863:Generated_Source\PSoC5/USBFS_std.c ****             #if (USBFS_EP_MANAGEMENT_DMA_AUTO)
 864:Generated_Source\PSoC5/USBFS_std.c ****                 /* Clear IN data ready. */
 865:Generated_Source\PSoC5/USBFS_std.c ****                 USBFS_ARB_EP_BASE.arbEp[curEp].epCfg &= (uint8) ~USBFS_ARB_EPX_CFG_IN_DATA_RDY;
 866:Generated_Source\PSoC5/USBFS_std.c **** 
 867:Generated_Source\PSoC5/USBFS_std.c ****                 /* Select endpoint number of reconfiguration */
 868:Generated_Source\PSoC5/USBFS_std.c ****                 USBFS_DYN_RECONFIG_REG = (uint8) ((curEp - 1u) << USBFS_DYN_RECONFIG_EP_SHIFT);
 869:Generated_Source\PSoC5/USBFS_std.c ****                 
 870:Generated_Source\PSoC5/USBFS_std.c ****                 /* Request for dynamic re-configuration of endpoint. */
 871:Generated_Source\PSoC5/USBFS_std.c ****                 USBFS_DYN_RECONFIG_REG |= USBFS_DYN_RECONFIG_ENABLE;
 872:Generated_Source\PSoC5/USBFS_std.c ****                 
 873:Generated_Source\PSoC5/USBFS_std.c ****                 /* Wait until block is ready for re-configuration */
 874:Generated_Source\PSoC5/USBFS_std.c ****                 while (0u == (USBFS_DYN_RECONFIG_REG & USBFS_DYN_RECONFIG_RDY_STS))
 875:Generated_Source\PSoC5/USBFS_std.c ****                 {
 876:Generated_Source\PSoC5/USBFS_std.c ****                 }
 877:Generated_Source\PSoC5/USBFS_std.c ****                 
 878:Generated_Source\PSoC5/USBFS_std.c ****                 /* Once DYN_RECONFIG_RDY_STS bit is set, FW can change the EP configuration. */
 879:Generated_Source\PSoC5/USBFS_std.c ****                 /* Change EP Type with new direction */
 880:Generated_Source\PSoC5/USBFS_std.c ****                 if (0u != (pEP->addr & USBFS_DIR_IN))
 881:Generated_Source\PSoC5/USBFS_std.c ****                 {
 882:Generated_Source\PSoC5/USBFS_std.c ****                     /* Set endpoint type: 0 - IN and 1 - OUT. */
 883:Generated_Source\PSoC5/USBFS_std.c ****                     USBFS_EP_TYPE_REG &= (uint8) ~(uint8)((uint8) 0x01u << (curEp - 1u));
 884:Generated_Source\PSoC5/USBFS_std.c ****                     
 885:Generated_Source\PSoC5/USBFS_std.c ****                 #if (CY_PSOC4)
 886:Generated_Source\PSoC5/USBFS_std.c ****                     /* Clear DMA_TERMIN for IN endpoint */
 887:Generated_Source\PSoC5/USBFS_std.c ****                     USBFS_ARB_EP_BASE.arbEp[curEp].epIntEn &= (uint32) ~USBFS_ARB_EPX_INT_DMA_TERMI
 888:Generated_Source\PSoC5/USBFS_std.c ****                 #endif /* (CY_PSOC4) */
 889:Generated_Source\PSoC5/USBFS_std.c ****                 }
 890:Generated_Source\PSoC5/USBFS_std.c ****                 else
ARM GAS  C:\Users\rabbit\AppData\Local\Temp\cccb5bWv.s 			page 20


 891:Generated_Source\PSoC5/USBFS_std.c ****                 {
 892:Generated_Source\PSoC5/USBFS_std.c ****                     /* Set endpoint type: 0 - IN and 1- OUT. */
 893:Generated_Source\PSoC5/USBFS_std.c ****                     USBFS_EP_TYPE_REG |= (uint8) ((uint8) 0x01u << (curEp - 1u));
 894:Generated_Source\PSoC5/USBFS_std.c ****                     
 895:Generated_Source\PSoC5/USBFS_std.c ****                 #if (CY_PSOC4)
 896:Generated_Source\PSoC5/USBFS_std.c ****                     /* Set DMA_TERMIN for OUT endpoint */
 897:Generated_Source\PSoC5/USBFS_std.c ****                     USBFS_ARB_EP_BASE.arbEp[curEp].epIntEn |= (uint32) USBFS_ARB_EPX_INT_DMA_TERMIN
 898:Generated_Source\PSoC5/USBFS_std.c ****                 #endif /* (CY_PSOC4) */
 899:Generated_Source\PSoC5/USBFS_std.c ****                 }
 900:Generated_Source\PSoC5/USBFS_std.c ****                 
 901:Generated_Source\PSoC5/USBFS_std.c ****                 /* Complete dynamic re-configuration: all endpoint related status and signals 
 902:Generated_Source\PSoC5/USBFS_std.c ****                 * are set into the default state.
 903:Generated_Source\PSoC5/USBFS_std.c ****                 */
 904:Generated_Source\PSoC5/USBFS_std.c ****                 USBFS_DYN_RECONFIG_REG &= (uint8) ~USBFS_DYN_RECONFIG_ENABLE;
 905:Generated_Source\PSoC5/USBFS_std.c **** 
 906:Generated_Source\PSoC5/USBFS_std.c ****             #else
 907:Generated_Source\PSoC5/USBFS_std.c ****                 USBFS_SIE_EP_BASE.sieEp[curEp].epCnt0 = HI8(USBFS_EP[curEp].bufferSize);
 908:Generated_Source\PSoC5/USBFS_std.c ****                 USBFS_SIE_EP_BASE.sieEp[curEp].epCnt1 = LO8(USBFS_EP[curEp].bufferSize);
 909:Generated_Source\PSoC5/USBFS_std.c ****                 
 910:Generated_Source\PSoC5/USBFS_std.c ****                 #if (CY_PSOC4)
 911:Generated_Source\PSoC5/USBFS_std.c ****                     USBFS_ARB_EP16_BASE.arbEp[curEp].rwRa16  = (uint32) USBFS_EP[curEp].buffOffset;
 912:Generated_Source\PSoC5/USBFS_std.c ****                     USBFS_ARB_EP16_BASE.arbEp[curEp].rwWa16  = (uint32) USBFS_EP[curEp].buffOffset;
 913:Generated_Source\PSoC5/USBFS_std.c ****                 #else
 914:Generated_Source\PSoC5/USBFS_std.c ****                     USBFS_ARB_EP_BASE.arbEp[curEp].rwRa    = LO8(USBFS_EP[curEp].buffOffset);
 915:Generated_Source\PSoC5/USBFS_std.c ****                     USBFS_ARB_EP_BASE.arbEp[curEp].rwRaMsb = HI8(USBFS_EP[curEp].buffOffset);
 916:Generated_Source\PSoC5/USBFS_std.c ****                     USBFS_ARB_EP_BASE.arbEp[curEp].rwWa    = LO8(USBFS_EP[curEp].buffOffset);
 917:Generated_Source\PSoC5/USBFS_std.c ****                     USBFS_ARB_EP_BASE.arbEp[curEp].rwWaMsb = HI8(USBFS_EP[curEp].buffOffset);
 918:Generated_Source\PSoC5/USBFS_std.c ****                 #endif /* (CY_PSOC4) */                
 919:Generated_Source\PSoC5/USBFS_std.c ****             #endif /* (USBFS_EP_MANAGEMENT_DMA_AUTO) */
 920:Generated_Source\PSoC5/USBFS_std.c ****             }
 921:Generated_Source\PSoC5/USBFS_std.c ****             
 922:Generated_Source\PSoC5/USBFS_std.c ****             pEP = &pEP[1u]; /* Get next EP element */
 923:Generated_Source\PSoC5/USBFS_std.c ****         }
 924:Generated_Source\PSoC5/USBFS_std.c ****         
 925:Generated_Source\PSoC5/USBFS_std.c ****         /* The main loop has to re-enable DMA and OUT endpoint */
 926:Generated_Source\PSoC5/USBFS_std.c ****     }
 927:Generated_Source\PSoC5/USBFS_std.c **** }
 928:Generated_Source\PSoC5/USBFS_std.c **** 
 929:Generated_Source\PSoC5/USBFS_std.c **** 
 930:Generated_Source\PSoC5/USBFS_std.c **** /*******************************************************************************
 931:Generated_Source\PSoC5/USBFS_std.c **** * Function Name: USBFS_GetConfigTablePtr
 932:Generated_Source\PSoC5/USBFS_std.c **** ****************************************************************************//**
 933:Generated_Source\PSoC5/USBFS_std.c **** *
 934:Generated_Source\PSoC5/USBFS_std.c **** *  This routine returns a pointer a configuration table entry
 935:Generated_Source\PSoC5/USBFS_std.c **** *
 936:Generated_Source\PSoC5/USBFS_std.c **** *  \param confIndex:  Configuration Index
 937:Generated_Source\PSoC5/USBFS_std.c **** *
 938:Generated_Source\PSoC5/USBFS_std.c **** * \return
 939:Generated_Source\PSoC5/USBFS_std.c **** *  Device Descriptor pointer or NULL when descriptor does not exist.
 940:Generated_Source\PSoC5/USBFS_std.c **** *
 941:Generated_Source\PSoC5/USBFS_std.c **** *******************************************************************************/
 942:Generated_Source\PSoC5/USBFS_std.c **** const T_USBFS_LUT CYCODE *USBFS_GetConfigTablePtr(uint8 confIndex)
 943:Generated_Source\PSoC5/USBFS_std.c ****                                                         
 944:Generated_Source\PSoC5/USBFS_std.c **** {
 179              		.loc 1 944 0
 180              		.cfi_startproc
 181              		@ args = 0, pretend = 0, frame = 0
ARM GAS  C:\Users\rabbit\AppData\Local\Temp\cccb5bWv.s 			page 21


 182              		@ frame_needed = 0, uses_anonymous_args = 0
 183              		@ link register save eliminated.
 184              	.LVL6:
 945:Generated_Source\PSoC5/USBFS_std.c ****     /* Device Table */
 946:Generated_Source\PSoC5/USBFS_std.c ****     const T_USBFS_LUT CYCODE *pTmp;
 947:Generated_Source\PSoC5/USBFS_std.c **** 
 948:Generated_Source\PSoC5/USBFS_std.c ****     pTmp = (const T_USBFS_LUT CYCODE *) USBFS_TABLE[USBFS_device].p_list;
 185              		.loc 1 948 0
 186 0000 064B     		ldr	r3, .L20
 187 0002 074A     		ldr	r2, .L20+4
 188 0004 1B78     		ldrb	r3, [r3]	@ zero_extendqisi2
 189 0006 02EBC302 		add	r2, r2, r3, lsl #3
 190 000a 5368     		ldr	r3, [r2, #4]
 191              	.LVL7:
 949:Generated_Source\PSoC5/USBFS_std.c **** 
 950:Generated_Source\PSoC5/USBFS_std.c ****     /* The first entry points to the Device Descriptor,
 951:Generated_Source\PSoC5/USBFS_std.c ****     *  the second entry point to the BOS Descriptor
 952:Generated_Source\PSoC5/USBFS_std.c ****     *  the rest configuration entries.
 953:Generated_Source\PSoC5/USBFS_std.c ****     *  Set pointer to the first Configuration Descriptor
 954:Generated_Source\PSoC5/USBFS_std.c ****     */
 955:Generated_Source\PSoC5/USBFS_std.c ****     pTmp = &pTmp[2u];
 956:Generated_Source\PSoC5/USBFS_std.c ****     /* For this table, c is the number of configuration descriptors  */
 957:Generated_Source\PSoC5/USBFS_std.c ****     if(confIndex >= pTmp->c)   /* Verify that required configuration descriptor exists */
 192              		.loc 1 957 0
 193 000c 1A7C     		ldrb	r2, [r3, #16]	@ zero_extendqisi2
 194 000e 8242     		cmp	r2, r0
 958:Generated_Source\PSoC5/USBFS_std.c ****     {
 959:Generated_Source\PSoC5/USBFS_std.c ****         pTmp = (const T_USBFS_LUT CYCODE *) NULL;
 960:Generated_Source\PSoC5/USBFS_std.c ****     }
 961:Generated_Source\PSoC5/USBFS_std.c ****     else
 962:Generated_Source\PSoC5/USBFS_std.c ****     {
 963:Generated_Source\PSoC5/USBFS_std.c ****         pTmp = (const T_USBFS_LUT CYCODE *) pTmp[confIndex].p_list;
 195              		.loc 1 963 0
 196 0010 86BF     		itte	hi
 197 0012 03EBC003 		addhi	r3, r3, r0, lsl #3
 198              	.LVL8:
 199 0016 5869     		ldrhi	r0, [r3, #20]
 200              	.LVL9:
 959:Generated_Source\PSoC5/USBFS_std.c ****     }
 201              		.loc 1 959 0
 202 0018 0020     		movls	r0, #0
 203              	.LVL10:
 964:Generated_Source\PSoC5/USBFS_std.c ****     }
 965:Generated_Source\PSoC5/USBFS_std.c **** 
 966:Generated_Source\PSoC5/USBFS_std.c ****     return (pTmp);
 967:Generated_Source\PSoC5/USBFS_std.c **** }
 204              		.loc 1 967 0
 205 001a 7047     		bx	lr
 206              	.L21:
 207              		.align	2
 208              	.L20:
 209 001c 00000000 		.word	USBFS_device
 210 0020 00000000 		.word	USBFS_TABLE
 211              		.cfi_endproc
 212              	.LFE5:
 213              		.size	USBFS_GetConfigTablePtr, .-USBFS_GetConfigTablePtr
 214              		.section	.text.USBFS_ConfigAltChanged,"ax",%progbits
ARM GAS  C:\Users\rabbit\AppData\Local\Temp\cccb5bWv.s 			page 22


 215              		.align	1
 216              		.global	USBFS_ConfigAltChanged
 217              		.thumb
 218              		.thumb_func
 219              		.type	USBFS_ConfigAltChanged, %function
 220              	USBFS_ConfigAltChanged:
 221              	.LFB4:
 806:Generated_Source\PSoC5/USBFS_std.c ****     uint8 ep;
 222              		.loc 1 806 0
 223              		.cfi_startproc
 224              		@ args = 0, pretend = 0, frame = 0
 225              		@ frame_needed = 0, uses_anonymous_args = 0
 226 0000 2DE9F84F 		push	{r3, r4, r5, r6, r7, r8, r9, r10, fp, lr}
 227              		.cfi_def_cfa_offset 40
 228              		.cfi_offset 3, -40
 229              		.cfi_offset 4, -36
 230              		.cfi_offset 5, -32
 231              		.cfi_offset 6, -28
 232              		.cfi_offset 7, -24
 233              		.cfi_offset 8, -20
 234              		.cfi_offset 9, -16
 235              		.cfi_offset 10, -12
 236              		.cfi_offset 11, -8
 237              		.cfi_offset 14, -4
 817:Generated_Source\PSoC5/USBFS_std.c ****     {
 238              		.loc 1 817 0
 239 0004 424B     		ldr	r3, .L34
 240 0006 1A78     		ldrb	r2, [r3]	@ zero_extendqisi2
 241 0008 002A     		cmp	r2, #0
 242 000a 7ED0     		beq	.L22
 243              	.LBB6:
 244              	.LBB7:
 820:Generated_Source\PSoC5/USBFS_std.c ****         pTmp = &pTmp[1u];
 245              		.loc 1 820 0
 246 000c 1878     		ldrb	r0, [r3]	@ zero_extendqisi2
 842:Generated_Source\PSoC5/USBFS_std.c ****                 USBFS_EP[curEp].addr       = pEP->addr;
 247              		.loc 1 842 0
 248 000e 414D     		ldr	r5, .L34+4
 820:Generated_Source\PSoC5/USBFS_std.c ****         pTmp = &pTmp[1u];
 249              		.loc 1 820 0
 250 0010 0138     		subs	r0, r0, #1
 251 0012 C0B2     		uxtb	r0, r0
 252 0014 FFF7FEFF 		bl	USBFS_GetConfigTablePtr
 253              	.LVL11:
 254 0018 A846     		mov	r8, r5
 831:Generated_Source\PSoC5/USBFS_std.c ****         for (i = 0u; i < ep; i++)
 255              		.loc 1 831 0
 256 001a 3F4A     		ldr	r2, .L34+8
 825:Generated_Source\PSoC5/USBFS_std.c ****         
 257              		.loc 1 825 0
 258 001c C368     		ldr	r3, [r0, #12]
 259              	.LVL12:
 831:Generated_Source\PSoC5/USBFS_std.c ****         for (i = 0u; i < ep; i++)
 260              		.loc 1 831 0
 261 001e 1478     		ldrb	r4, [r2]	@ zero_extendqisi2
 262 0020 007A     		ldrb	r0, [r0, #8]	@ zero_extendqisi2
 263              	.LVL13:
ARM GAS  C:\Users\rabbit\AppData\Local\Temp\cccb5bWv.s 			page 23


 836:Generated_Source\PSoC5/USBFS_std.c ****             {
 264              		.loc 1 836 0
 265 0022 DFF800C1 		ldr	ip, .L34+20
 831:Generated_Source\PSoC5/USBFS_std.c ****         for (i = 0u; i < ep; i++)
 266              		.loc 1 831 0
 267 0026 E4B2     		uxtb	r4, r4
 268              	.LVL14:
 269 0028 03EBC000 		add	r0, r3, r0, lsl #3
 270              	.LVL15:
 842:Generated_Source\PSoC5/USBFS_std.c ****                 USBFS_EP[curEp].addr       = pEP->addr;
 271              		.loc 1 842 0
 272 002c 0C26     		movs	r6, #12
 273 002e 0027     		movs	r7, #0
 861:Generated_Source\PSoC5/USBFS_std.c **** 
 274              		.loc 1 861 0
 275 0030 4FF0010E 		mov	lr, #1
 276              	.LVL16:
 277              	.L24:
 832:Generated_Source\PSoC5/USBFS_std.c ****         {
 278              		.loc 1 832 0
 279 0034 8342     		cmp	r3, r0
 280 0036 68D0     		beq	.L22
 835:Generated_Source\PSoC5/USBFS_std.c ****                 (USBFS_interfaceSetting[interfaceNum] == pEP->altSetting))
 281              		.loc 1 835 0
 282 0038 1A78     		ldrb	r2, [r3]	@ zero_extendqisi2
 283 003a A242     		cmp	r2, r4
 284 003c 63D1     		bne	.L25
 836:Generated_Source\PSoC5/USBFS_std.c ****             {
 285              		.loc 1 836 0
 286 003e 1CF80420 		ldrb	r2, [ip, r4]	@ zero_extendqisi2
 835:Generated_Source\PSoC5/USBFS_std.c ****                 (USBFS_interfaceSetting[interfaceNum] == pEP->altSetting))
 287              		.loc 1 835 0
 288 0042 5978     		ldrb	r1, [r3, #1]	@ zero_extendqisi2
 289 0044 9142     		cmp	r1, r2
 290 0046 5ED1     		bne	.L25
 838:Generated_Source\PSoC5/USBFS_std.c ****                 epType = ((uint8) pEP->attributes & USBFS_EP_TYPE_MASK);
 291              		.loc 1 838 0
 292 0048 9A78     		ldrb	r2, [r3, #2]	@ zero_extendqisi2
 839:Generated_Source\PSoC5/USBFS_std.c ****                 
 293              		.loc 1 839 0
 294 004a 93F80390 		ldrb	r9, [r3, #3]	@ zero_extendqisi2
 838:Generated_Source\PSoC5/USBFS_std.c ****                 epType = ((uint8) pEP->attributes & USBFS_EP_TYPE_MASK);
 295              		.loc 1 838 0
 296 004e 02F07F02 		and	r2, r2, #127
 297              	.LVL17:
 842:Generated_Source\PSoC5/USBFS_std.c ****                 USBFS_EP[curEp].addr       = pEP->addr;
 298              		.loc 1 842 0
 299 0052 06FB02FA 		mul	r10, r6, r2
 300 0056 05EB0A01 		add	r1, r5, r10
 301 005a CF70     		strb	r7, [r1, #3]
 843:Generated_Source\PSoC5/USBFS_std.c ****                 USBFS_EP[curEp].attrib     = pEP->attributes;
 302              		.loc 1 843 0
 303 005c 93F802B0 		ldrb	fp, [r3, #2]	@ zero_extendqisi2
 839:Generated_Source\PSoC5/USBFS_std.c ****                 
 304              		.loc 1 839 0
 305 0060 09F00309 		and	r9, r9, #3
 306              	.LVL18:
ARM GAS  C:\Users\rabbit\AppData\Local\Temp\cccb5bWv.s 			page 24


 843:Generated_Source\PSoC5/USBFS_std.c ****                 USBFS_EP[curEp].attrib     = pEP->attributes;
 307              		.loc 1 843 0
 308 0064 81F804B0 		strb	fp, [r1, #4]
 844:Generated_Source\PSoC5/USBFS_std.c ****                 USBFS_EP[curEp].bufferSize = pEP->bufferSize;
 309              		.loc 1 844 0
 310 0068 93F803B0 		ldrb	fp, [r3, #3]	@ zero_extendqisi2
 311 006c 05F80AB0 		strb	fp, [r5, r10]
 845:Generated_Source\PSoC5/USBFS_std.c **** 
 312              		.loc 1 845 0
 313 0070 B3F804A0 		ldrh	r10, [r3, #4]
 314 0074 A1F808A0 		strh	r10, [r1, #8]	@ movhi
 847:Generated_Source\PSoC5/USBFS_std.c ****                 {
 315              		.loc 1 847 0
 316 0078 93F902A0 		ldrsb	r10, [r3, #2]
 317 007c BAF1000F 		cmp	r10, #0
 318 0080 0BDA     		bge	.L26
 850:Generated_Source\PSoC5/USBFS_std.c ****                     USBFS_EP[curEp].apiEpState = USBFS_EVENT_PENDING;
 319              		.loc 1 850 0
 320 0082 B9F1010F 		cmp	r9, #1
 321 0086 0CBF     		ite	eq
 322 0088 4FF00709 		moveq	r9, #7
 323              	.LVL19:
 324 008c 4FF00D09 		movne	r9, #13
 325 0090 81F80590 		strb	r9, [r1, #5]
 851:Generated_Source\PSoC5/USBFS_std.c ****                 }
 326              		.loc 1 851 0
 327 0094 81F801E0 		strb	lr, [r1, #1]
 328 0098 09E0     		b	.L28
 329              	.LVL20:
 330              	.L26:
 856:Generated_Source\PSoC5/USBFS_std.c ****                     USBFS_EP[curEp].apiEpState = USBFS_NO_EVENT_PENDING;
 331              		.loc 1 856 0
 332 009a B9F1010F 		cmp	r9, #1
 333 009e 0CBF     		ite	eq
 334 00a0 4FF00509 		moveq	r9, #5
 335              	.LVL21:
 336 00a4 4FF00909 		movne	r9, #9
 337 00a8 81F80590 		strb	r9, [r1, #5]
 857:Generated_Source\PSoC5/USBFS_std.c ****                 }
 338              		.loc 1 857 0
 339 00ac 4F70     		strb	r7, [r1, #1]
 340              	.L28:
 341 00ae 4FEA0219 		lsl	r9, r2, #4
 342 00b2 1A49     		ldr	r1, .L34+12
 907:Generated_Source\PSoC5/USBFS_std.c ****                 USBFS_SIE_EP_BASE.sieEp[curEp].epCnt1 = LO8(USBFS_EP[curEp].bufferSize);
 343              		.loc 1 907 0
 344 00b4 06FB0282 		mla	r2, r6, r2, r8
 345              	.LVL22:
 346 00b8 4944     		add	r1, r1, r9
 861:Generated_Source\PSoC5/USBFS_std.c **** 
 347              		.loc 1 861 0
 348 00ba 81F802E0 		strb	lr, [r1, #2]
 907:Generated_Source\PSoC5/USBFS_std.c ****                 USBFS_SIE_EP_BASE.sieEp[curEp].epCnt1 = LO8(USBFS_EP[curEp].bufferSize);
 349              		.loc 1 907 0
 350 00be B2F808A0 		ldrh	r10, [r2, #8]
 351 00c2 CAF3072A 		ubfx	r10, r10, #8, #8
 352 00c6 81F800A0 		strb	r10, [r1]
ARM GAS  C:\Users\rabbit\AppData\Local\Temp\cccb5bWv.s 			page 25


 908:Generated_Source\PSoC5/USBFS_std.c ****                 
 353              		.loc 1 908 0
 354 00ca B2F808A0 		ldrh	r10, [r2, #8]
 355 00ce 5FFA8AFA 		uxtb	r10, r10
 356 00d2 81F801A0 		strb	r10, [r1, #1]
 914:Generated_Source\PSoC5/USBFS_std.c ****                     USBFS_ARB_EP_BASE.arbEp[curEp].rwRaMsb = HI8(USBFS_EP[curEp].buffOffset);
 357              		.loc 1 914 0
 358 00d6 B2F806A0 		ldrh	r10, [r2, #6]
 359 00da 1149     		ldr	r1, .L34+16
 360 00dc 5FFA8AFA 		uxtb	r10, r10
 361 00e0 4944     		add	r1, r1, r9
 362 00e2 81F806A0 		strb	r10, [r1, #6]
 915:Generated_Source\PSoC5/USBFS_std.c ****                     USBFS_ARB_EP_BASE.arbEp[curEp].rwWa    = LO8(USBFS_EP[curEp].buffOffset);
 363              		.loc 1 915 0
 364 00e6 B2F80690 		ldrh	r9, [r2, #6]
 365 00ea C9F30729 		ubfx	r9, r9, #8, #8
 366 00ee 81F80790 		strb	r9, [r1, #7]
 916:Generated_Source\PSoC5/USBFS_std.c ****                     USBFS_ARB_EP_BASE.arbEp[curEp].rwWaMsb = HI8(USBFS_EP[curEp].buffOffset);
 367              		.loc 1 916 0
 368 00f2 B2F80690 		ldrh	r9, [r2, #6]
 369 00f6 5FFA89F9 		uxtb	r9, r9
 370 00fa 81F80490 		strb	r9, [r1, #4]
 917:Generated_Source\PSoC5/USBFS_std.c ****                 #endif /* (CY_PSOC4) */                
 371              		.loc 1 917 0
 372 00fe D288     		ldrh	r2, [r2, #6]
 373 0100 C2F30722 		ubfx	r2, r2, #8, #8
 374 0104 4A71     		strb	r2, [r1, #5]
 375              	.L25:
 922:Generated_Source\PSoC5/USBFS_std.c ****         }
 376              		.loc 1 922 0
 377 0106 0833     		adds	r3, r3, #8
 378              	.LVL23:
 379 0108 94E7     		b	.L24
 380              	.LVL24:
 381              	.L22:
 382 010a BDE8F88F 		pop	{r3, r4, r5, r6, r7, r8, r9, r10, fp, pc}
 383              	.L35:
 384 010e 00BF     		.align	2
 385              	.L34:
 386 0110 00000000 		.word	USBFS_configuration
 387 0114 00000000 		.word	USBFS_EP
 388 0118 00000000 		.word	USBFS_interfaceNumber
 389 011c FC5F0040 		.word	1073766396
 390 0120 70600040 		.word	1073766512
 391 0124 00000000 		.word	USBFS_interfaceSetting
 392              	.LBE7:
 393              	.LBE6:
 394              		.cfi_endproc
 395              	.LFE4:
 396              		.size	USBFS_ConfigAltChanged, .-USBFS_ConfigAltChanged
 397              		.section	.text.USBFS_GetDeviceTablePtr,"ax",%progbits
 398              		.align	1
 399              		.global	USBFS_GetDeviceTablePtr
 400              		.thumb
 401              		.thumb_func
 402              		.type	USBFS_GetDeviceTablePtr, %function
 403              	USBFS_GetDeviceTablePtr:
ARM GAS  C:\Users\rabbit\AppData\Local\Temp\cccb5bWv.s 			page 26


 404              	.LFB6:
 968:Generated_Source\PSoC5/USBFS_std.c **** 
 969:Generated_Source\PSoC5/USBFS_std.c **** 
 970:Generated_Source\PSoC5/USBFS_std.c **** #if (USBFS_BOS_ENABLE)
 971:Generated_Source\PSoC5/USBFS_std.c ****     /*******************************************************************************
 972:Generated_Source\PSoC5/USBFS_std.c ****     * Function Name: USBFS_GetBOSPtr
 973:Generated_Source\PSoC5/USBFS_std.c ****     ****************************************************************************//**
 974:Generated_Source\PSoC5/USBFS_std.c ****     *
 975:Generated_Source\PSoC5/USBFS_std.c ****     *  This routine returns a pointer a BOS table entry
 976:Generated_Source\PSoC5/USBFS_std.c ****     *
 977:Generated_Source\PSoC5/USBFS_std.c ****     *  
 978:Generated_Source\PSoC5/USBFS_std.c ****     *
 979:Generated_Source\PSoC5/USBFS_std.c ****     * \return
 980:Generated_Source\PSoC5/USBFS_std.c ****     *  BOS Descriptor pointer or NULL when descriptor does not exist.
 981:Generated_Source\PSoC5/USBFS_std.c ****     *
 982:Generated_Source\PSoC5/USBFS_std.c ****     *******************************************************************************/
 983:Generated_Source\PSoC5/USBFS_std.c ****     const T_USBFS_LUT CYCODE *USBFS_GetBOSPtr(void)
 984:Generated_Source\PSoC5/USBFS_std.c ****                                                             
 985:Generated_Source\PSoC5/USBFS_std.c ****     {
 986:Generated_Source\PSoC5/USBFS_std.c ****         /* Device Table */
 987:Generated_Source\PSoC5/USBFS_std.c ****         const T_USBFS_LUT CYCODE *pTmp;
 988:Generated_Source\PSoC5/USBFS_std.c **** 
 989:Generated_Source\PSoC5/USBFS_std.c ****         pTmp = (const T_USBFS_LUT CYCODE *) USBFS_TABLE[USBFS_device].p_list;
 990:Generated_Source\PSoC5/USBFS_std.c **** 
 991:Generated_Source\PSoC5/USBFS_std.c ****         /* The first entry points to the Device Descriptor,
 992:Generated_Source\PSoC5/USBFS_std.c ****         *  the second entry points to the BOS Descriptor
 993:Generated_Source\PSoC5/USBFS_std.c ****         */
 994:Generated_Source\PSoC5/USBFS_std.c ****         pTmp = &pTmp[1u];
 995:Generated_Source\PSoC5/USBFS_std.c ****         pTmp = (const T_USBFS_LUT CYCODE *) pTmp->p_list;
 996:Generated_Source\PSoC5/USBFS_std.c ****         return (pTmp);
 997:Generated_Source\PSoC5/USBFS_std.c ****     }
 998:Generated_Source\PSoC5/USBFS_std.c **** #endif /* (USBFS_BOS_ENABLE) */
 999:Generated_Source\PSoC5/USBFS_std.c **** 
1000:Generated_Source\PSoC5/USBFS_std.c **** 
1001:Generated_Source\PSoC5/USBFS_std.c **** /*******************************************************************************
1002:Generated_Source\PSoC5/USBFS_std.c **** * Function Name: USBFS_GetDeviceTablePtr
1003:Generated_Source\PSoC5/USBFS_std.c **** ****************************************************************************//**
1004:Generated_Source\PSoC5/USBFS_std.c **** *
1005:Generated_Source\PSoC5/USBFS_std.c **** *  This routine returns a pointer to the Device table
1006:Generated_Source\PSoC5/USBFS_std.c **** *
1007:Generated_Source\PSoC5/USBFS_std.c **** * \return
1008:Generated_Source\PSoC5/USBFS_std.c **** *  Device Table pointer
1009:Generated_Source\PSoC5/USBFS_std.c **** *
1010:Generated_Source\PSoC5/USBFS_std.c **** *******************************************************************************/
1011:Generated_Source\PSoC5/USBFS_std.c **** const T_USBFS_LUT CYCODE *USBFS_GetDeviceTablePtr(void)
1012:Generated_Source\PSoC5/USBFS_std.c ****                                                             
1013:Generated_Source\PSoC5/USBFS_std.c **** {
 405              		.loc 1 1013 0
 406              		.cfi_startproc
 407              		@ args = 0, pretend = 0, frame = 0
 408              		@ frame_needed = 0, uses_anonymous_args = 0
 409              		@ link register save eliminated.
1014:Generated_Source\PSoC5/USBFS_std.c ****     /* Device Table */
1015:Generated_Source\PSoC5/USBFS_std.c ****     return( (const T_USBFS_LUT CYCODE *) USBFS_TABLE[USBFS_device].p_list );
 410              		.loc 1 1015 0
 411 0000 034B     		ldr	r3, .L37
 412 0002 1A78     		ldrb	r2, [r3]	@ zero_extendqisi2
ARM GAS  C:\Users\rabbit\AppData\Local\Temp\cccb5bWv.s 			page 27


 413 0004 034B     		ldr	r3, .L37+4
 414 0006 03EBC203 		add	r3, r3, r2, lsl #3
1016:Generated_Source\PSoC5/USBFS_std.c **** }
 415              		.loc 1 1016 0
 416 000a 5868     		ldr	r0, [r3, #4]
 417 000c 7047     		bx	lr
 418              	.L38:
 419 000e 00BF     		.align	2
 420              	.L37:
 421 0010 00000000 		.word	USBFS_device
 422 0014 00000000 		.word	USBFS_TABLE
 423              		.cfi_endproc
 424              	.LFE6:
 425              		.size	USBFS_GetDeviceTablePtr, .-USBFS_GetDeviceTablePtr
 426              		.section	.text.USBFS_GetInterfaceClassTablePtr,"ax",%progbits
 427              		.align	1
 428              		.global	USBFS_GetInterfaceClassTablePtr
 429              		.thumb
 430              		.thumb_func
 431              		.type	USBFS_GetInterfaceClassTablePtr, %function
 432              	USBFS_GetInterfaceClassTablePtr:
 433              	.LFB7:
1017:Generated_Source\PSoC5/USBFS_std.c **** 
1018:Generated_Source\PSoC5/USBFS_std.c **** 
1019:Generated_Source\PSoC5/USBFS_std.c **** /*******************************************************************************
1020:Generated_Source\PSoC5/USBFS_std.c **** * Function Name: USB_GetInterfaceClassTablePtr
1021:Generated_Source\PSoC5/USBFS_std.c **** ****************************************************************************//**
1022:Generated_Source\PSoC5/USBFS_std.c **** *
1023:Generated_Source\PSoC5/USBFS_std.c **** *  This routine returns Interface Class table pointer, which contains
1024:Generated_Source\PSoC5/USBFS_std.c **** *  the relation between interface number and interface class.
1025:Generated_Source\PSoC5/USBFS_std.c **** *
1026:Generated_Source\PSoC5/USBFS_std.c **** * \return
1027:Generated_Source\PSoC5/USBFS_std.c **** *  Interface Class table pointer.
1028:Generated_Source\PSoC5/USBFS_std.c **** *
1029:Generated_Source\PSoC5/USBFS_std.c **** *******************************************************************************/
1030:Generated_Source\PSoC5/USBFS_std.c **** const uint8 CYCODE *USBFS_GetInterfaceClassTablePtr(void)
1031:Generated_Source\PSoC5/USBFS_std.c ****                                                         
1032:Generated_Source\PSoC5/USBFS_std.c **** {
 434              		.loc 1 1032 0
 435              		.cfi_startproc
 436              		@ args = 0, pretend = 0, frame = 0
 437              		@ frame_needed = 0, uses_anonymous_args = 0
 438 0000 08B5     		push	{r3, lr}
 439              		.cfi_def_cfa_offset 8
 440              		.cfi_offset 3, -8
 441              		.cfi_offset 14, -4
1033:Generated_Source\PSoC5/USBFS_std.c ****     const T_USBFS_LUT CYCODE *pTmp;
1034:Generated_Source\PSoC5/USBFS_std.c ****     const uint8 CYCODE *pInterfaceClass;
1035:Generated_Source\PSoC5/USBFS_std.c ****     uint8 currentInterfacesNum;
1036:Generated_Source\PSoC5/USBFS_std.c **** 
1037:Generated_Source\PSoC5/USBFS_std.c ****     pTmp = USBFS_GetConfigTablePtr(USBFS_configuration - 1u);
 442              		.loc 1 1037 0
 443 0002 064B     		ldr	r3, .L42
 444 0004 1878     		ldrb	r0, [r3]	@ zero_extendqisi2
 445 0006 0138     		subs	r0, r0, #1
 446 0008 C0B2     		uxtb	r0, r0
 447 000a FFF7FEFF 		bl	USBFS_GetConfigTablePtr
ARM GAS  C:\Users\rabbit\AppData\Local\Temp\cccb5bWv.s 			page 28


 448              	.LVL25:
1038:Generated_Source\PSoC5/USBFS_std.c ****     if (pTmp != NULL)
 449              		.loc 1 1038 0
 450 000e 20B1     		cbz	r0, .L40
 451              	.LVL26:
1039:Generated_Source\PSoC5/USBFS_std.c ****     {
1040:Generated_Source\PSoC5/USBFS_std.c ****         currentInterfacesNum  = ((const uint8 *) pTmp->p_list)[USBFS_CONFIG_DESCR_NUM_INTERFACES];
 452              		.loc 1 1040 0
 453 0010 4368     		ldr	r3, [r0, #4]
1041:Generated_Source\PSoC5/USBFS_std.c ****         /* Third entry in the LUT starts the Interface Table pointers */
1042:Generated_Source\PSoC5/USBFS_std.c ****         /* The INTERFACE_CLASS table is located after all interfaces */
1043:Generated_Source\PSoC5/USBFS_std.c ****         pTmp = &pTmp[currentInterfacesNum + 2u];
 454              		.loc 1 1043 0
 455 0012 1B79     		ldrb	r3, [r3, #4]	@ zero_extendqisi2
 456              	.LVL27:
1044:Generated_Source\PSoC5/USBFS_std.c ****         pInterfaceClass = (const uint8 CYCODE *) pTmp->p_list;
 457              		.loc 1 1044 0
 458 0014 00EBC300 		add	r0, r0, r3, lsl #3
 459              	.LVL28:
 460 0018 4069     		ldr	r0, [r0, #20]
 461              	.LVL29:
 462              	.L40:
1045:Generated_Source\PSoC5/USBFS_std.c ****     }
1046:Generated_Source\PSoC5/USBFS_std.c ****     else
1047:Generated_Source\PSoC5/USBFS_std.c ****     {
1048:Generated_Source\PSoC5/USBFS_std.c ****         pInterfaceClass = (const uint8 CYCODE *) NULL;
1049:Generated_Source\PSoC5/USBFS_std.c ****     }
1050:Generated_Source\PSoC5/USBFS_std.c **** 
1051:Generated_Source\PSoC5/USBFS_std.c ****     return (pInterfaceClass);
1052:Generated_Source\PSoC5/USBFS_std.c **** }
 463              		.loc 1 1052 0
 464 001a 08BD     		pop	{r3, pc}
 465              	.L43:
 466              		.align	2
 467              	.L42:
 468 001c 00000000 		.word	USBFS_configuration
 469              		.cfi_endproc
 470              	.LFE7:
 471              		.size	USBFS_GetInterfaceClassTablePtr, .-USBFS_GetInterfaceClassTablePtr
 472              		.section	.text.USBFS_Config,"ax",%progbits
 473              		.align	1
 474              		.global	USBFS_Config
 475              		.thumb
 476              		.thumb_func
 477              		.type	USBFS_Config, %function
 478              	USBFS_Config:
 479              	.LFB3:
 571:Generated_Source\PSoC5/USBFS_std.c ****     uint8 ep;
 480              		.loc 1 571 0
 481              		.cfi_startproc
 482              		@ args = 0, pretend = 0, frame = 0
 483              		@ frame_needed = 0, uses_anonymous_args = 0
 484              	.LVL30:
 485 0000 0021     		movs	r1, #0
 486 0002 2DE9F84F 		push	{r3, r4, r5, r6, r7, r8, r9, r10, fp, lr}
 487              		.cfi_def_cfa_offset 40
 488              		.cfi_offset 3, -40
ARM GAS  C:\Users\rabbit\AppData\Local\Temp\cccb5bWv.s 			page 29


 489              		.cfi_offset 4, -36
 490              		.cfi_offset 5, -32
 491              		.cfi_offset 6, -28
 492              		.cfi_offset 7, -24
 493              		.cfi_offset 8, -20
 494              		.cfi_offset 9, -16
 495              		.cfi_offset 10, -12
 496              		.cfi_offset 11, -8
 497              		.cfi_offset 14, -4
 588:Generated_Source\PSoC5/USBFS_std.c ****         USBFS_EP[ep].hwEpState  = 0u;
 498              		.loc 1 588 0
 499 0006 0B46     		mov	r3, r1
 500 0008 4C4E     		ldr	r6, .L74
 501 000a 0C27     		movs	r7, #12
 502              	.LVL31:
 503              	.L45:
 588:Generated_Source\PSoC5/USBFS_std.c ****         USBFS_EP[ep].hwEpState  = 0u;
 504              		.loc 1 588 0 is_stmt 0 discriminator 3
 505 000c 07FB01F5 		mul	r5, r7, r1
 506 0010 0131     		adds	r1, r1, #1
 507              	.LVL32:
 508 0012 7219     		adds	r2, r6, r5
 586:Generated_Source\PSoC5/USBFS_std.c ****     {
 509              		.loc 1 586 0 is_stmt 1 discriminator 3
 510 0014 0929     		cmp	r1, #9
 588:Generated_Source\PSoC5/USBFS_std.c ****         USBFS_EP[ep].hwEpState  = 0u;
 511              		.loc 1 588 0 discriminator 3
 512 0016 7355     		strb	r3, [r6, r5]
 513 0018 4FF00004 		mov	r4, #0
 589:Generated_Source\PSoC5/USBFS_std.c ****         USBFS_EP[ep].epToggle   = 0u;
 514              		.loc 1 589 0 discriminator 3
 515 001c 9370     		strb	r3, [r2, #2]
 516 001e 474D     		ldr	r5, .L74
 590:Generated_Source\PSoC5/USBFS_std.c ****         USBFS_EP[ep].bufferSize = 0u;
 517              		.loc 1 590 0 discriminator 3
 518 0020 D370     		strb	r3, [r2, #3]
 591:Generated_Source\PSoC5/USBFS_std.c ****         USBFS_EP[ep].interface  = 0u;
 519              		.loc 1 591 0 discriminator 3
 520 0022 1381     		strh	r3, [r2, #8]	@ movhi
 592:Generated_Source\PSoC5/USBFS_std.c ****         USBFS_EP[ep].apiEpState = USBFS_NO_EVENT_PENDING;
 521              		.loc 1 592 0 discriminator 3
 522 0024 9372     		strb	r3, [r2, #10]
 593:Generated_Source\PSoC5/USBFS_std.c ****         USBFS_EP[ep].epMode     = USBFS_MODE_DISABLE;   
 523              		.loc 1 593 0 discriminator 3
 524 0026 5370     		strb	r3, [r2, #1]
 594:Generated_Source\PSoC5/USBFS_std.c ****     }
 525              		.loc 1 594 0 discriminator 3
 526 0028 5371     		strb	r3, [r2, #5]
 586:Generated_Source\PSoC5/USBFS_std.c ****     {
 527              		.loc 1 586 0 discriminator 3
 528 002a EFD1     		bne	.L45
 598:Generated_Source\PSoC5/USBFS_std.c ****     {
 529              		.loc 1 598 0
 530 002c 18B1     		cbz	r0, .L46
 531              	.LVL33:
 602:Generated_Source\PSoC5/USBFS_std.c ****             USBFS_interfaceSettingLast[i] = 0u;
 532              		.loc 1 602 0 discriminator 3
ARM GAS  C:\Users\rabbit\AppData\Local\Temp\cccb5bWv.s 			page 30


 533 002e 444B     		ldr	r3, .L74+4
 534 0030 1C70     		strb	r4, [r3]
 603:Generated_Source\PSoC5/USBFS_std.c ****         }
 535              		.loc 1 603 0 discriminator 3
 536 0032 444B     		ldr	r3, .L74+8
 537 0034 1C70     		strb	r4, [r3]
 538              	.LVL34:
 539              	.L46:
 608:Generated_Source\PSoC5/USBFS_std.c ****     {
 540              		.loc 1 608 0
 541 0036 444B     		ldr	r3, .L74+12
 542 0038 1A78     		ldrb	r2, [r3]	@ zero_extendqisi2
 543 003a 002A     		cmp	r2, #0
 544 003c 7BD0     		beq	.L44
 545              	.LVL35:
 546              	.LBB10:
 547              	.LBB11:
 614:Generated_Source\PSoC5/USBFS_std.c ****         
 548              		.loc 1 614 0
 549 003e 1878     		ldrb	r0, [r3]	@ zero_extendqisi2
 550              	.LVL36:
 629:Generated_Source\PSoC5/USBFS_std.c **** 
 551              		.loc 1 629 0
 552 0040 0124     		movs	r4, #1
 614:Generated_Source\PSoC5/USBFS_std.c ****         
 553              		.loc 1 614 0
 554 0042 0138     		subs	r0, r0, #1
 555 0044 C0B2     		uxtb	r0, r0
 556 0046 FFF7FEFF 		bl	USBFS_GetConfigTablePtr
 557              	.LVL37:
 716:Generated_Source\PSoC5/USBFS_std.c ****                                 
 558              		.loc 1 716 0
 559 004a A046     		mov	r8, r4
 618:Generated_Source\PSoC5/USBFS_std.c ****         {
 560              		.loc 1 618 0
 561 004c 4368     		ldr	r3, [r0, #4]
 705:Generated_Source\PSoC5/USBFS_std.c ****                         {                            
 562              		.loc 1 705 0
 563 004e DFF8F0E0 		ldr	lr, .L74+4
 618:Generated_Source\PSoC5/USBFS_std.c ****         {
 564              		.loc 1 618 0
 565 0052 DB79     		ldrb	r3, [r3, #7]	@ zero_extendqisi2
 699:Generated_Source\PSoC5/USBFS_std.c ****                         {
 566              		.loc 1 699 0
 567 0054 0C27     		movs	r7, #12
 618:Generated_Source\PSoC5/USBFS_std.c ****         {
 568              		.loc 1 618 0
 569 0056 13F0400F 		tst	r3, #64
 570 005a 3C4B     		ldr	r3, .L74+16
 729:Generated_Source\PSoC5/USBFS_std.c ****                                 
 571              		.loc 1 729 0
 572 005c 4FF0000C 		mov	ip, #0
 620:Generated_Source\PSoC5/USBFS_std.c ****         }
 573              		.loc 1 620 0
 574 0060 1A78     		ldrb	r2, [r3]	@ zero_extendqisi2
 575 0062 14BF     		ite	ne
 576 0064 42F00102 		orrne	r2, r2, #1
ARM GAS  C:\Users\rabbit\AppData\Local\Temp\cccb5bWv.s 			page 31


 624:Generated_Source\PSoC5/USBFS_std.c ****         }
 577              		.loc 1 624 0
 578 0068 02F0FE02 		andeq	r2, r2, #254
 579 006c 1A70     		strb	r2, [r3]
 580              	.LVL38:
 581 006e 027A     		ldrb	r2, [r0, #8]	@ zero_extendqisi2
 582 0070 D200     		lsls	r2, r2, #3
 583              	.LVL39:
 584              	.L59:
 699:Generated_Source\PSoC5/USBFS_std.c ****                         {
 585              		.loc 1 699 0
 586 0072 07FB0451 		mla	r1, r7, r4, r5
 690:Generated_Source\PSoC5/USBFS_std.c ****                 /* Find max length for each EP and select it (length could be different in differen
 587              		.loc 1 690 0
 588 0076 C368     		ldr	r3, [r0, #12]
 589              	.LVL40:
 590 0078 03EB0209 		add	r9, r3, r2
 591              	.LVL41:
 592              	.L50:
 694:Generated_Source\PSoC5/USBFS_std.c ****                 {
 593              		.loc 1 694 0
 594 007c 4B45     		cmp	r3, r9
 595 007e 31D0     		beq	.L72
 696:Generated_Source\PSoC5/USBFS_std.c ****                     {
 596              		.loc 1 696 0
 597 0080 93F802A0 		ldrb	r10, [r3, #2]	@ zero_extendqisi2
 598 0084 0AF07F06 		and	r6, r10, #127
 599 0088 A642     		cmp	r6, r4
 600 008a 29D1     		bne	.L52
 699:Generated_Source\PSoC5/USBFS_std.c ****                         {
 601              		.loc 1 699 0
 602 008c 0E89     		ldrh	r6, [r1, #8]
 603 008e B3F804B0 		ldrh	fp, [r3, #4]
 604 0092 B6B2     		uxth	r6, r6
 605 0094 5E45     		cmp	r6, fp
 701:Generated_Source\PSoC5/USBFS_std.c ****                         }
 606              		.loc 1 701 0
 607 0096 38BF     		it	cc
 608 0098 A1F808B0 		strhcc	fp, [r1, #8]	@ movhi
 705:Generated_Source\PSoC5/USBFS_std.c ****                         {                            
 609              		.loc 1 705 0
 610 009c 1E78     		ldrb	r6, [r3]	@ zero_extendqisi2
 611 009e 93F801B0 		ldrb	fp, [r3, #1]	@ zero_extendqisi2
 612 00a2 1EF80660 		ldrb	r6, [lr, r6]	@ zero_extendqisi2
 613 00a6 B345     		cmp	fp, r6
 614 00a8 1AD1     		bne	.L52
 707:Generated_Source\PSoC5/USBFS_std.c ****                             USBFS_EP[i].attrib = pEP->attributes;
 615              		.loc 1 707 0
 616 00aa 81F804A0 		strb	r10, [r1, #4]
 708:Generated_Source\PSoC5/USBFS_std.c ****                             
 617              		.loc 1 708 0
 618 00ae DE78     		ldrb	r6, [r3, #3]	@ zero_extendqisi2
 619 00b0 0E70     		strb	r6, [r1]
 712:Generated_Source\PSoC5/USBFS_std.c ****                             {
 620              		.loc 1 712 0
 621 00b2 93F902A0 		ldrsb	r10, [r3, #2]
 710:Generated_Source\PSoC5/USBFS_std.c ****                             
ARM GAS  C:\Users\rabbit\AppData\Local\Temp\cccb5bWv.s 			page 32


 622              		.loc 1 710 0
 623 00b6 DE78     		ldrb	r6, [r3, #3]	@ zero_extendqisi2
 712:Generated_Source\PSoC5/USBFS_std.c ****                             {
 624              		.loc 1 712 0
 625 00b8 BAF1000F 		cmp	r10, #0
 710:Generated_Source\PSoC5/USBFS_std.c ****                             
 626              		.loc 1 710 0
 627 00bc 06F00306 		and	r6, r6, #3
 628              	.LVL42:
 712:Generated_Source\PSoC5/USBFS_std.c ****                             {
 629              		.loc 1 712 0
 630 00c0 07DA     		bge	.L55
 715:Generated_Source\PSoC5/USBFS_std.c ****                                 USBFS_EP[i].apiEpState = USBFS_EVENT_PENDING;
 631              		.loc 1 715 0
 632 00c2 012E     		cmp	r6, #1
 633 00c4 0CBF     		ite	eq
 634 00c6 0726     		moveq	r6, #7
 635              	.LVL43:
 636 00c8 0D26     		movne	r6, #13
 637 00ca 4E71     		strb	r6, [r1, #5]
 638              	.LVL44:
 716:Generated_Source\PSoC5/USBFS_std.c ****                                 
 639              		.loc 1 716 0
 640 00cc 81F80180 		strb	r8, [r1, #1]
 641 00d0 06E0     		b	.L52
 642              	.LVL45:
 643              	.L55:
 728:Generated_Source\PSoC5/USBFS_std.c ****                                 USBFS_EP[i].apiEpState = USBFS_NO_EVENT_PENDING;
 644              		.loc 1 728 0
 645 00d2 012E     		cmp	r6, #1
 646 00d4 0CBF     		ite	eq
 647 00d6 0526     		moveq	r6, #5
 648              	.LVL46:
 649 00d8 0926     		movne	r6, #9
 650 00da 4E71     		strb	r6, [r1, #5]
 651              	.LVL47:
 729:Generated_Source\PSoC5/USBFS_std.c ****                                 
 652              		.loc 1 729 0
 653 00dc 81F801C0 		strb	ip, [r1, #1]
 654              	.L52:
 752:Generated_Source\PSoC5/USBFS_std.c ****                 }
 655              		.loc 1 752 0
 656 00e0 0833     		adds	r3, r3, #8
 657              	.LVL48:
 658 00e2 CBE7     		b	.L50
 659              	.L72:
 660              	.LVL49:
 661 00e4 0134     		adds	r4, r4, #1
 662              	.LVL50:
 687:Generated_Source\PSoC5/USBFS_std.c ****             {
 663              		.loc 1 687 0
 664 00e6 092C     		cmp	r4, #9
 665 00e8 C3D1     		bne	.L59
 762:Generated_Source\PSoC5/USBFS_std.c ****         for (i = 0u; i < ep; i++)
 666              		.loc 1 762 0
 667 00ea C168     		ldr	r1, [r0, #12]
 668              	.LVL51:
ARM GAS  C:\Users\rabbit\AppData\Local\Temp\cccb5bWv.s 			page 33


 669 00ec 0A32     		adds	r2, r2, #10
 670 00ee 8B1C     		adds	r3, r1, #2
 671 00f0 0A44     		add	r2, r2, r1
 766:Generated_Source\PSoC5/USBFS_std.c ****             pEP = &pEP[1u];
 672              		.loc 1 766 0
 673 00f2 0C20     		movs	r0, #12
 674              	.LVL52:
 675              	.L60:
 676 00f4 0833     		adds	r3, r3, #8
 677              	.LVL53:
 763:Generated_Source\PSoC5/USBFS_std.c ****         {
 678              		.loc 1 763 0
 679 00f6 9342     		cmp	r3, r2
 680 00f8 09D0     		beq	.L73
 766:Generated_Source\PSoC5/USBFS_std.c ****             pEP = &pEP[1u];
 681              		.loc 1 766 0
 682 00fa 13F8081C 		ldrb	r1, [r3, #-8]	@ zero_extendqisi2
 683 00fe 13F80A4C 		ldrb	r4, [r3, #-10]	@ zero_extendqisi2
 684 0102 01F07F01 		and	r1, r1, #127
 685 0106 00FB0151 		mla	r1, r0, r1, r5
 686 010a 8C72     		strb	r4, [r1, #10]
 687              	.LVL54:
 688 010c F2E7     		b	.L60
 689              	.LVL55:
 690              	.L73:
 771:Generated_Source\PSoC5/USBFS_std.c ****         
 691              		.loc 1 771 0
 692 010e FFF7FEFF 		bl	USBFS_GetInterfaceClassTablePtr
 693              	.LVL56:
 694 0112 0F4B     		ldr	r3, .L74+20
 695 0114 0122     		movs	r2, #1
 696 0116 1860     		str	r0, [r3]
 697              	.LVL57:
 775:Generated_Source\PSoC5/USBFS_std.c ****         for (ep = USBFS_EP1; ep < USBFS_MAX_EP; ++ep)
 698              		.loc 1 775 0
 699 0118 0023     		movs	r3, #0
 778:Generated_Source\PSoC5/USBFS_std.c ****             buffCount += USBFS_EP[ep].bufferSize;
 700              		.loc 1 778 0
 701 011a 0C20     		movs	r0, #12
 702              	.LVL58:
 703              	.L62:
 704 011c 00FB0251 		mla	r1, r0, r2, r5
 705 0120 CB80     		strh	r3, [r1, #6]	@ movhi
 779:Generated_Source\PSoC5/USBFS_std.c ****             
 706              		.loc 1 779 0
 707 0122 0989     		ldrh	r1, [r1, #8]
 708 0124 0132     		adds	r2, r2, #1
 709              	.LVL59:
 710 0126 0B44     		add	r3, r3, r1
 711              	.LVL60:
 776:Generated_Source\PSoC5/USBFS_std.c ****         {
 712              		.loc 1 776 0
 713 0128 092A     		cmp	r2, #9
 779:Generated_Source\PSoC5/USBFS_std.c ****             
 714              		.loc 1 779 0
 715 012a 9BB2     		uxth	r3, r3
 716              	.LVL61:
ARM GAS  C:\Users\rabbit\AppData\Local\Temp\cccb5bWv.s 			page 34


 776:Generated_Source\PSoC5/USBFS_std.c ****         {
 717              		.loc 1 776 0
 718 012c F6D1     		bne	.L62
 719              	.LBE11:
 720              	.LBE10:
 791:Generated_Source\PSoC5/USBFS_std.c **** 
 721              		.loc 1 791 0
 722 012e BDE8F84F 		pop	{r3, r4, r5, r6, r7, r8, r9, r10, fp, lr}
 723              		.cfi_remember_state
 724              		.cfi_restore 14
 725              		.cfi_restore 11
 726              		.cfi_restore 10
 727              		.cfi_restore 9
 728              		.cfi_restore 8
 729              		.cfi_restore 7
 730              		.cfi_restore 6
 731              		.cfi_restore 5
 732              		.cfi_restore 4
 733              		.cfi_restore 3
 734              		.cfi_def_cfa_offset 0
 735              	.LVL62:
 736              	.LBB13:
 737              	.LBB12:
 789:Generated_Source\PSoC5/USBFS_std.c ****     }
 738              		.loc 1 789 0
 739 0132 FFF7FEBF 		b	USBFS_ConfigReg
 740              	.LVL63:
 741              	.L44:
 742              		.cfi_restore_state
 743 0136 BDE8F88F 		pop	{r3, r4, r5, r6, r7, r8, r9, r10, fp, pc}
 744              	.L75:
 745 013a 00BF     		.align	2
 746              	.L74:
 747 013c 00000000 		.word	USBFS_EP
 748 0140 00000000 		.word	USBFS_interfaceSetting
 749 0144 00000000 		.word	USBFS_interfaceSettingLast
 750 0148 00000000 		.word	USBFS_configuration
 751 014c 00000000 		.word	USBFS_deviceStatus
 752 0150 00000000 		.word	USBFS_interfaceClass
 753              	.LBE12:
 754              	.LBE13:
 755              		.cfi_endproc
 756              	.LFE3:
 757              		.size	USBFS_Config, .-USBFS_Config
 758              		.section	.text.USBFS_TerminateEP,"ax",%progbits
 759              		.align	1
 760              		.global	USBFS_TerminateEP
 761              		.thumb
 762              		.thumb_func
 763              		.type	USBFS_TerminateEP, %function
 764              	USBFS_TerminateEP:
 765              	.LFB8:
1053:Generated_Source\PSoC5/USBFS_std.c **** 
1054:Generated_Source\PSoC5/USBFS_std.c **** 
1055:Generated_Source\PSoC5/USBFS_std.c **** /*******************************************************************************
1056:Generated_Source\PSoC5/USBFS_std.c **** * Function Name: USBFS_TerminateEP
1057:Generated_Source\PSoC5/USBFS_std.c **** ****************************************************************************//**
ARM GAS  C:\Users\rabbit\AppData\Local\Temp\cccb5bWv.s 			page 35


1058:Generated_Source\PSoC5/USBFS_std.c **** *
1059:Generated_Source\PSoC5/USBFS_std.c **** *  This function terminates the specified USBFS endpoint.
1060:Generated_Source\PSoC5/USBFS_std.c **** *  This function should be used before endpoint reconfiguration.
1061:Generated_Source\PSoC5/USBFS_std.c **** *
1062:Generated_Source\PSoC5/USBFS_std.c **** *  \param ep Contains the data endpoint number.
1063:Generated_Source\PSoC5/USBFS_std.c **** *
1064:Generated_Source\PSoC5/USBFS_std.c **** *  \reentrant
1065:Generated_Source\PSoC5/USBFS_std.c **** *  No.
1066:Generated_Source\PSoC5/USBFS_std.c **** *
1067:Generated_Source\PSoC5/USBFS_std.c **** * \sideeffect
1068:Generated_Source\PSoC5/USBFS_std.c **** * 
1069:Generated_Source\PSoC5/USBFS_std.c **** * The device responds with a NAK for any transactions on the selected endpoint.
1070:Generated_Source\PSoC5/USBFS_std.c **** *   
1071:Generated_Source\PSoC5/USBFS_std.c **** *******************************************************************************/
1072:Generated_Source\PSoC5/USBFS_std.c **** void USBFS_TerminateEP(uint8 epNumber) 
1073:Generated_Source\PSoC5/USBFS_std.c **** {
 766              		.loc 1 1073 0
 767              		.cfi_startproc
 768              		@ args = 0, pretend = 0, frame = 0
 769              		@ frame_needed = 0, uses_anonymous_args = 0
 770              		@ link register save eliminated.
 771              	.LVL64:
1074:Generated_Source\PSoC5/USBFS_std.c ****     /* Get endpoint number */
1075:Generated_Source\PSoC5/USBFS_std.c ****     epNumber &= USBFS_DIR_UNUSED;
 772              		.loc 1 1075 0
 773 0000 00F07F00 		and	r0, r0, #127
 774              	.LVL65:
1076:Generated_Source\PSoC5/USBFS_std.c **** 
1077:Generated_Source\PSoC5/USBFS_std.c ****     if ((epNumber > USBFS_EP0) && (epNumber < USBFS_MAX_EP))
 775              		.loc 1 1077 0
 776 0004 431E     		subs	r3, r0, #1
 777 0006 072B     		cmp	r3, #7
 778 0008 15D8     		bhi	.L76
1078:Generated_Source\PSoC5/USBFS_std.c ****     {
1079:Generated_Source\PSoC5/USBFS_std.c ****         /* Set the endpoint Halt */
1080:Generated_Source\PSoC5/USBFS_std.c ****         USBFS_EP[epNumber].hwEpState |= USBFS_ENDPOINT_STATUS_HALT;
 779              		.loc 1 1080 0
 780 000a 0B4B     		ldr	r3, .L79
 781 000c 0C21     		movs	r1, #12
 782 000e 01FB0033 		mla	r3, r1, r0, r3
 783 0012 9A78     		ldrb	r2, [r3, #2]	@ zero_extendqisi2
 784 0014 0001     		lsls	r0, r0, #4
 785              	.LVL66:
 786 0016 42F00102 		orr	r2, r2, #1
 787 001a 9A70     		strb	r2, [r3, #2]
1081:Generated_Source\PSoC5/USBFS_std.c **** 
1082:Generated_Source\PSoC5/USBFS_std.c ****         /* Clear the data toggle */
1083:Generated_Source\PSoC5/USBFS_std.c ****         USBFS_EP[epNumber].epToggle = 0u;
 788              		.loc 1 1083 0
 789 001c 0022     		movs	r2, #0
 790 001e DA70     		strb	r2, [r3, #3]
1084:Generated_Source\PSoC5/USBFS_std.c ****         USBFS_EP[epNumber].apiEpState = USBFS_NO_EVENT_ALLOWED;
 791              		.loc 1 1084 0
 792 0020 0222     		movs	r2, #2
 793 0022 5A70     		strb	r2, [r3, #1]
1085:Generated_Source\PSoC5/USBFS_std.c **** 
1086:Generated_Source\PSoC5/USBFS_std.c ****         if ((USBFS_EP[epNumber].addr & USBFS_DIR_IN) != 0u)
ARM GAS  C:\Users\rabbit\AppData\Local\Temp\cccb5bWv.s 			page 36


 794              		.loc 1 1086 0
 795 0024 1B79     		ldrb	r3, [r3, #4]	@ zero_extendqisi2
 796 0026 13F0800F 		tst	r3, #128
1087:Generated_Source\PSoC5/USBFS_std.c ****         {   
1088:Generated_Source\PSoC5/USBFS_std.c ****             /* IN Endpoint */
1089:Generated_Source\PSoC5/USBFS_std.c ****             USBFS_SIE_EP_BASE.sieEp[epNumber].epCr0 = USBFS_MODE_NAK_IN;
 797              		.loc 1 1089 0
 798 002a 044B     		ldr	r3, .L79+4
1086:Generated_Source\PSoC5/USBFS_std.c ****         {   
 799              		.loc 1 1086 0
 800 002c 01D0     		beq	.L78
 801              		.loc 1 1089 0
 802 002e 1954     		strb	r1, [r3, r0]
 803 0030 7047     		bx	lr
 804              	.L78:
1090:Generated_Source\PSoC5/USBFS_std.c ****         }
1091:Generated_Source\PSoC5/USBFS_std.c ****         else
1092:Generated_Source\PSoC5/USBFS_std.c ****         {
1093:Generated_Source\PSoC5/USBFS_std.c ****             /* OUT Endpoint */
1094:Generated_Source\PSoC5/USBFS_std.c ****             USBFS_SIE_EP_BASE.sieEp[epNumber].epCr0 = USBFS_MODE_NAK_OUT;
 805              		.loc 1 1094 0
 806 0032 0822     		movs	r2, #8
 807 0034 1A54     		strb	r2, [r3, r0]
 808              	.L76:
 809 0036 7047     		bx	lr
 810              	.L80:
 811              		.align	2
 812              	.L79:
 813 0038 00000000 		.word	USBFS_EP
 814 003c FE5F0040 		.word	1073766398
 815              		.cfi_endproc
 816              	.LFE8:
 817              		.size	USBFS_TerminateEP, .-USBFS_TerminateEP
 818              		.section	.text.USBFS_SetEndpointHalt,"ax",%progbits
 819              		.align	1
 820              		.global	USBFS_SetEndpointHalt
 821              		.thumb
 822              		.thumb_func
 823              		.type	USBFS_SetEndpointHalt, %function
 824              	USBFS_SetEndpointHalt:
 825              	.LFB9:
1095:Generated_Source\PSoC5/USBFS_std.c ****         }
1096:Generated_Source\PSoC5/USBFS_std.c ****     }
1097:Generated_Source\PSoC5/USBFS_std.c **** }
1098:Generated_Source\PSoC5/USBFS_std.c **** 
1099:Generated_Source\PSoC5/USBFS_std.c **** 
1100:Generated_Source\PSoC5/USBFS_std.c **** /*******************************************************************************
1101:Generated_Source\PSoC5/USBFS_std.c **** * Function Name: USBFS_SetEndpointHalt
1102:Generated_Source\PSoC5/USBFS_std.c **** ****************************************************************************//**
1103:Generated_Source\PSoC5/USBFS_std.c **** *
1104:Generated_Source\PSoC5/USBFS_std.c **** *  This routine handles set endpoint halt.
1105:Generated_Source\PSoC5/USBFS_std.c **** *
1106:Generated_Source\PSoC5/USBFS_std.c **** * \return
1107:Generated_Source\PSoC5/USBFS_std.c **** *  requestHandled.
1108:Generated_Source\PSoC5/USBFS_std.c **** *
1109:Generated_Source\PSoC5/USBFS_std.c **** * \reentrant
1110:Generated_Source\PSoC5/USBFS_std.c **** *  No.
ARM GAS  C:\Users\rabbit\AppData\Local\Temp\cccb5bWv.s 			page 37


1111:Generated_Source\PSoC5/USBFS_std.c **** *
1112:Generated_Source\PSoC5/USBFS_std.c **** *******************************************************************************/
1113:Generated_Source\PSoC5/USBFS_std.c **** uint8 USBFS_SetEndpointHalt(void) 
1114:Generated_Source\PSoC5/USBFS_std.c **** {
 826              		.loc 1 1114 0
 827              		.cfi_startproc
 828              		@ args = 0, pretend = 0, frame = 0
 829              		@ frame_needed = 0, uses_anonymous_args = 0
 830              		@ link register save eliminated.
 831              	.LVL67:
1115:Generated_Source\PSoC5/USBFS_std.c ****     uint8 requestHandled = USBFS_FALSE;
1116:Generated_Source\PSoC5/USBFS_std.c ****     uint8 ep;
1117:Generated_Source\PSoC5/USBFS_std.c ****     
1118:Generated_Source\PSoC5/USBFS_std.c ****     /* Set endpoint halt */
1119:Generated_Source\PSoC5/USBFS_std.c ****     ep = USBFS_wIndexLoReg & USBFS_DIR_UNUSED;
 832              		.loc 1 1119 0
 833 0000 114B     		ldr	r3, .L86
 834 0002 1B79     		ldrb	r3, [r3, #4]	@ zero_extendqisi2
 835 0004 03F07F03 		and	r3, r3, #127
 836              	.LVL68:
1120:Generated_Source\PSoC5/USBFS_std.c **** 
1121:Generated_Source\PSoC5/USBFS_std.c ****     if ((ep > USBFS_EP0) && (ep < USBFS_MAX_EP))
 837              		.loc 1 1121 0
 838 0008 5A1E     		subs	r2, r3, #1
 839 000a 072A     		cmp	r2, #7
 840 000c 19D8     		bhi	.L82
1122:Generated_Source\PSoC5/USBFS_std.c ****     {
1123:Generated_Source\PSoC5/USBFS_std.c ****         /* Set the endpoint Halt */
1124:Generated_Source\PSoC5/USBFS_std.c ****         USBFS_EP[ep].hwEpState |= (USBFS_ENDPOINT_STATUS_HALT);
 841              		.loc 1 1124 0
 842 000e 0F49     		ldr	r1, .L86+4
 843 0010 0C22     		movs	r2, #12
 844 0012 02FB0312 		mla	r2, r2, r3, r1
 845 0016 9178     		ldrb	r1, [r2, #2]	@ zero_extendqisi2
 846 0018 1B01     		lsls	r3, r3, #4
 847              	.LVL69:
 848 001a 41F00101 		orr	r1, r1, #1
 849 001e 9170     		strb	r1, [r2, #2]
1125:Generated_Source\PSoC5/USBFS_std.c **** 
1126:Generated_Source\PSoC5/USBFS_std.c ****         /* Clear the data toggle */
1127:Generated_Source\PSoC5/USBFS_std.c ****         USBFS_EP[ep].epToggle = 0u;
 850              		.loc 1 1127 0
 851 0020 0021     		movs	r1, #0
 852 0022 D170     		strb	r1, [r2, #3]
1128:Generated_Source\PSoC5/USBFS_std.c ****         USBFS_EP[ep].apiEpState |= USBFS_NO_EVENT_ALLOWED;
 853              		.loc 1 1128 0
 854 0024 5178     		ldrb	r1, [r2, #1]	@ zero_extendqisi2
 855 0026 41F00201 		orr	r1, r1, #2
 856 002a 5170     		strb	r1, [r2, #1]
1129:Generated_Source\PSoC5/USBFS_std.c **** 
1130:Generated_Source\PSoC5/USBFS_std.c ****         if ((USBFS_EP[ep].addr & USBFS_DIR_IN) != 0u)
 857              		.loc 1 1130 0
 858 002c 1279     		ldrb	r2, [r2, #4]	@ zero_extendqisi2
 859 002e 12F0800F 		tst	r2, #128
1131:Generated_Source\PSoC5/USBFS_std.c ****         {
1132:Generated_Source\PSoC5/USBFS_std.c ****             /* IN Endpoint */
1133:Generated_Source\PSoC5/USBFS_std.c ****             USBFS_SIE_EP_BASE.sieEp[ep].epCr0 = (USBFS_MODE_STALL_DATA_EP | 
ARM GAS  C:\Users\rabbit\AppData\Local\Temp\cccb5bWv.s 			page 38


 860              		.loc 1 1133 0
 861 0032 074A     		ldr	r2, .L86+8
 862 0034 1A44     		add	r2, r2, r3
 863 0036 14BF     		ite	ne
 864 0038 8D23     		movne	r3, #141
1134:Generated_Source\PSoC5/USBFS_std.c ****                                                             USBFS_MODE_ACK_IN);
1135:Generated_Source\PSoC5/USBFS_std.c ****         }
1136:Generated_Source\PSoC5/USBFS_std.c ****         else
1137:Generated_Source\PSoC5/USBFS_std.c ****         {
1138:Generated_Source\PSoC5/USBFS_std.c ****             /* OUT Endpoint */
1139:Generated_Source\PSoC5/USBFS_std.c ****             USBFS_SIE_EP_BASE.sieEp[ep].epCr0 = (USBFS_MODE_STALL_DATA_EP | 
 865              		.loc 1 1139 0
 866 003a 8923     		moveq	r3, #137
 867 003c 9370     		strb	r3, [r2, #2]
1140:Generated_Source\PSoC5/USBFS_std.c ****                                                             USBFS_MODE_ACK_OUT);
1141:Generated_Source\PSoC5/USBFS_std.c ****         }
1142:Generated_Source\PSoC5/USBFS_std.c ****         requestHandled = USBFS_InitNoDataControlTransfer();
 868              		.loc 1 1142 0
 869 003e FFF7FEBF 		b	USBFS_InitNoDataControlTransfer
 870              	.LVL70:
 871              	.L82:
1143:Generated_Source\PSoC5/USBFS_std.c ****     }
1144:Generated_Source\PSoC5/USBFS_std.c **** 
1145:Generated_Source\PSoC5/USBFS_std.c ****     return (requestHandled);
1146:Generated_Source\PSoC5/USBFS_std.c **** }
 872              		.loc 1 1146 0
 873 0042 0020     		movs	r0, #0
 874 0044 7047     		bx	lr
 875              	.L87:
 876 0046 00BF     		.align	2
 877              	.L86:
 878 0048 00600040 		.word	1073766400
 879 004c 00000000 		.word	USBFS_EP
 880 0050 FC5F0040 		.word	1073766396
 881              		.cfi_endproc
 882              	.LFE9:
 883              		.size	USBFS_SetEndpointHalt, .-USBFS_SetEndpointHalt
 884              		.section	.text.USBFS_ClearEndpointHalt,"ax",%progbits
 885              		.align	1
 886              		.global	USBFS_ClearEndpointHalt
 887              		.thumb
 888              		.thumb_func
 889              		.type	USBFS_ClearEndpointHalt, %function
 890              	USBFS_ClearEndpointHalt:
 891              	.LFB10:
1147:Generated_Source\PSoC5/USBFS_std.c **** 
1148:Generated_Source\PSoC5/USBFS_std.c **** 
1149:Generated_Source\PSoC5/USBFS_std.c **** /*******************************************************************************
1150:Generated_Source\PSoC5/USBFS_std.c **** * Function Name: USBFS_ClearEndpointHalt
1151:Generated_Source\PSoC5/USBFS_std.c **** ****************************************************************************//**
1152:Generated_Source\PSoC5/USBFS_std.c **** *
1153:Generated_Source\PSoC5/USBFS_std.c **** *  This routine handles clear endpoint halt.
1154:Generated_Source\PSoC5/USBFS_std.c **** *
1155:Generated_Source\PSoC5/USBFS_std.c **** * \return
1156:Generated_Source\PSoC5/USBFS_std.c **** *  requestHandled.
1157:Generated_Source\PSoC5/USBFS_std.c **** *
1158:Generated_Source\PSoC5/USBFS_std.c **** * \reentrant
ARM GAS  C:\Users\rabbit\AppData\Local\Temp\cccb5bWv.s 			page 39


1159:Generated_Source\PSoC5/USBFS_std.c **** *  No.
1160:Generated_Source\PSoC5/USBFS_std.c **** *
1161:Generated_Source\PSoC5/USBFS_std.c **** *******************************************************************************/
1162:Generated_Source\PSoC5/USBFS_std.c **** uint8 USBFS_ClearEndpointHalt(void) 
1163:Generated_Source\PSoC5/USBFS_std.c **** {
 892              		.loc 1 1163 0
 893              		.cfi_startproc
 894              		@ args = 0, pretend = 0, frame = 0
 895              		@ frame_needed = 0, uses_anonymous_args = 0
 896              		@ link register save eliminated.
 897              	.LVL71:
 898 0000 30B4     		push	{r4, r5}
 899              		.cfi_def_cfa_offset 8
 900              		.cfi_offset 4, -8
 901              		.cfi_offset 5, -4
1164:Generated_Source\PSoC5/USBFS_std.c ****     uint8 requestHandled = USBFS_FALSE;
1165:Generated_Source\PSoC5/USBFS_std.c ****     uint8 ep;
1166:Generated_Source\PSoC5/USBFS_std.c **** 
1167:Generated_Source\PSoC5/USBFS_std.c ****     /* Clear endpoint halt */
1168:Generated_Source\PSoC5/USBFS_std.c ****     ep = USBFS_wIndexLoReg & USBFS_DIR_UNUSED;
 902              		.loc 1 1168 0
 903 0002 194B     		ldr	r3, .L95
 904 0004 1A79     		ldrb	r2, [r3, #4]	@ zero_extendqisi2
 905 0006 02F07F02 		and	r2, r2, #127
 906              	.LVL72:
1169:Generated_Source\PSoC5/USBFS_std.c **** 
1170:Generated_Source\PSoC5/USBFS_std.c ****     if ((ep > USBFS_EP0) && (ep < USBFS_MAX_EP))
 907              		.loc 1 1170 0
 908 000a 531E     		subs	r3, r2, #1
 909 000c 072B     		cmp	r3, #7
 910 000e 27D8     		bhi	.L89
1171:Generated_Source\PSoC5/USBFS_std.c ****     {
1172:Generated_Source\PSoC5/USBFS_std.c ****         /* Clear the endpoint Halt */
1173:Generated_Source\PSoC5/USBFS_std.c ****         USBFS_EP[ep].hwEpState &= (uint8) ~USBFS_ENDPOINT_STATUS_HALT;
 911              		.loc 1 1173 0
 912 0010 164B     		ldr	r3, .L95+4
 913 0012 0C24     		movs	r4, #12
 914 0014 04FB0233 		mla	r3, r4, r2, r3
 915 0018 9978     		ldrb	r1, [r3, #2]	@ zero_extendqisi2
 916 001a 154D     		ldr	r5, .L95+8
 917 001c 01F0FE01 		and	r1, r1, #254
 918 0020 9970     		strb	r1, [r3, #2]
1174:Generated_Source\PSoC5/USBFS_std.c **** 
1175:Generated_Source\PSoC5/USBFS_std.c ****         /* Clear the data toggle */
1176:Generated_Source\PSoC5/USBFS_std.c ****         USBFS_EP[ep].epToggle = 0u;
 919              		.loc 1 1176 0
 920 0022 0021     		movs	r1, #0
 921 0024 D970     		strb	r1, [r3, #3]
 922 0026 2946     		mov	r1, r5
 923 0028 1201     		lsls	r2, r2, #4
 924              	.LVL73:
1177:Generated_Source\PSoC5/USBFS_std.c ****         
1178:Generated_Source\PSoC5/USBFS_std.c ****         /* Clear toggle bit for already armed packet */
1179:Generated_Source\PSoC5/USBFS_std.c ****         USBFS_SIE_EP_BASE.sieEp[ep].epCnt0 &= (uint8) ~(uint8)USBFS_EPX_CNT_DATA_TOGGLE;
 925              		.loc 1 1179 0
 926 002a 505D     		ldrb	r0, [r2, r5]	@ zero_extendqisi2
 927 002c 1144     		add	r1, r1, r2
ARM GAS  C:\Users\rabbit\AppData\Local\Temp\cccb5bWv.s 			page 40


 928 002e 00F07F00 		and	r0, r0, #127
 929 0032 5055     		strb	r0, [r2, r5]
1180:Generated_Source\PSoC5/USBFS_std.c ****         
1181:Generated_Source\PSoC5/USBFS_std.c ****         /* Return API State as it was defined before */
1182:Generated_Source\PSoC5/USBFS_std.c ****         USBFS_EP[ep].apiEpState &= (uint8) ~USBFS_NO_EVENT_ALLOWED;
 930              		.loc 1 1182 0
 931 0034 5A78     		ldrb	r2, [r3, #1]	@ zero_extendqisi2
 932 0036 02F0FD02 		and	r2, r2, #253
 933 003a 5A70     		strb	r2, [r3, #1]
1183:Generated_Source\PSoC5/USBFS_std.c **** 
1184:Generated_Source\PSoC5/USBFS_std.c ****         if ((USBFS_EP[ep].addr & USBFS_DIR_IN) != 0u)
 934              		.loc 1 1184 0
 935 003c 1A79     		ldrb	r2, [r3, #4]	@ zero_extendqisi2
1185:Generated_Source\PSoC5/USBFS_std.c ****         {
1186:Generated_Source\PSoC5/USBFS_std.c ****             /* IN Endpoint */
1187:Generated_Source\PSoC5/USBFS_std.c ****             if(USBFS_EP[ep].apiEpState == USBFS_IN_BUFFER_EMPTY)
 936              		.loc 1 1187 0
 937 003e 5B78     		ldrb	r3, [r3, #1]	@ zero_extendqisi2
1184:Generated_Source\PSoC5/USBFS_std.c ****         {
 938              		.loc 1 1184 0
 939 0040 1206     		lsls	r2, r2, #24
 940 0042 05D5     		bpl	.L90
 941              		.loc 1 1187 0
 942 0044 012B     		cmp	r3, #1
 943 0046 01D1     		bne	.L91
1188:Generated_Source\PSoC5/USBFS_std.c ****             {       
1189:Generated_Source\PSoC5/USBFS_std.c ****                 /* Wait for next packet from application */
1190:Generated_Source\PSoC5/USBFS_std.c ****                 USBFS_SIE_EP_BASE.sieEp[ep].epCr0 = USBFS_MODE_NAK_IN;
 944              		.loc 1 1190 0
 945 0048 8C70     		strb	r4, [r1, #2]
 946 004a 06E0     		b	.L92
 947              	.L91:
1191:Generated_Source\PSoC5/USBFS_std.c ****             }
1192:Generated_Source\PSoC5/USBFS_std.c ****             else    /* Continue armed transfer */
1193:Generated_Source\PSoC5/USBFS_std.c ****             {
1194:Generated_Source\PSoC5/USBFS_std.c ****                 USBFS_SIE_EP_BASE.sieEp[ep].epCr0 = USBFS_MODE_ACK_IN;
 948              		.loc 1 1194 0
 949 004c 0D23     		movs	r3, #13
 950 004e 03E0     		b	.L94
 951              	.L90:
1195:Generated_Source\PSoC5/USBFS_std.c ****             }
1196:Generated_Source\PSoC5/USBFS_std.c ****         }
1197:Generated_Source\PSoC5/USBFS_std.c ****         else
1198:Generated_Source\PSoC5/USBFS_std.c ****         {
1199:Generated_Source\PSoC5/USBFS_std.c ****             /* OUT Endpoint */
1200:Generated_Source\PSoC5/USBFS_std.c ****             if (USBFS_EP[ep].apiEpState == USBFS_OUT_BUFFER_FULL)
 952              		.loc 1 1200 0
 953 0050 012B     		cmp	r3, #1
1201:Generated_Source\PSoC5/USBFS_std.c ****             {       
1202:Generated_Source\PSoC5/USBFS_std.c ****                 /* Allow application to read full buffer */
1203:Generated_Source\PSoC5/USBFS_std.c ****                 USBFS_SIE_EP_BASE.sieEp[ep].epCr0 = USBFS_MODE_NAK_OUT;
 954              		.loc 1 1203 0
 955 0052 0CBF     		ite	eq
 956 0054 0823     		moveq	r3, #8
1204:Generated_Source\PSoC5/USBFS_std.c ****             }
1205:Generated_Source\PSoC5/USBFS_std.c ****             else    /* Mark endpoint as empty, so it will be reloaded */
1206:Generated_Source\PSoC5/USBFS_std.c ****             {
ARM GAS  C:\Users\rabbit\AppData\Local\Temp\cccb5bWv.s 			page 41


1207:Generated_Source\PSoC5/USBFS_std.c ****                 USBFS_SIE_EP_BASE.sieEp[ep].epCr0 = USBFS_MODE_ACK_OUT;
 957              		.loc 1 1207 0
 958 0056 0923     		movne	r3, #9
 959              	.L94:
 960 0058 8B70     		strb	r3, [r1, #2]
 961              	.L92:
1208:Generated_Source\PSoC5/USBFS_std.c ****             }
1209:Generated_Source\PSoC5/USBFS_std.c ****         }
1210:Generated_Source\PSoC5/USBFS_std.c ****         
1211:Generated_Source\PSoC5/USBFS_std.c ****         requestHandled = USBFS_InitNoDataControlTransfer();
1212:Generated_Source\PSoC5/USBFS_std.c ****     }
1213:Generated_Source\PSoC5/USBFS_std.c **** 
1214:Generated_Source\PSoC5/USBFS_std.c ****     return(requestHandled);
1215:Generated_Source\PSoC5/USBFS_std.c **** }
 962              		.loc 1 1215 0
 963 005a 30BC     		pop	{r4, r5}
 964              		.cfi_remember_state
 965              		.cfi_restore 5
 966              		.cfi_restore 4
 967              		.cfi_def_cfa_offset 0
1211:Generated_Source\PSoC5/USBFS_std.c ****     }
 968              		.loc 1 1211 0
 969 005c FFF7FEBF 		b	USBFS_InitNoDataControlTransfer
 970              	.LVL74:
 971              	.L89:
 972              		.cfi_restore_state
 973              		.loc 1 1215 0
 974 0060 0020     		movs	r0, #0
 975 0062 30BC     		pop	{r4, r5}
 976              		.cfi_restore 5
 977              		.cfi_restore 4
 978              		.cfi_def_cfa_offset 0
 979 0064 7047     		bx	lr
 980              	.L96:
 981 0066 00BF     		.align	2
 982              	.L95:
 983 0068 00600040 		.word	1073766400
 984 006c 00000000 		.word	USBFS_EP
 985 0070 FC5F0040 		.word	1073766396
 986              		.cfi_endproc
 987              	.LFE10:
 988              		.size	USBFS_ClearEndpointHalt, .-USBFS_ClearEndpointHalt
 989              		.section	.text.USBFS_ValidateAlternateSetting,"ax",%progbits
 990              		.align	1
 991              		.global	USBFS_ValidateAlternateSetting
 992              		.thumb
 993              		.thumb_func
 994              		.type	USBFS_ValidateAlternateSetting, %function
 995              	USBFS_ValidateAlternateSetting:
 996              	.LFB11:
1216:Generated_Source\PSoC5/USBFS_std.c **** 
1217:Generated_Source\PSoC5/USBFS_std.c **** 
1218:Generated_Source\PSoC5/USBFS_std.c **** /*******************************************************************************
1219:Generated_Source\PSoC5/USBFS_std.c **** * Function Name: USBFS_ValidateAlternateSetting
1220:Generated_Source\PSoC5/USBFS_std.c **** ****************************************************************************//**
1221:Generated_Source\PSoC5/USBFS_std.c **** *
1222:Generated_Source\PSoC5/USBFS_std.c **** *  Validates (and records) a SET INTERFACE request.
ARM GAS  C:\Users\rabbit\AppData\Local\Temp\cccb5bWv.s 			page 42


1223:Generated_Source\PSoC5/USBFS_std.c **** *
1224:Generated_Source\PSoC5/USBFS_std.c **** * \return
1225:Generated_Source\PSoC5/USBFS_std.c **** *  requestHandled.
1226:Generated_Source\PSoC5/USBFS_std.c **** *
1227:Generated_Source\PSoC5/USBFS_std.c **** * \reentrant
1228:Generated_Source\PSoC5/USBFS_std.c **** *  No.
1229:Generated_Source\PSoC5/USBFS_std.c **** *
1230:Generated_Source\PSoC5/USBFS_std.c **** *******************************************************************************/
1231:Generated_Source\PSoC5/USBFS_std.c **** uint8 USBFS_ValidateAlternateSetting(void) 
1232:Generated_Source\PSoC5/USBFS_std.c **** {
 997              		.loc 1 1232 0
 998              		.cfi_startproc
 999              		@ args = 0, pretend = 0, frame = 0
 1000              		@ frame_needed = 0, uses_anonymous_args = 0
 1001              	.LVL75:
 1002 0000 10B5     		push	{r4, lr}
 1003              		.cfi_def_cfa_offset 8
 1004              		.cfi_offset 4, -8
 1005              		.cfi_offset 14, -4
1233:Generated_Source\PSoC5/USBFS_std.c ****     uint8 requestHandled = USBFS_FALSE;
1234:Generated_Source\PSoC5/USBFS_std.c ****     
1235:Generated_Source\PSoC5/USBFS_std.c ****     uint8 interfaceNum;
1236:Generated_Source\PSoC5/USBFS_std.c ****     uint8 curInterfacesNum;
1237:Generated_Source\PSoC5/USBFS_std.c ****     const T_USBFS_LUT CYCODE *pTmp;
1238:Generated_Source\PSoC5/USBFS_std.c ****     
1239:Generated_Source\PSoC5/USBFS_std.c ****     /* Get interface number from the request. */
1240:Generated_Source\PSoC5/USBFS_std.c ****     interfaceNum = (uint8) USBFS_wIndexLoReg;
1241:Generated_Source\PSoC5/USBFS_std.c ****     
1242:Generated_Source\PSoC5/USBFS_std.c ****     /* Get number of interfaces for current configuration. */
1243:Generated_Source\PSoC5/USBFS_std.c ****     pTmp = USBFS_GetConfigTablePtr(USBFS_configuration - 1u);
 1006              		.loc 1 1243 0
 1007 0002 0D4B     		ldr	r3, .L101
1240:Generated_Source\PSoC5/USBFS_std.c ****     
 1008              		.loc 1 1240 0
 1009 0004 0D4C     		ldr	r4, .L101+4
 1010 0006 2179     		ldrb	r1, [r4, #4]	@ zero_extendqisi2
 1011              		.loc 1 1243 0
 1012 0008 1878     		ldrb	r0, [r3]	@ zero_extendqisi2
1240:Generated_Source\PSoC5/USBFS_std.c ****     
 1013              		.loc 1 1240 0
 1014 000a C9B2     		uxtb	r1, r1
 1015              	.LVL76:
 1016              		.loc 1 1243 0
 1017 000c 0138     		subs	r0, r0, #1
 1018 000e C0B2     		uxtb	r0, r0
 1019 0010 FFF7FEFF 		bl	USBFS_GetConfigTablePtr
 1020              	.LVL77:
1244:Generated_Source\PSoC5/USBFS_std.c ****     curInterfacesNum  = ((const uint8 *) pTmp->p_list)[USBFS_CONFIG_DESCR_NUM_INTERFACES];
 1021              		.loc 1 1244 0
 1022 0014 4368     		ldr	r3, [r0, #4]
1245:Generated_Source\PSoC5/USBFS_std.c **** 
1246:Generated_Source\PSoC5/USBFS_std.c ****     /* Validate that interface number is within range. */
1247:Generated_Source\PSoC5/USBFS_std.c ****     if ((interfaceNum <= curInterfacesNum) || (interfaceNum <= USBFS_MAX_INTERFACES_NUMBER))
 1023              		.loc 1 1247 0
 1024 0016 1B79     		ldrb	r3, [r3, #4]	@ zero_extendqisi2
 1025 0018 8B42     		cmp	r3, r1
 1026 001a 01D2     		bcs	.L98
ARM GAS  C:\Users\rabbit\AppData\Local\Temp\cccb5bWv.s 			page 43


 1027              		.loc 1 1247 0 is_stmt 0 discriminator 1
 1028 001c 0129     		cmp	r1, #1
 1029 001e 09D8     		bhi	.L100
 1030              	.L98:
1248:Generated_Source\PSoC5/USBFS_std.c ****     {
1249:Generated_Source\PSoC5/USBFS_std.c ****         /* Save current and new alternate settings (come with request) to make 
1250:Generated_Source\PSoC5/USBFS_std.c ****         * desicion about following endpoint re-configuration.
1251:Generated_Source\PSoC5/USBFS_std.c ****         */
1252:Generated_Source\PSoC5/USBFS_std.c ****         USBFS_interfaceSettingLast[interfaceNum] = USBFS_interfaceSetting[interfaceNum];
 1031              		.loc 1 1252 0 is_stmt 1
 1032 0020 074A     		ldr	r2, .L101+8
 1033 0022 0848     		ldr	r0, .L101+12
 1034              	.LVL78:
 1035 0024 535C     		ldrb	r3, [r2, r1]	@ zero_extendqisi2
 1036              	.LVL79:
 1037 0026 DBB2     		uxtb	r3, r3
 1038 0028 4354     		strb	r3, [r0, r1]
1253:Generated_Source\PSoC5/USBFS_std.c ****         USBFS_interfaceSetting[interfaceNum]     = (uint8) USBFS_wValueLoReg;
 1039              		.loc 1 1253 0
 1040 002a A378     		ldrb	r3, [r4, #2]	@ zero_extendqisi2
1254:Generated_Source\PSoC5/USBFS_std.c ****         
1255:Generated_Source\PSoC5/USBFS_std.c ****         requestHandled = USBFS_TRUE;
 1041              		.loc 1 1255 0
 1042 002c 0120     		movs	r0, #1
1253:Generated_Source\PSoC5/USBFS_std.c ****         USBFS_interfaceSetting[interfaceNum]     = (uint8) USBFS_wValueLoReg;
 1043              		.loc 1 1253 0
 1044 002e DBB2     		uxtb	r3, r3
 1045 0030 5354     		strb	r3, [r2, r1]
 1046              	.LVL80:
 1047 0032 10BD     		pop	{r4, pc}
 1048              	.LVL81:
 1049              	.L100:
1233:Generated_Source\PSoC5/USBFS_std.c ****     
 1050              		.loc 1 1233 0
 1051 0034 0020     		movs	r0, #0
 1052              	.LVL82:
1256:Generated_Source\PSoC5/USBFS_std.c ****     }
1257:Generated_Source\PSoC5/USBFS_std.c **** 
1258:Generated_Source\PSoC5/USBFS_std.c ****     return (requestHandled);
1259:Generated_Source\PSoC5/USBFS_std.c **** }
 1053              		.loc 1 1259 0
 1054 0036 10BD     		pop	{r4, pc}
 1055              	.L102:
 1056              		.align	2
 1057              	.L101:
 1058 0038 00000000 		.word	USBFS_configuration
 1059 003c 00600040 		.word	1073766400
 1060 0040 00000000 		.word	USBFS_interfaceSetting
 1061 0044 00000000 		.word	USBFS_interfaceSettingLast
 1062              		.cfi_endproc
 1063              	.LFE11:
 1064              		.size	USBFS_ValidateAlternateSetting, .-USBFS_ValidateAlternateSetting
 1065              		.section	.text.USBFS_HandleStandardRqst,"ax",%progbits
 1066              		.align	1
 1067              		.global	USBFS_HandleStandardRqst
 1068              		.thumb
 1069              		.thumb_func
ARM GAS  C:\Users\rabbit\AppData\Local\Temp\cccb5bWv.s 			page 44


 1070              		.type	USBFS_HandleStandardRqst, %function
 1071              	USBFS_HandleStandardRqst:
 1072              	.LFB0:
  85:Generated_Source\PSoC5/USBFS_std.c ****     uint8 requestHandled = USBFS_FALSE;
 1073              		.loc 1 85 0
 1074              		.cfi_startproc
 1075              		@ args = 0, pretend = 0, frame = 0
 1076              		@ frame_needed = 0, uses_anonymous_args = 0
 1077              	.LVL83:
 1078 0000 38B5     		push	{r3, r4, r5, lr}
 1079              		.cfi_def_cfa_offset 16
 1080              		.cfi_offset 3, -16
 1081              		.cfi_offset 4, -12
 1082              		.cfi_offset 5, -8
 1083              		.cfi_offset 14, -4
  89:Generated_Source\PSoC5/USBFS_std.c **** 
 1084              		.loc 1 89 0
 1085 0002 874A     		ldr	r2, .L159
 102:Generated_Source\PSoC5/USBFS_std.c **** 
 1086              		.loc 1 102 0
 1087 0004 8749     		ldr	r1, .L159+4
  89:Generated_Source\PSoC5/USBFS_std.c **** 
 1088              		.loc 1 89 0
 1089 0006 1378     		ldrb	r3, [r2]	@ zero_extendqisi2
 102:Generated_Source\PSoC5/USBFS_std.c **** 
 1090              		.loc 1 102 0
 1091 0008 0020     		movs	r0, #0
  89:Generated_Source\PSoC5/USBFS_std.c **** 
 1092              		.loc 1 89 0
 1093 000a DBB2     		uxtb	r3, r3
 1094              	.LVL84:
 102:Generated_Source\PSoC5/USBFS_std.c **** 
 1095              		.loc 1 102 0
 1096 000c 0880     		strh	r0, [r1]	@ movhi
 104:Generated_Source\PSoC5/USBFS_std.c ****     {
 1097              		.loc 1 104 0
 1098 000e 1806     		lsls	r0, r3, #24
 1099 0010 40F18780 		bpl	.L104
 107:Generated_Source\PSoC5/USBFS_std.c ****         {
 1100              		.loc 1 107 0
 1101 0014 5078     		ldrb	r0, [r2, #1]	@ zero_extendqisi2
 1102 0016 0A28     		cmp	r0, #10
 1103 0018 00F2FF80 		bhi	.L105
 1104 001c DFE810F0 		tbh	[pc, r0, lsl #1]
 1105              	.L107:
 1106 0020 5600     		.2byte	(.L106-.L107)/2
 1107 0022 FD00     		.2byte	(.L105-.L107)/2
 1108 0024 FD00     		.2byte	(.L105-.L107)/2
 1109 0026 FD00     		.2byte	(.L105-.L107)/2
 1110 0028 FD00     		.2byte	(.L105-.L107)/2
 1111 002a FD00     		.2byte	(.L105-.L107)/2
 1112 002c 0B00     		.2byte	(.L108-.L107)/2
 1113 002e FD00     		.2byte	(.L105-.L107)/2
 1114 0030 7700     		.2byte	(.L109-.L107)/2
 1115 0032 FD00     		.2byte	(.L105-.L107)/2
 1116 0034 7B00     		.2byte	(.L110-.L107)/2
 1117              		.p2align 1
ARM GAS  C:\Users\rabbit\AppData\Local\Temp\cccb5bWv.s 			page 45


 1118              	.L108:
 110:Generated_Source\PSoC5/USBFS_std.c ****                 {
 1119              		.loc 1 110 0
 1120 0036 D378     		ldrb	r3, [r2, #3]	@ zero_extendqisi2
 1121              	.LVL85:
 1122 0038 7948     		ldr	r0, .L159
 1123 003a 012B     		cmp	r3, #1
 1124 003c 09D1     		bne	.L111
 1125              	.LBB14:
 1126              	.LBB15:
1015:Generated_Source\PSoC5/USBFS_std.c **** }
 1127              		.loc 1 1015 0
 1128 003e 7A4B     		ldr	r3, .L159+8
 1129 0040 1A78     		ldrb	r2, [r3]	@ zero_extendqisi2
 1130 0042 7A4B     		ldr	r3, .L159+12
 1131 0044 03EBC203 		add	r3, r3, r2, lsl #3
 1132              	.LBE15:
 1133              	.LBE14:
 113:Generated_Source\PSoC5/USBFS_std.c ****                     USBFS_currentTD.count = USBFS_DEVICE_DESCR_LENGTH;
 1134              		.loc 1 113 0
 1135 0048 5B68     		ldr	r3, [r3, #4]
 1136 004a 5B68     		ldr	r3, [r3, #4]
 1137 004c 4B60     		str	r3, [r1, #4]
 114:Generated_Source\PSoC5/USBFS_std.c ****                     
 1138              		.loc 1 114 0
 1139 004e 1223     		movs	r3, #18
 1140 0050 10E0     		b	.L152
 1141              	.L111:
 118:Generated_Source\PSoC5/USBFS_std.c ****                 {
 1142              		.loc 1 118 0
 1143 0052 C378     		ldrb	r3, [r0, #3]	@ zero_extendqisi2
 1144 0054 022B     		cmp	r3, #2
 1145 0056 12D1     		bne	.L112
 120:Generated_Source\PSoC5/USBFS_std.c ****                     
 1146              		.loc 1 120 0
 1147 0058 8078     		ldrb	r0, [r0, #2]	@ zero_extendqisi2
 1148 005a FFF7FEFF 		bl	USBFS_GetConfigTablePtr
 1149              	.LVL86:
 123:Generated_Source\PSoC5/USBFS_std.c ****                     {
 1150              		.loc 1 123 0
 1151 005e 0028     		cmp	r0, #0
 1152 0060 00F0DB80 		beq	.L105
 125:Generated_Source\PSoC5/USBFS_std.c ****                         USBFS_currentTD.count = (uint16)((uint16)(USBFS_currentTD.pData)[USBFS_CONF
 1153              		.loc 1 125 0
 1154 0064 4368     		ldr	r3, [r0, #4]
 1155 0066 4B60     		str	r3, [r1, #4]
 126:Generated_Source\PSoC5/USBFS_std.c ****                                                                             (USBFS_currentTD.pData)
 1156              		.loc 1 126 0
 1157 0068 4B68     		ldr	r3, [r1, #4]
 1158 006a DA78     		ldrb	r2, [r3, #3]	@ zero_extendqisi2
 127:Generated_Source\PSoC5/USBFS_std.c ****                         requestHandled  = USBFS_InitControlRead();
 1159              		.loc 1 127 0
 1160 006c 4B68     		ldr	r3, [r1, #4]
 1161 006e 9B78     		ldrb	r3, [r3, #2]	@ zero_extendqisi2
 126:Generated_Source\PSoC5/USBFS_std.c ****                                                                             (USBFS_currentTD.pData)
 1162              		.loc 1 126 0
 1163 0070 43EA0223 		orr	r3, r3, r2, lsl #8
ARM GAS  C:\Users\rabbit\AppData\Local\Temp\cccb5bWv.s 			page 46


 1164              	.LVL87:
 1165              	.L152:
 1166 0074 0B80     		strh	r3, [r1]	@ movhi
 1167              	.LVL88:
 1168              	.L153:
 380:Generated_Source\PSoC5/USBFS_std.c **** 
 1169              		.loc 1 380 0
 1170 0076 BDE83840 		pop	{r3, r4, r5, lr}
 1171              		.cfi_remember_state
 1172              		.cfi_restore 14
 1173              		.cfi_restore 5
 1174              		.cfi_restore 4
 1175              		.cfi_restore 3
 1176              		.cfi_def_cfa_offset 0
 128:Generated_Source\PSoC5/USBFS_std.c ****                     }
 1177              		.loc 1 128 0
 1178 007a FFF7FEBF 		b	USBFS_InitControlRead
 1179              	.LVL89:
 1180              	.L112:
 1181              		.cfi_restore_state
 149:Generated_Source\PSoC5/USBFS_std.c ****                 {
 1182              		.loc 1 149 0
 1183 007e C378     		ldrb	r3, [r0, #3]	@ zero_extendqisi2
 1184 0080 032B     		cmp	r3, #3
 1185 0082 1FD1     		bne	.L114
 1186 0084 6A4B     		ldr	r3, .L159+16
 1187 0086 0022     		movs	r2, #0
 1188              	.LVL90:
 1189              	.L115:
 156:Generated_Source\PSoC5/USBFS_std.c ****                     {
 1190              		.loc 1 156 0
 1191 0088 8478     		ldrb	r4, [r0, #2]	@ zero_extendqisi2
 1192 008a D5B2     		uxtb	r5, r2
 1193 008c A542     		cmp	r5, r4
 1194 008e 0BD3     		bcc	.L116
 1195              	.LVL91:
 1196              	.L120:
 176:Generated_Source\PSoC5/USBFS_std.c ****                         (USBFS_wValueLoReg == USBFS_DEVICE0_DESCR[USBFS_DEVICE_DESCR_SN_SHIFT]))
 1197              		.loc 1 176 0
 1198 0090 634A     		ldr	r2, .L159
 1199 0092 9278     		ldrb	r2, [r2, #2]	@ zero_extendqisi2
 1200 0094 7AB1     		cbz	r2, .L118
 177:Generated_Source\PSoC5/USBFS_std.c ****                     {
 1201              		.loc 1 177 0 discriminator 1
 1202 0096 624A     		ldr	r2, .L159
 194:Generated_Source\PSoC5/USBFS_std.c ****                     #endif  /* (USBFS_ENABLE_IDSN_STRING) */
 1203              		.loc 1 194 0 discriminator 1
 1204 0098 664C     		ldr	r4, .L159+20
 177:Generated_Source\PSoC5/USBFS_std.c ****                     {
 1205              		.loc 1 177 0 discriminator 1
 1206 009a 9078     		ldrb	r0, [r2, #2]	@ zero_extendqisi2
 194:Generated_Source\PSoC5/USBFS_std.c ****                     #endif  /* (USBFS_ENABLE_IDSN_STRING) */
 1207              		.loc 1 194 0 discriminator 1
 1208 009c 247C     		ldrb	r4, [r4, #16]	@ zero_extendqisi2
 1209 009e 664A     		ldr	r2, .L159+24
 1210 00a0 8442     		cmp	r4, r0
 1211 00a2 08BF     		it	eq
ARM GAS  C:\Users\rabbit\AppData\Local\Temp\cccb5bWv.s 			page 47


 1212 00a4 1346     		moveq	r3, r2
 1213              	.LVL92:
 1214 00a6 06E0     		b	.L118
 1215              	.LVL93:
 1216              	.L116:
 156:Generated_Source\PSoC5/USBFS_std.c ****                     {
 1217              		.loc 1 156 0 discriminator 1
 1218 00a8 1C78     		ldrb	r4, [r3]	@ zero_extendqisi2
 1219 00aa 0132     		adds	r2, r2, #1
 1220              	.LVL94:
 1221 00ac 002C     		cmp	r4, #0
 1222 00ae EFD0     		beq	.L120
 159:Generated_Source\PSoC5/USBFS_std.c ****                         /* Move to next string descriptor */
 1223              		.loc 1 159 0
 1224 00b0 1C78     		ldrb	r4, [r3]	@ zero_extendqisi2
 1225              	.LVL95:
 161:Generated_Source\PSoC5/USBFS_std.c ****                         nStr++;
 1226              		.loc 1 161 0
 1227 00b2 2344     		add	r3, r3, r4
 1228              	.LVL96:
 1229 00b4 E8E7     		b	.L115
 1230              	.LVL97:
 1231              	.L118:
 199:Generated_Source\PSoC5/USBFS_std.c ****                     {
 1232              		.loc 1 199 0
 1233 00b6 1A78     		ldrb	r2, [r3]	@ zero_extendqisi2
 1234 00b8 002A     		cmp	r2, #0
 1235 00ba 00F0AE80 		beq	.L105
 201:Generated_Source\PSoC5/USBFS_std.c ****                         USBFS_currentTD.pData = pStr;
 1236              		.loc 1 201 0
 1237 00be 1A78     		ldrb	r2, [r3]	@ zero_extendqisi2
 1238 00c0 0A80     		strh	r2, [r1]	@ movhi
 1239 00c2 18E0     		b	.L156
 1240              	.LVL98:
 1241              	.L114:
 380:Generated_Source\PSoC5/USBFS_std.c **** 
 1242              		.loc 1 380 0
 1243 00c4 BDE83840 		pop	{r3, r4, r5, lr}
 1244              		.cfi_remember_state
 1245              		.cfi_restore 14
 1246              		.cfi_restore 5
 1247              		.cfi_restore 4
 1248              		.cfi_restore 3
 1249              		.cfi_def_cfa_offset 0
 209:Generated_Source\PSoC5/USBFS_std.c ****                 }
 1250              		.loc 1 209 0
 1251 00c8 FFF7FEBF 		b	USBFS_DispatchClassRqst
 1252              	.LVL99:
 1253              	.L106:
 1254              		.cfi_restore_state
 214:Generated_Source\PSoC5/USBFS_std.c ****                 {
 1255              		.loc 1 214 0
 1256 00cc 13F00303 		ands	r3, r3, #3
 1257              	.LVL100:
 1258 00d0 13D0     		beq	.L122
 1259 00d2 022B     		cmp	r3, #2
 1260 00d4 40F0A180 		bne	.L105
ARM GAS  C:\Users\rabbit\AppData\Local\Temp\cccb5bWv.s 			page 48


 217:Generated_Source\PSoC5/USBFS_std.c ****                         USBFS_tBuffer[0u]     = USBFS_EP[USBFS_wIndexLoReg & USBFS_DIR_UNUSED].hwEp
 1261              		.loc 1 217 0
 1262 00d8 0B80     		strh	r3, [r1]	@ movhi
 218:Generated_Source\PSoC5/USBFS_std.c ****                         USBFS_tBuffer[1u]     = 0u;
 1263              		.loc 1 218 0
 1264 00da 514B     		ldr	r3, .L159
 1265 00dc 0C20     		movs	r0, #12
 1266 00de 1B79     		ldrb	r3, [r3, #4]	@ zero_extendqisi2
 1267 00e0 03F07F02 		and	r2, r3, #127
 1268 00e4 554B     		ldr	r3, .L159+28
 1269 00e6 00FB0233 		mla	r3, r0, r2, r3
 1270 00ea 9A78     		ldrb	r2, [r3, #2]	@ zero_extendqisi2
 1271 00ec 544B     		ldr	r3, .L159+32
 1272 00ee D2B2     		uxtb	r2, r2
 1273 00f0 1A70     		strb	r2, [r3]
 219:Generated_Source\PSoC5/USBFS_std.c ****                         USBFS_currentTD.pData = &USBFS_tBuffer[0u];
 1274              		.loc 1 219 0
 1275 00f2 0022     		movs	r2, #0
 1276 00f4 5A70     		strb	r2, [r3, #1]
 1277              	.LVL101:
 1278              	.L156:
 220:Generated_Source\PSoC5/USBFS_std.c ****                         
 1279              		.loc 1 220 0
 1280 00f6 4B60     		str	r3, [r1, #4]
 1281 00f8 BDE7     		b	.L153
 1282              	.LVL102:
 1283              	.L122:
 225:Generated_Source\PSoC5/USBFS_std.c ****                         USBFS_tBuffer[0u]     = USBFS_deviceStatus;
 1284              		.loc 1 225 0
 1285 00fa 0222     		movs	r2, #2
 1286 00fc 0A80     		strh	r2, [r1]	@ movhi
 226:Generated_Source\PSoC5/USBFS_std.c ****                         USBFS_tBuffer[1u]     = 0u;
 1287              		.loc 1 226 0
 1288 00fe 514A     		ldr	r2, .L159+36
 1289 0100 1078     		ldrb	r0, [r2]	@ zero_extendqisi2
 1290 0102 4F4A     		ldr	r2, .L159+32
 1291 0104 C0B2     		uxtb	r0, r0
 1292 0106 1070     		strb	r0, [r2]
 227:Generated_Source\PSoC5/USBFS_std.c ****                         USBFS_currentTD.pData = &USBFS_tBuffer[0u];
 1293              		.loc 1 227 0
 1294 0108 5370     		strb	r3, [r2, #1]
 228:Generated_Source\PSoC5/USBFS_std.c ****                         
 1295              		.loc 1 228 0
 1296 010a 4A60     		str	r2, [r1, #4]
 1297 010c B3E7     		b	.L153
 1298              	.LVL103:
 1299              	.L109:
 238:Generated_Source\PSoC5/USBFS_std.c ****                 USBFS_currentTD.pData = (volatile uint8 *) &USBFS_configuration;
 1300              		.loc 1 238 0
 1301 010e 0123     		movs	r3, #1
 1302              	.LVL104:
 1303 0110 0B80     		strh	r3, [r1]	@ movhi
 239:Generated_Source\PSoC5/USBFS_std.c ****                 requestHandled  = USBFS_InitControlRead();
 1304              		.loc 1 239 0
 1305 0112 4D4B     		ldr	r3, .L159+40
 1306 0114 EFE7     		b	.L156
 1307              	.LVL105:
ARM GAS  C:\Users\rabbit\AppData\Local\Temp\cccb5bWv.s 			page 49


 1308              	.L110:
 244:Generated_Source\PSoC5/USBFS_std.c ****                 USBFS_currentTD.pData = (volatile uint8 *) &USBFS_interfaceSetting[USBFS_wIndexLoRe
 1309              		.loc 1 244 0
 1310 0116 0123     		movs	r3, #1
 1311              	.LVL106:
 1312 0118 0B80     		strh	r3, [r1]	@ movhi
 245:Generated_Source\PSoC5/USBFS_std.c ****                 requestHandled  = USBFS_InitControlRead();
 1313              		.loc 1 245 0
 1314 011a 1379     		ldrb	r3, [r2, #4]	@ zero_extendqisi2
 1315 011c 4B4A     		ldr	r2, .L159+44
 1316 011e 1344     		add	r3, r3, r2
 1317 0120 E9E7     		b	.L156
 1318              	.LVL107:
 1319              	.L104:
 256:Generated_Source\PSoC5/USBFS_std.c ****         {
 1320              		.loc 1 256 0
 1321 0122 5178     		ldrb	r1, [r2, #1]	@ zero_extendqisi2
 1322 0124 0139     		subs	r1, r1, #1
 1323 0126 0A29     		cmp	r1, #10
 1324 0128 77D8     		bhi	.L105
 1325 012a DFE801F0 		tbb	[pc, r1]
 1326              	.L125:
 1327 012e 37       		.byte	(.L124-.L125)/2
 1328 012f 76       		.byte	(.L105-.L125)/2
 1329 0130 4F       		.byte	(.L126-.L125)/2
 1330 0131 76       		.byte	(.L105-.L125)/2
 1331 0132 06       		.byte	(.L127-.L125)/2
 1332 0133 76       		.byte	(.L105-.L125)/2
 1333 0134 76       		.byte	(.L105-.L125)/2
 1334 0135 76       		.byte	(.L105-.L125)/2
 1335 0136 0A       		.byte	(.L128-.L125)/2
 1336 0137 76       		.byte	(.L105-.L125)/2
 1337 0138 20       		.byte	(.L129-.L125)/2
 1338 0139 00       		.p2align 1
 1339              	.L127:
 260:Generated_Source\PSoC5/USBFS_std.c ****                 requestHandled = USBFS_InitNoDataControlTransfer();
 1340              		.loc 1 260 0
 1341 013a 9378     		ldrb	r3, [r2, #2]	@ zero_extendqisi2
 1342              	.LVL108:
 1343 013c 444A     		ldr	r2, .L159+48
 1344 013e DBB2     		uxtb	r3, r3
 1345 0140 5AE0     		b	.L158
 1346              	.LVL109:
 1347              	.L128:
 265:Generated_Source\PSoC5/USBFS_std.c ****                 
 1348              		.loc 1 265 0
 1349 0142 9378     		ldrb	r3, [r2, #2]	@ zero_extendqisi2
 1350              	.LVL110:
 268:Generated_Source\PSoC5/USBFS_std.c ****                 {
 1351              		.loc 1 268 0
 1352 0144 03F0FF01 		and	r1, r3, #255
 1353 0148 53B9     		cbnz	r3, .L130
 1354              	.LVL111:
 1355              	.L133:
 277:Generated_Source\PSoC5/USBFS_std.c ****                     {
 1356              		.loc 1 277 0
 1357 014a 3F4B     		ldr	r3, .L159+40
ARM GAS  C:\Users\rabbit\AppData\Local\Temp\cccb5bWv.s 			page 50


 1358 014c 1A78     		ldrb	r2, [r3]	@ zero_extendqisi2
 1359 014e 9142     		cmp	r1, r2
 1360 0150 5FD0     		beq	.L154
 279:Generated_Source\PSoC5/USBFS_std.c ****                         USBFS_configurationChanged = USBFS_TRUE;
 1361              		.loc 1 279 0
 1362 0152 1970     		strb	r1, [r3]
 280:Generated_Source\PSoC5/USBFS_std.c ****                         USBFS_Config(USBFS_TRUE);
 1363              		.loc 1 280 0
 1364 0154 3F4B     		ldr	r3, .L159+52
 1365 0156 0120     		movs	r0, #1
 1366 0158 1870     		strb	r0, [r3]
 281:Generated_Source\PSoC5/USBFS_std.c ****                     }
 1367              		.loc 1 281 0
 1368 015a FFF7FEFF 		bl	USBFS_Config
 1369              	.LVL112:
 1370 015e 58E0     		b	.L154
 1371              	.LVL113:
 1372              	.L130:
 270:Generated_Source\PSoC5/USBFS_std.c ****                 }
 1373              		.loc 1 270 0
 1374 0160 481E     		subs	r0, r1, #1
 1375 0162 C0B2     		uxtb	r0, r0
 1376 0164 FFF7FEFF 		bl	USBFS_GetConfigTablePtr
 1377              	.LVL114:
 274:Generated_Source\PSoC5/USBFS_std.c ****                 {
 1378              		.loc 1 274 0
 1379 0168 0028     		cmp	r0, #0
 1380 016a EED1     		bne	.L133
 1381 016c 55E0     		b	.L105
 1382              	.LVL115:
 1383              	.L129:
 288:Generated_Source\PSoC5/USBFS_std.c ****                 {
 1384              		.loc 1 288 0
 1385 016e FFF7FEFF 		bl	USBFS_ValidateAlternateSetting
 1386              	.LVL116:
 1387 0172 0028     		cmp	r0, #0
 1388 0174 51D0     		beq	.L105
 291:Generated_Source\PSoC5/USBFS_std.c ****                     USBFS_interfaceNumber = (uint8) USBFS_wIndexLoReg;
 1389              		.loc 1 291 0
 1390 0176 2A4A     		ldr	r2, .L159
 292:Generated_Source\PSoC5/USBFS_std.c ****                      
 1391              		.loc 1 292 0
 1392 0178 3749     		ldr	r1, .L159+56
 291:Generated_Source\PSoC5/USBFS_std.c ****                     USBFS_interfaceNumber = (uint8) USBFS_wIndexLoReg;
 1393              		.loc 1 291 0
 1394 017a 1379     		ldrb	r3, [r2, #4]	@ zero_extendqisi2
 292:Generated_Source\PSoC5/USBFS_std.c ****                      
 1395              		.loc 1 292 0
 1396 017c 1279     		ldrb	r2, [r2, #4]	@ zero_extendqisi2
 291:Generated_Source\PSoC5/USBFS_std.c ****                     USBFS_interfaceNumber = (uint8) USBFS_wIndexLoReg;
 1397              		.loc 1 291 0
 1398 017e DBB2     		uxtb	r3, r3
 1399              	.LVL117:
 292:Generated_Source\PSoC5/USBFS_std.c ****                      
 1400              		.loc 1 292 0
 1401 0180 D2B2     		uxtb	r2, r2
 1402 0182 0A70     		strb	r2, [r1]
ARM GAS  C:\Users\rabbit\AppData\Local\Temp\cccb5bWv.s 			page 51


 295:Generated_Source\PSoC5/USBFS_std.c ****                     {
 1403              		.loc 1 295 0
 1404 0184 354A     		ldr	r2, .L159+60
 1405 0186 3149     		ldr	r1, .L159+44
 1406 0188 D25C     		ldrb	r2, [r2, r3]	@ zero_extendqisi2
 1407 018a CB5C     		ldrb	r3, [r1, r3]	@ zero_extendqisi2
 1408              	.LVL118:
 1409 018c 9A42     		cmp	r2, r3
 1410 018e 40D0     		beq	.L154
 297:Generated_Source\PSoC5/USBFS_std.c ****                     
 1411              		.loc 1 297 0
 1412 0190 304B     		ldr	r3, .L159+52
 1413 0192 0122     		movs	r2, #1
 1414 0194 1A70     		strb	r2, [r3]
 303:Generated_Source\PSoC5/USBFS_std.c ****                     #endif /* (USBFS_EP_MANAGEMENT_MANUAL && USBFS_EP_ALLOC_DYNAMIC) */
 1415              		.loc 1 303 0
 1416 0196 FFF7FEFF 		bl	USBFS_ConfigAltChanged
 1417              	.LVL119:
 1418 019a 3AE0     		b	.L154
 1419              	.LVL120:
 1420              	.L124:
 312:Generated_Source\PSoC5/USBFS_std.c ****                 {
 1421              		.loc 1 312 0
 1422 019c 03F00303 		and	r3, r3, #3
 1423              	.LVL121:
 1424 01a0 012B     		cmp	r3, #1
 1425 01a2 2BD0     		beq	.L138
 1426 01a4 09D3     		bcc	.L136
 1427 01a6 022B     		cmp	r3, #2
 1428 01a8 37D1     		bne	.L105
 315:Generated_Source\PSoC5/USBFS_std.c ****                         {
 1429              		.loc 1 315 0
 1430 01aa 1D4B     		ldr	r3, .L159
 1431 01ac 9B78     		ldrb	r3, [r3, #2]	@ zero_extendqisi2
 1432 01ae 002B     		cmp	r3, #0
 1433 01b0 33D1     		bne	.L105
 380:Generated_Source\PSoC5/USBFS_std.c **** 
 1434              		.loc 1 380 0
 1435 01b2 BDE83840 		pop	{r3, r4, r5, lr}
 1436              		.cfi_remember_state
 1437              		.cfi_restore 14
 1438              		.cfi_restore 5
 1439              		.cfi_restore 4
 1440              		.cfi_restore 3
 1441              		.cfi_def_cfa_offset 0
 317:Generated_Source\PSoC5/USBFS_std.c ****                         }
 1442              		.loc 1 317 0
 1443 01b6 FFF7FEBF 		b	USBFS_ClearEndpointHalt
 1444              	.LVL122:
 1445              	.L136:
 1446              		.cfi_restore_state
 322:Generated_Source\PSoC5/USBFS_std.c ****                         {
 1447              		.loc 1 322 0
 1448 01ba 194B     		ldr	r3, .L159
 1449 01bc 9B78     		ldrb	r3, [r3, #2]	@ zero_extendqisi2
 1450 01be 012B     		cmp	r3, #1
 1451 01c0 2BD1     		bne	.L105
ARM GAS  C:\Users\rabbit\AppData\Local\Temp\cccb5bWv.s 			page 52


 324:Generated_Source\PSoC5/USBFS_std.c ****                             requestHandled = USBFS_InitNoDataControlTransfer();
 1452              		.loc 1 324 0
 1453 01c2 204A     		ldr	r2, .L159+36
 1454 01c4 1378     		ldrb	r3, [r2]	@ zero_extendqisi2
 1455 01c6 03F0FD03 		and	r3, r3, #253
 1456 01ca 15E0     		b	.L158
 1457              	.LVL123:
 1458              	.L126:
 342:Generated_Source\PSoC5/USBFS_std.c ****                 {
 1459              		.loc 1 342 0
 1460 01cc 03F00303 		and	r3, r3, #3
 1461              	.LVL124:
 1462 01d0 012B     		cmp	r3, #1
 1463 01d2 13D0     		beq	.L138
 1464 01d4 08D3     		bcc	.L139
 1465 01d6 022B     		cmp	r3, #2
 1466 01d8 1FD1     		bne	.L105
 345:Generated_Source\PSoC5/USBFS_std.c ****                         {
 1467              		.loc 1 345 0
 1468 01da 114B     		ldr	r3, .L159
 1469 01dc 9B78     		ldrb	r3, [r3, #2]	@ zero_extendqisi2
 1470 01de E3B9     		cbnz	r3, .L105
 380:Generated_Source\PSoC5/USBFS_std.c **** 
 1471              		.loc 1 380 0
 1472 01e0 BDE83840 		pop	{r3, r4, r5, lr}
 1473              		.cfi_remember_state
 1474              		.cfi_restore 14
 1475              		.cfi_restore 5
 1476              		.cfi_restore 4
 1477              		.cfi_restore 3
 1478              		.cfi_def_cfa_offset 0
 347:Generated_Source\PSoC5/USBFS_std.c ****                         }
 1479              		.loc 1 347 0
 1480 01e4 FFF7FEBF 		b	USBFS_SetEndpointHalt
 1481              	.LVL125:
 1482              	.L139:
 1483              		.cfi_restore_state
 353:Generated_Source\PSoC5/USBFS_std.c ****                         {
 1484              		.loc 1 353 0
 1485 01e8 0D4B     		ldr	r3, .L159
 1486 01ea 9B78     		ldrb	r3, [r3, #2]	@ zero_extendqisi2
 1487 01ec 012B     		cmp	r3, #1
 1488 01ee 14D1     		bne	.L105
 355:Generated_Source\PSoC5/USBFS_std.c ****                             requestHandled = USBFS_InitNoDataControlTransfer();
 1489              		.loc 1 355 0
 1490 01f0 144A     		ldr	r2, .L159+36
 1491 01f2 1378     		ldrb	r3, [r2]	@ zero_extendqisi2
 1492 01f4 43F00203 		orr	r3, r3, #2
 1493              	.L158:
 1494 01f8 1370     		strb	r3, [r2]
 1495 01fa 0AE0     		b	.L154
 1496              	.L138:
 362:Generated_Source\PSoC5/USBFS_std.c ****                         {
 1497              		.loc 1 362 0
 1498 01fc 084B     		ldr	r3, .L159
 1499 01fe 1A79     		ldrb	r2, [r3, #4]	@ zero_extendqisi2
 1500 0200 5AB9     		cbnz	r2, .L105
ARM GAS  C:\Users\rabbit\AppData\Local\Temp\cccb5bWv.s 			page 53


 364:Generated_Source\PSoC5/USBFS_std.c ****                             requestHandled = USBFS_InitNoDataControlTransfer();
 1501              		.loc 1 364 0
 1502 0202 9878     		ldrb	r0, [r3, #2]	@ zero_extendqisi2
 1503 0204 1B79     		ldrb	r3, [r3, #4]	@ zero_extendqisi2
 1504 0206 1649     		ldr	r1, .L159+64
 1505 0208 DBB2     		uxtb	r3, r3
 1506 020a CA5C     		ldrb	r2, [r1, r3]	@ zero_extendqisi2
 1507 020c 22EA0002 		bic	r2, r2, r0
 1508 0210 CA54     		strb	r2, [r1, r3]
 1509              	.L154:
 380:Generated_Source\PSoC5/USBFS_std.c **** 
 1510              		.loc 1 380 0
 1511 0212 BDE83840 		pop	{r3, r4, r5, lr}
 1512              		.cfi_remember_state
 1513              		.cfi_restore 14
 1514              		.cfi_restore 5
 1515              		.cfi_restore 4
 1516              		.cfi_restore 3
 1517              		.cfi_def_cfa_offset 0
 365:Generated_Source\PSoC5/USBFS_std.c ****                         }
 1518              		.loc 1 365 0
 1519 0216 FFF7FEBF 		b	USBFS_InitNoDataControlTransfer
 1520              	.LVL126:
 1521              	.L105:
 1522              		.cfi_restore_state
 380:Generated_Source\PSoC5/USBFS_std.c **** 
 1523              		.loc 1 380 0
 1524 021a 0020     		movs	r0, #0
 1525 021c 38BD     		pop	{r3, r4, r5, pc}
 1526              	.L160:
 1527 021e 00BF     		.align	2
 1528              	.L159:
 1529 0220 00600040 		.word	1073766400
 1530 0224 00000000 		.word	USBFS_currentTD
 1531 0228 00000000 		.word	USBFS_device
 1532 022c 00000000 		.word	USBFS_TABLE
 1533 0230 00000000 		.word	USBFS_STRING_DESCRIPTORS
 1534 0234 00000000 		.word	USBFS_DEVICE0_DESCR
 1535 0238 00000000 		.word	USBFS_SN_STRING_DESCRIPTOR
 1536 023c 00000000 		.word	USBFS_EP
 1537 0240 00000000 		.word	.LANCHOR0
 1538 0244 00000000 		.word	USBFS_deviceStatus
 1539 0248 00000000 		.word	USBFS_configuration
 1540 024c 00000000 		.word	USBFS_interfaceSetting
 1541 0250 00000000 		.word	USBFS_deviceAddress
 1542 0254 00000000 		.word	USBFS_configurationChanged
 1543 0258 00000000 		.word	USBFS_interfaceNumber
 1544 025c 00000000 		.word	USBFS_interfaceSettingLast
 1545 0260 00000000 		.word	USBFS_interfaceStatus
 1546              		.cfi_endproc
 1547              	.LFE0:
 1548              		.size	USBFS_HandleStandardRqst, .-USBFS_HandleStandardRqst
 1549              		.bss
 1550              		.set	.LANCHOR0,. + 0
 1551              		.type	USBFS_tBuffer.5205, %object
 1552              		.size	USBFS_tBuffer.5205, 2
 1553              	USBFS_tBuffer.5205:
ARM GAS  C:\Users\rabbit\AppData\Local\Temp\cccb5bWv.s 			page 54


 1554 0000 0000     		.space	2
 1555              		.text
 1556              	.Letext0:
 1557              		.file 2 "Generated_Source\\PSoC5\\cytypes.h"
 1558              		.file 3 "Generated_Source\\PSoC5\\USBFS.h"
 1559              		.file 4 "Generated_Source\\PSoC5\\USBFS_pvt.h"
 1560              		.section	.debug_info,"",%progbits
 1561              	.Ldebug_info0:
 1562 0000 8F0A0000 		.4byte	0xa8f
 1563 0004 0400     		.2byte	0x4
 1564 0006 00000000 		.4byte	.Ldebug_abbrev0
 1565 000a 04       		.byte	0x4
 1566 000b 01       		.uleb128 0x1
 1567 000c E1000000 		.4byte	.LASF109
 1568 0010 0C       		.byte	0xc
 1569 0011 C9020000 		.4byte	.LASF110
 1570 0015 07060000 		.4byte	.LASF111
 1571 0019 18000000 		.4byte	.Ldebug_ranges0+0x18
 1572 001d 00000000 		.4byte	0
 1573 0021 00000000 		.4byte	.Ldebug_line0
 1574 0025 02       		.uleb128 0x2
 1575 0026 01       		.byte	0x1
 1576 0027 06       		.byte	0x6
 1577 0028 D5000000 		.4byte	.LASF0
 1578 002c 02       		.uleb128 0x2
 1579 002d 01       		.byte	0x1
 1580 002e 08       		.byte	0x8
 1581 002f CC040000 		.4byte	.LASF1
 1582 0033 02       		.uleb128 0x2
 1583 0034 02       		.byte	0x2
 1584 0035 05       		.byte	0x5
 1585 0036 EC040000 		.4byte	.LASF2
 1586 003a 02       		.uleb128 0x2
 1587 003b 02       		.byte	0x2
 1588 003c 07       		.byte	0x7
 1589 003d EC020000 		.4byte	.LASF3
 1590 0041 02       		.uleb128 0x2
 1591 0042 04       		.byte	0x4
 1592 0043 05       		.byte	0x5
 1593 0044 00020000 		.4byte	.LASF4
 1594 0048 02       		.uleb128 0x2
 1595 0049 04       		.byte	0x4
 1596 004a 07       		.byte	0x7
 1597 004b 97020000 		.4byte	.LASF5
 1598 004f 02       		.uleb128 0x2
 1599 0050 08       		.byte	0x8
 1600 0051 05       		.byte	0x5
 1601 0052 C7000000 		.4byte	.LASF6
 1602 0056 02       		.uleb128 0x2
 1603 0057 08       		.byte	0x8
 1604 0058 07       		.byte	0x7
 1605 0059 5C000000 		.4byte	.LASF7
 1606 005d 03       		.uleb128 0x3
 1607 005e 04       		.byte	0x4
 1608 005f 05       		.byte	0x5
 1609 0060 696E7400 		.ascii	"int\000"
 1610 0064 02       		.uleb128 0x2
ARM GAS  C:\Users\rabbit\AppData\Local\Temp\cccb5bWv.s 			page 55


 1611 0065 04       		.byte	0x4
 1612 0066 07       		.byte	0x7
 1613 0067 8A020000 		.4byte	.LASF8
 1614 006b 04       		.uleb128 0x4
 1615 006c 09020000 		.4byte	.LASF9
 1616 0070 02       		.byte	0x2
 1617 0071 E901     		.2byte	0x1e9
 1618 0073 2C000000 		.4byte	0x2c
 1619 0077 04       		.uleb128 0x4
 1620 0078 13000000 		.4byte	.LASF10
 1621 007c 02       		.byte	0x2
 1622 007d EA01     		.2byte	0x1ea
 1623 007f 3A000000 		.4byte	0x3a
 1624 0083 02       		.uleb128 0x2
 1625 0084 04       		.byte	0x4
 1626 0085 04       		.byte	0x4
 1627 0086 80040000 		.4byte	.LASF11
 1628 008a 02       		.uleb128 0x2
 1629 008b 08       		.byte	0x8
 1630 008c 04       		.byte	0x4
 1631 008d 1D020000 		.4byte	.LASF12
 1632 0091 02       		.uleb128 0x2
 1633 0092 01       		.byte	0x1
 1634 0093 08       		.byte	0x8
 1635 0094 A0050000 		.4byte	.LASF13
 1636 0098 04       		.uleb128 0x4
 1637 0099 C7040000 		.4byte	.LASF14
 1638 009d 02       		.byte	0x2
 1639 009e 9302     		.2byte	0x293
 1640 00a0 A4000000 		.4byte	0xa4
 1641 00a4 05       		.uleb128 0x5
 1642 00a5 6B000000 		.4byte	0x6b
 1643 00a9 02       		.uleb128 0x2
 1644 00aa 08       		.byte	0x8
 1645 00ab 04       		.byte	0x4
 1646 00ac C2030000 		.4byte	.LASF15
 1647 00b0 02       		.uleb128 0x2
 1648 00b1 04       		.byte	0x4
 1649 00b2 07       		.byte	0x7
 1650 00b3 B9030000 		.4byte	.LASF16
 1651 00b7 06       		.uleb128 0x6
 1652 00b8 0C       		.byte	0xc
 1653 00b9 03       		.byte	0x3
 1654 00ba 93       		.byte	0x93
 1655 00bb 2C010000 		.4byte	0x12c
 1656 00bf 07       		.uleb128 0x7
 1657 00c0 E4030000 		.4byte	.LASF17
 1658 00c4 03       		.byte	0x3
 1659 00c5 95       		.byte	0x95
 1660 00c6 6B000000 		.4byte	0x6b
 1661 00ca 00       		.byte	0
 1662 00cb 07       		.uleb128 0x7
 1663 00cc 9F040000 		.4byte	.LASF18
 1664 00d0 03       		.byte	0x3
 1665 00d1 96       		.byte	0x96
 1666 00d2 6B000000 		.4byte	0x6b
 1667 00d6 01       		.byte	0x1
ARM GAS  C:\Users\rabbit\AppData\Local\Temp\cccb5bWv.s 			page 56


 1668 00d7 07       		.uleb128 0x7
 1669 00d8 A3030000 		.4byte	.LASF19
 1670 00dc 03       		.byte	0x3
 1671 00dd 97       		.byte	0x97
 1672 00de 6B000000 		.4byte	0x6b
 1673 00e2 02       		.byte	0x2
 1674 00e3 07       		.uleb128 0x7
 1675 00e4 0F020000 		.4byte	.LASF20
 1676 00e8 03       		.byte	0x3
 1677 00e9 98       		.byte	0x98
 1678 00ea 6B000000 		.4byte	0x6b
 1679 00ee 03       		.byte	0x3
 1680 00ef 07       		.uleb128 0x7
 1681 00f0 73000000 		.4byte	.LASF21
 1682 00f4 03       		.byte	0x3
 1683 00f5 99       		.byte	0x99
 1684 00f6 6B000000 		.4byte	0x6b
 1685 00fa 04       		.byte	0x4
 1686 00fb 07       		.uleb128 0x7
 1687 00fc 65020000 		.4byte	.LASF22
 1688 0100 03       		.byte	0x3
 1689 0101 9A       		.byte	0x9a
 1690 0102 6B000000 		.4byte	0x6b
 1691 0106 05       		.byte	0x5
 1692 0107 07       		.uleb128 0x7
 1693 0108 D4050000 		.4byte	.LASF23
 1694 010c 03       		.byte	0x3
 1695 010d 9B       		.byte	0x9b
 1696 010e 77000000 		.4byte	0x77
 1697 0112 06       		.byte	0x6
 1698 0113 07       		.uleb128 0x7
 1699 0114 A5050000 		.4byte	.LASF24
 1700 0118 03       		.byte	0x3
 1701 0119 9C       		.byte	0x9c
 1702 011a 77000000 		.4byte	0x77
 1703 011e 08       		.byte	0x8
 1704 011f 07       		.uleb128 0x7
 1705 0120 30030000 		.4byte	.LASF25
 1706 0124 03       		.byte	0x3
 1707 0125 9D       		.byte	0x9d
 1708 0126 6B000000 		.4byte	0x6b
 1709 012a 0A       		.byte	0xa
 1710 012b 00       		.byte	0
 1711 012c 08       		.uleb128 0x8
 1712 012d 35050000 		.4byte	.LASF26
 1713 0131 03       		.byte	0x3
 1714 0132 9E       		.byte	0x9e
 1715 0133 B7000000 		.4byte	0xb7
 1716 0137 06       		.uleb128 0x6
 1717 0138 08       		.byte	0x8
 1718 0139 03       		.byte	0x3
 1719 013a A0       		.byte	0xa0
 1720 013b 88010000 		.4byte	0x188
 1721 013f 07       		.uleb128 0x7
 1722 0140 30030000 		.4byte	.LASF25
 1723 0144 03       		.byte	0x3
 1724 0145 A2       		.byte	0xa2
ARM GAS  C:\Users\rabbit\AppData\Local\Temp\cccb5bWv.s 			page 57


 1725 0146 6B000000 		.4byte	0x6b
 1726 014a 00       		.byte	0
 1727 014b 07       		.uleb128 0x7
 1728 014c 95050000 		.4byte	.LASF27
 1729 0150 03       		.byte	0x3
 1730 0151 A3       		.byte	0xa3
 1731 0152 6B000000 		.4byte	0x6b
 1732 0156 01       		.byte	0x1
 1733 0157 07       		.uleb128 0x7
 1734 0158 73000000 		.4byte	.LASF21
 1735 015c 03       		.byte	0x3
 1736 015d A4       		.byte	0xa4
 1737 015e 6B000000 		.4byte	0x6b
 1738 0162 02       		.byte	0x2
 1739 0163 07       		.uleb128 0x7
 1740 0164 77050000 		.4byte	.LASF28
 1741 0168 03       		.byte	0x3
 1742 0169 A5       		.byte	0xa5
 1743 016a 6B000000 		.4byte	0x6b
 1744 016e 03       		.byte	0x3
 1745 016f 07       		.uleb128 0x7
 1746 0170 A5050000 		.4byte	.LASF24
 1747 0174 03       		.byte	0x3
 1748 0175 A6       		.byte	0xa6
 1749 0176 77000000 		.4byte	0x77
 1750 017a 04       		.byte	0x4
 1751 017b 07       		.uleb128 0x7
 1752 017c A2060000 		.4byte	.LASF29
 1753 0180 03       		.byte	0x3
 1754 0181 A7       		.byte	0xa7
 1755 0182 6B000000 		.4byte	0x6b
 1756 0186 06       		.byte	0x6
 1757 0187 00       		.byte	0
 1758 0188 08       		.uleb128 0x8
 1759 0189 29020000 		.4byte	.LASF30
 1760 018d 03       		.byte	0x3
 1761 018e A8       		.byte	0xa8
 1762 018f 37010000 		.4byte	0x137
 1763 0193 06       		.uleb128 0x6
 1764 0194 04       		.byte	0x4
 1765 0195 03       		.byte	0x3
 1766 0196 AA       		.byte	0xaa
 1767 0197 B4010000 		.4byte	0x1b4
 1768 019b 07       		.uleb128 0x7
 1769 019c 66060000 		.4byte	.LASF31
 1770 01a0 03       		.byte	0x3
 1771 01a1 AC       		.byte	0xac
 1772 01a2 6B000000 		.4byte	0x6b
 1773 01a6 00       		.byte	0
 1774 01a7 07       		.uleb128 0x7
 1775 01a8 5A060000 		.4byte	.LASF32
 1776 01ac 03       		.byte	0x3
 1777 01ad AD       		.byte	0xad
 1778 01ae 77000000 		.4byte	0x77
 1779 01b2 02       		.byte	0x2
 1780 01b3 00       		.byte	0
 1781 01b4 08       		.uleb128 0x8
ARM GAS  C:\Users\rabbit\AppData\Local\Temp\cccb5bWv.s 			page 58


 1782 01b5 3F040000 		.4byte	.LASF33
 1783 01b9 03       		.byte	0x3
 1784 01ba AE       		.byte	0xae
 1785 01bb 93010000 		.4byte	0x193
 1786 01bf 06       		.uleb128 0x6
 1787 01c0 0C       		.byte	0xc
 1788 01c1 03       		.byte	0x3
 1789 01c2 B0       		.byte	0xb0
 1790 01c3 EC010000 		.4byte	0x1ec
 1791 01c7 07       		.uleb128 0x7
 1792 01c8 0D000000 		.4byte	.LASF34
 1793 01cc 03       		.byte	0x3
 1794 01cd B2       		.byte	0xb2
 1795 01ce 77000000 		.4byte	0x77
 1796 01d2 00       		.byte	0
 1797 01d3 07       		.uleb128 0x7
 1798 01d4 59020000 		.4byte	.LASF35
 1799 01d8 03       		.byte	0x3
 1800 01d9 B3       		.byte	0xb3
 1801 01da EC010000 		.4byte	0x1ec
 1802 01de 04       		.byte	0x4
 1803 01df 07       		.uleb128 0x7
 1804 01e0 00000000 		.4byte	.LASF36
 1805 01e4 03       		.byte	0x3
 1806 01e5 B4       		.byte	0xb4
 1807 01e6 F2010000 		.4byte	0x1f2
 1808 01ea 08       		.byte	0x8
 1809 01eb 00       		.byte	0
 1810 01ec 09       		.uleb128 0x9
 1811 01ed 04       		.byte	0x4
 1812 01ee A4000000 		.4byte	0xa4
 1813 01f2 09       		.uleb128 0x9
 1814 01f3 04       		.byte	0x4
 1815 01f4 B4010000 		.4byte	0x1b4
 1816 01f8 08       		.uleb128 0x8
 1817 01f9 F6040000 		.4byte	.LASF37
 1818 01fd 03       		.byte	0x3
 1819 01fe B5       		.byte	0xb5
 1820 01ff BF010000 		.4byte	0x1bf
 1821 0203 06       		.uleb128 0x6
 1822 0204 08       		.byte	0x8
 1823 0205 03       		.byte	0x3
 1824 0206 B7       		.byte	0xb7
 1825 0207 22020000 		.4byte	0x222
 1826 020b 0A       		.uleb128 0xa
 1827 020c 6300     		.ascii	"c\000"
 1828 020e 03       		.byte	0x3
 1829 020f B9       		.byte	0xb9
 1830 0210 6B000000 		.4byte	0x6b
 1831 0214 00       		.byte	0
 1832 0215 07       		.uleb128 0x7
 1833 0216 D3030000 		.4byte	.LASF38
 1834 021a 03       		.byte	0x3
 1835 021b BA       		.byte	0xba
 1836 021c 22020000 		.4byte	0x222
 1837 0220 04       		.byte	0x4
 1838 0221 00       		.byte	0
ARM GAS  C:\Users\rabbit\AppData\Local\Temp\cccb5bWv.s 			page 59


 1839 0222 09       		.uleb128 0x9
 1840 0223 04       		.byte	0x4
 1841 0224 28020000 		.4byte	0x228
 1842 0228 0B       		.uleb128 0xb
 1843 0229 08       		.uleb128 0x8
 1844 022a 02070000 		.4byte	.LASF39
 1845 022e 03       		.byte	0x3
 1846 022f BB       		.byte	0xbb
 1847 0230 03020000 		.4byte	0x203
 1848 0234 06       		.uleb128 0x6
 1849 0235 08       		.byte	0x8
 1850 0236 03       		.byte	0x3
 1851 0237 CB       		.byte	0xcb
 1852 0238 49020000 		.4byte	0x249
 1853 023c 07       		.uleb128 0x7
 1854 023d 9B060000 		.4byte	.LASF40
 1855 0241 03       		.byte	0x3
 1856 0242 CD       		.byte	0xcd
 1857 0243 49020000 		.4byte	0x249
 1858 0247 00       		.byte	0
 1859 0248 00       		.byte	0
 1860 0249 0C       		.uleb128 0xc
 1861 024a 6B000000 		.4byte	0x6b
 1862 024e 59020000 		.4byte	0x259
 1863 0252 0D       		.uleb128 0xd
 1864 0253 B0000000 		.4byte	0xb0
 1865 0257 07       		.byte	0x7
 1866 0258 00       		.byte	0
 1867 0259 08       		.uleb128 0x8
 1868 025a 78000000 		.4byte	.LASF41
 1869 025e 03       		.byte	0x3
 1870 025f CE       		.byte	0xce
 1871 0260 34020000 		.4byte	0x234
 1872 0264 06       		.uleb128 0x6
 1873 0265 10       		.byte	0x10
 1874 0266 03       		.byte	0x3
 1875 0267 DA       		.byte	0xda
 1876 0268 9D020000 		.4byte	0x29d
 1877 026c 07       		.uleb128 0x7
 1878 026d 1A040000 		.4byte	.LASF42
 1879 0271 03       		.byte	0x3
 1880 0272 DC       		.byte	0xdc
 1881 0273 6B000000 		.4byte	0x6b
 1882 0277 00       		.byte	0
 1883 0278 07       		.uleb128 0x7
 1884 0279 21040000 		.4byte	.LASF43
 1885 027d 03       		.byte	0x3
 1886 027e DD       		.byte	0xdd
 1887 027f 6B000000 		.4byte	0x6b
 1888 0283 01       		.byte	0x1
 1889 0284 07       		.uleb128 0x7
 1890 0285 59040000 		.4byte	.LASF44
 1891 0289 03       		.byte	0x3
 1892 028a DE       		.byte	0xde
 1893 028b 6B000000 		.4byte	0x6b
 1894 028f 02       		.byte	0x2
 1895 0290 0A       		.uleb128 0xa
ARM GAS  C:\Users\rabbit\AppData\Local\Temp\cccb5bWv.s 			page 60


 1896 0291 67617000 		.ascii	"gap\000"
 1897 0295 03       		.byte	0x3
 1898 0296 DF       		.byte	0xdf
 1899 0297 9D020000 		.4byte	0x29d
 1900 029b 03       		.byte	0x3
 1901 029c 00       		.byte	0
 1902 029d 0C       		.uleb128 0xc
 1903 029e 6B000000 		.4byte	0x6b
 1904 02a2 AD020000 		.4byte	0x2ad
 1905 02a6 0D       		.uleb128 0xd
 1906 02a7 B0000000 		.4byte	0xb0
 1907 02ab 0C       		.byte	0xc
 1908 02ac 00       		.byte	0
 1909 02ad 08       		.uleb128 0x8
 1910 02ae 06030000 		.4byte	.LASF45
 1911 02b2 03       		.byte	0x3
 1912 02b3 E0       		.byte	0xe0
 1913 02b4 64020000 		.4byte	0x264
 1914 02b8 06       		.uleb128 0x6
 1915 02b9 10       		.byte	0x10
 1916 02ba 03       		.byte	0x3
 1917 02bb EC       		.byte	0xec
 1918 02bc 39030000 		.4byte	0x339
 1919 02c0 07       		.uleb128 0x7
 1920 02c1 8E000000 		.4byte	.LASF46
 1921 02c5 03       		.byte	0x3
 1922 02c6 EE       		.byte	0xee
 1923 02c7 6B000000 		.4byte	0x6b
 1924 02cb 00       		.byte	0
 1925 02cc 07       		.uleb128 0x7
 1926 02cd C6060000 		.4byte	.LASF47
 1927 02d1 03       		.byte	0x3
 1928 02d2 EF       		.byte	0xef
 1929 02d3 6B000000 		.4byte	0x6b
 1930 02d7 01       		.byte	0x1
 1931 02d8 07       		.uleb128 0x7
 1932 02d9 24020000 		.4byte	.LASF48
 1933 02dd 03       		.byte	0x3
 1934 02de F0       		.byte	0xf0
 1935 02df 6B000000 		.4byte	0x6b
 1936 02e3 02       		.byte	0x2
 1937 02e4 07       		.uleb128 0x7
 1938 02e5 81020000 		.4byte	.LASF49
 1939 02e9 03       		.byte	0x3
 1940 02ea F1       		.byte	0xf1
 1941 02eb 6B000000 		.4byte	0x6b
 1942 02ef 03       		.byte	0x3
 1943 02f0 07       		.uleb128 0x7
 1944 02f1 18020000 		.4byte	.LASF50
 1945 02f5 03       		.byte	0x3
 1946 02f6 F2       		.byte	0xf2
 1947 02f7 6B000000 		.4byte	0x6b
 1948 02fb 04       		.byte	0x4
 1949 02fc 07       		.uleb128 0x7
 1950 02fd A8060000 		.4byte	.LASF51
 1951 0301 03       		.byte	0x3
 1952 0302 F3       		.byte	0xf3
ARM GAS  C:\Users\rabbit\AppData\Local\Temp\cccb5bWv.s 			page 61


 1953 0303 6B000000 		.4byte	0x6b
 1954 0307 05       		.byte	0x5
 1955 0308 07       		.uleb128 0x7
 1956 0309 19050000 		.4byte	.LASF52
 1957 030d 03       		.byte	0x3
 1958 030e F4       		.byte	0xf4
 1959 030f 6B000000 		.4byte	0x6b
 1960 0313 06       		.byte	0x6
 1961 0314 07       		.uleb128 0x7
 1962 0315 12040000 		.4byte	.LASF53
 1963 0319 03       		.byte	0x3
 1964 031a F5       		.byte	0xf5
 1965 031b 6B000000 		.4byte	0x6b
 1966 031f 07       		.byte	0x7
 1967 0320 07       		.uleb128 0x7
 1968 0321 85060000 		.4byte	.LASF54
 1969 0325 03       		.byte	0x3
 1970 0326 F6       		.byte	0xf6
 1971 0327 6B000000 		.4byte	0x6b
 1972 032b 08       		.byte	0x8
 1973 032c 0A       		.uleb128 0xa
 1974 032d 67617000 		.ascii	"gap\000"
 1975 0331 03       		.byte	0x3
 1976 0332 F7       		.byte	0xf7
 1977 0333 39030000 		.4byte	0x339
 1978 0337 09       		.byte	0x9
 1979 0338 00       		.byte	0
 1980 0339 0C       		.uleb128 0xc
 1981 033a 6B000000 		.4byte	0x6b
 1982 033e 49030000 		.4byte	0x349
 1983 0342 0D       		.uleb128 0xd
 1984 0343 B0000000 		.4byte	0xb0
 1985 0347 06       		.byte	0x6
 1986 0348 00       		.byte	0
 1987 0349 08       		.uleb128 0x8
 1988 034a DC010000 		.4byte	.LASF55
 1989 034e 03       		.byte	0x3
 1990 034f F8       		.byte	0xf8
 1991 0350 B8020000 		.4byte	0x2b8
 1992 0354 0E       		.uleb128 0xe
 1993 0355 90       		.byte	0x90
 1994 0356 03       		.byte	0x3
 1995 0357 1401     		.2byte	0x114
 1996 0359 6B030000 		.4byte	0x36b
 1997 035d 0F       		.uleb128 0xf
 1998 035e 5F020000 		.4byte	.LASF56
 1999 0362 03       		.byte	0x3
 2000 0363 1601     		.2byte	0x116
 2001 0365 6B030000 		.4byte	0x36b
 2002 0369 00       		.byte	0
 2003 036a 00       		.byte	0
 2004 036b 0C       		.uleb128 0xc
 2005 036c AD020000 		.4byte	0x2ad
 2006 0370 7B030000 		.4byte	0x37b
 2007 0374 0D       		.uleb128 0xd
 2008 0375 B0000000 		.4byte	0xb0
 2009 0379 08       		.byte	0x8
ARM GAS  C:\Users\rabbit\AppData\Local\Temp\cccb5bWv.s 			page 62


 2010 037a 00       		.byte	0
 2011 037b 04       		.uleb128 0x4
 2012 037c 94000000 		.4byte	.LASF57
 2013 0380 03       		.byte	0x3
 2014 0381 1701     		.2byte	0x117
 2015 0383 54030000 		.4byte	0x354
 2016 0387 0E       		.uleb128 0xe
 2017 0388 90       		.byte	0x90
 2018 0389 03       		.byte	0x3
 2019 038a 1A01     		.2byte	0x11a
 2020 038c 9E030000 		.4byte	0x39e
 2021 0390 0F       		.uleb128 0xf
 2022 0391 2A030000 		.4byte	.LASF58
 2023 0395 03       		.byte	0x3
 2024 0396 1C01     		.2byte	0x11c
 2025 0398 9E030000 		.4byte	0x39e
 2026 039c 00       		.byte	0
 2027 039d 00       		.byte	0
 2028 039e 0C       		.uleb128 0xc
 2029 039f 49030000 		.4byte	0x349
 2030 03a3 AE030000 		.4byte	0x3ae
 2031 03a7 0D       		.uleb128 0xd
 2032 03a8 B0000000 		.4byte	0xb0
 2033 03ac 08       		.byte	0x8
 2034 03ad 00       		.byte	0
 2035 03ae 04       		.uleb128 0x4
 2036 03af A9000000 		.4byte	.LASF59
 2037 03b3 03       		.byte	0x3
 2038 03b4 1D01     		.2byte	0x11d
 2039 03b6 87030000 		.4byte	0x387
 2040 03ba 10       		.uleb128 0x10
 2041 03bb 28040000 		.4byte	.LASF64
 2042 03bf 01       		.byte	0x1
 2043 03c0 2503     		.2byte	0x325
 2044 03c2 01       		.byte	0x1
 2045 03c3 19040000 		.4byte	0x419
 2046 03c7 11       		.uleb128 0x11
 2047 03c8 657000   		.ascii	"ep\000"
 2048 03cb 01       		.byte	0x1
 2049 03cc 2703     		.2byte	0x327
 2050 03ce 6B000000 		.4byte	0x6b
 2051 03d2 12       		.uleb128 0x12
 2052 03d3 9D030000 		.4byte	.LASF60
 2053 03d7 01       		.byte	0x1
 2054 03d8 2803     		.2byte	0x328
 2055 03da 6B000000 		.4byte	0x6b
 2056 03de 12       		.uleb128 0x12
 2057 03df 6C020000 		.4byte	.LASF61
 2058 03e3 01       		.byte	0x1
 2059 03e4 2903     		.2byte	0x329
 2060 03e6 6B000000 		.4byte	0x6b
 2061 03ea 11       		.uleb128 0x11
 2062 03eb 6900     		.ascii	"i\000"
 2063 03ed 01       		.byte	0x1
 2064 03ee 2A03     		.2byte	0x32a
 2065 03f0 6B000000 		.4byte	0x6b
 2066 03f4 12       		.uleb128 0x12
ARM GAS  C:\Users\rabbit\AppData\Local\Temp\cccb5bWv.s 			page 63


 2067 03f5 5F040000 		.4byte	.LASF62
 2068 03f9 01       		.byte	0x1
 2069 03fa 2B03     		.2byte	0x32b
 2070 03fc 6B000000 		.4byte	0x6b
 2071 0400 12       		.uleb128 0x12
 2072 0401 CE030000 		.4byte	.LASF63
 2073 0405 01       		.byte	0x1
 2074 0406 2D03     		.2byte	0x32d
 2075 0408 19040000 		.4byte	0x419
 2076 040c 11       		.uleb128 0x11
 2077 040d 70455000 		.ascii	"pEP\000"
 2078 0411 01       		.byte	0x1
 2079 0412 2E03     		.2byte	0x32e
 2080 0414 24040000 		.4byte	0x424
 2081 0418 00       		.byte	0
 2082 0419 09       		.uleb128 0x9
 2083 041a 04       		.byte	0x4
 2084 041b 1F040000 		.4byte	0x41f
 2085 041f 13       		.uleb128 0x13
 2086 0420 29020000 		.4byte	0x229
 2087 0424 09       		.uleb128 0x9
 2088 0425 04       		.byte	0x4
 2089 0426 2A040000 		.4byte	0x42a
 2090 042a 13       		.uleb128 0x13
 2091 042b 88010000 		.4byte	0x188
 2092 042f 10       		.uleb128 0x10
 2093 0430 CF010000 		.4byte	.LASF65
 2094 0434 01       		.byte	0x1
 2095 0435 3A02     		.2byte	0x23a
 2096 0437 01       		.byte	0x1
 2097 0438 A6040000 		.4byte	0x4a6
 2098 043c 14       		.uleb128 0x14
 2099 043d 7D010000 		.4byte	.LASF112
 2100 0441 01       		.byte	0x1
 2101 0442 3A02     		.2byte	0x23a
 2102 0444 6B000000 		.4byte	0x6b
 2103 0448 11       		.uleb128 0x11
 2104 0449 657000   		.ascii	"ep\000"
 2105 044c 01       		.byte	0x1
 2106 044d 3C02     		.2byte	0x23c
 2107 044f 6B000000 		.4byte	0x6b
 2108 0453 12       		.uleb128 0x12
 2109 0454 9D030000 		.4byte	.LASF60
 2110 0458 01       		.byte	0x1
 2111 0459 3D02     		.2byte	0x23d
 2112 045b 6B000000 		.4byte	0x6b
 2113 045f 11       		.uleb128 0x11
 2114 0460 6900     		.ascii	"i\000"
 2115 0462 01       		.byte	0x1
 2116 0463 3E02     		.2byte	0x23e
 2117 0465 6B000000 		.4byte	0x6b
 2118 0469 12       		.uleb128 0x12
 2119 046a 6C020000 		.4byte	.LASF61
 2120 046e 01       		.byte	0x1
 2121 046f 3F02     		.2byte	0x23f
 2122 0471 6B000000 		.4byte	0x6b
 2123 0475 12       		.uleb128 0x12
ARM GAS  C:\Users\rabbit\AppData\Local\Temp\cccb5bWv.s 			page 64


 2124 0476 FF020000 		.4byte	.LASF66
 2125 047a 01       		.byte	0x1
 2126 047b 4002     		.2byte	0x240
 2127 047d A6040000 		.4byte	0x4a6
 2128 0481 12       		.uleb128 0x12
 2129 0482 DA030000 		.4byte	.LASF67
 2130 0486 01       		.byte	0x1
 2131 0487 4302     		.2byte	0x243
 2132 0489 77000000 		.4byte	0x77
 2133 048d 12       		.uleb128 0x12
 2134 048e CE030000 		.4byte	.LASF63
 2135 0492 01       		.byte	0x1
 2136 0493 4602     		.2byte	0x246
 2137 0495 19040000 		.4byte	0x419
 2138 0499 11       		.uleb128 0x11
 2139 049a 70455000 		.ascii	"pEP\000"
 2140 049e 01       		.byte	0x1
 2141 049f 4702     		.2byte	0x247
 2142 04a1 24040000 		.4byte	0x424
 2143 04a5 00       		.byte	0
 2144 04a6 09       		.uleb128 0x9
 2145 04a7 04       		.byte	0x4
 2146 04a8 AC040000 		.4byte	0x4ac
 2147 04ac 13       		.uleb128 0x13
 2148 04ad 6B000000 		.4byte	0x6b
 2149 04b1 15       		.uleb128 0x15
 2150 04b2 DF050000 		.4byte	.LASF113
 2151 04b6 01       		.byte	0x1
 2152 04b7 F303     		.2byte	0x3f3
 2153 04b9 19040000 		.4byte	0x419
 2154 04bd 01       		.byte	0x1
 2155 04be 16       		.uleb128 0x16
 2156 04bf F0010000 		.4byte	.LASF68
 2157 04c3 01       		.byte	0x1
 2158 04c4 B501     		.2byte	0x1b5
 2159 04c6 00000000 		.4byte	.LFB1
 2160 04ca 80000000 		.4byte	.LFE1-.LFB1
 2161 04ce 01       		.uleb128 0x1
 2162 04cf 9C       		.byte	0x9c
 2163 04d0 E4040000 		.4byte	0x4e4
 2164 04d4 17       		.uleb128 0x17
 2165 04d5 657000   		.ascii	"ep\000"
 2166 04d8 01       		.byte	0x1
 2167 04d9 B701     		.2byte	0x1b7
 2168 04db 6B000000 		.4byte	0x6b
 2169 04df 00000000 		.4byte	.LLST0
 2170 04e3 00       		.byte	0
 2171 04e4 16       		.uleb128 0x16
 2172 04e5 DA040000 		.4byte	.LASF69
 2173 04e9 01       		.byte	0x1
 2174 04ea 1402     		.2byte	0x214
 2175 04ec 00000000 		.4byte	.LFB2
 2176 04f0 28000000 		.4byte	.LFE2-.LFB2
 2177 04f4 01       		.uleb128 0x1
 2178 04f5 9C       		.byte	0x9c
 2179 04f6 09050000 		.4byte	0x509
 2180 04fa 17       		.uleb128 0x17
ARM GAS  C:\Users\rabbit\AppData\Local\Temp\cccb5bWv.s 			page 65


 2181 04fb 6900     		.ascii	"i\000"
 2182 04fd 01       		.byte	0x1
 2183 04fe 1602     		.2byte	0x216
 2184 0500 6B000000 		.4byte	0x6b
 2185 0504 1F000000 		.4byte	.LLST1
 2186 0508 00       		.byte	0
 2187 0509 18       		.uleb128 0x18
 2188 050a 01050000 		.4byte	.LASF70
 2189 050e 01       		.byte	0x1
 2190 050f AE03     		.2byte	0x3ae
 2191 0511 19040000 		.4byte	0x419
 2192 0515 00000000 		.4byte	.LFB5
 2193 0519 24000000 		.4byte	.LFE5-.LFB5
 2194 051d 01       		.uleb128 0x1
 2195 051e 9C       		.byte	0x9c
 2196 051f 44050000 		.4byte	0x544
 2197 0523 19       		.uleb128 0x19
 2198 0524 52000000 		.4byte	.LASF75
 2199 0528 01       		.byte	0x1
 2200 0529 AE03     		.2byte	0x3ae
 2201 052b 6B000000 		.4byte	0x6b
 2202 052f 3E000000 		.4byte	.LLST2
 2203 0533 1A       		.uleb128 0x1a
 2204 0534 CE030000 		.4byte	.LASF63
 2205 0538 01       		.byte	0x1
 2206 0539 B203     		.2byte	0x3b2
 2207 053b 19040000 		.4byte	0x419
 2208 053f 5F000000 		.4byte	.LLST3
 2209 0543 00       		.byte	0
 2210 0544 1B       		.uleb128 0x1b
 2211 0545 BA030000 		.4byte	0x3ba
 2212 0549 00000000 		.4byte	.LFB4
 2213 054d 28010000 		.4byte	.LFE4-.LFB4
 2214 0551 01       		.uleb128 0x1
 2215 0552 9C       		.byte	0x9c
 2216 0553 CD050000 		.4byte	0x5cd
 2217 0557 1C       		.uleb128 0x1c
 2218 0558 C7030000 		.4byte	0x3c7
 2219 055c 1C       		.uleb128 0x1c
 2220 055d D2030000 		.4byte	0x3d2
 2221 0561 1C       		.uleb128 0x1c
 2222 0562 DE030000 		.4byte	0x3de
 2223 0566 1C       		.uleb128 0x1c
 2224 0567 EA030000 		.4byte	0x3ea
 2225 056b 1C       		.uleb128 0x1c
 2226 056c F4030000 		.4byte	0x3f4
 2227 0570 1C       		.uleb128 0x1c
 2228 0571 00040000 		.4byte	0x400
 2229 0575 1C       		.uleb128 0x1c
 2230 0576 0C040000 		.4byte	0x40c
 2231 057a 1D       		.uleb128 0x1d
 2232 057b 0C000000 		.4byte	.LBB7
 2233 057f 1C010000 		.4byte	.LBE7-.LBB7
 2234 0583 1E       		.uleb128 0x1e
 2235 0584 C7030000 		.4byte	0x3c7
 2236 0588 7F000000 		.4byte	.LLST4
 2237 058c 1E       		.uleb128 0x1e
ARM GAS  C:\Users\rabbit\AppData\Local\Temp\cccb5bWv.s 			page 66


 2238 058d D2030000 		.4byte	0x3d2
 2239 0591 9E000000 		.4byte	.LLST5
 2240 0595 1E       		.uleb128 0x1e
 2241 0596 DE030000 		.4byte	0x3de
 2242 059a B1000000 		.4byte	.LLST6
 2243 059e 1E       		.uleb128 0x1e
 2244 059f EA030000 		.4byte	0x3ea
 2245 05a3 CF000000 		.4byte	.LLST7
 2246 05a7 1E       		.uleb128 0x1e
 2247 05a8 F4030000 		.4byte	0x3f4
 2248 05ac E3000000 		.4byte	.LLST8
 2249 05b0 1E       		.uleb128 0x1e
 2250 05b1 00040000 		.4byte	0x400
 2251 05b5 F6000000 		.4byte	.LLST9
 2252 05b9 1E       		.uleb128 0x1e
 2253 05ba 0C040000 		.4byte	0x40c
 2254 05be 0B010000 		.4byte	.LLST10
 2255 05c2 1F       		.uleb128 0x1f
 2256 05c3 18000000 		.4byte	.LVL11
 2257 05c7 09050000 		.4byte	0x509
 2258 05cb 00       		.byte	0
 2259 05cc 00       		.byte	0
 2260 05cd 20       		.uleb128 0x20
 2261 05ce B1040000 		.4byte	0x4b1
 2262 05d2 00000000 		.4byte	.LFB6
 2263 05d6 18000000 		.4byte	.LFE6-.LFB6
 2264 05da 01       		.uleb128 0x1
 2265 05db 9C       		.byte	0x9c
 2266 05dc 18       		.uleb128 0x18
 2267 05dd A9020000 		.4byte	.LASF71
 2268 05e1 01       		.byte	0x1
 2269 05e2 0604     		.2byte	0x406
 2270 05e4 A6040000 		.4byte	0x4a6
 2271 05e8 00000000 		.4byte	.LFB7
 2272 05ec 20000000 		.4byte	.LFE7-.LFB7
 2273 05f0 01       		.uleb128 0x1
 2274 05f1 9C       		.byte	0x9c
 2275 05f2 2E060000 		.4byte	0x62e
 2276 05f6 1A       		.uleb128 0x1a
 2277 05f7 CE030000 		.4byte	.LASF63
 2278 05fb 01       		.byte	0x1
 2279 05fc 0904     		.2byte	0x409
 2280 05fe 19040000 		.4byte	0x419
 2281 0602 1E010000 		.4byte	.LLST11
 2282 0606 21       		.uleb128 0x21
 2283 0607 1A030000 		.4byte	.LASF72
 2284 060b 01       		.byte	0x1
 2285 060c 0A04     		.2byte	0x40a
 2286 060e A6040000 		.4byte	0x4a6
 2287 0612 01       		.uleb128 0x1
 2288 0613 50       		.byte	0x50
 2289 0614 1A       		.uleb128 0x1a
 2290 0615 BF050000 		.4byte	.LASF73
 2291 0619 01       		.byte	0x1
 2292 061a 0B04     		.2byte	0x40b
 2293 061c 6B000000 		.4byte	0x6b
 2294 0620 43010000 		.4byte	.LLST12
ARM GAS  C:\Users\rabbit\AppData\Local\Temp\cccb5bWv.s 			page 67


 2295 0624 1F       		.uleb128 0x1f
 2296 0625 0E000000 		.4byte	.LVL25
 2297 0629 09050000 		.4byte	0x509
 2298 062d 00       		.byte	0
 2299 062e 1B       		.uleb128 0x1b
 2300 062f 2F040000 		.4byte	0x42f
 2301 0633 00000000 		.4byte	.LFB3
 2302 0637 54010000 		.4byte	.LFE3-.LFB3
 2303 063b 01       		.uleb128 0x1
 2304 063c 9C       		.byte	0x9c
 2305 063d F4060000 		.4byte	0x6f4
 2306 0641 22       		.uleb128 0x22
 2307 0642 3C040000 		.4byte	0x43c
 2308 0646 65010000 		.4byte	.LLST13
 2309 064a 1E       		.uleb128 0x1e
 2310 064b 48040000 		.4byte	0x448
 2311 064f 91010000 		.4byte	.LLST14
 2312 0653 1C       		.uleb128 0x1c
 2313 0654 53040000 		.4byte	0x453
 2314 0658 1E       		.uleb128 0x1e
 2315 0659 5F040000 		.4byte	0x45f
 2316 065d B0010000 		.4byte	.LLST15
 2317 0661 1C       		.uleb128 0x1c
 2318 0662 69040000 		.4byte	0x469
 2319 0666 1C       		.uleb128 0x1c
 2320 0667 75040000 		.4byte	0x475
 2321 066b 23       		.uleb128 0x23
 2322 066c 81040000 		.4byte	0x481
 2323 0670 00       		.byte	0
 2324 0671 1C       		.uleb128 0x1c
 2325 0672 8D040000 		.4byte	0x48d
 2326 0676 1C       		.uleb128 0x1c
 2327 0677 99040000 		.4byte	0x499
 2328 067b 24       		.uleb128 0x24
 2329 067c 00000000 		.4byte	.Ldebug_ranges0+0
 2330 0680 22       		.uleb128 0x22
 2331 0681 3C040000 		.4byte	0x43c
 2332 0685 C4010000 		.4byte	.LLST16
 2333 0689 24       		.uleb128 0x24
 2334 068a 00000000 		.4byte	.Ldebug_ranges0+0
 2335 068e 1E       		.uleb128 0x1e
 2336 068f 48040000 		.4byte	0x448
 2337 0693 D7010000 		.4byte	.LLST17
 2338 0697 1E       		.uleb128 0x1e
 2339 0698 53040000 		.4byte	0x453
 2340 069c 02020000 		.4byte	.LLST18
 2341 06a0 1E       		.uleb128 0x1e
 2342 06a1 5F040000 		.4byte	0x45f
 2343 06a5 16020000 		.4byte	.LLST19
 2344 06a9 1E       		.uleb128 0x1e
 2345 06aa 69040000 		.4byte	0x469
 2346 06ae 4E020000 		.4byte	.LLST20
 2347 06b2 1E       		.uleb128 0x1e
 2348 06b3 75040000 		.4byte	0x475
 2349 06b7 8E020000 		.4byte	.LLST21
 2350 06bb 1E       		.uleb128 0x1e
 2351 06bc 81040000 		.4byte	0x481
ARM GAS  C:\Users\rabbit\AppData\Local\Temp\cccb5bWv.s 			page 68


 2352 06c0 A2020000 		.4byte	.LLST22
 2353 06c4 1E       		.uleb128 0x1e
 2354 06c5 8D040000 		.4byte	0x48d
 2355 06c9 E0020000 		.4byte	.LLST23
 2356 06cd 1E       		.uleb128 0x1e
 2357 06ce 99040000 		.4byte	0x499
 2358 06d2 00030000 		.4byte	.LLST24
 2359 06d6 1F       		.uleb128 0x1f
 2360 06d7 4A000000 		.4byte	.LVL37
 2361 06db 09050000 		.4byte	0x509
 2362 06df 1F       		.uleb128 0x1f
 2363 06e0 12010000 		.4byte	.LVL56
 2364 06e4 DC050000 		.4byte	0x5dc
 2365 06e8 25       		.uleb128 0x25
 2366 06e9 36010000 		.4byte	.LVL63
 2367 06ed BE040000 		.4byte	0x4be
 2368 06f1 00       		.byte	0
 2369 06f2 00       		.byte	0
 2370 06f3 00       		.byte	0
 2371 06f4 16       		.uleb128 0x16
 2372 06f5 1A000000 		.4byte	.LASF74
 2373 06f9 01       		.byte	0x1
 2374 06fa 3004     		.2byte	0x430
 2375 06fc 00000000 		.4byte	.LFB8
 2376 0700 40000000 		.4byte	.LFE8-.LFB8
 2377 0704 01       		.uleb128 0x1
 2378 0705 9C       		.byte	0x9c
 2379 0706 1B070000 		.4byte	0x71b
 2380 070a 19       		.uleb128 0x19
 2381 070b BE000000 		.4byte	.LASF76
 2382 070f 01       		.byte	0x1
 2383 0710 3004     		.2byte	0x430
 2384 0712 6B000000 		.4byte	0x6b
 2385 0716 52030000 		.4byte	.LLST25
 2386 071a 00       		.byte	0
 2387 071b 18       		.uleb128 0x18
 2388 071c 43020000 		.4byte	.LASF77
 2389 0720 01       		.byte	0x1
 2390 0721 5904     		.2byte	0x459
 2391 0723 6B000000 		.4byte	0x6b
 2392 0727 00000000 		.4byte	.LFB9
 2393 072b 54000000 		.4byte	.LFE9-.LFB9
 2394 072f 01       		.uleb128 0x1
 2395 0730 9C       		.byte	0x9c
 2396 0731 5B070000 		.4byte	0x75b
 2397 0735 26       		.uleb128 0x26
 2398 0736 B0050000 		.4byte	.LASF78
 2399 073a 01       		.byte	0x1
 2400 073b 5B04     		.2byte	0x45b
 2401 073d 6B000000 		.4byte	0x6b
 2402 0741 00       		.byte	0
 2403 0742 17       		.uleb128 0x17
 2404 0743 657000   		.ascii	"ep\000"
 2405 0746 01       		.byte	0x1
 2406 0747 5C04     		.2byte	0x45c
 2407 0749 6B000000 		.4byte	0x6b
 2408 074d 70030000 		.4byte	.LLST26
ARM GAS  C:\Users\rabbit\AppData\Local\Temp\cccb5bWv.s 			page 69


 2409 0751 25       		.uleb128 0x25
 2410 0752 42000000 		.4byte	.LVL70
 2411 0756 700A0000 		.4byte	0xa70
 2412 075a 00       		.byte	0
 2413 075b 18       		.uleb128 0x18
 2414 075c A1010000 		.4byte	.LASF79
 2415 0760 01       		.byte	0x1
 2416 0761 8A04     		.2byte	0x48a
 2417 0763 6B000000 		.4byte	0x6b
 2418 0767 00000000 		.4byte	.LFB10
 2419 076b 74000000 		.4byte	.LFE10-.LFB10
 2420 076f 01       		.uleb128 0x1
 2421 0770 9C       		.byte	0x9c
 2422 0771 9B070000 		.4byte	0x79b
 2423 0775 26       		.uleb128 0x26
 2424 0776 B0050000 		.4byte	.LASF78
 2425 077a 01       		.byte	0x1
 2426 077b 8C04     		.2byte	0x48c
 2427 077d 6B000000 		.4byte	0x6b
 2428 0781 00       		.byte	0
 2429 0782 17       		.uleb128 0x17
 2430 0783 657000   		.ascii	"ep\000"
 2431 0786 01       		.byte	0x1
 2432 0787 8D04     		.2byte	0x48d
 2433 0789 6B000000 		.4byte	0x6b
 2434 078d 8E030000 		.4byte	.LLST27
 2435 0791 25       		.uleb128 0x25
 2436 0792 60000000 		.4byte	.LVL74
 2437 0796 700A0000 		.4byte	0xa70
 2438 079a 00       		.byte	0
 2439 079b 18       		.uleb128 0x18
 2440 079c 4E030000 		.4byte	.LASF80
 2441 07a0 01       		.byte	0x1
 2442 07a1 CF04     		.2byte	0x4cf
 2443 07a3 6B000000 		.4byte	0x6b
 2444 07a7 00000000 		.4byte	.LFB11
 2445 07ab 48000000 		.4byte	.LFE11-.LFB11
 2446 07af 01       		.uleb128 0x1
 2447 07b0 9C       		.byte	0x9c
 2448 07b1 FF070000 		.4byte	0x7ff
 2449 07b5 1A       		.uleb128 0x1a
 2450 07b6 B0050000 		.4byte	.LASF78
 2451 07ba 01       		.byte	0x1
 2452 07bb D104     		.2byte	0x4d1
 2453 07bd 6B000000 		.4byte	0x6b
 2454 07c1 AC030000 		.4byte	.LLST28
 2455 07c5 1A       		.uleb128 0x1a
 2456 07c6 5F040000 		.4byte	.LASF62
 2457 07ca 01       		.byte	0x1
 2458 07cb D304     		.2byte	0x4d3
 2459 07cd 6B000000 		.4byte	0x6b
 2460 07d1 E3030000 		.4byte	.LLST29
 2461 07d5 1A       		.uleb128 0x1a
 2462 07d6 8A060000 		.4byte	.LASF81
 2463 07da 01       		.byte	0x1
 2464 07db D404     		.2byte	0x4d4
 2465 07dd 6B000000 		.4byte	0x6b
ARM GAS  C:\Users\rabbit\AppData\Local\Temp\cccb5bWv.s 			page 70


 2466 07e1 F6030000 		.4byte	.LLST30
 2467 07e5 1A       		.uleb128 0x1a
 2468 07e6 CE030000 		.4byte	.LASF63
 2469 07ea 01       		.byte	0x1
 2470 07eb D504     		.2byte	0x4d5
 2471 07ed 19040000 		.4byte	0x419
 2472 07f1 32040000 		.4byte	.LLST31
 2473 07f5 1F       		.uleb128 0x1f
 2474 07f6 14000000 		.4byte	.LVL77
 2475 07fa 09050000 		.4byte	0x509
 2476 07fe 00       		.byte	0
 2477 07ff 27       		.uleb128 0x27
 2478 0800 E9060000 		.4byte	.LASF82
 2479 0804 01       		.byte	0x1
 2480 0805 54       		.byte	0x54
 2481 0806 6B000000 		.4byte	0x6b
 2482 080a 00000000 		.4byte	.LFB0
 2483 080e 64020000 		.4byte	.LFE0-.LFB0
 2484 0812 01       		.uleb128 0x1
 2485 0813 9C       		.byte	0x9c
 2486 0814 15090000 		.4byte	0x915
 2487 0818 28       		.uleb128 0x28
 2488 0819 B0050000 		.4byte	.LASF78
 2489 081d 01       		.byte	0x1
 2490 081e 56       		.byte	0x56
 2491 081f 6B000000 		.4byte	0x6b
 2492 0823 50040000 		.4byte	.LLST32
 2493 0827 28       		.uleb128 0x28
 2494 0828 F7050000 		.4byte	.LASF83
 2495 082c 01       		.byte	0x1
 2496 082d 57       		.byte	0x57
 2497 082e 6B000000 		.4byte	0x6b
 2498 0832 64040000 		.4byte	.LLST33
 2499 0836 28       		.uleb128 0x28
 2500 0837 AA040000 		.4byte	.LASF84
 2501 083b 01       		.byte	0x1
 2502 083c 58       		.byte	0x58
 2503 083d 6B000000 		.4byte	0x6b
 2504 0841 77040000 		.4byte	.LLST34
 2505 0845 28       		.uleb128 0x28
 2506 0846 73020000 		.4byte	.LASF85
 2507 084a 01       		.byte	0x1
 2508 084b 59       		.byte	0x59
 2509 084c 6B000000 		.4byte	0x6b
 2510 0850 95040000 		.4byte	.LLST35
 2511 0854 28       		.uleb128 0x28
 2512 0855 C2040000 		.4byte	.LASF86
 2513 0859 01       		.byte	0x1
 2514 085a 5C       		.byte	0x5c
 2515 085b EC010000 		.4byte	0x1ec
 2516 085f 00050000 		.4byte	.LLST36
 2517 0863 28       		.uleb128 0x28
 2518 0864 61060000 		.4byte	.LASF87
 2519 0868 01       		.byte	0x1
 2520 0869 5E       		.byte	0x5e
 2521 086a 6B000000 		.4byte	0x6b
 2522 086e 4E050000 		.4byte	.LLST37
ARM GAS  C:\Users\rabbit\AppData\Local\Temp\cccb5bWv.s 			page 71


 2523 0872 28       		.uleb128 0x28
 2524 0873 AD030000 		.4byte	.LASF88
 2525 0877 01       		.byte	0x1
 2526 0878 5F       		.byte	0x5f
 2527 0879 6B000000 		.4byte	0x6b
 2528 087d 98050000 		.4byte	.LLST38
 2529 0881 29       		.uleb128 0x29
 2530 0882 6F010000 		.4byte	.LASF89
 2531 0886 01       		.byte	0x1
 2532 0887 63       		.byte	0x63
 2533 0888 25090000 		.4byte	0x925
 2534 088c 05       		.uleb128 0x5
 2535 088d 03       		.byte	0x3
 2536 088e 00000000 		.4byte	USBFS_tBuffer.5205
 2537 0892 28       		.uleb128 0x28
 2538 0893 CE030000 		.4byte	.LASF63
 2539 0897 01       		.byte	0x1
 2540 0898 64       		.byte	0x64
 2541 0899 19040000 		.4byte	0x419
 2542 089d AB050000 		.4byte	.LLST39
 2543 08a1 2A       		.uleb128 0x2a
 2544 08a2 B1040000 		.4byte	0x4b1
 2545 08a6 3E000000 		.4byte	.LBB14
 2546 08aa 0A000000 		.4byte	.LBE14-.LBB14
 2547 08ae 01       		.byte	0x1
 2548 08af 70       		.byte	0x70
 2549 08b0 1F       		.uleb128 0x1f
 2550 08b1 5E000000 		.4byte	.LVL86
 2551 08b5 09050000 		.4byte	0x509
 2552 08b9 25       		.uleb128 0x25
 2553 08ba 7E000000 		.4byte	.LVL89
 2554 08be 7B0A0000 		.4byte	0xa7b
 2555 08c2 25       		.uleb128 0x25
 2556 08c3 CC000000 		.4byte	.LVL99
 2557 08c7 860A0000 		.4byte	0xa86
 2558 08cb 2B       		.uleb128 0x2b
 2559 08cc 5E010000 		.4byte	.LVL112
 2560 08d0 2F040000 		.4byte	0x42f
 2561 08d4 DE080000 		.4byte	0x8de
 2562 08d8 2C       		.uleb128 0x2c
 2563 08d9 01       		.uleb128 0x1
 2564 08da 50       		.byte	0x50
 2565 08db 01       		.uleb128 0x1
 2566 08dc 31       		.byte	0x31
 2567 08dd 00       		.byte	0
 2568 08de 1F       		.uleb128 0x1f
 2569 08df 68010000 		.4byte	.LVL114
 2570 08e3 09050000 		.4byte	0x509
 2571 08e7 1F       		.uleb128 0x1f
 2572 08e8 72010000 		.4byte	.LVL116
 2573 08ec 9B070000 		.4byte	0x79b
 2574 08f0 1F       		.uleb128 0x1f
 2575 08f1 9A010000 		.4byte	.LVL119
 2576 08f5 BA030000 		.4byte	0x3ba
 2577 08f9 25       		.uleb128 0x25
 2578 08fa BA010000 		.4byte	.LVL122
 2579 08fe 5B070000 		.4byte	0x75b
ARM GAS  C:\Users\rabbit\AppData\Local\Temp\cccb5bWv.s 			page 72


 2580 0902 25       		.uleb128 0x25
 2581 0903 E8010000 		.4byte	.LVL125
 2582 0907 1B070000 		.4byte	0x71b
 2583 090b 25       		.uleb128 0x25
 2584 090c 1A020000 		.4byte	.LVL126
 2585 0910 700A0000 		.4byte	0xa70
 2586 0914 00       		.byte	0
 2587 0915 0C       		.uleb128 0xc
 2588 0916 A4000000 		.4byte	0xa4
 2589 091a 25090000 		.4byte	0x925
 2590 091e 0D       		.uleb128 0xd
 2591 091f B0000000 		.4byte	0xb0
 2592 0923 01       		.byte	0x1
 2593 0924 00       		.byte	0
 2594 0925 05       		.uleb128 0x5
 2595 0926 15090000 		.4byte	0x915
 2596 092a 2D       		.uleb128 0x2d
 2597 092b 6A050000 		.4byte	.LASF90
 2598 092f 03       		.byte	0x3
 2599 0930 D802     		.2byte	0x2d8
 2600 0932 A4000000 		.4byte	0xa4
 2601 0936 2D       		.uleb128 0x2d
 2602 0937 3A030000 		.4byte	.LASF91
 2603 093b 03       		.byte	0x3
 2604 093c DA02     		.2byte	0x2da
 2605 093e A4000000 		.4byte	0xa4
 2606 0942 2D       		.uleb128 0x2d
 2607 0943 6D030000 		.4byte	.LASF92
 2608 0947 03       		.byte	0x3
 2609 0948 DB02     		.2byte	0x2db
 2610 094a A4000000 		.4byte	0xa4
 2611 094e 2D       		.uleb128 0x2d
 2612 094f 82050000 		.4byte	.LASF93
 2613 0953 03       		.byte	0x3
 2614 0954 DC02     		.2byte	0x2dc
 2615 0956 A4000000 		.4byte	0xa4
 2616 095a 0C       		.uleb128 0xc
 2617 095b AC040000 		.4byte	0x4ac
 2618 095f 6A090000 		.4byte	0x96a
 2619 0963 0D       		.uleb128 0xd
 2620 0964 B0000000 		.4byte	0xb0
 2621 0968 11       		.byte	0x11
 2622 0969 00       		.byte	0
 2623 096a 2E       		.uleb128 0x2e
 2624 096b 6C040000 		.4byte	.LASF94
 2625 096f 04       		.byte	0x4
 2626 0970 61       		.byte	0x61
 2627 0971 75090000 		.4byte	0x975
 2628 0975 13       		.uleb128 0x13
 2629 0976 5A090000 		.4byte	0x95a
 2630 097a 0C       		.uleb128 0xc
 2631 097b 1F040000 		.4byte	0x41f
 2632 097f 8A090000 		.4byte	0x98a
 2633 0983 0D       		.uleb128 0xd
 2634 0984 B0000000 		.4byte	0xb0
 2635 0988 00       		.byte	0
 2636 0989 00       		.byte	0
ARM GAS  C:\Users\rabbit\AppData\Local\Temp\cccb5bWv.s 			page 73


 2637 098a 2E       		.uleb128 0x2e
 2638 098b EB030000 		.4byte	.LASF95
 2639 098f 04       		.byte	0x4
 2640 0990 68       		.byte	0x68
 2641 0991 95090000 		.4byte	0x995
 2642 0995 13       		.uleb128 0x13
 2643 0996 7A090000 		.4byte	0x97a
 2644 099a 0C       		.uleb128 0xc
 2645 099b AC040000 		.4byte	0x4ac
 2646 099f AA090000 		.4byte	0x9aa
 2647 09a3 0D       		.uleb128 0xd
 2648 09a4 B0000000 		.4byte	0xb0
 2649 09a8 09       		.byte	0x9
 2650 09a9 00       		.byte	0
 2651 09aa 2E       		.uleb128 0x2e
 2652 09ab F7030000 		.4byte	.LASF96
 2653 09af 04       		.byte	0x4
 2654 09b0 69       		.byte	0x69
 2655 09b1 B5090000 		.4byte	0x9b5
 2656 09b5 13       		.uleb128 0x13
 2657 09b6 9A090000 		.4byte	0x99a
 2658 09ba 0C       		.uleb128 0xc
 2659 09bb AC040000 		.4byte	0x4ac
 2660 09bf CA090000 		.4byte	0x9ca
 2661 09c3 0D       		.uleb128 0xd
 2662 09c4 B0000000 		.4byte	0xb0
 2663 09c8 52       		.byte	0x52
 2664 09c9 00       		.byte	0
 2665 09ca 2E       		.uleb128 0x2e
 2666 09cb 86040000 		.4byte	.LASF97
 2667 09cf 04       		.byte	0x4
 2668 09d0 6A       		.byte	0x6a
 2669 09d1 D5090000 		.4byte	0x9d5
 2670 09d5 13       		.uleb128 0x13
 2671 09d6 BA090000 		.4byte	0x9ba
 2672 09da 2E       		.uleb128 0x2e
 2673 09db B9010000 		.4byte	.LASF98
 2674 09df 04       		.byte	0x4
 2675 09e0 7D       		.byte	0x7d
 2676 09e1 A4000000 		.4byte	0xa4
 2677 09e5 0C       		.uleb128 0xc
 2678 09e6 A4000000 		.4byte	0xa4
 2679 09ea F5090000 		.4byte	0x9f5
 2680 09ee 0D       		.uleb128 0xd
 2681 09ef B0000000 		.4byte	0xb0
 2682 09f3 00       		.byte	0
 2683 09f4 00       		.byte	0
 2684 09f5 2E       		.uleb128 0x2e
 2685 09f6 1E050000 		.4byte	.LASF99
 2686 09fa 04       		.byte	0x4
 2687 09fb 7E       		.byte	0x7e
 2688 09fc 000A0000 		.4byte	0xa00
 2689 0a00 05       		.uleb128 0x5
 2690 0a01 E5090000 		.4byte	0x9e5
 2691 0a05 2E       		.uleb128 0x2e
 2692 0a06 CE060000 		.4byte	.LASF100
 2693 0a0a 04       		.byte	0x4
ARM GAS  C:\Users\rabbit\AppData\Local\Temp\cccb5bWv.s 			page 74


 2694 0a0b 7F       		.byte	0x7f
 2695 0a0c 100A0000 		.4byte	0xa10
 2696 0a10 05       		.uleb128 0x5
 2697 0a11 E5090000 		.4byte	0x9e5
 2698 0a15 2E       		.uleb128 0x2e
 2699 0a16 8D010000 		.4byte	.LASF101
 2700 0a1a 04       		.byte	0x4
 2701 0a1b 80       		.byte	0x80
 2702 0a1c A4000000 		.4byte	0xa4
 2703 0a20 2E       		.uleb128 0x2e
 2704 0a21 B0060000 		.4byte	.LASF102
 2705 0a25 04       		.byte	0x4
 2706 0a26 81       		.byte	0x81
 2707 0a27 2B0A0000 		.4byte	0xa2b
 2708 0a2b 05       		.uleb128 0x5
 2709 0a2c E5090000 		.4byte	0x9e5
 2710 0a30 2E       		.uleb128 0x2e
 2711 0a31 88030000 		.4byte	.LASF103
 2712 0a35 04       		.byte	0x4
 2713 0a36 82       		.byte	0x82
 2714 0a37 A6040000 		.4byte	0x4a6
 2715 0a3b 0C       		.uleb128 0xc
 2716 0a3c 4B0A0000 		.4byte	0xa4b
 2717 0a40 4B0A0000 		.4byte	0xa4b
 2718 0a44 0D       		.uleb128 0xd
 2719 0a45 B0000000 		.4byte	0xb0
 2720 0a49 08       		.byte	0x8
 2721 0a4a 00       		.byte	0
 2722 0a4b 05       		.uleb128 0x5
 2723 0a4c 2C010000 		.4byte	0x12c
 2724 0a50 2E       		.uleb128 0x2e
 2725 0a51 B9040000 		.4byte	.LASF104
 2726 0a55 04       		.byte	0x4
 2727 0a56 84       		.byte	0x84
 2728 0a57 5B0A0000 		.4byte	0xa5b
 2729 0a5b 05       		.uleb128 0x5
 2730 0a5c 3B0A0000 		.4byte	0xa3b
 2731 0a60 2E       		.uleb128 0x2e
 2732 0a61 2C000000 		.4byte	.LASF105
 2733 0a65 04       		.byte	0x4
 2734 0a66 85       		.byte	0x85
 2735 0a67 6B0A0000 		.4byte	0xa6b
 2736 0a6b 05       		.uleb128 0x5
 2737 0a6c F8010000 		.4byte	0x1f8
 2738 0a70 2F       		.uleb128 0x2f
 2739 0a71 4A050000 		.4byte	.LASF106
 2740 0a75 4A050000 		.4byte	.LASF106
 2741 0a79 04       		.byte	0x4
 2742 0a7a BE       		.byte	0xbe
 2743 0a7b 2F       		.uleb128 0x2f
 2744 0a7c 3C000000 		.4byte	.LASF107
 2745 0a80 3C000000 		.4byte	.LASF107
 2746 0a84 04       		.byte	0x4
 2747 0a85 B4       		.byte	0xb4
 2748 0a86 30       		.uleb128 0x30
 2749 0a87 6D060000 		.4byte	.LASF108
 2750 0a8b 6D060000 		.4byte	.LASF108
ARM GAS  C:\Users\rabbit\AppData\Local\Temp\cccb5bWv.s 			page 75


 2751 0a8f 04       		.byte	0x4
 2752 0a90 5A01     		.2byte	0x15a
 2753 0a92 00       		.byte	0
 2754              		.section	.debug_abbrev,"",%progbits
 2755              	.Ldebug_abbrev0:
 2756 0000 01       		.uleb128 0x1
 2757 0001 11       		.uleb128 0x11
 2758 0002 01       		.byte	0x1
 2759 0003 25       		.uleb128 0x25
 2760 0004 0E       		.uleb128 0xe
 2761 0005 13       		.uleb128 0x13
 2762 0006 0B       		.uleb128 0xb
 2763 0007 03       		.uleb128 0x3
 2764 0008 0E       		.uleb128 0xe
 2765 0009 1B       		.uleb128 0x1b
 2766 000a 0E       		.uleb128 0xe
 2767 000b 55       		.uleb128 0x55
 2768 000c 17       		.uleb128 0x17
 2769 000d 11       		.uleb128 0x11
 2770 000e 01       		.uleb128 0x1
 2771 000f 10       		.uleb128 0x10
 2772 0010 17       		.uleb128 0x17
 2773 0011 00       		.byte	0
 2774 0012 00       		.byte	0
 2775 0013 02       		.uleb128 0x2
 2776 0014 24       		.uleb128 0x24
 2777 0015 00       		.byte	0
 2778 0016 0B       		.uleb128 0xb
 2779 0017 0B       		.uleb128 0xb
 2780 0018 3E       		.uleb128 0x3e
 2781 0019 0B       		.uleb128 0xb
 2782 001a 03       		.uleb128 0x3
 2783 001b 0E       		.uleb128 0xe
 2784 001c 00       		.byte	0
 2785 001d 00       		.byte	0
 2786 001e 03       		.uleb128 0x3
 2787 001f 24       		.uleb128 0x24
 2788 0020 00       		.byte	0
 2789 0021 0B       		.uleb128 0xb
 2790 0022 0B       		.uleb128 0xb
 2791 0023 3E       		.uleb128 0x3e
 2792 0024 0B       		.uleb128 0xb
 2793 0025 03       		.uleb128 0x3
 2794 0026 08       		.uleb128 0x8
 2795 0027 00       		.byte	0
 2796 0028 00       		.byte	0
 2797 0029 04       		.uleb128 0x4
 2798 002a 16       		.uleb128 0x16
 2799 002b 00       		.byte	0
 2800 002c 03       		.uleb128 0x3
 2801 002d 0E       		.uleb128 0xe
 2802 002e 3A       		.uleb128 0x3a
 2803 002f 0B       		.uleb128 0xb
 2804 0030 3B       		.uleb128 0x3b
 2805 0031 05       		.uleb128 0x5
 2806 0032 49       		.uleb128 0x49
 2807 0033 13       		.uleb128 0x13
ARM GAS  C:\Users\rabbit\AppData\Local\Temp\cccb5bWv.s 			page 76


 2808 0034 00       		.byte	0
 2809 0035 00       		.byte	0
 2810 0036 05       		.uleb128 0x5
 2811 0037 35       		.uleb128 0x35
 2812 0038 00       		.byte	0
 2813 0039 49       		.uleb128 0x49
 2814 003a 13       		.uleb128 0x13
 2815 003b 00       		.byte	0
 2816 003c 00       		.byte	0
 2817 003d 06       		.uleb128 0x6
 2818 003e 13       		.uleb128 0x13
 2819 003f 01       		.byte	0x1
 2820 0040 0B       		.uleb128 0xb
 2821 0041 0B       		.uleb128 0xb
 2822 0042 3A       		.uleb128 0x3a
 2823 0043 0B       		.uleb128 0xb
 2824 0044 3B       		.uleb128 0x3b
 2825 0045 0B       		.uleb128 0xb
 2826 0046 01       		.uleb128 0x1
 2827 0047 13       		.uleb128 0x13
 2828 0048 00       		.byte	0
 2829 0049 00       		.byte	0
 2830 004a 07       		.uleb128 0x7
 2831 004b 0D       		.uleb128 0xd
 2832 004c 00       		.byte	0
 2833 004d 03       		.uleb128 0x3
 2834 004e 0E       		.uleb128 0xe
 2835 004f 3A       		.uleb128 0x3a
 2836 0050 0B       		.uleb128 0xb
 2837 0051 3B       		.uleb128 0x3b
 2838 0052 0B       		.uleb128 0xb
 2839 0053 49       		.uleb128 0x49
 2840 0054 13       		.uleb128 0x13
 2841 0055 38       		.uleb128 0x38
 2842 0056 0B       		.uleb128 0xb
 2843 0057 00       		.byte	0
 2844 0058 00       		.byte	0
 2845 0059 08       		.uleb128 0x8
 2846 005a 16       		.uleb128 0x16
 2847 005b 00       		.byte	0
 2848 005c 03       		.uleb128 0x3
 2849 005d 0E       		.uleb128 0xe
 2850 005e 3A       		.uleb128 0x3a
 2851 005f 0B       		.uleb128 0xb
 2852 0060 3B       		.uleb128 0x3b
 2853 0061 0B       		.uleb128 0xb
 2854 0062 49       		.uleb128 0x49
 2855 0063 13       		.uleb128 0x13
 2856 0064 00       		.byte	0
 2857 0065 00       		.byte	0
 2858 0066 09       		.uleb128 0x9
 2859 0067 0F       		.uleb128 0xf
 2860 0068 00       		.byte	0
 2861 0069 0B       		.uleb128 0xb
 2862 006a 0B       		.uleb128 0xb
 2863 006b 49       		.uleb128 0x49
 2864 006c 13       		.uleb128 0x13
ARM GAS  C:\Users\rabbit\AppData\Local\Temp\cccb5bWv.s 			page 77


 2865 006d 00       		.byte	0
 2866 006e 00       		.byte	0
 2867 006f 0A       		.uleb128 0xa
 2868 0070 0D       		.uleb128 0xd
 2869 0071 00       		.byte	0
 2870 0072 03       		.uleb128 0x3
 2871 0073 08       		.uleb128 0x8
 2872 0074 3A       		.uleb128 0x3a
 2873 0075 0B       		.uleb128 0xb
 2874 0076 3B       		.uleb128 0x3b
 2875 0077 0B       		.uleb128 0xb
 2876 0078 49       		.uleb128 0x49
 2877 0079 13       		.uleb128 0x13
 2878 007a 38       		.uleb128 0x38
 2879 007b 0B       		.uleb128 0xb
 2880 007c 00       		.byte	0
 2881 007d 00       		.byte	0
 2882 007e 0B       		.uleb128 0xb
 2883 007f 26       		.uleb128 0x26
 2884 0080 00       		.byte	0
 2885 0081 00       		.byte	0
 2886 0082 00       		.byte	0
 2887 0083 0C       		.uleb128 0xc
 2888 0084 01       		.uleb128 0x1
 2889 0085 01       		.byte	0x1
 2890 0086 49       		.uleb128 0x49
 2891 0087 13       		.uleb128 0x13
 2892 0088 01       		.uleb128 0x1
 2893 0089 13       		.uleb128 0x13
 2894 008a 00       		.byte	0
 2895 008b 00       		.byte	0
 2896 008c 0D       		.uleb128 0xd
 2897 008d 21       		.uleb128 0x21
 2898 008e 00       		.byte	0
 2899 008f 49       		.uleb128 0x49
 2900 0090 13       		.uleb128 0x13
 2901 0091 2F       		.uleb128 0x2f
 2902 0092 0B       		.uleb128 0xb
 2903 0093 00       		.byte	0
 2904 0094 00       		.byte	0
 2905 0095 0E       		.uleb128 0xe
 2906 0096 13       		.uleb128 0x13
 2907 0097 01       		.byte	0x1
 2908 0098 0B       		.uleb128 0xb
 2909 0099 0B       		.uleb128 0xb
 2910 009a 3A       		.uleb128 0x3a
 2911 009b 0B       		.uleb128 0xb
 2912 009c 3B       		.uleb128 0x3b
 2913 009d 05       		.uleb128 0x5
 2914 009e 01       		.uleb128 0x1
 2915 009f 13       		.uleb128 0x13
 2916 00a0 00       		.byte	0
 2917 00a1 00       		.byte	0
 2918 00a2 0F       		.uleb128 0xf
 2919 00a3 0D       		.uleb128 0xd
 2920 00a4 00       		.byte	0
 2921 00a5 03       		.uleb128 0x3
ARM GAS  C:\Users\rabbit\AppData\Local\Temp\cccb5bWv.s 			page 78


 2922 00a6 0E       		.uleb128 0xe
 2923 00a7 3A       		.uleb128 0x3a
 2924 00a8 0B       		.uleb128 0xb
 2925 00a9 3B       		.uleb128 0x3b
 2926 00aa 05       		.uleb128 0x5
 2927 00ab 49       		.uleb128 0x49
 2928 00ac 13       		.uleb128 0x13
 2929 00ad 38       		.uleb128 0x38
 2930 00ae 0B       		.uleb128 0xb
 2931 00af 00       		.byte	0
 2932 00b0 00       		.byte	0
 2933 00b1 10       		.uleb128 0x10
 2934 00b2 2E       		.uleb128 0x2e
 2935 00b3 01       		.byte	0x1
 2936 00b4 3F       		.uleb128 0x3f
 2937 00b5 19       		.uleb128 0x19
 2938 00b6 03       		.uleb128 0x3
 2939 00b7 0E       		.uleb128 0xe
 2940 00b8 3A       		.uleb128 0x3a
 2941 00b9 0B       		.uleb128 0xb
 2942 00ba 3B       		.uleb128 0x3b
 2943 00bb 05       		.uleb128 0x5
 2944 00bc 27       		.uleb128 0x27
 2945 00bd 19       		.uleb128 0x19
 2946 00be 20       		.uleb128 0x20
 2947 00bf 0B       		.uleb128 0xb
 2948 00c0 01       		.uleb128 0x1
 2949 00c1 13       		.uleb128 0x13
 2950 00c2 00       		.byte	0
 2951 00c3 00       		.byte	0
 2952 00c4 11       		.uleb128 0x11
 2953 00c5 34       		.uleb128 0x34
 2954 00c6 00       		.byte	0
 2955 00c7 03       		.uleb128 0x3
 2956 00c8 08       		.uleb128 0x8
 2957 00c9 3A       		.uleb128 0x3a
 2958 00ca 0B       		.uleb128 0xb
 2959 00cb 3B       		.uleb128 0x3b
 2960 00cc 05       		.uleb128 0x5
 2961 00cd 49       		.uleb128 0x49
 2962 00ce 13       		.uleb128 0x13
 2963 00cf 00       		.byte	0
 2964 00d0 00       		.byte	0
 2965 00d1 12       		.uleb128 0x12
 2966 00d2 34       		.uleb128 0x34
 2967 00d3 00       		.byte	0
 2968 00d4 03       		.uleb128 0x3
 2969 00d5 0E       		.uleb128 0xe
 2970 00d6 3A       		.uleb128 0x3a
 2971 00d7 0B       		.uleb128 0xb
 2972 00d8 3B       		.uleb128 0x3b
 2973 00d9 05       		.uleb128 0x5
 2974 00da 49       		.uleb128 0x49
 2975 00db 13       		.uleb128 0x13
 2976 00dc 00       		.byte	0
 2977 00dd 00       		.byte	0
 2978 00de 13       		.uleb128 0x13
ARM GAS  C:\Users\rabbit\AppData\Local\Temp\cccb5bWv.s 			page 79


 2979 00df 26       		.uleb128 0x26
 2980 00e0 00       		.byte	0
 2981 00e1 49       		.uleb128 0x49
 2982 00e2 13       		.uleb128 0x13
 2983 00e3 00       		.byte	0
 2984 00e4 00       		.byte	0
 2985 00e5 14       		.uleb128 0x14
 2986 00e6 05       		.uleb128 0x5
 2987 00e7 00       		.byte	0
 2988 00e8 03       		.uleb128 0x3
 2989 00e9 0E       		.uleb128 0xe
 2990 00ea 3A       		.uleb128 0x3a
 2991 00eb 0B       		.uleb128 0xb
 2992 00ec 3B       		.uleb128 0x3b
 2993 00ed 05       		.uleb128 0x5
 2994 00ee 49       		.uleb128 0x49
 2995 00ef 13       		.uleb128 0x13
 2996 00f0 00       		.byte	0
 2997 00f1 00       		.byte	0
 2998 00f2 15       		.uleb128 0x15
 2999 00f3 2E       		.uleb128 0x2e
 3000 00f4 00       		.byte	0
 3001 00f5 3F       		.uleb128 0x3f
 3002 00f6 19       		.uleb128 0x19
 3003 00f7 03       		.uleb128 0x3
 3004 00f8 0E       		.uleb128 0xe
 3005 00f9 3A       		.uleb128 0x3a
 3006 00fa 0B       		.uleb128 0xb
 3007 00fb 3B       		.uleb128 0x3b
 3008 00fc 05       		.uleb128 0x5
 3009 00fd 27       		.uleb128 0x27
 3010 00fe 19       		.uleb128 0x19
 3011 00ff 49       		.uleb128 0x49
 3012 0100 13       		.uleb128 0x13
 3013 0101 20       		.uleb128 0x20
 3014 0102 0B       		.uleb128 0xb
 3015 0103 00       		.byte	0
 3016 0104 00       		.byte	0
 3017 0105 16       		.uleb128 0x16
 3018 0106 2E       		.uleb128 0x2e
 3019 0107 01       		.byte	0x1
 3020 0108 3F       		.uleb128 0x3f
 3021 0109 19       		.uleb128 0x19
 3022 010a 03       		.uleb128 0x3
 3023 010b 0E       		.uleb128 0xe
 3024 010c 3A       		.uleb128 0x3a
 3025 010d 0B       		.uleb128 0xb
 3026 010e 3B       		.uleb128 0x3b
 3027 010f 05       		.uleb128 0x5
 3028 0110 27       		.uleb128 0x27
 3029 0111 19       		.uleb128 0x19
 3030 0112 11       		.uleb128 0x11
 3031 0113 01       		.uleb128 0x1
 3032 0114 12       		.uleb128 0x12
 3033 0115 06       		.uleb128 0x6
 3034 0116 40       		.uleb128 0x40
 3035 0117 18       		.uleb128 0x18
ARM GAS  C:\Users\rabbit\AppData\Local\Temp\cccb5bWv.s 			page 80


 3036 0118 9742     		.uleb128 0x2117
 3037 011a 19       		.uleb128 0x19
 3038 011b 01       		.uleb128 0x1
 3039 011c 13       		.uleb128 0x13
 3040 011d 00       		.byte	0
 3041 011e 00       		.byte	0
 3042 011f 17       		.uleb128 0x17
 3043 0120 34       		.uleb128 0x34
 3044 0121 00       		.byte	0
 3045 0122 03       		.uleb128 0x3
 3046 0123 08       		.uleb128 0x8
 3047 0124 3A       		.uleb128 0x3a
 3048 0125 0B       		.uleb128 0xb
 3049 0126 3B       		.uleb128 0x3b
 3050 0127 05       		.uleb128 0x5
 3051 0128 49       		.uleb128 0x49
 3052 0129 13       		.uleb128 0x13
 3053 012a 02       		.uleb128 0x2
 3054 012b 17       		.uleb128 0x17
 3055 012c 00       		.byte	0
 3056 012d 00       		.byte	0
 3057 012e 18       		.uleb128 0x18
 3058 012f 2E       		.uleb128 0x2e
 3059 0130 01       		.byte	0x1
 3060 0131 3F       		.uleb128 0x3f
 3061 0132 19       		.uleb128 0x19
 3062 0133 03       		.uleb128 0x3
 3063 0134 0E       		.uleb128 0xe
 3064 0135 3A       		.uleb128 0x3a
 3065 0136 0B       		.uleb128 0xb
 3066 0137 3B       		.uleb128 0x3b
 3067 0138 05       		.uleb128 0x5
 3068 0139 27       		.uleb128 0x27
 3069 013a 19       		.uleb128 0x19
 3070 013b 49       		.uleb128 0x49
 3071 013c 13       		.uleb128 0x13
 3072 013d 11       		.uleb128 0x11
 3073 013e 01       		.uleb128 0x1
 3074 013f 12       		.uleb128 0x12
 3075 0140 06       		.uleb128 0x6
 3076 0141 40       		.uleb128 0x40
 3077 0142 18       		.uleb128 0x18
 3078 0143 9742     		.uleb128 0x2117
 3079 0145 19       		.uleb128 0x19
 3080 0146 01       		.uleb128 0x1
 3081 0147 13       		.uleb128 0x13
 3082 0148 00       		.byte	0
 3083 0149 00       		.byte	0
 3084 014a 19       		.uleb128 0x19
 3085 014b 05       		.uleb128 0x5
 3086 014c 00       		.byte	0
 3087 014d 03       		.uleb128 0x3
 3088 014e 0E       		.uleb128 0xe
 3089 014f 3A       		.uleb128 0x3a
 3090 0150 0B       		.uleb128 0xb
 3091 0151 3B       		.uleb128 0x3b
 3092 0152 05       		.uleb128 0x5
ARM GAS  C:\Users\rabbit\AppData\Local\Temp\cccb5bWv.s 			page 81


 3093 0153 49       		.uleb128 0x49
 3094 0154 13       		.uleb128 0x13
 3095 0155 02       		.uleb128 0x2
 3096 0156 17       		.uleb128 0x17
 3097 0157 00       		.byte	0
 3098 0158 00       		.byte	0
 3099 0159 1A       		.uleb128 0x1a
 3100 015a 34       		.uleb128 0x34
 3101 015b 00       		.byte	0
 3102 015c 03       		.uleb128 0x3
 3103 015d 0E       		.uleb128 0xe
 3104 015e 3A       		.uleb128 0x3a
 3105 015f 0B       		.uleb128 0xb
 3106 0160 3B       		.uleb128 0x3b
 3107 0161 05       		.uleb128 0x5
 3108 0162 49       		.uleb128 0x49
 3109 0163 13       		.uleb128 0x13
 3110 0164 02       		.uleb128 0x2
 3111 0165 17       		.uleb128 0x17
 3112 0166 00       		.byte	0
 3113 0167 00       		.byte	0
 3114 0168 1B       		.uleb128 0x1b
 3115 0169 2E       		.uleb128 0x2e
 3116 016a 01       		.byte	0x1
 3117 016b 31       		.uleb128 0x31
 3118 016c 13       		.uleb128 0x13
 3119 016d 11       		.uleb128 0x11
 3120 016e 01       		.uleb128 0x1
 3121 016f 12       		.uleb128 0x12
 3122 0170 06       		.uleb128 0x6
 3123 0171 40       		.uleb128 0x40
 3124 0172 18       		.uleb128 0x18
 3125 0173 9742     		.uleb128 0x2117
 3126 0175 19       		.uleb128 0x19
 3127 0176 01       		.uleb128 0x1
 3128 0177 13       		.uleb128 0x13
 3129 0178 00       		.byte	0
 3130 0179 00       		.byte	0
 3131 017a 1C       		.uleb128 0x1c
 3132 017b 34       		.uleb128 0x34
 3133 017c 00       		.byte	0
 3134 017d 31       		.uleb128 0x31
 3135 017e 13       		.uleb128 0x13
 3136 017f 00       		.byte	0
 3137 0180 00       		.byte	0
 3138 0181 1D       		.uleb128 0x1d
 3139 0182 0B       		.uleb128 0xb
 3140 0183 01       		.byte	0x1
 3141 0184 11       		.uleb128 0x11
 3142 0185 01       		.uleb128 0x1
 3143 0186 12       		.uleb128 0x12
 3144 0187 06       		.uleb128 0x6
 3145 0188 00       		.byte	0
 3146 0189 00       		.byte	0
 3147 018a 1E       		.uleb128 0x1e
 3148 018b 34       		.uleb128 0x34
 3149 018c 00       		.byte	0
ARM GAS  C:\Users\rabbit\AppData\Local\Temp\cccb5bWv.s 			page 82


 3150 018d 31       		.uleb128 0x31
 3151 018e 13       		.uleb128 0x13
 3152 018f 02       		.uleb128 0x2
 3153 0190 17       		.uleb128 0x17
 3154 0191 00       		.byte	0
 3155 0192 00       		.byte	0
 3156 0193 1F       		.uleb128 0x1f
 3157 0194 898201   		.uleb128 0x4109
 3158 0197 00       		.byte	0
 3159 0198 11       		.uleb128 0x11
 3160 0199 01       		.uleb128 0x1
 3161 019a 31       		.uleb128 0x31
 3162 019b 13       		.uleb128 0x13
 3163 019c 00       		.byte	0
 3164 019d 00       		.byte	0
 3165 019e 20       		.uleb128 0x20
 3166 019f 2E       		.uleb128 0x2e
 3167 01a0 00       		.byte	0
 3168 01a1 31       		.uleb128 0x31
 3169 01a2 13       		.uleb128 0x13
 3170 01a3 11       		.uleb128 0x11
 3171 01a4 01       		.uleb128 0x1
 3172 01a5 12       		.uleb128 0x12
 3173 01a6 06       		.uleb128 0x6
 3174 01a7 40       		.uleb128 0x40
 3175 01a8 18       		.uleb128 0x18
 3176 01a9 9742     		.uleb128 0x2117
 3177 01ab 19       		.uleb128 0x19
 3178 01ac 00       		.byte	0
 3179 01ad 00       		.byte	0
 3180 01ae 21       		.uleb128 0x21
 3181 01af 34       		.uleb128 0x34
 3182 01b0 00       		.byte	0
 3183 01b1 03       		.uleb128 0x3
 3184 01b2 0E       		.uleb128 0xe
 3185 01b3 3A       		.uleb128 0x3a
 3186 01b4 0B       		.uleb128 0xb
 3187 01b5 3B       		.uleb128 0x3b
 3188 01b6 05       		.uleb128 0x5
 3189 01b7 49       		.uleb128 0x49
 3190 01b8 13       		.uleb128 0x13
 3191 01b9 02       		.uleb128 0x2
 3192 01ba 18       		.uleb128 0x18
 3193 01bb 00       		.byte	0
 3194 01bc 00       		.byte	0
 3195 01bd 22       		.uleb128 0x22
 3196 01be 05       		.uleb128 0x5
 3197 01bf 00       		.byte	0
 3198 01c0 31       		.uleb128 0x31
 3199 01c1 13       		.uleb128 0x13
 3200 01c2 02       		.uleb128 0x2
 3201 01c3 17       		.uleb128 0x17
 3202 01c4 00       		.byte	0
 3203 01c5 00       		.byte	0
 3204 01c6 23       		.uleb128 0x23
 3205 01c7 34       		.uleb128 0x34
 3206 01c8 00       		.byte	0
ARM GAS  C:\Users\rabbit\AppData\Local\Temp\cccb5bWv.s 			page 83


 3207 01c9 31       		.uleb128 0x31
 3208 01ca 13       		.uleb128 0x13
 3209 01cb 1C       		.uleb128 0x1c
 3210 01cc 0B       		.uleb128 0xb
 3211 01cd 00       		.byte	0
 3212 01ce 00       		.byte	0
 3213 01cf 24       		.uleb128 0x24
 3214 01d0 0B       		.uleb128 0xb
 3215 01d1 01       		.byte	0x1
 3216 01d2 55       		.uleb128 0x55
 3217 01d3 17       		.uleb128 0x17
 3218 01d4 00       		.byte	0
 3219 01d5 00       		.byte	0
 3220 01d6 25       		.uleb128 0x25
 3221 01d7 898201   		.uleb128 0x4109
 3222 01da 00       		.byte	0
 3223 01db 11       		.uleb128 0x11
 3224 01dc 01       		.uleb128 0x1
 3225 01dd 9542     		.uleb128 0x2115
 3226 01df 19       		.uleb128 0x19
 3227 01e0 31       		.uleb128 0x31
 3228 01e1 13       		.uleb128 0x13
 3229 01e2 00       		.byte	0
 3230 01e3 00       		.byte	0
 3231 01e4 26       		.uleb128 0x26
 3232 01e5 34       		.uleb128 0x34
 3233 01e6 00       		.byte	0
 3234 01e7 03       		.uleb128 0x3
 3235 01e8 0E       		.uleb128 0xe
 3236 01e9 3A       		.uleb128 0x3a
 3237 01ea 0B       		.uleb128 0xb
 3238 01eb 3B       		.uleb128 0x3b
 3239 01ec 05       		.uleb128 0x5
 3240 01ed 49       		.uleb128 0x49
 3241 01ee 13       		.uleb128 0x13
 3242 01ef 1C       		.uleb128 0x1c
 3243 01f0 0B       		.uleb128 0xb
 3244 01f1 00       		.byte	0
 3245 01f2 00       		.byte	0
 3246 01f3 27       		.uleb128 0x27
 3247 01f4 2E       		.uleb128 0x2e
 3248 01f5 01       		.byte	0x1
 3249 01f6 3F       		.uleb128 0x3f
 3250 01f7 19       		.uleb128 0x19
 3251 01f8 03       		.uleb128 0x3
 3252 01f9 0E       		.uleb128 0xe
 3253 01fa 3A       		.uleb128 0x3a
 3254 01fb 0B       		.uleb128 0xb
 3255 01fc 3B       		.uleb128 0x3b
 3256 01fd 0B       		.uleb128 0xb
 3257 01fe 27       		.uleb128 0x27
 3258 01ff 19       		.uleb128 0x19
 3259 0200 49       		.uleb128 0x49
 3260 0201 13       		.uleb128 0x13
 3261 0202 11       		.uleb128 0x11
 3262 0203 01       		.uleb128 0x1
 3263 0204 12       		.uleb128 0x12
ARM GAS  C:\Users\rabbit\AppData\Local\Temp\cccb5bWv.s 			page 84


 3264 0205 06       		.uleb128 0x6
 3265 0206 40       		.uleb128 0x40
 3266 0207 18       		.uleb128 0x18
 3267 0208 9742     		.uleb128 0x2117
 3268 020a 19       		.uleb128 0x19
 3269 020b 01       		.uleb128 0x1
 3270 020c 13       		.uleb128 0x13
 3271 020d 00       		.byte	0
 3272 020e 00       		.byte	0
 3273 020f 28       		.uleb128 0x28
 3274 0210 34       		.uleb128 0x34
 3275 0211 00       		.byte	0
 3276 0212 03       		.uleb128 0x3
 3277 0213 0E       		.uleb128 0xe
 3278 0214 3A       		.uleb128 0x3a
 3279 0215 0B       		.uleb128 0xb
 3280 0216 3B       		.uleb128 0x3b
 3281 0217 0B       		.uleb128 0xb
 3282 0218 49       		.uleb128 0x49
 3283 0219 13       		.uleb128 0x13
 3284 021a 02       		.uleb128 0x2
 3285 021b 17       		.uleb128 0x17
 3286 021c 00       		.byte	0
 3287 021d 00       		.byte	0
 3288 021e 29       		.uleb128 0x29
 3289 021f 34       		.uleb128 0x34
 3290 0220 00       		.byte	0
 3291 0221 03       		.uleb128 0x3
 3292 0222 0E       		.uleb128 0xe
 3293 0223 3A       		.uleb128 0x3a
 3294 0224 0B       		.uleb128 0xb
 3295 0225 3B       		.uleb128 0x3b
 3296 0226 0B       		.uleb128 0xb
 3297 0227 49       		.uleb128 0x49
 3298 0228 13       		.uleb128 0x13
 3299 0229 02       		.uleb128 0x2
 3300 022a 18       		.uleb128 0x18
 3301 022b 00       		.byte	0
 3302 022c 00       		.byte	0
 3303 022d 2A       		.uleb128 0x2a
 3304 022e 1D       		.uleb128 0x1d
 3305 022f 00       		.byte	0
 3306 0230 31       		.uleb128 0x31
 3307 0231 13       		.uleb128 0x13
 3308 0232 11       		.uleb128 0x11
 3309 0233 01       		.uleb128 0x1
 3310 0234 12       		.uleb128 0x12
 3311 0235 06       		.uleb128 0x6
 3312 0236 58       		.uleb128 0x58
 3313 0237 0B       		.uleb128 0xb
 3314 0238 59       		.uleb128 0x59
 3315 0239 0B       		.uleb128 0xb
 3316 023a 00       		.byte	0
 3317 023b 00       		.byte	0
 3318 023c 2B       		.uleb128 0x2b
 3319 023d 898201   		.uleb128 0x4109
 3320 0240 01       		.byte	0x1
ARM GAS  C:\Users\rabbit\AppData\Local\Temp\cccb5bWv.s 			page 85


 3321 0241 11       		.uleb128 0x11
 3322 0242 01       		.uleb128 0x1
 3323 0243 31       		.uleb128 0x31
 3324 0244 13       		.uleb128 0x13
 3325 0245 01       		.uleb128 0x1
 3326 0246 13       		.uleb128 0x13
 3327 0247 00       		.byte	0
 3328 0248 00       		.byte	0
 3329 0249 2C       		.uleb128 0x2c
 3330 024a 8A8201   		.uleb128 0x410a
 3331 024d 00       		.byte	0
 3332 024e 02       		.uleb128 0x2
 3333 024f 18       		.uleb128 0x18
 3334 0250 9142     		.uleb128 0x2111
 3335 0252 18       		.uleb128 0x18
 3336 0253 00       		.byte	0
 3337 0254 00       		.byte	0
 3338 0255 2D       		.uleb128 0x2d
 3339 0256 34       		.uleb128 0x34
 3340 0257 00       		.byte	0
 3341 0258 03       		.uleb128 0x3
 3342 0259 0E       		.uleb128 0xe
 3343 025a 3A       		.uleb128 0x3a
 3344 025b 0B       		.uleb128 0xb
 3345 025c 3B       		.uleb128 0x3b
 3346 025d 05       		.uleb128 0x5
 3347 025e 49       		.uleb128 0x49
 3348 025f 13       		.uleb128 0x13
 3349 0260 3F       		.uleb128 0x3f
 3350 0261 19       		.uleb128 0x19
 3351 0262 3C       		.uleb128 0x3c
 3352 0263 19       		.uleb128 0x19
 3353 0264 00       		.byte	0
 3354 0265 00       		.byte	0
 3355 0266 2E       		.uleb128 0x2e
 3356 0267 34       		.uleb128 0x34
 3357 0268 00       		.byte	0
 3358 0269 03       		.uleb128 0x3
 3359 026a 0E       		.uleb128 0xe
 3360 026b 3A       		.uleb128 0x3a
 3361 026c 0B       		.uleb128 0xb
 3362 026d 3B       		.uleb128 0x3b
 3363 026e 0B       		.uleb128 0xb
 3364 026f 49       		.uleb128 0x49
 3365 0270 13       		.uleb128 0x13
 3366 0271 3F       		.uleb128 0x3f
 3367 0272 19       		.uleb128 0x19
 3368 0273 3C       		.uleb128 0x3c
 3369 0274 19       		.uleb128 0x19
 3370 0275 00       		.byte	0
 3371 0276 00       		.byte	0
 3372 0277 2F       		.uleb128 0x2f
 3373 0278 2E       		.uleb128 0x2e
 3374 0279 00       		.byte	0
 3375 027a 3F       		.uleb128 0x3f
 3376 027b 19       		.uleb128 0x19
 3377 027c 3C       		.uleb128 0x3c
ARM GAS  C:\Users\rabbit\AppData\Local\Temp\cccb5bWv.s 			page 86


 3378 027d 19       		.uleb128 0x19
 3379 027e 6E       		.uleb128 0x6e
 3380 027f 0E       		.uleb128 0xe
 3381 0280 03       		.uleb128 0x3
 3382 0281 0E       		.uleb128 0xe
 3383 0282 3A       		.uleb128 0x3a
 3384 0283 0B       		.uleb128 0xb
 3385 0284 3B       		.uleb128 0x3b
 3386 0285 0B       		.uleb128 0xb
 3387 0286 00       		.byte	0
 3388 0287 00       		.byte	0
 3389 0288 30       		.uleb128 0x30
 3390 0289 2E       		.uleb128 0x2e
 3391 028a 00       		.byte	0
 3392 028b 3F       		.uleb128 0x3f
 3393 028c 19       		.uleb128 0x19
 3394 028d 3C       		.uleb128 0x3c
 3395 028e 19       		.uleb128 0x19
 3396 028f 6E       		.uleb128 0x6e
 3397 0290 0E       		.uleb128 0xe
 3398 0291 03       		.uleb128 0x3
 3399 0292 0E       		.uleb128 0xe
 3400 0293 3A       		.uleb128 0x3a
 3401 0294 0B       		.uleb128 0xb
 3402 0295 3B       		.uleb128 0x3b
 3403 0296 05       		.uleb128 0x5
 3404 0297 00       		.byte	0
 3405 0298 00       		.byte	0
 3406 0299 00       		.byte	0
 3407              		.section	.debug_loc,"",%progbits
 3408              	.Ldebug_loc0:
 3409              	.LLST0:
 3410 0000 00000000 		.4byte	.LVL0
 3411 0004 12000000 		.4byte	.LVL1
 3412 0008 0200     		.2byte	0x2
 3413 000a 31       		.byte	0x31
 3414 000b 9F       		.byte	0x9f
 3415 000c 12000000 		.4byte	.LVL1
 3416 0010 46000000 		.4byte	.LVL2
 3417 0014 0100     		.2byte	0x1
 3418 0016 52       		.byte	0x52
 3419 0017 00000000 		.4byte	0
 3420 001b 00000000 		.4byte	0
 3421              	.LLST1:
 3422 001f 00000000 		.4byte	.LVL3
 3423 0023 0C000000 		.4byte	.LVL4
 3424 0027 0200     		.2byte	0x2
 3425 0029 31       		.byte	0x31
 3426 002a 9F       		.byte	0x9f
 3427 002b 0C000000 		.4byte	.LVL4
 3428 002f 14000000 		.4byte	.LVL5
 3429 0033 0100     		.2byte	0x1
 3430 0035 53       		.byte	0x53
 3431 0036 00000000 		.4byte	0
 3432 003a 00000000 		.4byte	0
 3433              	.LLST2:
 3434 003e 00000000 		.4byte	.LVL6
ARM GAS  C:\Users\rabbit\AppData\Local\Temp\cccb5bWv.s 			page 87


 3435 0042 18000000 		.4byte	.LVL9
 3436 0046 0100     		.2byte	0x1
 3437 0048 50       		.byte	0x50
 3438 0049 18000000 		.4byte	.LVL9
 3439 004d 24000000 		.4byte	.LFE5
 3440 0051 0400     		.2byte	0x4
 3441 0053 F3       		.byte	0xf3
 3442 0054 01       		.uleb128 0x1
 3443 0055 50       		.byte	0x50
 3444 0056 9F       		.byte	0x9f
 3445 0057 00000000 		.4byte	0
 3446 005b 00000000 		.4byte	0
 3447              	.LLST3:
 3448 005f 0C000000 		.4byte	.LVL7
 3449 0063 16000000 		.4byte	.LVL8
 3450 0067 0300     		.2byte	0x3
 3451 0069 73       		.byte	0x73
 3452 006a 10       		.sleb128 16
 3453 006b 9F       		.byte	0x9f
 3454 006c 18000000 		.4byte	.LVL9
 3455 0070 24000000 		.4byte	.LFE5
 3456 0074 0100     		.2byte	0x1
 3457 0076 50       		.byte	0x50
 3458 0077 00000000 		.4byte	0
 3459 007b 00000000 		.4byte	0
 3460              	.LLST4:
 3461 007f 18000000 		.4byte	.LVL11
 3462 0083 22000000 		.4byte	.LVL13
 3463 0087 0200     		.2byte	0x2
 3464 0089 70       		.byte	0x70
 3465 008a 08       		.sleb128 8
 3466 008b 22000000 		.4byte	.LVL13
 3467 008f 2C000000 		.4byte	.LVL15
 3468 0093 0100     		.2byte	0x1
 3469 0095 50       		.byte	0x50
 3470 0096 00000000 		.4byte	0
 3471 009a 00000000 		.4byte	0
 3472              	.LLST5:
 3473 009e 52000000 		.4byte	.LVL17
 3474 00a2 B8000000 		.4byte	.LVL22
 3475 00a6 0100     		.2byte	0x1
 3476 00a8 52       		.byte	0x52
 3477 00a9 00000000 		.4byte	0
 3478 00ad 00000000 		.4byte	0
 3479              	.LLST6:
 3480 00b1 64000000 		.4byte	.LVL18
 3481 00b5 8C000000 		.4byte	.LVL19
 3482 00b9 0100     		.2byte	0x1
 3483 00bb 59       		.byte	0x59
 3484 00bc 9A000000 		.4byte	.LVL20
 3485 00c0 A4000000 		.4byte	.LVL21
 3486 00c4 0100     		.2byte	0x1
 3487 00c6 59       		.byte	0x59
 3488 00c7 00000000 		.4byte	0
 3489 00cb 00000000 		.4byte	0
 3490              	.LLST7:
 3491 00cf 28000000 		.4byte	.LVL14
ARM GAS  C:\Users\rabbit\AppData\Local\Temp\cccb5bWv.s 			page 88


 3492 00d3 34000000 		.4byte	.LVL16
 3493 00d7 0200     		.2byte	0x2
 3494 00d9 30       		.byte	0x30
 3495 00da 9F       		.byte	0x9f
 3496 00db 00000000 		.4byte	0
 3497 00df 00000000 		.4byte	0
 3498              	.LLST8:
 3499 00e3 28000000 		.4byte	.LVL14
 3500 00e7 0A010000 		.4byte	.LVL24
 3501 00eb 0100     		.2byte	0x1
 3502 00ed 54       		.byte	0x54
 3503 00ee 00000000 		.4byte	0
 3504 00f2 00000000 		.4byte	0
 3505              	.LLST9:
 3506 00f6 18000000 		.4byte	.LVL11
 3507 00fa 22000000 		.4byte	.LVL13
 3508 00fe 0300     		.2byte	0x3
 3509 0100 70       		.byte	0x70
 3510 0101 08       		.sleb128 8
 3511 0102 9F       		.byte	0x9f
 3512 0103 00000000 		.4byte	0
 3513 0107 00000000 		.4byte	0
 3514              	.LLST10:
 3515 010b 1E000000 		.4byte	.LVL12
 3516 010f 0A010000 		.4byte	.LVL24
 3517 0113 0100     		.2byte	0x1
 3518 0115 53       		.byte	0x53
 3519 0116 00000000 		.4byte	0
 3520 011a 00000000 		.4byte	0
 3521              	.LLST11:
 3522 011e 0E000000 		.4byte	.LVL25
 3523 0122 14000000 		.4byte	.LVL27
 3524 0126 0100     		.2byte	0x1
 3525 0128 50       		.byte	0x50
 3526 0129 14000000 		.4byte	.LVL27
 3527 012d 18000000 		.4byte	.LVL28
 3528 0131 0800     		.2byte	0x8
 3529 0133 73       		.byte	0x73
 3530 0134 02       		.sleb128 2
 3531 0135 33       		.byte	0x33
 3532 0136 24       		.byte	0x24
 3533 0137 70       		.byte	0x70
 3534 0138 00       		.sleb128 0
 3535 0139 22       		.byte	0x22
 3536 013a 9F       		.byte	0x9f
 3537 013b 00000000 		.4byte	0
 3538 013f 00000000 		.4byte	0
 3539              	.LLST12:
 3540 0143 10000000 		.4byte	.LVL26
 3541 0147 18000000 		.4byte	.LVL28
 3542 014b 0500     		.2byte	0x5
 3543 014d 70       		.byte	0x70
 3544 014e 04       		.sleb128 4
 3545 014f 06       		.byte	0x6
 3546 0150 23       		.byte	0x23
 3547 0151 04       		.uleb128 0x4
 3548 0152 18000000 		.4byte	.LVL28
ARM GAS  C:\Users\rabbit\AppData\Local\Temp\cccb5bWv.s 			page 89


 3549 0156 1A000000 		.4byte	.LVL29
 3550 015a 0100     		.2byte	0x1
 3551 015c 53       		.byte	0x53
 3552 015d 00000000 		.4byte	0
 3553 0161 00000000 		.4byte	0
 3554              	.LLST13:
 3555 0165 00000000 		.4byte	.LVL30
 3556 0169 40000000 		.4byte	.LVL36
 3557 016d 0100     		.2byte	0x1
 3558 016f 50       		.byte	0x50
 3559 0170 40000000 		.4byte	.LVL36
 3560 0174 36010000 		.4byte	.LVL63
 3561 0178 0400     		.2byte	0x4
 3562 017a F3       		.byte	0xf3
 3563 017b 01       		.uleb128 0x1
 3564 017c 50       		.byte	0x50
 3565 017d 9F       		.byte	0x9f
 3566 017e 36010000 		.4byte	.LVL63
 3567 0182 54010000 		.4byte	.LFE3
 3568 0186 0100     		.2byte	0x1
 3569 0188 50       		.byte	0x50
 3570 0189 00000000 		.4byte	0
 3571 018d 00000000 		.4byte	0
 3572              	.LLST14:
 3573 0191 00000000 		.4byte	.LVL30
 3574 0195 0C000000 		.4byte	.LVL31
 3575 0199 0200     		.2byte	0x2
 3576 019b 30       		.byte	0x30
 3577 019c 9F       		.byte	0x9f
 3578 019d 0C000000 		.4byte	.LVL31
 3579 01a1 12000000 		.4byte	.LVL32
 3580 01a5 0100     		.2byte	0x1
 3581 01a7 51       		.byte	0x51
 3582 01a8 00000000 		.4byte	0
 3583 01ac 00000000 		.4byte	0
 3584              	.LLST15:
 3585 01b0 2E000000 		.4byte	.LVL33
 3586 01b4 36000000 		.4byte	.LVL34
 3587 01b8 0200     		.2byte	0x2
 3588 01ba 30       		.byte	0x30
 3589 01bb 9F       		.byte	0x9f
 3590 01bc 00000000 		.4byte	0
 3591 01c0 00000000 		.4byte	0
 3592              	.LLST16:
 3593 01c4 3E000000 		.4byte	.LVL35
 3594 01c8 40000000 		.4byte	.LVL36
 3595 01cc 0100     		.2byte	0x1
 3596 01ce 50       		.byte	0x50
 3597 01cf 00000000 		.4byte	0
 3598 01d3 00000000 		.4byte	0
 3599              	.LLST17:
 3600 01d7 6E000000 		.4byte	.LVL38
 3601 01db 72000000 		.4byte	.LVL39
 3602 01df 0200     		.2byte	0x2
 3603 01e1 70       		.byte	0x70
 3604 01e2 08       		.sleb128 8
 3605 01e3 18010000 		.4byte	.LVL57
ARM GAS  C:\Users\rabbit\AppData\Local\Temp\cccb5bWv.s 			page 90


 3606 01e7 1C010000 		.4byte	.LVL58
 3607 01eb 0200     		.2byte	0x2
 3608 01ed 31       		.byte	0x31
 3609 01ee 9F       		.byte	0x9f
 3610 01ef 1C010000 		.4byte	.LVL58
 3611 01f3 26010000 		.4byte	.LVL59
 3612 01f7 0100     		.2byte	0x1
 3613 01f9 52       		.byte	0x52
 3614 01fa 00000000 		.4byte	0
 3615 01fe 00000000 		.4byte	0
 3616              	.LLST18:
 3617 0202 78000000 		.4byte	.LVL40
 3618 0206 7C000000 		.4byte	.LVL41
 3619 020a 0200     		.2byte	0x2
 3620 020c 30       		.byte	0x30
 3621 020d 9F       		.byte	0x9f
 3622 020e 00000000 		.4byte	0
 3623 0212 00000000 		.4byte	0
 3624              	.LLST19:
 3625 0216 6E000000 		.4byte	.LVL38
 3626 021a 72000000 		.4byte	.LVL39
 3627 021e 0200     		.2byte	0x2
 3628 0220 31       		.byte	0x31
 3629 0221 9F       		.byte	0x9f
 3630 0222 72000000 		.4byte	.LVL39
 3631 0226 E4000000 		.4byte	.LVL49
 3632 022a 0100     		.2byte	0x1
 3633 022c 54       		.byte	0x54
 3634 022d E4000000 		.4byte	.LVL49
 3635 0231 E6000000 		.4byte	.LVL50
 3636 0235 0300     		.2byte	0x3
 3637 0237 74       		.byte	0x74
 3638 0238 01       		.sleb128 1
 3639 0239 9F       		.byte	0x9f
 3640 023a EC000000 		.4byte	.LVL51
 3641 023e F4000000 		.4byte	.LVL52
 3642 0242 0200     		.2byte	0x2
 3643 0244 30       		.byte	0x30
 3644 0245 9F       		.byte	0x9f
 3645 0246 00000000 		.4byte	0
 3646 024a 00000000 		.4byte	0
 3647              	.LLST20:
 3648 024e C0000000 		.4byte	.LVL42
 3649 0252 C8000000 		.4byte	.LVL43
 3650 0256 0100     		.2byte	0x1
 3651 0258 56       		.byte	0x56
 3652 0259 C8000000 		.4byte	.LVL43
 3653 025d CC000000 		.4byte	.LVL44
 3654 0261 0700     		.2byte	0x7
 3655 0263 73       		.byte	0x73
 3656 0264 03       		.sleb128 3
 3657 0265 94       		.byte	0x94
 3658 0266 01       		.byte	0x1
 3659 0267 33       		.byte	0x33
 3660 0268 1A       		.byte	0x1a
 3661 0269 9F       		.byte	0x9f
 3662 026a D2000000 		.4byte	.LVL45
ARM GAS  C:\Users\rabbit\AppData\Local\Temp\cccb5bWv.s 			page 91


 3663 026e D8000000 		.4byte	.LVL46
 3664 0272 0100     		.2byte	0x1
 3665 0274 56       		.byte	0x56
 3666 0275 D8000000 		.4byte	.LVL46
 3667 0279 DC000000 		.4byte	.LVL47
 3668 027d 0700     		.2byte	0x7
 3669 027f 73       		.byte	0x73
 3670 0280 03       		.sleb128 3
 3671 0281 94       		.byte	0x94
 3672 0282 01       		.byte	0x1
 3673 0283 33       		.byte	0x33
 3674 0284 1A       		.byte	0x1a
 3675 0285 9F       		.byte	0x9f
 3676 0286 00000000 		.4byte	0
 3677 028a 00000000 		.4byte	0
 3678              	.LLST21:
 3679 028e 4A000000 		.4byte	.LVL37
 3680 0292 72000000 		.4byte	.LVL39
 3681 0296 0200     		.2byte	0x2
 3682 0298 70       		.byte	0x70
 3683 0299 04       		.sleb128 4
 3684 029a 00000000 		.4byte	0
 3685 029e 00000000 		.4byte	0
 3686              	.LLST22:
 3687 02a2 18010000 		.4byte	.LVL57
 3688 02a6 1C010000 		.4byte	.LVL58
 3689 02aa 0200     		.2byte	0x2
 3690 02ac 30       		.byte	0x30
 3691 02ad 9F       		.byte	0x9f
 3692 02ae 1C010000 		.4byte	.LVL58
 3693 02b2 28010000 		.4byte	.LVL60
 3694 02b6 0100     		.2byte	0x1
 3695 02b8 53       		.byte	0x53
 3696 02b9 28010000 		.4byte	.LVL60
 3697 02bd 2C010000 		.4byte	.LVL61
 3698 02c1 0A00     		.2byte	0xa
 3699 02c3 72       		.byte	0x72
 3700 02c4 7F       		.sleb128 -1
 3701 02c5 70       		.byte	0x70
 3702 02c6 00       		.sleb128 0
 3703 02c7 1E       		.byte	0x1e
 3704 02c8 75       		.byte	0x75
 3705 02c9 00       		.sleb128 0
 3706 02ca 22       		.byte	0x22
 3707 02cb 23       		.byte	0x23
 3708 02cc 06       		.uleb128 0x6
 3709 02cd 2C010000 		.4byte	.LVL61
 3710 02d1 32010000 		.4byte	.LVL62
 3711 02d5 0100     		.2byte	0x1
 3712 02d7 53       		.byte	0x53
 3713 02d8 00000000 		.4byte	0
 3714 02dc 00000000 		.4byte	0
 3715              	.LLST23:
 3716 02e0 4A000000 		.4byte	.LVL37
 3717 02e4 6E000000 		.4byte	.LVL38
 3718 02e8 0100     		.2byte	0x1
 3719 02ea 50       		.byte	0x50
ARM GAS  C:\Users\rabbit\AppData\Local\Temp\cccb5bWv.s 			page 92


 3720 02eb 6E000000 		.4byte	.LVL38
 3721 02ef F4000000 		.4byte	.LVL52
 3722 02f3 0300     		.2byte	0x3
 3723 02f5 70       		.byte	0x70
 3724 02f6 08       		.sleb128 8
 3725 02f7 9F       		.byte	0x9f
 3726 02f8 00000000 		.4byte	0
 3727 02fc 00000000 		.4byte	0
 3728              	.LLST24:
 3729 0300 78000000 		.4byte	.LVL40
 3730 0304 EC000000 		.4byte	.LVL51
 3731 0308 0100     		.2byte	0x1
 3732 030a 53       		.byte	0x53
 3733 030b EC000000 		.4byte	.LVL51
 3734 030f F4000000 		.4byte	.LVL52
 3735 0313 0100     		.2byte	0x1
 3736 0315 51       		.byte	0x51
 3737 0316 F4000000 		.4byte	.LVL52
 3738 031a F6000000 		.4byte	.LVL53
 3739 031e 0300     		.2byte	0x3
 3740 0320 73       		.byte	0x73
 3741 0321 7E       		.sleb128 -2
 3742 0322 9F       		.byte	0x9f
 3743 0323 F6000000 		.4byte	.LVL53
 3744 0327 0C010000 		.4byte	.LVL54
 3745 032b 0300     		.2byte	0x3
 3746 032d 73       		.byte	0x73
 3747 032e 76       		.sleb128 -10
 3748 032f 9F       		.byte	0x9f
 3749 0330 0C010000 		.4byte	.LVL54
 3750 0334 0E010000 		.4byte	.LVL55
 3751 0338 0300     		.2byte	0x3
 3752 033a 73       		.byte	0x73
 3753 033b 7E       		.sleb128 -2
 3754 033c 9F       		.byte	0x9f
 3755 033d 0E010000 		.4byte	.LVL55
 3756 0341 11010000 		.4byte	.LVL56-1
 3757 0345 0300     		.2byte	0x3
 3758 0347 73       		.byte	0x73
 3759 0348 76       		.sleb128 -10
 3760 0349 9F       		.byte	0x9f
 3761 034a 00000000 		.4byte	0
 3762 034e 00000000 		.4byte	0
 3763              	.LLST25:
 3764 0352 00000000 		.4byte	.LVL64
 3765 0356 04000000 		.4byte	.LVL65
 3766 035a 0100     		.2byte	0x1
 3767 035c 50       		.byte	0x50
 3768 035d 04000000 		.4byte	.LVL65
 3769 0361 16000000 		.4byte	.LVL66
 3770 0365 0100     		.2byte	0x1
 3771 0367 50       		.byte	0x50
 3772 0368 00000000 		.4byte	0
 3773 036c 00000000 		.4byte	0
 3774              	.LLST26:
 3775 0370 08000000 		.4byte	.LVL68
 3776 0374 1A000000 		.4byte	.LVL69
ARM GAS  C:\Users\rabbit\AppData\Local\Temp\cccb5bWv.s 			page 93


 3777 0378 0100     		.2byte	0x1
 3778 037a 53       		.byte	0x53
 3779 037b 42000000 		.4byte	.LVL70
 3780 037f 54000000 		.4byte	.LFE9
 3781 0383 0100     		.2byte	0x1
 3782 0385 53       		.byte	0x53
 3783 0386 00000000 		.4byte	0
 3784 038a 00000000 		.4byte	0
 3785              	.LLST27:
 3786 038e 0A000000 		.4byte	.LVL72
 3787 0392 2A000000 		.4byte	.LVL73
 3788 0396 0100     		.2byte	0x1
 3789 0398 52       		.byte	0x52
 3790 0399 60000000 		.4byte	.LVL74
 3791 039d 74000000 		.4byte	.LFE10
 3792 03a1 0100     		.2byte	0x1
 3793 03a3 52       		.byte	0x52
 3794 03a4 00000000 		.4byte	0
 3795 03a8 00000000 		.4byte	0
 3796              	.LLST28:
 3797 03ac 00000000 		.4byte	.LVL75
 3798 03b0 32000000 		.4byte	.LVL80
 3799 03b4 0200     		.2byte	0x2
 3800 03b6 30       		.byte	0x30
 3801 03b7 9F       		.byte	0x9f
 3802 03b8 32000000 		.4byte	.LVL80
 3803 03bc 34000000 		.4byte	.LVL81
 3804 03c0 0200     		.2byte	0x2
 3805 03c2 31       		.byte	0x31
 3806 03c3 9F       		.byte	0x9f
 3807 03c4 34000000 		.4byte	.LVL81
 3808 03c8 36000000 		.4byte	.LVL82
 3809 03cc 0200     		.2byte	0x2
 3810 03ce 30       		.byte	0x30
 3811 03cf 9F       		.byte	0x9f
 3812 03d0 36000000 		.4byte	.LVL82
 3813 03d4 48000000 		.4byte	.LFE11
 3814 03d8 0100     		.2byte	0x1
 3815 03da 50       		.byte	0x50
 3816 03db 00000000 		.4byte	0
 3817 03df 00000000 		.4byte	0
 3818              	.LLST29:
 3819 03e3 0C000000 		.4byte	.LVL76
 3820 03e7 13000000 		.4byte	.LVL77-1
 3821 03eb 0100     		.2byte	0x1
 3822 03ed 51       		.byte	0x51
 3823 03ee 00000000 		.4byte	0
 3824 03f2 00000000 		.4byte	0
 3825              	.LLST30:
 3826 03f6 14000000 		.4byte	.LVL77
 3827 03fa 24000000 		.4byte	.LVL78
 3828 03fe 0500     		.2byte	0x5
 3829 0400 70       		.byte	0x70
 3830 0401 04       		.sleb128 4
 3831 0402 06       		.byte	0x6
 3832 0403 23       		.byte	0x23
 3833 0404 04       		.uleb128 0x4
ARM GAS  C:\Users\rabbit\AppData\Local\Temp\cccb5bWv.s 			page 94


 3834 0405 24000000 		.4byte	.LVL78
 3835 0409 26000000 		.4byte	.LVL79
 3836 040d 0100     		.2byte	0x1
 3837 040f 53       		.byte	0x53
 3838 0410 34000000 		.4byte	.LVL81
 3839 0414 36000000 		.4byte	.LVL82
 3840 0418 0500     		.2byte	0x5
 3841 041a 70       		.byte	0x70
 3842 041b 04       		.sleb128 4
 3843 041c 06       		.byte	0x6
 3844 041d 23       		.byte	0x23
 3845 041e 04       		.uleb128 0x4
 3846 041f 36000000 		.4byte	.LVL82
 3847 0423 48000000 		.4byte	.LFE11
 3848 0427 0100     		.2byte	0x1
 3849 0429 53       		.byte	0x53
 3850 042a 00000000 		.4byte	0
 3851 042e 00000000 		.4byte	0
 3852              	.LLST31:
 3853 0432 14000000 		.4byte	.LVL77
 3854 0436 24000000 		.4byte	.LVL78
 3855 043a 0100     		.2byte	0x1
 3856 043c 50       		.byte	0x50
 3857 043d 34000000 		.4byte	.LVL81
 3858 0441 36000000 		.4byte	.LVL82
 3859 0445 0100     		.2byte	0x1
 3860 0447 50       		.byte	0x50
 3861 0448 00000000 		.4byte	0
 3862 044c 00000000 		.4byte	0
 3863              	.LLST32:
 3864 0450 00000000 		.4byte	.LVL83
 3865 0454 1A020000 		.4byte	.LVL126
 3866 0458 0200     		.2byte	0x2
 3867 045a 30       		.byte	0x30
 3868 045b 9F       		.byte	0x9f
 3869 045c 00000000 		.4byte	0
 3870 0460 00000000 		.4byte	0
 3871              	.LLST33:
 3872 0464 80010000 		.4byte	.LVL117
 3873 0468 8C010000 		.4byte	.LVL118
 3874 046c 0100     		.2byte	0x1
 3875 046e 53       		.byte	0x53
 3876 046f 00000000 		.4byte	0
 3877 0473 00000000 		.4byte	0
 3878              	.LLST34:
 3879 0477 44010000 		.4byte	.LVL110
 3880 047b 4A010000 		.4byte	.LVL111
 3881 047f 0100     		.2byte	0x1
 3882 0481 53       		.byte	0x53
 3883 0482 60010000 		.4byte	.LVL113
 3884 0486 67010000 		.4byte	.LVL114-1
 3885 048a 0100     		.2byte	0x1
 3886 048c 53       		.byte	0x53
 3887 048d 00000000 		.4byte	0
 3888 0491 00000000 		.4byte	0
 3889              	.LLST35:
 3890 0495 0C000000 		.4byte	.LVL84
ARM GAS  C:\Users\rabbit\AppData\Local\Temp\cccb5bWv.s 			page 95


 3891 0499 38000000 		.4byte	.LVL85
 3892 049d 0100     		.2byte	0x1
 3893 049f 53       		.byte	0x53
 3894 04a0 CC000000 		.4byte	.LVL99
 3895 04a4 D0000000 		.4byte	.LVL100
 3896 04a8 0100     		.2byte	0x1
 3897 04aa 53       		.byte	0x53
 3898 04ab 0E010000 		.4byte	.LVL103
 3899 04af 10010000 		.4byte	.LVL104
 3900 04b3 0100     		.2byte	0x1
 3901 04b5 53       		.byte	0x53
 3902 04b6 16010000 		.4byte	.LVL105
 3903 04ba 18010000 		.4byte	.LVL106
 3904 04be 0100     		.2byte	0x1
 3905 04c0 53       		.byte	0x53
 3906 04c1 22010000 		.4byte	.LVL107
 3907 04c5 3C010000 		.4byte	.LVL108
 3908 04c9 0100     		.2byte	0x1
 3909 04cb 53       		.byte	0x53
 3910 04cc 42010000 		.4byte	.LVL109
 3911 04d0 44010000 		.4byte	.LVL110
 3912 04d4 0100     		.2byte	0x1
 3913 04d6 53       		.byte	0x53
 3914 04d7 6E010000 		.4byte	.LVL115
 3915 04db 71010000 		.4byte	.LVL116-1
 3916 04df 0100     		.2byte	0x1
 3917 04e1 53       		.byte	0x53
 3918 04e2 9C010000 		.4byte	.LVL120
 3919 04e6 A0010000 		.4byte	.LVL121
 3920 04ea 0100     		.2byte	0x1
 3921 04ec 53       		.byte	0x53
 3922 04ed CC010000 		.4byte	.LVL123
 3923 04f1 D0010000 		.4byte	.LVL124
 3924 04f5 0100     		.2byte	0x1
 3925 04f7 53       		.byte	0x53
 3926 04f8 00000000 		.4byte	0
 3927 04fc 00000000 		.4byte	0
 3928              	.LLST36:
 3929 0500 0C000000 		.4byte	.LVL84
 3930 0504 76000000 		.4byte	.LVL88
 3931 0508 0200     		.2byte	0x2
 3932 050a 30       		.byte	0x30
 3933 050b 9F       		.byte	0x9f
 3934 050c 7E000000 		.4byte	.LVL89
 3935 0510 88000000 		.4byte	.LVL90
 3936 0514 0200     		.2byte	0x2
 3937 0516 30       		.byte	0x30
 3938 0517 9F       		.byte	0x9f
 3939 0518 88000000 		.4byte	.LVL90
 3940 051c A6000000 		.4byte	.LVL92
 3941 0520 0100     		.2byte	0x1
 3942 0522 53       		.byte	0x53
 3943 0523 A8000000 		.4byte	.LVL93
 3944 0527 C4000000 		.4byte	.LVL98
 3945 052b 0100     		.2byte	0x1
 3946 052d 53       		.byte	0x53
 3947 052e C4000000 		.4byte	.LVL98
ARM GAS  C:\Users\rabbit\AppData\Local\Temp\cccb5bWv.s 			page 96


 3948 0532 F6000000 		.4byte	.LVL101
 3949 0536 0200     		.2byte	0x2
 3950 0538 30       		.byte	0x30
 3951 0539 9F       		.byte	0x9f
 3952 053a FA000000 		.4byte	.LVL102
 3953 053e 1A020000 		.4byte	.LVL126
 3954 0542 0200     		.2byte	0x2
 3955 0544 30       		.byte	0x30
 3956 0545 9F       		.byte	0x9f
 3957 0546 00000000 		.4byte	0
 3958 054a 00000000 		.4byte	0
 3959              	.LLST37:
 3960 054e 88000000 		.4byte	.LVL90
 3961 0552 90000000 		.4byte	.LVL91
 3962 0556 0100     		.2byte	0x1
 3963 0558 52       		.byte	0x52
 3964 0559 90000000 		.4byte	.LVL91
 3965 055d A8000000 		.4byte	.LVL93
 3966 0561 0100     		.2byte	0x1
 3967 0563 55       		.byte	0x55
 3968 0564 A8000000 		.4byte	.LVL93
 3969 0568 AC000000 		.4byte	.LVL94
 3970 056c 0100     		.2byte	0x1
 3971 056e 52       		.byte	0x52
 3972 056f AC000000 		.4byte	.LVL94
 3973 0573 B4000000 		.4byte	.LVL96
 3974 0577 0100     		.2byte	0x1
 3975 0579 55       		.byte	0x55
 3976 057a B4000000 		.4byte	.LVL96
 3977 057e B6000000 		.4byte	.LVL97
 3978 0582 0100     		.2byte	0x1
 3979 0584 52       		.byte	0x52
 3980 0585 B6000000 		.4byte	.LVL97
 3981 0589 C4000000 		.4byte	.LVL98
 3982 058d 0100     		.2byte	0x1
 3983 058f 55       		.byte	0x55
 3984 0590 00000000 		.4byte	0
 3985 0594 00000000 		.4byte	0
 3986              	.LLST38:
 3987 0598 B2000000 		.4byte	.LVL95
 3988 059c B6000000 		.4byte	.LVL97
 3989 05a0 0100     		.2byte	0x1
 3990 05a2 54       		.byte	0x54
 3991 05a3 00000000 		.4byte	0
 3992 05a7 00000000 		.4byte	0
 3993              	.LLST39:
 3994 05ab 5E000000 		.4byte	.LVL86
 3995 05af 74000000 		.4byte	.LVL87
 3996 05b3 0100     		.2byte	0x1
 3997 05b5 50       		.byte	0x50
 3998 05b6 68010000 		.4byte	.LVL114
 3999 05ba 6E010000 		.4byte	.LVL115
 4000 05be 0100     		.2byte	0x1
 4001 05c0 50       		.byte	0x50
 4002 05c1 00000000 		.4byte	0
 4003 05c5 00000000 		.4byte	0
 4004              		.section	.debug_aranges,"",%progbits
ARM GAS  C:\Users\rabbit\AppData\Local\Temp\cccb5bWv.s 			page 97


 4005 0000 74000000 		.4byte	0x74
 4006 0004 0200     		.2byte	0x2
 4007 0006 00000000 		.4byte	.Ldebug_info0
 4008 000a 04       		.byte	0x4
 4009 000b 00       		.byte	0
 4010 000c 0000     		.2byte	0
 4011 000e 0000     		.2byte	0
 4012 0010 00000000 		.4byte	.LFB1
 4013 0014 80000000 		.4byte	.LFE1-.LFB1
 4014 0018 00000000 		.4byte	.LFB2
 4015 001c 28000000 		.4byte	.LFE2-.LFB2
 4016 0020 00000000 		.4byte	.LFB5
 4017 0024 24000000 		.4byte	.LFE5-.LFB5
 4018 0028 00000000 		.4byte	.LFB4
 4019 002c 28010000 		.4byte	.LFE4-.LFB4
 4020 0030 00000000 		.4byte	.LFB6
 4021 0034 18000000 		.4byte	.LFE6-.LFB6
 4022 0038 00000000 		.4byte	.LFB7
 4023 003c 20000000 		.4byte	.LFE7-.LFB7
 4024 0040 00000000 		.4byte	.LFB3
 4025 0044 54010000 		.4byte	.LFE3-.LFB3
 4026 0048 00000000 		.4byte	.LFB8
 4027 004c 40000000 		.4byte	.LFE8-.LFB8
 4028 0050 00000000 		.4byte	.LFB9
 4029 0054 54000000 		.4byte	.LFE9-.LFB9
 4030 0058 00000000 		.4byte	.LFB10
 4031 005c 74000000 		.4byte	.LFE10-.LFB10
 4032 0060 00000000 		.4byte	.LFB11
 4033 0064 48000000 		.4byte	.LFE11-.LFB11
 4034 0068 00000000 		.4byte	.LFB0
 4035 006c 64020000 		.4byte	.LFE0-.LFB0
 4036 0070 00000000 		.4byte	0
 4037 0074 00000000 		.4byte	0
 4038              		.section	.debug_ranges,"",%progbits
 4039              	.Ldebug_ranges0:
 4040 0000 3E000000 		.4byte	.LBB10
 4041 0004 2E010000 		.4byte	.LBE10
 4042 0008 32010000 		.4byte	.LBB13
 4043 000c 54010000 		.4byte	.LBE13
 4044 0010 00000000 		.4byte	0
 4045 0014 00000000 		.4byte	0
 4046 0018 00000000 		.4byte	.LFB1
 4047 001c 80000000 		.4byte	.LFE1
 4048 0020 00000000 		.4byte	.LFB2
 4049 0024 28000000 		.4byte	.LFE2
 4050 0028 00000000 		.4byte	.LFB5
 4051 002c 24000000 		.4byte	.LFE5
 4052 0030 00000000 		.4byte	.LFB4
 4053 0034 28010000 		.4byte	.LFE4
 4054 0038 00000000 		.4byte	.LFB6
 4055 003c 18000000 		.4byte	.LFE6
 4056 0040 00000000 		.4byte	.LFB7
 4057 0044 20000000 		.4byte	.LFE7
 4058 0048 00000000 		.4byte	.LFB3
 4059 004c 54010000 		.4byte	.LFE3
 4060 0050 00000000 		.4byte	.LFB8
 4061 0054 40000000 		.4byte	.LFE8
ARM GAS  C:\Users\rabbit\AppData\Local\Temp\cccb5bWv.s 			page 98


 4062 0058 00000000 		.4byte	.LFB9
 4063 005c 54000000 		.4byte	.LFE9
 4064 0060 00000000 		.4byte	.LFB10
 4065 0064 74000000 		.4byte	.LFE10
 4066 0068 00000000 		.4byte	.LFB11
 4067 006c 48000000 		.4byte	.LFE11
 4068 0070 00000000 		.4byte	.LFB0
 4069 0074 64020000 		.4byte	.LFE0
 4070 0078 00000000 		.4byte	0
 4071 007c 00000000 		.4byte	0
 4072              		.section	.debug_line,"",%progbits
 4073              	.Ldebug_line0:
 4074 0000 5A030000 		.section	.debug_str,"MS",%progbits,1
 4074      02006000 
 4074      00000201 
 4074      FB0E0D00 
 4074      01010101 
 4075              	.LASF36:
 4076 0000 70537461 		.ascii	"pStatusBlock\000"
 4076      74757342 
 4076      6C6F636B 
 4076      00
 4077              	.LASF34:
 4078 000d 636F756E 		.ascii	"count\000"
 4078      7400
 4079              	.LASF10:
 4080 0013 75696E74 		.ascii	"uint16\000"
 4080      313600
 4081              	.LASF74:
 4082 001a 55534246 		.ascii	"USBFS_TerminateEP\000"
 4082      535F5465 
 4082      726D696E 
 4082      61746545 
 4082      5000
 4083              	.LASF105:
 4084 002c 55534246 		.ascii	"USBFS_currentTD\000"
 4084      535F6375 
 4084      7272656E 
 4084      74544400 
 4085              	.LASF107:
 4086 003c 55534246 		.ascii	"USBFS_InitControlRead\000"
 4086      535F496E 
 4086      6974436F 
 4086      6E74726F 
 4086      6C526561 
 4087              	.LASF75:
 4088 0052 636F6E66 		.ascii	"confIndex\000"
 4088      496E6465 
 4088      7800
 4089              	.LASF7:
 4090 005c 6C6F6E67 		.ascii	"long long unsigned int\000"
 4090      206C6F6E 
 4090      6720756E 
 4090      7369676E 
 4090      65642069 
 4091              	.LASF21:
 4092 0073 61646472 		.ascii	"addr\000"
ARM GAS  C:\Users\rabbit\AppData\Local\Temp\cccb5bWv.s 			page 99


 4092      00
 4093              	.LASF41:
 4094 0078 55534246 		.ascii	"USBFS_ep0_data_struct\000"
 4094      535F6570 
 4094      305F6461 
 4094      74615F73 
 4094      74727563 
 4095              	.LASF46:
 4096 008e 65704366 		.ascii	"epCfg\000"
 4096      6700
 4097              	.LASF57:
 4098 0094 55534246 		.ascii	"USBFS_sie_eps_struct\000"
 4098      535F7369 
 4098      655F6570 
 4098      735F7374 
 4098      72756374 
 4099              	.LASF59:
 4100 00a9 55534246 		.ascii	"USBFS_arb_eps_struct\000"
 4100      535F6172 
 4100      625F6570 
 4100      735F7374 
 4100      72756374 
 4101              	.LASF76:
 4102 00be 65704E75 		.ascii	"epNumber\000"
 4102      6D626572 
 4102      00
 4103              	.LASF6:
 4104 00c7 6C6F6E67 		.ascii	"long long int\000"
 4104      206C6F6E 
 4104      6720696E 
 4104      7400
 4105              	.LASF0:
 4106 00d5 7369676E 		.ascii	"signed char\000"
 4106      65642063 
 4106      68617200 
 4107              	.LASF109:
 4108 00e1 474E5520 		.ascii	"GNU C11 5.4.1 20160609 (release) [ARM/embedded-5-br"
 4108      43313120 
 4108      352E342E 
 4108      31203230 
 4108      31363036 
 4109 0114 616E6368 		.ascii	"anch revision 237715] -mcpu=cortex-m3 -mthumb -g -O"
 4109      20726576 
 4109      6973696F 
 4109      6E203233 
 4109      37373135 
 4110 0147 73202D66 		.ascii	"s -ffunction-sections -ffat-lto-objects\000"
 4110      66756E63 
 4110      74696F6E 
 4110      2D736563 
 4110      74696F6E 
 4111              	.LASF89:
 4112 016f 55534246 		.ascii	"USBFS_tBuffer\000"
 4112      535F7442 
 4112      75666665 
 4112      7200
 4113              	.LASF112:
ARM GAS  C:\Users\rabbit\AppData\Local\Temp\cccb5bWv.s 			page 100


 4114 017d 636C6561 		.ascii	"clearAltSetting\000"
 4114      72416C74 
 4114      53657474 
 4114      696E6700 
 4115              	.LASF101:
 4116 018d 55534246 		.ascii	"USBFS_deviceAddress\000"
 4116      535F6465 
 4116      76696365 
 4116      41646472 
 4116      65737300 
 4117              	.LASF79:
 4118 01a1 55534246 		.ascii	"USBFS_ClearEndpointHalt\000"
 4118      535F436C 
 4118      65617245 
 4118      6E64706F 
 4118      696E7448 
 4119              	.LASF98:
 4120 01b9 55534246 		.ascii	"USBFS_interfaceNumber\000"
 4120      535F696E 
 4120      74657266 
 4120      6163654E 
 4120      756D6265 
 4121              	.LASF65:
 4122 01cf 55534246 		.ascii	"USBFS_Config\000"
 4122      535F436F 
 4122      6E666967 
 4122      00
 4123              	.LASF55:
 4124 01dc 55534246 		.ascii	"USBFS_arb_ep_struct\000"
 4124      535F6172 
 4124      625F6570 
 4124      5F737472 
 4124      75637400 
 4125              	.LASF68:
 4126 01f0 55534246 		.ascii	"USBFS_ConfigReg\000"
 4126      535F436F 
 4126      6E666967 
 4126      52656700 
 4127              	.LASF4:
 4128 0200 6C6F6E67 		.ascii	"long int\000"
 4128      20696E74 
 4128      00
 4129              	.LASF9:
 4130 0209 75696E74 		.ascii	"uint8\000"
 4130      3800
 4131              	.LASF20:
 4132 020f 6570546F 		.ascii	"epToggle\000"
 4132      67676C65 
 4132      00
 4133              	.LASF50:
 4134 0218 72775761 		.ascii	"rwWa\000"
 4134      00
 4135              	.LASF12:
 4136 021d 646F7562 		.ascii	"double\000"
 4136      6C6500
 4137              	.LASF48:
 4138 0224 65705372 		.ascii	"epSr\000"
ARM GAS  C:\Users\rabbit\AppData\Local\Temp\cccb5bWv.s 			page 101


 4138      00
 4139              	.LASF30:
 4140 0229 545F5553 		.ascii	"T_USBFS_EP_SETTINGS_BLOCK\000"
 4140      4246535F 
 4140      45505F53 
 4140      45545449 
 4140      4E47535F 
 4141              	.LASF77:
 4142 0243 55534246 		.ascii	"USBFS_SetEndpointHalt\000"
 4142      535F5365 
 4142      74456E64 
 4142      706F696E 
 4142      7448616C 
 4143              	.LASF35:
 4144 0259 70446174 		.ascii	"pData\000"
 4144      6100
 4145              	.LASF56:
 4146 025f 73696545 		.ascii	"sieEp\000"
 4146      7000
 4147              	.LASF22:
 4148 0265 65704D6F 		.ascii	"epMode\000"
 4148      646500
 4149              	.LASF61:
 4150 026c 65705479 		.ascii	"epType\000"
 4150      706500
 4151              	.LASF85:
 4152 0273 626D5265 		.ascii	"bmRequestType\000"
 4152      71756573 
 4152      74547970 
 4152      6500
 4153              	.LASF49:
 4154 0281 72657365 		.ascii	"reserved\000"
 4154      72766564 
 4154      00
 4155              	.LASF8:
 4156 028a 756E7369 		.ascii	"unsigned int\000"
 4156      676E6564 
 4156      20696E74 
 4156      00
 4157              	.LASF5:
 4158 0297 6C6F6E67 		.ascii	"long unsigned int\000"
 4158      20756E73 
 4158      69676E65 
 4158      6420696E 
 4158      7400
 4159              	.LASF71:
 4160 02a9 55534246 		.ascii	"USBFS_GetInterfaceClassTablePtr\000"
 4160      535F4765 
 4160      74496E74 
 4160      65726661 
 4160      6365436C 
 4161              	.LASF110:
 4162 02c9 47656E65 		.ascii	"Generated_Source\\PSoC5\\USBFS_std.c\000"
 4162      72617465 
 4162      645F536F 
 4162      75726365 
 4162      5C50536F 
ARM GAS  C:\Users\rabbit\AppData\Local\Temp\cccb5bWv.s 			page 102


 4163              	.LASF3:
 4164 02ec 73686F72 		.ascii	"short unsigned int\000"
 4164      7420756E 
 4164      7369676E 
 4164      65642069 
 4164      6E7400
 4165              	.LASF66:
 4166 02ff 70446573 		.ascii	"pDescr\000"
 4166      637200
 4167              	.LASF45:
 4168 0306 55534246 		.ascii	"USBFS_sie_ep_struct\000"
 4168      535F7369 
 4168      655F6570 
 4168      5F737472 
 4168      75637400 
 4169              	.LASF72:
 4170 031a 70496E74 		.ascii	"pInterfaceClass\000"
 4170      65726661 
 4170      6365436C 
 4170      61737300 
 4171              	.LASF58:
 4172 032a 61726245 		.ascii	"arbEp\000"
 4172      7000
 4173              	.LASF25:
 4174 0330 696E7465 		.ascii	"interface\000"
 4174      72666163 
 4174      6500
 4175              	.LASF91:
 4176 033a 55534246 		.ascii	"USBFS_configuration\000"
 4176      535F636F 
 4176      6E666967 
 4176      75726174 
 4176      696F6E00 
 4177              	.LASF80:
 4178 034e 55534246 		.ascii	"USBFS_ValidateAlternateSetting\000"
 4178      535F5661 
 4178      6C696461 
 4178      7465416C 
 4178      7465726E 
 4179              	.LASF92:
 4180 036d 55534246 		.ascii	"USBFS_configurationChanged\000"
 4180      535F636F 
 4180      6E666967 
 4180      75726174 
 4180      696F6E43 
 4181              	.LASF103:
 4182 0388 55534246 		.ascii	"USBFS_interfaceClass\000"
 4182      535F696E 
 4182      74657266 
 4182      61636543 
 4182      6C617373 
 4183              	.LASF60:
 4184 039d 63757245 		.ascii	"curEp\000"
 4184      7000
 4185              	.LASF19:
 4186 03a3 68774570 		.ascii	"hwEpState\000"
 4186      53746174 
ARM GAS  C:\Users\rabbit\AppData\Local\Temp\cccb5bWv.s 			page 103


 4186      6500
 4187              	.LASF88:
 4188 03ad 64657363 		.ascii	"descrLength\000"
 4188      724C656E 
 4188      67746800 
 4189              	.LASF16:
 4190 03b9 73697A65 		.ascii	"sizetype\000"
 4190      74797065 
 4190      00
 4191              	.LASF15:
 4192 03c2 6C6F6E67 		.ascii	"long double\000"
 4192      20646F75 
 4192      626C6500 
 4193              	.LASF63:
 4194 03ce 70546D70 		.ascii	"pTmp\000"
 4194      00
 4195              	.LASF38:
 4196 03d3 705F6C69 		.ascii	"p_list\000"
 4196      737400
 4197              	.LASF67:
 4198 03da 62756666 		.ascii	"buffCount\000"
 4198      436F756E 
 4198      7400
 4199              	.LASF17:
 4200 03e4 61747472 		.ascii	"attrib\000"
 4200      696200
 4201              	.LASF95:
 4202 03eb 55534246 		.ascii	"USBFS_TABLE\000"
 4202      535F5441 
 4202      424C4500 
 4203              	.LASF96:
 4204 03f7 55534246 		.ascii	"USBFS_SN_STRING_DESCRIPTOR\000"
 4204      535F534E 
 4204      5F535452 
 4204      494E475F 
 4204      44455343 
 4205              	.LASF53:
 4206 0412 72775261 		.ascii	"rwRaMsb\000"
 4206      4D736200 
 4207              	.LASF42:
 4208 041a 6570436E 		.ascii	"epCnt0\000"
 4208      743000
 4209              	.LASF43:
 4210 0421 6570436E 		.ascii	"epCnt1\000"
 4210      743100
 4211              	.LASF64:
 4212 0428 55534246 		.ascii	"USBFS_ConfigAltChanged\000"
 4212      535F436F 
 4212      6E666967 
 4212      416C7443 
 4212      68616E67 
 4213              	.LASF33:
 4214 043f 545F5553 		.ascii	"T_USBFS_XFER_STATUS_BLOCK\000"
 4214      4246535F 
 4214      58464552 
 4214      5F535441 
 4214      5455535F 
ARM GAS  C:\Users\rabbit\AppData\Local\Temp\cccb5bWv.s 			page 104


 4215              	.LASF44:
 4216 0459 65704372 		.ascii	"epCr0\000"
 4216      3000
 4217              	.LASF62:
 4218 045f 696E7465 		.ascii	"interfaceNum\000"
 4218      72666163 
 4218      654E756D 
 4218      00
 4219              	.LASF94:
 4220 046c 55534246 		.ascii	"USBFS_DEVICE0_DESCR\000"
 4220      535F4445 
 4220      56494345 
 4220      305F4445 
 4220      53435200 
 4221              	.LASF11:
 4222 0480 666C6F61 		.ascii	"float\000"
 4222      7400
 4223              	.LASF97:
 4224 0486 55534246 		.ascii	"USBFS_STRING_DESCRIPTORS\000"
 4224      535F5354 
 4224      52494E47 
 4224      5F444553 
 4224      43524950 
 4225              	.LASF18:
 4226 049f 61706945 		.ascii	"apiEpState\000"
 4226      70537461 
 4226      746500
 4227              	.LASF84:
 4228 04aa 636F6E66 		.ascii	"configurationN\000"
 4228      69677572 
 4228      6174696F 
 4228      6E4E00
 4229              	.LASF104:
 4230 04b9 55534246 		.ascii	"USBFS_EP\000"
 4230      535F4550 
 4230      00
 4231              	.LASF86:
 4232 04c2 70537472 		.ascii	"pStr\000"
 4232      00
 4233              	.LASF14:
 4234 04c7 72656738 		.ascii	"reg8\000"
 4234      00
 4235              	.LASF1:
 4236 04cc 756E7369 		.ascii	"unsigned char\000"
 4236      676E6564 
 4236      20636861 
 4236      7200
 4237              	.LASF69:
 4238 04da 55534246 		.ascii	"USBFS_EpStateInit\000"
 4238      535F4570 
 4238      53746174 
 4238      65496E69 
 4238      7400
 4239              	.LASF2:
 4240 04ec 73686F72 		.ascii	"short int\000"
 4240      7420696E 
 4240      7400
ARM GAS  C:\Users\rabbit\AppData\Local\Temp\cccb5bWv.s 			page 105


 4241              	.LASF37:
 4242 04f6 545F5553 		.ascii	"T_USBFS_TD\000"
 4242      4246535F 
 4242      544400
 4243              	.LASF70:
 4244 0501 55534246 		.ascii	"USBFS_GetConfigTablePtr\000"
 4244      535F4765 
 4244      74436F6E 
 4244      66696754 
 4244      61626C65 
 4245              	.LASF52:
 4246 0519 72775261 		.ascii	"rwRa\000"
 4246      00
 4247              	.LASF99:
 4248 051e 55534246 		.ascii	"USBFS_interfaceSetting\000"
 4248      535F696E 
 4248      74657266 
 4248      61636553 
 4248      65747469 
 4249              	.LASF26:
 4250 0535 545F5553 		.ascii	"T_USBFS_EP_CTL_BLOCK\000"
 4250      4246535F 
 4250      45505F43 
 4250      544C5F42 
 4250      4C4F434B 
 4251              	.LASF106:
 4252 054a 55534246 		.ascii	"USBFS_InitNoDataControlTransfer\000"
 4252      535F496E 
 4252      69744E6F 
 4252      44617461 
 4252      436F6E74 
 4253              	.LASF90:
 4254 056a 55534246 		.ascii	"USBFS_device\000"
 4254      535F6465 
 4254      76696365 
 4254      00
 4255              	.LASF28:
 4256 0577 61747472 		.ascii	"attributes\000"
 4256      69627574 
 4256      657300
 4257              	.LASF93:
 4258 0582 55534246 		.ascii	"USBFS_deviceStatus\000"
 4258      535F6465 
 4258      76696365 
 4258      53746174 
 4258      757300
 4259              	.LASF27:
 4260 0595 616C7453 		.ascii	"altSetting\000"
 4260      65747469 
 4260      6E6700
 4261              	.LASF13:
 4262 05a0 63686172 		.ascii	"char\000"
 4262      00
 4263              	.LASF24:
 4264 05a5 62756666 		.ascii	"bufferSize\000"
 4264      65725369 
 4264      7A6500
ARM GAS  C:\Users\rabbit\AppData\Local\Temp\cccb5bWv.s 			page 106


 4265              	.LASF78:
 4266 05b0 72657175 		.ascii	"requestHandled\000"
 4266      65737448 
 4266      616E646C 
 4266      656400
 4267              	.LASF73:
 4268 05bf 63757272 		.ascii	"currentInterfacesNum\000"
 4268      656E7449 
 4268      6E746572 
 4268      66616365 
 4268      734E756D 
 4269              	.LASF23:
 4270 05d4 62756666 		.ascii	"buffOffset\000"
 4270      4F666673 
 4270      657400
 4271              	.LASF113:
 4272 05df 55534246 		.ascii	"USBFS_GetDeviceTablePtr\000"
 4272      535F4765 
 4272      74446576 
 4272      69636554 
 4272      61626C65 
 4273              	.LASF83:
 4274 05f7 696E7465 		.ascii	"interfaceNumber\000"
 4274      72666163 
 4274      654E756D 
 4274      62657200 
 4275              	.LASF111:
 4276 0607 433A5C55 		.ascii	"C:\\Users\\rabbit\\Documents\\v5.0c\\SCSI2SD\\softw"
 4276      73657273 
 4276      5C726162 
 4276      6269745C 
 4276      446F6375 
 4277 0634 6172655C 		.ascii	"are\\SCSI2SD\\v5.0\\USB_Bootloader.cydsn\000"
 4277      53435349 
 4277      3253445C 
 4277      76352E30 
 4277      5C555342 
 4278              	.LASF32:
 4279 065a 6C656E67 		.ascii	"length\000"
 4279      746800
 4280              	.LASF87:
 4281 0661 6E537472 		.ascii	"nStr\000"
 4281      00
 4282              	.LASF31:
 4283 0666 73746174 		.ascii	"status\000"
 4283      757300
 4284              	.LASF108:
 4285 066d 55534246 		.ascii	"USBFS_DispatchClassRqst\000"
 4285      535F4469 
 4285      73706174 
 4285      6368436C 
 4285      61737352 
 4286              	.LASF54:
 4287 0685 72774472 		.ascii	"rwDr\000"
 4287      00
 4288              	.LASF81:
 4289 068a 63757249 		.ascii	"curInterfacesNum\000"
ARM GAS  C:\Users\rabbit\AppData\Local\Temp\cccb5bWv.s 			page 107


 4289      6E746572 
 4289      66616365 
 4289      734E756D 
 4289      00
 4290              	.LASF40:
 4291 069b 65704461 		.ascii	"epData\000"
 4291      746100
 4292              	.LASF29:
 4293 06a2 624D6973 		.ascii	"bMisc\000"
 4293      6300
 4294              	.LASF51:
 4295 06a8 72775761 		.ascii	"rwWaMsb\000"
 4295      4D736200 
 4296              	.LASF102:
 4297 06b0 55534246 		.ascii	"USBFS_interfaceStatus\000"
 4297      535F696E 
 4297      74657266 
 4297      61636553 
 4297      74617475 
 4298              	.LASF47:
 4299 06c6 6570496E 		.ascii	"epIntEn\000"
 4299      74456E00 
 4300              	.LASF100:
 4301 06ce 55534246 		.ascii	"USBFS_interfaceSettingLast\000"
 4301      535F696E 
 4301      74657266 
 4301      61636553 
 4301      65747469 
 4302              	.LASF82:
 4303 06e9 55534246 		.ascii	"USBFS_HandleStandardRqst\000"
 4303      535F4861 
 4303      6E646C65 
 4303      5374616E 
 4303      64617264 
 4304              	.LASF39:
 4305 0702 545F5553 		.ascii	"T_USBFS_LUT\000"
 4305      4246535F 
 4305      4C555400 
 4306              		.ident	"GCC: (GNU Tools for ARM Embedded Processors) 5.4.1 20160609 (release) [ARM/embedded-5-bran
