ARM GAS  C:\Users\rabbit\AppData\Local\Temp\ccUovuGe.s 			page 1


   1              		.syntax unified
   2              		.cpu cortex-m3
   3              		.fpu softvfp
   4              		.eabi_attribute 20, 1
   5              		.eabi_attribute 21, 1
   6              		.eabi_attribute 23, 3
   7              		.eabi_attribute 24, 1
   8              		.eabi_attribute 25, 1
   9              		.eabi_attribute 26, 1
  10              		.eabi_attribute 30, 4
  11              		.eabi_attribute 34, 1
  12              		.eabi_attribute 18, 4
  13              		.thumb
  14              		.syntax unified
  15              		.file	"USBFS.c"
  16              		.text
  17              	.Ltext0:
  18              		.cfi_sections	.debug_frame
  19              		.section	.text.USBFS_Init,"ax",%progbits
  20              		.align	1
  21              		.global	USBFS_Init
  22              		.thumb
  23              		.thumb_func
  24              		.type	USBFS_Init, %function
  25              	USBFS_Init:
  26              	.LFB1:
  27              		.file 1 "Generated_Source\\PSoC5\\USBFS.c"
   1:Generated_Source\PSoC5/USBFS.c **** /***************************************************************************//**
   2:Generated_Source\PSoC5/USBFS.c **** * \file USBFS.c
   3:Generated_Source\PSoC5/USBFS.c **** * \version 3.20
   4:Generated_Source\PSoC5/USBFS.c **** *
   5:Generated_Source\PSoC5/USBFS.c **** * \brief
   6:Generated_Source\PSoC5/USBFS.c **** *  This file contains the global USBFS API functions.
   7:Generated_Source\PSoC5/USBFS.c **** *
   8:Generated_Source\PSoC5/USBFS.c **** * Note:
   9:Generated_Source\PSoC5/USBFS.c **** *  Many of the functions use an endpoint number. SRAM arrays are sized with 9
  10:Generated_Source\PSoC5/USBFS.c **** *  elements, so they are indexed directly by epNumber.  The SIE and ARB
  11:Generated_Source\PSoC5/USBFS.c **** *  registers are indexed by variations of epNumber - 1.
  12:Generated_Source\PSoC5/USBFS.c **** *
  13:Generated_Source\PSoC5/USBFS.c **** ********************************************************************************
  14:Generated_Source\PSoC5/USBFS.c **** * \copyright
  15:Generated_Source\PSoC5/USBFS.c **** * Copyright 2008-2016, Cypress Semiconductor Corporation.  All rights reserved.
  16:Generated_Source\PSoC5/USBFS.c **** * You may use this file only in accordance with the license, terms, conditions,
  17:Generated_Source\PSoC5/USBFS.c **** * disclaimers, and limitations in the end user license agreement accompanying
  18:Generated_Source\PSoC5/USBFS.c **** * the software package with which this file was provided.
  19:Generated_Source\PSoC5/USBFS.c **** *******************************************************************************/
  20:Generated_Source\PSoC5/USBFS.c **** 
  21:Generated_Source\PSoC5/USBFS.c **** #include "USBFS_pvt.h"
  22:Generated_Source\PSoC5/USBFS.c **** #include "USBFS_cydmac.h"
  23:Generated_Source\PSoC5/USBFS.c **** #include "USBFS_hid.h"
  24:Generated_Source\PSoC5/USBFS.c **** #include "USBFS_Dp.h"
  25:Generated_Source\PSoC5/USBFS.c **** 
  26:Generated_Source\PSoC5/USBFS.c **** 
  27:Generated_Source\PSoC5/USBFS.c **** /***************************************
  28:Generated_Source\PSoC5/USBFS.c **** * Global data allocation
  29:Generated_Source\PSoC5/USBFS.c **** ***************************************/
  30:Generated_Source\PSoC5/USBFS.c **** 
ARM GAS  C:\Users\rabbit\AppData\Local\Temp\ccUovuGe.s 			page 2


  31:Generated_Source\PSoC5/USBFS.c **** /** Indicates whether the USBFS has been initialized. The variable is
  32:Generated_Source\PSoC5/USBFS.c **** * initialized to 0 after device reset and set to 1 the first time USBFS_Start()
  33:Generated_Source\PSoC5/USBFS.c **** * is called. This allows the Component to restart without reinitialization after
  34:Generated_Source\PSoC5/USBFS.c **** * the first call to the USBFS_Start() routine.
  35:Generated_Source\PSoC5/USBFS.c **** * If re-initialization of the Component is required, the variable should be set
  36:Generated_Source\PSoC5/USBFS.c **** * to 0 before the USBFS_Start() routine is called. Alternatively, the USBFS can
  37:Generated_Source\PSoC5/USBFS.c **** * be reinitialized by calling both USBFS_Init() and USBFS_InitComponent()
  38:Generated_Source\PSoC5/USBFS.c **** * functions.
  39:Generated_Source\PSoC5/USBFS.c **** */
  40:Generated_Source\PSoC5/USBFS.c **** uint8 USBFS_initVar = 0u;
  41:Generated_Source\PSoC5/USBFS.c **** 
  42:Generated_Source\PSoC5/USBFS.c **** #if (USBFS_EP_MANAGEMENT_DMA)
  43:Generated_Source\PSoC5/USBFS.c ****     #if (CY_PSOC4)
  44:Generated_Source\PSoC5/USBFS.c ****         static void USBFS_InitEpDma(void);
  45:Generated_Source\PSoC5/USBFS.c **** 
  46:Generated_Source\PSoC5/USBFS.c ****         /* DMA chanels assigend for endpoints. */
  47:Generated_Source\PSoC5/USBFS.c ****         const uint8 USBFS_DmaChan[USBFS_MAX_EP] =
  48:Generated_Source\PSoC5/USBFS.c ****         {
  49:Generated_Source\PSoC5/USBFS.c ****             0u,
  50:Generated_Source\PSoC5/USBFS.c ****             0u,
  51:Generated_Source\PSoC5/USBFS.c ****             0u,
  52:Generated_Source\PSoC5/USBFS.c ****             0u,
  53:Generated_Source\PSoC5/USBFS.c ****             0u,
  54:Generated_Source\PSoC5/USBFS.c ****             0u,
  55:Generated_Source\PSoC5/USBFS.c ****             0u,
  56:Generated_Source\PSoC5/USBFS.c ****             0u,
  57:Generated_Source\PSoC5/USBFS.c ****             0u,
  58:Generated_Source\PSoC5/USBFS.c ****         };        
  59:Generated_Source\PSoC5/USBFS.c ****     #else
  60:Generated_Source\PSoC5/USBFS.c ****         /* DMA chanels assigend for endpoints. */
  61:Generated_Source\PSoC5/USBFS.c ****         uint8 USBFS_DmaChan[USBFS_MAX_EP];
  62:Generated_Source\PSoC5/USBFS.c ****         
  63:Generated_Source\PSoC5/USBFS.c ****         /* DMA TDs require for PSoC 3/5LP operation. */
  64:Generated_Source\PSoC5/USBFS.c ****         uint8 USBFS_DmaTd[USBFS_MAX_EP];
  65:Generated_Source\PSoC5/USBFS.c ****     #endif /* (CY_PSOC4) */
  66:Generated_Source\PSoC5/USBFS.c **** #endif /* (USBFS_EP_MANAGEMENT_DMA) */
  67:Generated_Source\PSoC5/USBFS.c **** 
  68:Generated_Source\PSoC5/USBFS.c **** #if (USBFS_EP_MANAGEMENT_DMA_AUTO)
  69:Generated_Source\PSoC5/USBFS.c **** #if (CY_PSOC4)
  70:Generated_Source\PSoC5/USBFS.c ****     /* Number of DMA bursts. */
  71:Generated_Source\PSoC5/USBFS.c ****     uint8  USBFS_DmaEpBurstCnt   [USBFS_MAX_EP];
  72:Generated_Source\PSoC5/USBFS.c ****     
  73:Generated_Source\PSoC5/USBFS.c ****     /* Number of bytes to transfer in last DMA burst. */
  74:Generated_Source\PSoC5/USBFS.c ****     uint8  USBFS_DmaEpLastBurstEl[USBFS_MAX_EP];
  75:Generated_Source\PSoC5/USBFS.c **** 
  76:Generated_Source\PSoC5/USBFS.c ****     /* Storage for arrays above. */
  77:Generated_Source\PSoC5/USBFS.c ****     uint8  USBFS_DmaEpBurstCntBackup  [USBFS_MAX_EP];
  78:Generated_Source\PSoC5/USBFS.c ****     uint32 USBFS_DmaEpBufferAddrBackup[USBFS_MAX_EP];
  79:Generated_Source\PSoC5/USBFS.c ****      
  80:Generated_Source\PSoC5/USBFS.c ****     /* DMA trigger mux output for usb.dma_req[0-7]. */
  81:Generated_Source\PSoC5/USBFS.c ****     const uint8 USBFS_DmaReqOut[USBFS_MAX_EP] =
  82:Generated_Source\PSoC5/USBFS.c ****     {
  83:Generated_Source\PSoC5/USBFS.c ****         0u,
  84:Generated_Source\PSoC5/USBFS.c ****         USBFS_ep1_dma__TR_OUTPUT,
  85:Generated_Source\PSoC5/USBFS.c ****         USBFS_ep2_dma__TR_OUTPUT,
  86:Generated_Source\PSoC5/USBFS.c ****         0u,
  87:Generated_Source\PSoC5/USBFS.c ****         0u,
ARM GAS  C:\Users\rabbit\AppData\Local\Temp\ccUovuGe.s 			page 3


  88:Generated_Source\PSoC5/USBFS.c ****         0u,
  89:Generated_Source\PSoC5/USBFS.c ****         0u,
  90:Generated_Source\PSoC5/USBFS.c ****         0u,
  91:Generated_Source\PSoC5/USBFS.c ****         0u,
  92:Generated_Source\PSoC5/USBFS.c ****     };
  93:Generated_Source\PSoC5/USBFS.c **** 
  94:Generated_Source\PSoC5/USBFS.c ****     /* DMA trigger mux output for usb.dma_burstend[0-7]. */
  95:Generated_Source\PSoC5/USBFS.c ****     const uint8 USBFS_DmaBurstEndOut[USBFS_MAX_EP] =
  96:Generated_Source\PSoC5/USBFS.c ****     {
  97:Generated_Source\PSoC5/USBFS.c ****         0u,
  98:Generated_Source\PSoC5/USBFS.c ****         USBFS_BURSTEND_0_TR_OUTPUT,
  99:Generated_Source\PSoC5/USBFS.c ****         USBFS_BURSTEND_1_TR_OUTPUT,
 100:Generated_Source\PSoC5/USBFS.c ****         USBFS_BURSTEND_2_TR_OUTPUT,
 101:Generated_Source\PSoC5/USBFS.c ****         USBFS_BURSTEND_3_TR_OUTPUT,
 102:Generated_Source\PSoC5/USBFS.c ****         USBFS_BURSTEND_4_TR_OUTPUT,
 103:Generated_Source\PSoC5/USBFS.c ****         USBFS_BURSTEND_5_TR_OUTPUT,
 104:Generated_Source\PSoC5/USBFS.c ****         USBFS_BURSTEND_6_TR_OUTPUT,
 105:Generated_Source\PSoC5/USBFS.c ****         USBFS_BURSTEND_7_TR_OUTPUT
 106:Generated_Source\PSoC5/USBFS.c ****     };
 107:Generated_Source\PSoC5/USBFS.c ****     
 108:Generated_Source\PSoC5/USBFS.c **** #else
 109:Generated_Source\PSoC5/USBFS.c ****     #if (USBFS_EP_DMA_AUTO_OPT == 0u)
 110:Generated_Source\PSoC5/USBFS.c ****         static uint8 clearInDataRdyStatus = USBFS_ARB_EPX_CFG_DEFAULT;
 111:Generated_Source\PSoC5/USBFS.c ****         uint8 USBFS_DmaNextTd[USBFS_MAX_EP];
 112:Generated_Source\PSoC5/USBFS.c ****         const uint8 USBFS_epX_TD_TERMOUT_EN[USBFS_MAX_EP] =
 113:Generated_Source\PSoC5/USBFS.c ****         {
 114:Generated_Source\PSoC5/USBFS.c ****             0u,
 115:Generated_Source\PSoC5/USBFS.c ****             0u,
 116:Generated_Source\PSoC5/USBFS.c ****             0u,
 117:Generated_Source\PSoC5/USBFS.c ****             0u,
 118:Generated_Source\PSoC5/USBFS.c ****             0u,
 119:Generated_Source\PSoC5/USBFS.c ****             0u,
 120:Generated_Source\PSoC5/USBFS.c ****             0u,
 121:Generated_Source\PSoC5/USBFS.c ****             0u,
 122:Generated_Source\PSoC5/USBFS.c ****             0u,
 123:Generated_Source\PSoC5/USBFS.c ****         };
 124:Generated_Source\PSoC5/USBFS.c **** 
 125:Generated_Source\PSoC5/USBFS.c ****         volatile uint16 USBFS_inLength[USBFS_MAX_EP];
 126:Generated_Source\PSoC5/USBFS.c ****         const uint8 *USBFS_inDataPointer[USBFS_MAX_EP];
 127:Generated_Source\PSoC5/USBFS.c ****         volatile uint8 USBFS_inBufFull[USBFS_MAX_EP];
 128:Generated_Source\PSoC5/USBFS.c ****     #endif /* (USBFS_EP_DMA_AUTO_OPT == 0u) */
 129:Generated_Source\PSoC5/USBFS.c **** #endif /* (CY_PSOC4) */
 130:Generated_Source\PSoC5/USBFS.c **** #endif /* (USBFS_EP_MANAGEMENT_DMA_AUTO) */
 131:Generated_Source\PSoC5/USBFS.c **** 
 132:Generated_Source\PSoC5/USBFS.c **** 
 133:Generated_Source\PSoC5/USBFS.c **** /*******************************************************************************
 134:Generated_Source\PSoC5/USBFS.c **** * Function Name: USBFS_Start
 135:Generated_Source\PSoC5/USBFS.c **** ****************************************************************************//**
 136:Generated_Source\PSoC5/USBFS.c **** *
 137:Generated_Source\PSoC5/USBFS.c **** *   This function performs all required initialization for the USBFS component.
 138:Generated_Source\PSoC5/USBFS.c **** *   After this function call, the USB device initiates communication with the
 139:Generated_Source\PSoC5/USBFS.c **** *   host by pull-up D+ line. This is the preferred method to begin component
 140:Generated_Source\PSoC5/USBFS.c **** *   operation.
 141:Generated_Source\PSoC5/USBFS.c **** *
 142:Generated_Source\PSoC5/USBFS.c **** *   Note that global interrupts have to be enabled because interrupts are
 143:Generated_Source\PSoC5/USBFS.c **** *   required for USBFS component operation.
 144:Generated_Source\PSoC5/USBFS.c **** *
ARM GAS  C:\Users\rabbit\AppData\Local\Temp\ccUovuGe.s 			page 4


 145:Generated_Source\PSoC5/USBFS.c **** *   PSoC 4200L devices: when USBFS component configured to DMA with Automatic
 146:Generated_Source\PSoC5/USBFS.c **** *   Buffer Management, the DMA interrupt priority is changed to the highest
 147:Generated_Source\PSoC5/USBFS.c **** *   (priority 0) inside this function.
 148:Generated_Source\PSoC5/USBFS.c **** *
 149:Generated_Source\PSoC5/USBFS.c **** *   PSoC 3/PSoC 5LP devices: when USBFS component configured to DMA with
 150:Generated_Source\PSoC5/USBFS.c **** *   Automatic Buffer Management, the Arbiter interrupt priority is changed to
 151:Generated_Source\PSoC5/USBFS.c **** *   the highest (priority 0) inside this function.
 152:Generated_Source\PSoC5/USBFS.c **** *
 153:Generated_Source\PSoC5/USBFS.c **** *  \param device
 154:Generated_Source\PSoC5/USBFS.c **** *          Contains the device number of the desired device descriptor.
 155:Generated_Source\PSoC5/USBFS.c **** *          The device number can be found in the Device Descriptor Tab of
 156:Generated_Source\PSoC5/USBFS.c **** *          "Configure" dialog, under the settings of desired Device Descriptor,
 157:Generated_Source\PSoC5/USBFS.c **** *          in the "Device Number" field.
 158:Generated_Source\PSoC5/USBFS.c **** *  \param mode:
 159:Generated_Source\PSoC5/USBFS.c **** *   The operating voltage. This determines whether the voltage regulator
 160:Generated_Source\PSoC5/USBFS.c **** *   is enabled for 5V operation or if pass through mode is used for 3.3V
 161:Generated_Source\PSoC5/USBFS.c **** *   operation. Symbolic names and their associated values are given in the
 162:Generated_Source\PSoC5/USBFS.c **** *   following list.
 163:Generated_Source\PSoC5/USBFS.c **** *
 164:Generated_Source\PSoC5/USBFS.c **** *       *USBFS_3V_OPERATION* - Disable voltage regulator and pass-
 165:Generated_Source\PSoC5/USBFS.c **** *                                      through Vcc for pull-up
 166:Generated_Source\PSoC5/USBFS.c **** *
 167:Generated_Source\PSoC5/USBFS.c **** *       *USBFS_5V_OPERATION* - Enable voltage regulator and use
 168:Generated_Source\PSoC5/USBFS.c **** *                                      regulator for pull-up
 169:Generated_Source\PSoC5/USBFS.c **** *
 170:Generated_Source\PSoC5/USBFS.c **** *       *USBFS_DWR_POWER_OPERATION* - Enable or disable the voltage
 171:Generated_Source\PSoC5/USBFS.c **** *                                      regulator depending on the power supply
 172:Generated_Source\PSoC5/USBFS.c **** *                                      voltage configuration in the DWR tab.
 173:Generated_Source\PSoC5/USBFS.c **** *                                      For PSoC 3/5LP devices, the VDDD supply
 174:Generated_Source\PSoC5/USBFS.c **** *                                      voltage is considered and for PSoC 4A-L,
 175:Generated_Source\PSoC5/USBFS.c **** *                                      the VBUS supply voltage is considered.*
 176:Generated_Source\PSoC5/USBFS.c **** * \globalvars
 177:Generated_Source\PSoC5/USBFS.c **** *  \ref USBFS_initVar
 178:Generated_Source\PSoC5/USBFS.c **** *
 179:Generated_Source\PSoC5/USBFS.c **** * \sideeffect
 180:Generated_Source\PSoC5/USBFS.c **** *   This function will reset all communication states to default.
 181:Generated_Source\PSoC5/USBFS.c **** *
 182:Generated_Source\PSoC5/USBFS.c **** * \reentrant
 183:Generated_Source\PSoC5/USBFS.c **** *  No.
 184:Generated_Source\PSoC5/USBFS.c **** *
 185:Generated_Source\PSoC5/USBFS.c **** *******************************************************************************/
 186:Generated_Source\PSoC5/USBFS.c **** void USBFS_Start(uint8 device, uint8 mode) 
 187:Generated_Source\PSoC5/USBFS.c **** {
 188:Generated_Source\PSoC5/USBFS.c ****     if (0u == USBFS_initVar)
 189:Generated_Source\PSoC5/USBFS.c ****     {
 190:Generated_Source\PSoC5/USBFS.c ****         USBFS_Init();
 191:Generated_Source\PSoC5/USBFS.c ****         USBFS_initVar = 1u;
 192:Generated_Source\PSoC5/USBFS.c ****     }
 193:Generated_Source\PSoC5/USBFS.c **** 
 194:Generated_Source\PSoC5/USBFS.c ****     USBFS_InitComponent(device, mode);
 195:Generated_Source\PSoC5/USBFS.c **** }
 196:Generated_Source\PSoC5/USBFS.c **** 
 197:Generated_Source\PSoC5/USBFS.c **** 
 198:Generated_Source\PSoC5/USBFS.c **** /*******************************************************************************
 199:Generated_Source\PSoC5/USBFS.c **** * Function Name: USBFS_Init
 200:Generated_Source\PSoC5/USBFS.c **** ****************************************************************************//**
 201:Generated_Source\PSoC5/USBFS.c **** *
ARM GAS  C:\Users\rabbit\AppData\Local\Temp\ccUovuGe.s 			page 5


 202:Generated_Source\PSoC5/USBFS.c **** * This function initializes or restores the component according to the
 203:Generated_Source\PSoC5/USBFS.c **** * customizer Configure dialog settings. It is not necessary to call
 204:Generated_Source\PSoC5/USBFS.c **** * USBFS_Init() because the USBFS_Start() routine calls
 205:Generated_Source\PSoC5/USBFS.c **** * this function and is the preferred method to begin component operation.
 206:Generated_Source\PSoC5/USBFS.c **** *
 207:Generated_Source\PSoC5/USBFS.c **** * \reentrant
 208:Generated_Source\PSoC5/USBFS.c **** *  No.
 209:Generated_Source\PSoC5/USBFS.c **** *
 210:Generated_Source\PSoC5/USBFS.c **** *******************************************************************************/
 211:Generated_Source\PSoC5/USBFS.c **** void USBFS_Init(void) 
 212:Generated_Source\PSoC5/USBFS.c **** {
  28              		.loc 1 212 0
  29              		.cfi_startproc
  30              		@ args = 0, pretend = 0, frame = 0
  31              		@ frame_needed = 0, uses_anonymous_args = 0
  32 0000 F8B5     		push	{r3, r4, r5, r6, r7, lr}
  33              		.cfi_def_cfa_offset 24
  34              		.cfi_offset 3, -24
  35              		.cfi_offset 4, -20
  36              		.cfi_offset 5, -16
  37              		.cfi_offset 6, -12
  38              		.cfi_offset 7, -8
  39              		.cfi_offset 14, -4
 213:Generated_Source\PSoC5/USBFS.c **** #if (CY_PSOC4)
 214:Generated_Source\PSoC5/USBFS.c ****     /* Enable clock to USB IP. */
 215:Generated_Source\PSoC5/USBFS.c ****     USBFS_USB_CLK_EN_REG = USBFS_USB_CLK_CSR_CLK_EN;
 216:Generated_Source\PSoC5/USBFS.c **** 
 217:Generated_Source\PSoC5/USBFS.c ****     /* The internal regulator (CR1.REG_ENABLE) is enabled in
 218:Generated_Source\PSoC5/USBFS.c ****     * USBFS_InitComponent() if it is required.
 219:Generated_Source\PSoC5/USBFS.c ****     */
 220:Generated_Source\PSoC5/USBFS.c **** 
 221:Generated_Source\PSoC5/USBFS.c ****     /* Enable USBIO control on drive mode of D+ and D- pins. */
 222:Generated_Source\PSoC5/USBFS.c ****     USBFS_USBIO_CR1_REG &= ~ (uint32) USBFS_USBIO_CR1_IOMODE;
 223:Generated_Source\PSoC5/USBFS.c **** 
 224:Generated_Source\PSoC5/USBFS.c ****     /* Set number of LF CLK to detect UBS bus reset. */
 225:Generated_Source\PSoC5/USBFS.c ****     USBFS_BUS_RST_CNT_REG = USBFS_DEFUALT_BUS_RST_CNT;
 226:Generated_Source\PSoC5/USBFS.c **** 
 227:Generated_Source\PSoC5/USBFS.c ****     /* Select VBUS detection source and clear PHY isolate. The application level
 228:Generated_Source\PSoC5/USBFS.c ****     * must ensure that VBUS is valid. There is no need to wait 2us before VBUS is valid.
 229:Generated_Source\PSoC5/USBFS.c ****     */
 230:Generated_Source\PSoC5/USBFS.c ****     USBFS_POWER_CTRL_REG = USBFS_DEFAULT_POWER_CTRL_VBUS;
 231:Generated_Source\PSoC5/USBFS.c **** 
 232:Generated_Source\PSoC5/USBFS.c ****     /* Enable PHY detector and single-ended and differential receivers. */
 233:Generated_Source\PSoC5/USBFS.c ****     USBFS_POWER_CTRL_REG |= USBFS_DEFAULT_POWER_CTRL_PHY;
 234:Generated_Source\PSoC5/USBFS.c **** 
 235:Generated_Source\PSoC5/USBFS.c ****     /* Suspend clear sequence. */
 236:Generated_Source\PSoC5/USBFS.c ****     USBFS_POWER_CTRL_REG &= (uint32) ~USBFS_POWER_CTRL_SUSPEND;
 237:Generated_Source\PSoC5/USBFS.c ****     CyDelayUs(USBFS_WAIT_SUSPEND_DEL_DISABLE);
 238:Generated_Source\PSoC5/USBFS.c ****     USBFS_POWER_CTRL_REG &= (uint32) ~USBFS_POWER_CTRL_SUSPEND_DEL;
 239:Generated_Source\PSoC5/USBFS.c **** 
 240:Generated_Source\PSoC5/USBFS.c ****     /* Sets IMO lock options and clear all other bits. */
 241:Generated_Source\PSoC5/USBFS.c ****     USBFS_CR1_REG = USBFS_DEFUALT_CR1;
 242:Generated_Source\PSoC5/USBFS.c **** 
 243:Generated_Source\PSoC5/USBFS.c ****     /* Configure level (hi, lo, med) for each interrupt source. */
 244:Generated_Source\PSoC5/USBFS.c ****     USBFS_INTR_LVL_SEL_REG = USBFS_DEFAULT_INTR_LVL_SEL;
 245:Generated_Source\PSoC5/USBFS.c **** 
 246:Generated_Source\PSoC5/USBFS.c ****     /* Configure interrupt sources from: SOF, Bus Reset and EP0. */
ARM GAS  C:\Users\rabbit\AppData\Local\Temp\ccUovuGe.s 			page 6


 247:Generated_Source\PSoC5/USBFS.c ****     USBFS_INTR_SIE_MASK_REG = USBFS_DEFAULT_INTR_SIE_MASK;
 248:Generated_Source\PSoC5/USBFS.c **** 
 249:Generated_Source\PSoC5/USBFS.c **** #else
 250:Generated_Source\PSoC5/USBFS.c ****     uint8 enableInterrupts = CyEnterCriticalSection();
  40              		.loc 1 250 0
  41 0002 FFF7FEFF 		bl	CyEnterCriticalSection
  42              	.LVL0:
 251:Generated_Source\PSoC5/USBFS.c **** 
 252:Generated_Source\PSoC5/USBFS.c **** #if (USBFS_EP_MANAGEMENT_DMA)
 253:Generated_Source\PSoC5/USBFS.c ****     uint16 i;
 254:Generated_Source\PSoC5/USBFS.c **** #endif /* (USBFS_EP_MANAGEMENT_DMA) */
 255:Generated_Source\PSoC5/USBFS.c **** 
 256:Generated_Source\PSoC5/USBFS.c ****     /* Enable USB block. */
 257:Generated_Source\PSoC5/USBFS.c ****     USBFS_PM_ACT_CFG_REG |= USBFS_PM_ACT_EN_FSUSB;
  43              		.loc 1 257 0
  44 0006 3C4A     		ldr	r2, .L2
 258:Generated_Source\PSoC5/USBFS.c ****     /* Enable USB block for Standby Power Mode. */
 259:Generated_Source\PSoC5/USBFS.c ****     USBFS_PM_STBY_CFG_REG |= USBFS_PM_STBY_EN_FSUSB;
 260:Generated_Source\PSoC5/USBFS.c **** 
 261:Generated_Source\PSoC5/USBFS.c ****     /* Enable core clock. */
 262:Generated_Source\PSoC5/USBFS.c ****     USBFS_USB_CLK_EN_REG = USBFS_USB_CLK_ENABLE;
  45              		.loc 1 262 0
  46 0008 0125     		movs	r5, #1
 257:Generated_Source\PSoC5/USBFS.c ****     /* Enable USB block for Standby Power Mode. */
  47              		.loc 1 257 0
  48 000a 1378     		ldrb	r3, [r2]	@ zero_extendqisi2
 263:Generated_Source\PSoC5/USBFS.c **** 
 264:Generated_Source\PSoC5/USBFS.c ****     USBFS_CR1_REG = USBFS_CR1_ENABLE_LOCK;
  49              		.loc 1 264 0
  50 000c 0227     		movs	r7, #2
 257:Generated_Source\PSoC5/USBFS.c ****     /* Enable USB block for Standby Power Mode. */
  51              		.loc 1 257 0
  52 000e 43F00103 		orr	r3, r3, #1
  53 0012 1370     		strb	r3, [r2]
 259:Generated_Source\PSoC5/USBFS.c **** 
  54              		.loc 1 259 0
  55 0014 137C     		ldrb	r3, [r2, #16]	@ zero_extendqisi2
 265:Generated_Source\PSoC5/USBFS.c **** 
 266:Generated_Source\PSoC5/USBFS.c ****     /* ENABLING USBIO PADS IN USB MODE FROM I/O MODE. */
 267:Generated_Source\PSoC5/USBFS.c ****     /* Ensure USB transmit enable is low (USB_USBIO_CR0.ten). - Manual Transmission - Disabled. */
 268:Generated_Source\PSoC5/USBFS.c ****     USBFS_USBIO_CR0_REG &= (uint8) ~USBFS_USBIO_CR0_TEN;
 269:Generated_Source\PSoC5/USBFS.c ****     CyDelayUs(USBFS_WAIT_REG_STABILITY_50NS);  /* ~50ns delay. */
 270:Generated_Source\PSoC5/USBFS.c ****     /* Disable USBIO by asserting PM.USB_CR0.fsusbio_pd_n(Inverted.
 271:Generated_Source\PSoC5/USBFS.c ****     *  high. These bits will be set low by the power manager out-of-reset.
 272:Generated_Source\PSoC5/USBFS.c ****     *  Also confirm USBIO pull-up is disabled.
 273:Generated_Source\PSoC5/USBFS.c ****     */
 274:Generated_Source\PSoC5/USBFS.c ****     USBFS_PM_USB_CR0_REG &= (uint8) ~(USBFS_PM_USB_CR0_PD_N |
  56              		.loc 1 274 0
  57 0016 394C     		ldr	r4, .L2+4
 259:Generated_Source\PSoC5/USBFS.c **** 
  58              		.loc 1 259 0
  59 0018 43F00103 		orr	r3, r3, #1
  60 001c 1374     		strb	r3, [r2, #16]
 262:Generated_Source\PSoC5/USBFS.c **** 
  61              		.loc 1 262 0
  62 001e 384B     		ldr	r3, .L2+8
 268:Generated_Source\PSoC5/USBFS.c ****     CyDelayUs(USBFS_WAIT_REG_STABILITY_50NS);  /* ~50ns delay. */
ARM GAS  C:\Users\rabbit\AppData\Local\Temp\ccUovuGe.s 			page 7


  63              		.loc 1 268 0
  64 0020 02F5E352 		add	r2, r2, #7264
 262:Generated_Source\PSoC5/USBFS.c **** 
  65              		.loc 1 262 0
  66 0024 1D70     		strb	r5, [r3]
 268:Generated_Source\PSoC5/USBFS.c ****     CyDelayUs(USBFS_WAIT_REG_STABILITY_50NS);  /* ~50ns delay. */
  67              		.loc 1 268 0
  68 0026 0B32     		adds	r2, r2, #11
 264:Generated_Source\PSoC5/USBFS.c **** 
  69              		.loc 1 264 0
  70 0028 03F8947C 		strb	r7, [r3, #-148]
 268:Generated_Source\PSoC5/USBFS.c ****     CyDelayUs(USBFS_WAIT_REG_STABILITY_50NS);  /* ~50ns delay. */
  71              		.loc 1 268 0
  72 002c 1378     		ldrb	r3, [r2]	@ zero_extendqisi2
 250:Generated_Source\PSoC5/USBFS.c **** 
  73              		.loc 1 250 0
  74 002e 0646     		mov	r6, r0
  75              	.LVL1:
 268:Generated_Source\PSoC5/USBFS.c ****     CyDelayUs(USBFS_WAIT_REG_STABILITY_50NS);  /* ~50ns delay. */
  76              		.loc 1 268 0
  77 0030 03F07F03 		and	r3, r3, #127
  78 0034 1370     		strb	r3, [r2]
 269:Generated_Source\PSoC5/USBFS.c ****     /* Disable USBIO by asserting PM.USB_CR0.fsusbio_pd_n(Inverted.
  79              		.loc 1 269 0
  80 0036 0020     		movs	r0, #0
  81 0038 FFF7FEFF 		bl	CyDelayUs
  82              	.LVL2:
  83              		.loc 1 274 0
  84 003c 2378     		ldrb	r3, [r4]	@ zero_extendqisi2
 275:Generated_Source\PSoC5/USBFS.c ****                                                  USBFS_PM_USB_CR0_PD_PULLUP_N);
 276:Generated_Source\PSoC5/USBFS.c **** 
 277:Generated_Source\PSoC5/USBFS.c ****     /* Select IOMODE to USB mode. */
 278:Generated_Source\PSoC5/USBFS.c ****     USBFS_USBIO_CR1_REG &= (uint8) ~USBFS_USBIO_CR1_IOMODE;
  85              		.loc 1 278 0
  86 003e 314A     		ldr	r2, .L2+12
 274:Generated_Source\PSoC5/USBFS.c ****                                                  USBFS_PM_USB_CR0_PD_PULLUP_N);
  87              		.loc 1 274 0
  88 0040 03F0F903 		and	r3, r3, #249
  89 0044 2370     		strb	r3, [r4]
  90              		.loc 1 278 0
  91 0046 1378     		ldrb	r3, [r2]	@ zero_extendqisi2
 279:Generated_Source\PSoC5/USBFS.c **** 
 280:Generated_Source\PSoC5/USBFS.c ****     /* Enable USBIO reference by setting PM.USB_CR0.fsusbio_ref_en. */
 281:Generated_Source\PSoC5/USBFS.c ****     USBFS_PM_USB_CR0_REG |= USBFS_PM_USB_CR0_REF_EN;
 282:Generated_Source\PSoC5/USBFS.c ****     /* Reference is available for 1us after regulator is enabled. */
 283:Generated_Source\PSoC5/USBFS.c ****     CyDelayUs(USBFS_WAIT_REG_STABILITY_1US);
  92              		.loc 1 283 0
  93 0048 2846     		mov	r0, r5
 278:Generated_Source\PSoC5/USBFS.c **** 
  94              		.loc 1 278 0
  95 004a 03F0DF03 		and	r3, r3, #223
  96 004e 1370     		strb	r3, [r2]
 281:Generated_Source\PSoC5/USBFS.c ****     /* Reference is available for 1us after regulator is enabled. */
  97              		.loc 1 281 0
  98 0050 2378     		ldrb	r3, [r4]	@ zero_extendqisi2
  99 0052 2B43     		orrs	r3, r3, r5
 100 0054 2370     		strb	r3, [r4]
ARM GAS  C:\Users\rabbit\AppData\Local\Temp\ccUovuGe.s 			page 8


 101              		.loc 1 283 0
 102 0056 FFF7FEFF 		bl	CyDelayUs
 103              	.LVL3:
 284:Generated_Source\PSoC5/USBFS.c ****     /* OR 40us after power is restored. */
 285:Generated_Source\PSoC5/USBFS.c ****     CyDelayUs(USBFS_WAIT_VREF_RESTORE);
 104              		.loc 1 285 0
 105 005a 2820     		movs	r0, #40
 106 005c FFF7FEFF 		bl	CyDelayUs
 107              	.LVL4:
 286:Generated_Source\PSoC5/USBFS.c ****     /* Ensure single-ended disable bits are low (PRT15.INP_DIS[7:6])(input receiver enabled). */
 287:Generated_Source\PSoC5/USBFS.c ****     USBFS_DM_INP_DIS_REG &= (uint8) ~USBFS_DM_MASK;
 108              		.loc 1 287 0
 109 0060 294B     		ldr	r3, .L2+16
 288:Generated_Source\PSoC5/USBFS.c ****     USBFS_DP_INP_DIS_REG &= (uint8) ~USBFS_DP_MASK;
 289:Generated_Source\PSoC5/USBFS.c **** 
 290:Generated_Source\PSoC5/USBFS.c ****     /* Enable USBIO. */
 291:Generated_Source\PSoC5/USBFS.c ****     USBFS_PM_USB_CR0_REG |= USBFS_PM_USB_CR0_PD_N;
 292:Generated_Source\PSoC5/USBFS.c ****     CyDelayUs(USBFS_WAIT_PD_PULLUP_N_ENABLE);
 110              		.loc 1 292 0
 111 0062 3846     		mov	r0, r7
 287:Generated_Source\PSoC5/USBFS.c ****     USBFS_DP_INP_DIS_REG &= (uint8) ~USBFS_DP_MASK;
 112              		.loc 1 287 0
 113 0064 1A78     		ldrb	r2, [r3]	@ zero_extendqisi2
 114 0066 02F07F02 		and	r2, r2, #127
 115 006a 1A70     		strb	r2, [r3]
 288:Generated_Source\PSoC5/USBFS.c ****     USBFS_DP_INP_DIS_REG &= (uint8) ~USBFS_DP_MASK;
 116              		.loc 1 288 0
 117 006c 1A78     		ldrb	r2, [r3]	@ zero_extendqisi2
 118 006e 02F0BF02 		and	r2, r2, #191
 119 0072 1A70     		strb	r2, [r3]
 291:Generated_Source\PSoC5/USBFS.c ****     CyDelayUs(USBFS_WAIT_PD_PULLUP_N_ENABLE);
 120              		.loc 1 291 0
 121 0074 2378     		ldrb	r3, [r4]	@ zero_extendqisi2
 122 0076 3B43     		orrs	r3, r3, r7
 123 0078 2370     		strb	r3, [r4]
 124              		.loc 1 292 0
 125 007a FFF7FEFF 		bl	CyDelayUs
 126              	.LVL5:
 293:Generated_Source\PSoC5/USBFS.c ****     /* Set USBIO pull-up enable. */
 294:Generated_Source\PSoC5/USBFS.c ****     USBFS_PM_USB_CR0_REG |= USBFS_PM_USB_CR0_PD_PULLUP_N;
 127              		.loc 1 294 0
 128 007e 2378     		ldrb	r3, [r4]	@ zero_extendqisi2
 295:Generated_Source\PSoC5/USBFS.c **** 
 296:Generated_Source\PSoC5/USBFS.c ****     /* Reset Arbiter Write Address register for endpoint 1. */
 297:Generated_Source\PSoC5/USBFS.c ****     CY_SET_REG8(USBFS_ARB_RW1_WA_PTR,     0u);
 298:Generated_Source\PSoC5/USBFS.c ****     CY_SET_REG8(USBFS_ARB_RW1_WA_MSB_PTR, 0u);
 299:Generated_Source\PSoC5/USBFS.c **** 
 300:Generated_Source\PSoC5/USBFS.c **** #if (USBFS_EP_MANAGEMENT_DMA)
 301:Generated_Source\PSoC5/USBFS.c ****     /* Initialize transfer descriptor. This will be used to detect DMA state - initialized or not. 
 302:Generated_Source\PSoC5/USBFS.c ****     for (i = 0u; i < USBFS_MAX_EP; ++i)
 303:Generated_Source\PSoC5/USBFS.c ****     {
 304:Generated_Source\PSoC5/USBFS.c ****         USBFS_DmaTd[i] = DMA_INVALID_TD;
 305:Generated_Source\PSoC5/USBFS.c **** 
 306:Generated_Source\PSoC5/USBFS.c ****     #if (USBFS_EP_MANAGEMENT_DMA_AUTO && (USBFS_EP_DMA_AUTO_OPT == 0u))
 307:Generated_Source\PSoC5/USBFS.c ****         USBFS_DmaNextTd[i] = DMA_INVALID_TD;
 308:Generated_Source\PSoC5/USBFS.c ****     #endif /* (USBFS_EP_MANAGEMENT_DMA_AUTO && (USBFS_EP_DMA_AUTO_OPT == 0u)) */
 309:Generated_Source\PSoC5/USBFS.c ****     }
ARM GAS  C:\Users\rabbit\AppData\Local\Temp\ccUovuGe.s 			page 9


 310:Generated_Source\PSoC5/USBFS.c **** #endif /* (USBFS_EP_MANAGEMENT_DMA) */
 311:Generated_Source\PSoC5/USBFS.c **** 
 312:Generated_Source\PSoC5/USBFS.c ****     CyExitCriticalSection(enableInterrupts);
 129              		.loc 1 312 0
 130 0080 3046     		mov	r0, r6
 294:Generated_Source\PSoC5/USBFS.c **** 
 131              		.loc 1 294 0
 132 0082 43F00403 		orr	r3, r3, #4
 133 0086 2370     		strb	r3, [r4]
 297:Generated_Source\PSoC5/USBFS.c ****     CY_SET_REG8(USBFS_ARB_RW1_WA_MSB_PTR, 0u);
 134              		.loc 1 297 0
 135 0088 204B     		ldr	r3, .L2+20
 136 008a 0024     		movs	r4, #0
 137 008c 1C70     		strb	r4, [r3]
 298:Generated_Source\PSoC5/USBFS.c **** 
 138              		.loc 1 298 0
 139 008e 5C70     		strb	r4, [r3, #1]
 140              		.loc 1 312 0
 141 0090 FFF7FEFF 		bl	CyExitCriticalSection
 142              	.LVL6:
 313:Generated_Source\PSoC5/USBFS.c **** #endif /* (CY_PSOC4) */
 314:Generated_Source\PSoC5/USBFS.c **** 
 315:Generated_Source\PSoC5/USBFS.c ****     /* Configure interrupts from USB block. */
 316:Generated_Source\PSoC5/USBFS.c **** #if (CY_PSOC4)
 317:Generated_Source\PSoC5/USBFS.c ****     /* Configure hi_int: set handler and priority. */
 318:Generated_Source\PSoC5/USBFS.c ****     CyIntSetPriority     (USBFS_INTR_HI_VECT_NUM,  USBFS_INTR_HI_PRIORITY);
 319:Generated_Source\PSoC5/USBFS.c ****     (void) CyIntSetVector(USBFS_INTR_HI_VECT_NUM, &USBFS_INTR_HI_ISR);
 320:Generated_Source\PSoC5/USBFS.c **** 
 321:Generated_Source\PSoC5/USBFS.c ****     /* Configure lo_int: set handler and priority. */
 322:Generated_Source\PSoC5/USBFS.c ****     CyIntSetPriority     (USBFS_INTR_LO_VECT_NUM,  USBFS_INTR_LO_PRIORITY);
 323:Generated_Source\PSoC5/USBFS.c ****     (void) CyIntSetVector(USBFS_INTR_LO_VECT_NUM, &USBFS_INTR_LO_ISR);
 324:Generated_Source\PSoC5/USBFS.c **** 
 325:Generated_Source\PSoC5/USBFS.c ****     /* Configure med_int: set handler and priority (routed through DSI). */
 326:Generated_Source\PSoC5/USBFS.c ****     CyIntSetPriority     (USBFS_INTR_MED_VECT_NUM,  USBFS_INTR_MED_PRIORITY);
 327:Generated_Source\PSoC5/USBFS.c ****     (void) CyIntSetVector(USBFS_INTR_MED_VECT_NUM, &USBFS_INTR_MED_ISR);
 328:Generated_Source\PSoC5/USBFS.c **** 
 329:Generated_Source\PSoC5/USBFS.c **** #else
 330:Generated_Source\PSoC5/USBFS.c ****     /* Set bus reset interrupt. */
 331:Generated_Source\PSoC5/USBFS.c ****     CyIntSetPriority(USBFS_BUS_RESET_VECT_NUM, USBFS_BUS_RESET_PRIOR);
 143              		.loc 1 331 0
 144 0094 0721     		movs	r1, #7
 145 0096 1720     		movs	r0, #23
 146 0098 FFF7FEFF 		bl	CyIntSetPriority
 147              	.LVL7:
 332:Generated_Source\PSoC5/USBFS.c ****     (void) CyIntSetVector(USBFS_BUS_RESET_VECT_NUM,   &USBFS_BUS_RESET_ISR);
 148              		.loc 1 332 0
 149 009c 1C49     		ldr	r1, .L2+24
 150 009e 1720     		movs	r0, #23
 151 00a0 FFF7FEFF 		bl	CyIntSetVector
 152              	.LVL8:
 333:Generated_Source\PSoC5/USBFS.c **** 
 334:Generated_Source\PSoC5/USBFS.c ****     /* Set Control Endpoint Interrupt. */
 335:Generated_Source\PSoC5/USBFS.c ****     CyIntSetPriority(USBFS_EP_0_VECT_NUM, USBFS_EP_0_PRIOR);
 153              		.loc 1 335 0
 154 00a4 0721     		movs	r1, #7
 155 00a6 1820     		movs	r0, #24
 156 00a8 FFF7FEFF 		bl	CyIntSetPriority
ARM GAS  C:\Users\rabbit\AppData\Local\Temp\ccUovuGe.s 			page 10


 157              	.LVL9:
 336:Generated_Source\PSoC5/USBFS.c ****     (void) CyIntSetVector(USBFS_EP_0_VECT_NUM,   &USBFS_EP_0_ISR);
 158              		.loc 1 336 0
 159 00ac 1949     		ldr	r1, .L2+28
 160 00ae 1820     		movs	r0, #24
 161 00b0 FFF7FEFF 		bl	CyIntSetVector
 162              	.LVL10:
 337:Generated_Source\PSoC5/USBFS.c **** 
 338:Generated_Source\PSoC5/USBFS.c ****     /* Set SOF interrupt. */
 339:Generated_Source\PSoC5/USBFS.c ****     #if (USBFS_SOF_ISR_ACTIVE)
 340:Generated_Source\PSoC5/USBFS.c ****         CyIntSetPriority     (USBFS_SOF_VECT_NUM,  USBFS_SOF_PRIOR);
 163              		.loc 1 340 0
 164 00b4 0721     		movs	r1, #7
 165 00b6 1520     		movs	r0, #21
 166 00b8 FFF7FEFF 		bl	CyIntSetPriority
 167              	.LVL11:
 341:Generated_Source\PSoC5/USBFS.c ****         (void) CyIntSetVector(USBFS_SOF_VECT_NUM, &USBFS_SOF_ISR);
 168              		.loc 1 341 0
 169 00bc 1649     		ldr	r1, .L2+32
 170 00be 1520     		movs	r0, #21
 171 00c0 FFF7FEFF 		bl	CyIntSetVector
 172              	.LVL12:
 342:Generated_Source\PSoC5/USBFS.c ****     #endif /* (USBFS_SOF_ISR_ACTIVE) */
 343:Generated_Source\PSoC5/USBFS.c **** 
 344:Generated_Source\PSoC5/USBFS.c ****     /* Set Data Endpoint 1 Interrupt. */
 345:Generated_Source\PSoC5/USBFS.c ****     #if (USBFS_EP1_ISR_ACTIVE)
 346:Generated_Source\PSoC5/USBFS.c ****         CyIntSetPriority     (USBFS_EP_1_VECT_NUM,  USBFS_EP_1_PRIOR);
 173              		.loc 1 346 0
 174 00c4 2046     		mov	r0, r4
 175 00c6 0721     		movs	r1, #7
 176 00c8 FFF7FEFF 		bl	CyIntSetPriority
 177              	.LVL13:
 347:Generated_Source\PSoC5/USBFS.c ****         (void) CyIntSetVector(USBFS_EP_1_VECT_NUM,  &USBFS_EP_1_ISR);
 178              		.loc 1 347 0
 179 00cc 1349     		ldr	r1, .L2+36
 180 00ce 2046     		mov	r0, r4
 181 00d0 FFF7FEFF 		bl	CyIntSetVector
 182              	.LVL14:
 348:Generated_Source\PSoC5/USBFS.c ****     #endif /* (USBFS_EP1_ISR_ACTIVE) */
 349:Generated_Source\PSoC5/USBFS.c **** 
 350:Generated_Source\PSoC5/USBFS.c ****     /* Set Data Endpoint 2 Interrupt. */
 351:Generated_Source\PSoC5/USBFS.c ****     #if (USBFS_EP2_ISR_ACTIVE)
 352:Generated_Source\PSoC5/USBFS.c ****         CyIntSetPriority     (USBFS_EP_2_VECT_NUM,  USBFS_EP_2_PRIOR);
 183              		.loc 1 352 0
 184 00d4 2846     		mov	r0, r5
 185 00d6 0721     		movs	r1, #7
 186 00d8 FFF7FEFF 		bl	CyIntSetPriority
 187              	.LVL15:
 353:Generated_Source\PSoC5/USBFS.c ****         (void) CyIntSetVector(USBFS_EP_2_VECT_NUM, &USBFS_EP_2_ISR);
 188              		.loc 1 353 0
 189 00dc 1049     		ldr	r1, .L2+40
 190 00de 2846     		mov	r0, r5
 191 00e0 FFF7FEFF 		bl	CyIntSetVector
 192              	.LVL16:
 354:Generated_Source\PSoC5/USBFS.c ****     #endif /* (USBFS_EP2_ISR_ACTIVE) */
 355:Generated_Source\PSoC5/USBFS.c **** 
 356:Generated_Source\PSoC5/USBFS.c ****     /* Set Data Endpoint 3 Interrupt. */
ARM GAS  C:\Users\rabbit\AppData\Local\Temp\ccUovuGe.s 			page 11


 357:Generated_Source\PSoC5/USBFS.c ****     #if (USBFS_EP3_ISR_ACTIVE)
 358:Generated_Source\PSoC5/USBFS.c ****         CyIntSetPriority     (USBFS_EP_3_VECT_NUM,  USBFS_EP_3_PRIOR);
 359:Generated_Source\PSoC5/USBFS.c ****         (void) CyIntSetVector(USBFS_EP_3_VECT_NUM, &USBFS_EP_3_ISR);
 360:Generated_Source\PSoC5/USBFS.c ****     #endif /* (USBFS_EP3_ISR_ACTIVE) */
 361:Generated_Source\PSoC5/USBFS.c **** 
 362:Generated_Source\PSoC5/USBFS.c ****     /* Set Data Endpoint 4 Interrupt. */
 363:Generated_Source\PSoC5/USBFS.c ****     #if (USBFS_EP4_ISR_ACTIVE)
 364:Generated_Source\PSoC5/USBFS.c ****         CyIntSetPriority     (USBFS_EP_4_VECT_NUM,  USBFS_EP_4_PRIOR);
 365:Generated_Source\PSoC5/USBFS.c ****         (void) CyIntSetVector(USBFS_EP_4_VECT_NUM, &USBFS_EP_4_ISR);
 366:Generated_Source\PSoC5/USBFS.c ****     #endif /* (USBFS_EP4_ISR_ACTIVE) */
 367:Generated_Source\PSoC5/USBFS.c **** 
 368:Generated_Source\PSoC5/USBFS.c ****     /* Set Data Endpoint 5 Interrupt. */
 369:Generated_Source\PSoC5/USBFS.c ****     #if (USBFS_EP5_ISR_ACTIVE)
 370:Generated_Source\PSoC5/USBFS.c ****         CyIntSetPriority     (USBFS_EP_5_VECT_NUM,  USBFS_EP_5_PRIOR);
 371:Generated_Source\PSoC5/USBFS.c ****         (void) CyIntSetVector(USBFS_EP_5_VECT_NUM, &USBFS_EP_5_ISR);
 372:Generated_Source\PSoC5/USBFS.c ****     #endif /* (USBFS_EP5_ISR_ACTIVE) */
 373:Generated_Source\PSoC5/USBFS.c **** 
 374:Generated_Source\PSoC5/USBFS.c ****     /* Set Data Endpoint 6 Interrupt. */
 375:Generated_Source\PSoC5/USBFS.c ****     #if (USBFS_EP6_ISR_ACTIVE)
 376:Generated_Source\PSoC5/USBFS.c ****         CyIntSetPriority     (USBFS_EP_6_VECT_NUM,  USBFS_EP_6_PRIOR);
 377:Generated_Source\PSoC5/USBFS.c ****         (void) CyIntSetVector(USBFS_EP_6_VECT_NUM, &USBFS_EP_6_ISR);
 378:Generated_Source\PSoC5/USBFS.c ****     #endif /* (USBFS_EP6_ISR_ACTIVE) */
 379:Generated_Source\PSoC5/USBFS.c **** 
 380:Generated_Source\PSoC5/USBFS.c ****      /* Set Data Endpoint 7 Interrupt. */
 381:Generated_Source\PSoC5/USBFS.c ****     #if (USBFS_EP7_ISR_ACTIVE)
 382:Generated_Source\PSoC5/USBFS.c ****         CyIntSetPriority     (USBFS_EP_7_VECT_NUM,  USBFS_EP_7_PRIOR);
 383:Generated_Source\PSoC5/USBFS.c ****         (void) CyIntSetVector(USBFS_EP_7_VECT_NUM, &USBFS_EP_7_ISR);
 384:Generated_Source\PSoC5/USBFS.c ****     #endif /* (USBFS_EP7_ISR_ACTIVE) */
 385:Generated_Source\PSoC5/USBFS.c **** 
 386:Generated_Source\PSoC5/USBFS.c ****     /* Set Data Endpoint 8 Interrupt. */
 387:Generated_Source\PSoC5/USBFS.c ****     #if (USBFS_EP8_ISR_ACTIVE)
 388:Generated_Source\PSoC5/USBFS.c ****         CyIntSetPriority     (USBFS_EP_8_VECT_NUM,  USBFS_EP_8_PRIOR);
 389:Generated_Source\PSoC5/USBFS.c ****         (void) CyIntSetVector(USBFS_EP_8_VECT_NUM, &USBFS_EP_8_ISR);
 390:Generated_Source\PSoC5/USBFS.c ****     #endif /* (USBFS_EP8_ISR_ACTIVE) */
 391:Generated_Source\PSoC5/USBFS.c **** 
 392:Generated_Source\PSoC5/USBFS.c ****     /* Set ARB Interrupt. */
 393:Generated_Source\PSoC5/USBFS.c ****     #if (USBFS_EP_MANAGEMENT_DMA && USBFS_ARB_ISR_ACTIVE)
 394:Generated_Source\PSoC5/USBFS.c ****         CyIntSetPriority     (USBFS_ARB_VECT_NUM,  USBFS_ARB_PRIOR);
 395:Generated_Source\PSoC5/USBFS.c ****         (void) CyIntSetVector(USBFS_ARB_VECT_NUM, &USBFS_ARB_ISR);
 396:Generated_Source\PSoC5/USBFS.c ****     #endif /* (USBFS_EP_MANAGEMENT_DMA && USBFS_ARB_ISR_ACTIVE) */
 397:Generated_Source\PSoC5/USBFS.c **** #endif /* (CY_PSOC4) */
 398:Generated_Source\PSoC5/USBFS.c **** 
 399:Generated_Source\PSoC5/USBFS.c ****     /* Common: Configure GPIO interrupt for wakeup. */
 400:Generated_Source\PSoC5/USBFS.c **** #if (USBFS_DP_ISR_ACTIVE)
 401:Generated_Source\PSoC5/USBFS.c ****     CyIntSetPriority     (USBFS_DP_INTC_VECT_NUM,  USBFS_DP_INTC_PRIORITY);
 193              		.loc 1 401 0
 194 00e4 0721     		movs	r1, #7
 195 00e6 0C20     		movs	r0, #12
 196 00e8 FFF7FEFF 		bl	CyIntSetPriority
 197              	.LVL17:
 402:Generated_Source\PSoC5/USBFS.c ****     (void) CyIntSetVector(USBFS_DP_INTC_VECT_NUM, &USBFS_DP_ISR);
 403:Generated_Source\PSoC5/USBFS.c **** #endif /* (USBFS_DP_ISR_ACTIVE) */
 404:Generated_Source\PSoC5/USBFS.c **** 
 405:Generated_Source\PSoC5/USBFS.c **** #if (USBFS_EP_MANAGEMENT_DMA && CY_PSOC4)
 406:Generated_Source\PSoC5/USBFS.c ****     /* Initialize DMA channels. */
 407:Generated_Source\PSoC5/USBFS.c ****     USBFS_InitEpDma();
 408:Generated_Source\PSoC5/USBFS.c **** #endif /* (USBFS_EP_MANAGEMENT_DMA && CY_PSOC4) */
ARM GAS  C:\Users\rabbit\AppData\Local\Temp\ccUovuGe.s 			page 12


 409:Generated_Source\PSoC5/USBFS.c **** }
 198              		.loc 1 409 0
 199 00ec BDE8F840 		pop	{r3, r4, r5, r6, r7, lr}
 200              		.cfi_restore 14
 201              		.cfi_restore 7
 202              		.cfi_restore 6
 203              		.cfi_restore 5
 204              		.cfi_restore 4
 205              		.cfi_restore 3
 206              		.cfi_def_cfa_offset 0
 207              	.LVL18:
 402:Generated_Source\PSoC5/USBFS.c ****     (void) CyIntSetVector(USBFS_DP_INTC_VECT_NUM, &USBFS_DP_ISR);
 208              		.loc 1 402 0
 209 00f0 0C49     		ldr	r1, .L2+44
 210 00f2 0C20     		movs	r0, #12
 211 00f4 FFF7FEBF 		b	CyIntSetVector
 212              	.LVL19:
 213              	.L3:
 214              		.align	2
 215              	.L2:
 216 00f8 A5430040 		.word	1073759141
 217 00fc 94430040 		.word	1073759124
 218 0100 9D600040 		.word	1073766557
 219 0104 12600040 		.word	1073766418
 220 0108 F8510040 		.word	1073762808
 221 010c 84600040 		.word	1073766532
 222 0110 00000000 		.word	USBFS_BUS_RESET_ISR
 223 0114 00000000 		.word	USBFS_EP_0_ISR
 224 0118 00000000 		.word	USBFS_SOF_ISR
 225 011c 00000000 		.word	USBFS_EP_1_ISR
 226 0120 00000000 		.word	USBFS_EP_2_ISR
 227 0124 00000000 		.word	USBFS_DP_ISR
 228              		.cfi_endproc
 229              	.LFE1:
 230              		.size	USBFS_Init, .-USBFS_Init
 231              		.section	.text.USBFS_InitComponent,"ax",%progbits
 232              		.align	1
 233              		.global	USBFS_InitComponent
 234              		.thumb
 235              		.thumb_func
 236              		.type	USBFS_InitComponent, %function
 237              	USBFS_InitComponent:
 238              	.LFB2:
 410:Generated_Source\PSoC5/USBFS.c **** 
 411:Generated_Source\PSoC5/USBFS.c **** 
 412:Generated_Source\PSoC5/USBFS.c **** /*******************************************************************************
 413:Generated_Source\PSoC5/USBFS.c **** * Function Name: USBFS_InitComponent
 414:Generated_Source\PSoC5/USBFS.c **** ****************************************************************************//**
 415:Generated_Source\PSoC5/USBFS.c **** *
 416:Generated_Source\PSoC5/USBFS.c **** *   This function initializes the component’s global variables and initiates
 417:Generated_Source\PSoC5/USBFS.c **** *   communication with the host by pull-up D+ line.
 418:Generated_Source\PSoC5/USBFS.c **** *
 419:Generated_Source\PSoC5/USBFS.c **** * \param device:
 420:Generated_Source\PSoC5/USBFS.c **** *   Contains the device number of the desired device descriptor. The device
 421:Generated_Source\PSoC5/USBFS.c **** *   number can be found in the Device Descriptor Tab of "Configure" dialog,
 422:Generated_Source\PSoC5/USBFS.c **** *   under the settings of desired Device Descriptor, in the *Device Number*
 423:Generated_Source\PSoC5/USBFS.c **** *   field.
ARM GAS  C:\Users\rabbit\AppData\Local\Temp\ccUovuGe.s 			page 13


 424:Generated_Source\PSoC5/USBFS.c **** *  \param mode:
 425:Generated_Source\PSoC5/USBFS.c **** *   The operating voltage. This determines whether the voltage regulator
 426:Generated_Source\PSoC5/USBFS.c **** *   is enabled for 5V operation or if pass through mode is used for 3.3V
 427:Generated_Source\PSoC5/USBFS.c **** *   operation. Symbolic names and their associated values are given in the
 428:Generated_Source\PSoC5/USBFS.c **** *   following list.
 429:Generated_Source\PSoC5/USBFS.c **** *
 430:Generated_Source\PSoC5/USBFS.c **** *       *USBFS_3V_OPERATION* - Disable voltage regulator and pass-
 431:Generated_Source\PSoC5/USBFS.c **** *                                      through Vcc for pull-up
 432:Generated_Source\PSoC5/USBFS.c **** *
 433:Generated_Source\PSoC5/USBFS.c **** *       *USBFS_5V_OPERATION* - Enable voltage regulator and use
 434:Generated_Source\PSoC5/USBFS.c **** *                                      regulator for pull-up
 435:Generated_Source\PSoC5/USBFS.c **** *
 436:Generated_Source\PSoC5/USBFS.c **** *       *USBFS_DWR_POWER_OPERATION* - Enable or disable the voltage
 437:Generated_Source\PSoC5/USBFS.c **** *                                      regulator depending on the power supply
 438:Generated_Source\PSoC5/USBFS.c **** *                                      voltage configuration in the DWR tab.
 439:Generated_Source\PSoC5/USBFS.c **** *                                      For PSoC 3/5LP devices, the VDDD supply
 440:Generated_Source\PSoC5/USBFS.c **** *                                      voltage is considered and for PSoC 4A-L,
 441:Generated_Source\PSoC5/USBFS.c **** *                                      the VBUS supply voltage is considered.
 442:Generated_Source\PSoC5/USBFS.c **** *
 443:Generated_Source\PSoC5/USBFS.c **** * \globalvars
 444:Generated_Source\PSoC5/USBFS.c **** *   \ref USBFS_device
 445:Generated_Source\PSoC5/USBFS.c **** *   \ref USBFS_transferState
 446:Generated_Source\PSoC5/USBFS.c **** *   \ref USBFS_configuration
 447:Generated_Source\PSoC5/USBFS.c **** *   \ref USBFS_deviceStatus
 448:Generated_Source\PSoC5/USBFS.c **** *
 449:Generated_Source\PSoC5/USBFS.c **** *   \ref USBFS_deviceAddress - Contains the current device address. This
 450:Generated_Source\PSoC5/USBFS.c **** *       variable is initialized to zero in this API. The Host starts to communicate
 451:Generated_Source\PSoC5/USBFS.c **** *      to the device with address 0 and then sets it to a whatever value using a
 452:Generated_Source\PSoC5/USBFS.c **** *      SET_ADDRESS request.
 453:Generated_Source\PSoC5/USBFS.c **** *
 454:Generated_Source\PSoC5/USBFS.c **** *   \ref USBFS_lastPacketSize - Initialized to 0;
 455:Generated_Source\PSoC5/USBFS.c **** *
 456:Generated_Source\PSoC5/USBFS.c **** * \reentrant
 457:Generated_Source\PSoC5/USBFS.c **** *  No.
 458:Generated_Source\PSoC5/USBFS.c **** *
 459:Generated_Source\PSoC5/USBFS.c **** *******************************************************************************/
 460:Generated_Source\PSoC5/USBFS.c **** void USBFS_InitComponent(uint8 device, uint8 mode) 
 461:Generated_Source\PSoC5/USBFS.c **** {
 239              		.loc 1 461 0
 240              		.cfi_startproc
 241              		@ args = 0, pretend = 0, frame = 0
 242              		@ frame_needed = 0, uses_anonymous_args = 0
 243              	.LVL20:
 244 0000 08B5     		push	{r3, lr}
 245              		.cfi_def_cfa_offset 8
 246              		.cfi_offset 3, -8
 247              		.cfi_offset 14, -4
 462:Generated_Source\PSoC5/USBFS.c ****     /* Initialize _hidProtocol variable to comply with
 463:Generated_Source\PSoC5/USBFS.c ****     *  HID 7.2.6 Set_Protocol Request:
 464:Generated_Source\PSoC5/USBFS.c ****     *  "When initialized, all devices default to report protocol."
 465:Generated_Source\PSoC5/USBFS.c ****     */
 466:Generated_Source\PSoC5/USBFS.c **** #if defined(USBFS_ENABLE_HID_CLASS)
 467:Generated_Source\PSoC5/USBFS.c ****     uint8 i;
 468:Generated_Source\PSoC5/USBFS.c **** 
 469:Generated_Source\PSoC5/USBFS.c ****     for (i = 0u; i < USBFS_MAX_INTERFACES_NUMBER; i++)
 470:Generated_Source\PSoC5/USBFS.c ****     {
 471:Generated_Source\PSoC5/USBFS.c ****         USBFS_hidProtocol[i] = USBFS_PROTOCOL_REPORT;
ARM GAS  C:\Users\rabbit\AppData\Local\Temp\ccUovuGe.s 			page 14


 248              		.loc 1 471 0
 249 0002 1C4B     		ldr	r3, .L13
 250 0004 0122     		movs	r2, #1
 251 0006 1A70     		strb	r2, [r3]
 252              	.LVL21:
 472:Generated_Source\PSoC5/USBFS.c ****     }
 473:Generated_Source\PSoC5/USBFS.c **** #endif /* USBFS_ENABLE_HID_CLASS */
 474:Generated_Source\PSoC5/USBFS.c **** 
 475:Generated_Source\PSoC5/USBFS.c ****     /* Store device number to access descriptor. */
 476:Generated_Source\PSoC5/USBFS.c ****     USBFS_device = device;
 253              		.loc 1 476 0
 254 0008 1B4B     		ldr	r3, .L13+4
 255 000a 1870     		strb	r0, [r3]
 477:Generated_Source\PSoC5/USBFS.c **** 
 478:Generated_Source\PSoC5/USBFS.c ****     /* Reset component internal variables. */
 479:Generated_Source\PSoC5/USBFS.c ****     USBFS_transferState   = USBFS_TRANS_STATE_IDLE;
 256              		.loc 1 479 0
 257 000c 1B48     		ldr	r0, .L13+8
 258              	.LVL22:
 259 000e 0023     		movs	r3, #0
 260              	.LVL23:
 261 0010 0370     		strb	r3, [r0]
 262              	.LVL24:
 480:Generated_Source\PSoC5/USBFS.c ****     USBFS_configurationChanged = 0u;
 263              		.loc 1 480 0
 264 0012 1B48     		ldr	r0, .L13+12
 265 0014 0370     		strb	r3, [r0]
 481:Generated_Source\PSoC5/USBFS.c ****     USBFS_configuration   = 0u;
 266              		.loc 1 481 0
 267 0016 1B48     		ldr	r0, .L13+16
 268 0018 0370     		strb	r3, [r0]
 482:Generated_Source\PSoC5/USBFS.c ****     USBFS_interfaceNumber = 0u;
 269              		.loc 1 482 0
 270 001a 1B48     		ldr	r0, .L13+20
 271 001c 0370     		strb	r3, [r0]
 483:Generated_Source\PSoC5/USBFS.c ****     USBFS_deviceAddress   = 0u;
 272              		.loc 1 483 0
 273 001e 1B48     		ldr	r0, .L13+24
 274 0020 0370     		strb	r3, [r0]
 484:Generated_Source\PSoC5/USBFS.c ****     USBFS_deviceStatus    = 0u;
 275              		.loc 1 484 0
 276 0022 1B48     		ldr	r0, .L13+28
 277 0024 0370     		strb	r3, [r0]
 485:Generated_Source\PSoC5/USBFS.c ****     USBFS_lastPacketSize  = 0u;
 278              		.loc 1 485 0
 279 0026 1B48     		ldr	r0, .L13+32
 280 0028 0370     		strb	r3, [r0]
 486:Generated_Source\PSoC5/USBFS.c **** 
 487:Generated_Source\PSoC5/USBFS.c ****     /* Enable component interrupts. */
 488:Generated_Source\PSoC5/USBFS.c **** #if (CY_PSOC4)
 489:Generated_Source\PSoC5/USBFS.c ****     CyIntEnable(USBFS_INTR_HI_VECT_NUM);
 490:Generated_Source\PSoC5/USBFS.c ****     CyIntEnable(USBFS_INTR_MED_VECT_NUM);
 491:Generated_Source\PSoC5/USBFS.c ****     CyIntEnable(USBFS_INTR_LO_VECT_NUM);
 492:Generated_Source\PSoC5/USBFS.c **** #else
 493:Generated_Source\PSoC5/USBFS.c ****     CyIntEnable(USBFS_BUS_RESET_VECT_NUM);
 281              		.loc 1 493 0
 282 002a 1B4B     		ldr	r3, .L13+36
ARM GAS  C:\Users\rabbit\AppData\Local\Temp\ccUovuGe.s 			page 15


 283 002c 4FF40000 		mov	r0, #8388608
 284 0030 1860     		str	r0, [r3]
 494:Generated_Source\PSoC5/USBFS.c ****     CyIntEnable(USBFS_EP_0_VECT_NUM);
 285              		.loc 1 494 0
 286 0032 4FF08070 		mov	r0, #16777216
 287 0036 1860     		str	r0, [r3]
 495:Generated_Source\PSoC5/USBFS.c **** 
 496:Generated_Source\PSoC5/USBFS.c ****     #if (USBFS_SOF_ISR_ACTIVE)
 497:Generated_Source\PSoC5/USBFS.c ****         CyIntEnable(USBFS_SOF_VECT_NUM);
 288              		.loc 1 497 0
 289 0038 4FF40010 		mov	r0, #2097152
 290 003c 1860     		str	r0, [r3]
 498:Generated_Source\PSoC5/USBFS.c ****     #endif /* (USBFS_SOF_ISR_ACTIVE) */
 499:Generated_Source\PSoC5/USBFS.c **** 
 500:Generated_Source\PSoC5/USBFS.c ****     #if (USBFS_EP1_ISR_ACTIVE)
 501:Generated_Source\PSoC5/USBFS.c ****         CyIntEnable(USBFS_EP_1_VECT_NUM);
 291              		.loc 1 501 0
 292 003e 1A60     		str	r2, [r3]
 502:Generated_Source\PSoC5/USBFS.c ****     #endif /* (USBFS_EP1_ISR_ACTIVE) */
 503:Generated_Source\PSoC5/USBFS.c **** 
 504:Generated_Source\PSoC5/USBFS.c ****     #if (USBFS_EP2_ISR_ACTIVE)
 505:Generated_Source\PSoC5/USBFS.c ****         CyIntEnable(USBFS_EP_2_VECT_NUM);
 293              		.loc 1 505 0
 294 0040 0222     		movs	r2, #2
 295 0042 1A60     		str	r2, [r3]
 296 0044 154B     		ldr	r3, .L13+40
 506:Generated_Source\PSoC5/USBFS.c ****     #endif /* (USBFS_EP5_ISR_ACTIVE) */
 507:Generated_Source\PSoC5/USBFS.c **** 
 508:Generated_Source\PSoC5/USBFS.c ****     #if (USBFS_EP3_ISR_ACTIVE)
 509:Generated_Source\PSoC5/USBFS.c ****         CyIntEnable(USBFS_EP_3_VECT_NUM);
 510:Generated_Source\PSoC5/USBFS.c ****     #endif /* (USBFS_EP5_ISR_ACTIVE) */
 511:Generated_Source\PSoC5/USBFS.c **** 
 512:Generated_Source\PSoC5/USBFS.c ****     #if (USBFS_EP4_ISR_ACTIVE)
 513:Generated_Source\PSoC5/USBFS.c ****         CyIntEnable(USBFS_EP_4_VECT_NUM);
 514:Generated_Source\PSoC5/USBFS.c ****     #endif /* (USBFS_EP5_ISR_ACTIVE) */
 515:Generated_Source\PSoC5/USBFS.c **** 
 516:Generated_Source\PSoC5/USBFS.c ****     #if (USBFS_EP5_ISR_ACTIVE)
 517:Generated_Source\PSoC5/USBFS.c ****         CyIntEnable(USBFS_EP_5_VECT_NUM);
 518:Generated_Source\PSoC5/USBFS.c ****     #endif /* (USBFS_EP5_ISR_ACTIVE) */
 519:Generated_Source\PSoC5/USBFS.c **** 
 520:Generated_Source\PSoC5/USBFS.c ****     #if (USBFS_EP6_ISR_ACTIVE)
 521:Generated_Source\PSoC5/USBFS.c ****         CyIntEnable(USBFS_EP_6_VECT_NUM);
 522:Generated_Source\PSoC5/USBFS.c ****     #endif /* USBFS_EP6_ISR_REMOVE */
 523:Generated_Source\PSoC5/USBFS.c **** 
 524:Generated_Source\PSoC5/USBFS.c ****     #if (USBFS_EP7_ISR_ACTIVE)
 525:Generated_Source\PSoC5/USBFS.c ****         CyIntEnable(USBFS_EP_7_VECT_NUM);
 526:Generated_Source\PSoC5/USBFS.c ****     #endif /* (USBFS_EP7_ISR_ACTIVE) */
 527:Generated_Source\PSoC5/USBFS.c **** 
 528:Generated_Source\PSoC5/USBFS.c ****     #if (USBFS_EP8_ISR_ACTIVE)
 529:Generated_Source\PSoC5/USBFS.c ****         CyIntEnable(USBFS_EP_8_VECT_NUM);
 530:Generated_Source\PSoC5/USBFS.c ****     #endif /* (USBFS_EP8_ISR_ACTIVE) */
 531:Generated_Source\PSoC5/USBFS.c **** #endif /* (CY_PSOC4) */
 532:Generated_Source\PSoC5/USBFS.c **** 
 533:Generated_Source\PSoC5/USBFS.c **** #if (USBFS_EP_MANAGEMENT_DMA && USBFS_ARB_ISR_ACTIVE)
 534:Generated_Source\PSoC5/USBFS.c ****     /* Enable ARB EP interrupt sources. */
 535:Generated_Source\PSoC5/USBFS.c ****     USBFS_ARB_INT_EN_REG = USBFS_DEFAULT_ARB_INT_EN;
 536:Generated_Source\PSoC5/USBFS.c **** 
ARM GAS  C:\Users\rabbit\AppData\Local\Temp\ccUovuGe.s 			page 16


 537:Generated_Source\PSoC5/USBFS.c ****     #if (CY_PSOC3 || CY_PSOC5)
 538:Generated_Source\PSoC5/USBFS.c ****         CyIntEnable(USBFS_ARB_VECT_NUM);
 539:Generated_Source\PSoC5/USBFS.c ****     #endif /* (CY_PSOC3 || CY_PSOC5) */
 540:Generated_Source\PSoC5/USBFS.c **** #endif   /* (USBFS_EP_MANAGEMENT_DMA && USBFS_ARB_ISR_ACTIVE) */
 541:Generated_Source\PSoC5/USBFS.c **** 
 542:Generated_Source\PSoC5/USBFS.c **** /* Arbiter configuration for DMA transfers. */
 543:Generated_Source\PSoC5/USBFS.c **** #if (USBFS_EP_MANAGEMENT_DMA)
 544:Generated_Source\PSoC5/USBFS.c ****     /* Configure Arbiter for Manual or Auto DMA operation and clear configuration completion. */
 545:Generated_Source\PSoC5/USBFS.c ****     USBFS_ARB_CFG_REG = USBFS_DEFAULT_ARB_CFG;
 546:Generated_Source\PSoC5/USBFS.c **** 
 547:Generated_Source\PSoC5/USBFS.c ****     #if (CY_PSOC4)
 548:Generated_Source\PSoC5/USBFS.c ****         /* Enable DMA operation. */
 549:Generated_Source\PSoC5/USBFS.c ****         CyDmaEnable();
 550:Generated_Source\PSoC5/USBFS.c **** 
 551:Generated_Source\PSoC5/USBFS.c ****         #if (USBFS_EP_MANAGEMENT_DMA_AUTO)
 552:Generated_Source\PSoC5/USBFS.c ****             /* Change DMA priority to be highest. */
 553:Generated_Source\PSoC5/USBFS.c ****              CyIntSetPriority(CYDMA_INTR_NUMBER, USBFS_DMA_AUTO_INTR_PRIO);
 554:Generated_Source\PSoC5/USBFS.c ****         #endif /* (USBFS_EP_MANAGEMENT_DMA_AUTO) */
 555:Generated_Source\PSoC5/USBFS.c ****     #endif /* (CY_PSOC4) */
 556:Generated_Source\PSoC5/USBFS.c **** 
 557:Generated_Source\PSoC5/USBFS.c ****     #if (USBFS_EP_MANAGEMENT_DMA_AUTO)
 558:Generated_Source\PSoC5/USBFS.c ****         #if (CY_PSOC4)
 559:Generated_Source\PSoC5/USBFS.c ****             /* Enable DMA interrupt to handle DMA management. */
 560:Generated_Source\PSoC5/USBFS.c ****             CyIntEnable(CYDMA_INTR_NUMBER);
 561:Generated_Source\PSoC5/USBFS.c ****         #else
 562:Generated_Source\PSoC5/USBFS.c ****             #if (USBFS_EP_DMA_AUTO_OPT == 0u)
 563:Generated_Source\PSoC5/USBFS.c ****                 /* Initialize interrupts which handle verification of successful DMA transaction. *
 564:Generated_Source\PSoC5/USBFS.c ****                 USBFS_EP_DMA_Done_isr_StartEx(&USBFS_EP_DMA_DONE_ISR);
 565:Generated_Source\PSoC5/USBFS.c ****                 USBFS_EP17_DMA_Done_SR_InterruptEnable();
 566:Generated_Source\PSoC5/USBFS.c ****                 USBFS_EP8_DMA_Done_SR_InterruptEnable();
 567:Generated_Source\PSoC5/USBFS.c ****             #endif /* (USBFS_EP_DMA_AUTO_OPT == 0u) */
 568:Generated_Source\PSoC5/USBFS.c ****         #endif /* (CY_PSOC4) */
 569:Generated_Source\PSoC5/USBFS.c ****     #endif /* (USBFS_EP_MANAGEMENT_DMA_AUTO) */
 570:Generated_Source\PSoC5/USBFS.c **** #endif /* (USBFS_EP_MANAGEMENT_DMA) */
 571:Generated_Source\PSoC5/USBFS.c **** 
 572:Generated_Source\PSoC5/USBFS.c ****     /* Enable USB regulator depends on operation voltage. IMO Locking is enabled in Init(). */
 573:Generated_Source\PSoC5/USBFS.c ****     switch(mode)
 297              		.loc 1 573 0
 298 0046 19B9     		cbnz	r1, .L12
 574:Generated_Source\PSoC5/USBFS.c ****     {
 575:Generated_Source\PSoC5/USBFS.c ****     case USBFS_3V_OPERATION:
 576:Generated_Source\PSoC5/USBFS.c ****         /* Disable regulator for 3V operation. */
 577:Generated_Source\PSoC5/USBFS.c ****         USBFS_CR1_REG &= (uint8) ~USBFS_CR1_REG_ENABLE;
 299              		.loc 1 577 0
 300 0048 1A78     		ldrb	r2, [r3]	@ zero_extendqisi2
 301 004a 02F0FE02 		and	r2, r2, #254
 302 004e 02E0     		b	.L10
 303              	.L12:
 578:Generated_Source\PSoC5/USBFS.c ****         break;
 579:Generated_Source\PSoC5/USBFS.c **** 
 580:Generated_Source\PSoC5/USBFS.c ****     case USBFS_5V_OPERATION:
 581:Generated_Source\PSoC5/USBFS.c ****         /* Enable regulator for 5V operation. */
 582:Generated_Source\PSoC5/USBFS.c ****         USBFS_CR1_REG |= (uint8)  USBFS_CR1_REG_ENABLE;
 583:Generated_Source\PSoC5/USBFS.c ****         break;
 584:Generated_Source\PSoC5/USBFS.c **** 
 585:Generated_Source\PSoC5/USBFS.c ****     default: /* Check DWR settings of USB power supply. */
 586:Generated_Source\PSoC5/USBFS.c ****     #if (USBFS_VDDD_MV < USBFS_3500MV)
ARM GAS  C:\Users\rabbit\AppData\Local\Temp\ccUovuGe.s 			page 17


 587:Generated_Source\PSoC5/USBFS.c ****         /* Disable regulator for 3V operation. */
 588:Generated_Source\PSoC5/USBFS.c ****         USBFS_CR1_REG &= (uint8) ~USBFS_CR1_REG_ENABLE;
 589:Generated_Source\PSoC5/USBFS.c ****     #else
 590:Generated_Source\PSoC5/USBFS.c ****         /* Enable regulator for 5V operation. */
 591:Generated_Source\PSoC5/USBFS.c ****         USBFS_CR1_REG |= (uint8)  USBFS_CR1_REG_ENABLE;
 304              		.loc 1 591 0
 305 0050 1A78     		ldrb	r2, [r3]	@ zero_extendqisi2
 306 0052 42F00102 		orr	r2, r2, #1
 307              	.L10:
 308 0056 1A70     		strb	r2, [r3]
 592:Generated_Source\PSoC5/USBFS.c ****     #endif /* (USBFS_VDDD_MV < USBFS_3500MV) */
 593:Generated_Source\PSoC5/USBFS.c ****         break;
 594:Generated_Source\PSoC5/USBFS.c ****     }
 595:Generated_Source\PSoC5/USBFS.c **** 
 596:Generated_Source\PSoC5/USBFS.c **** #if (CY_PSOC4)
 597:Generated_Source\PSoC5/USBFS.c ****     /* Clear bus activity. */
 598:Generated_Source\PSoC5/USBFS.c ****     USBFS_CR1_REG &= (uint32) ~USBFS_CR1_BUS_ACTIVITY;
 599:Generated_Source\PSoC5/USBFS.c **** 
 600:Generated_Source\PSoC5/USBFS.c ****     /* Clear EP0 count register. */
 601:Generated_Source\PSoC5/USBFS.c ****     USBFS_EP0_CNT_REG = USBFS_CLEAR_REG;
 602:Generated_Source\PSoC5/USBFS.c **** 
 603:Generated_Source\PSoC5/USBFS.c ****     /* Set EP0.CR: ACK Setup, NAK IN/OUT. */
 604:Generated_Source\PSoC5/USBFS.c ****     USBFS_EP0_CR_REG = USBFS_MODE_NAK_IN_OUT;
 605:Generated_Source\PSoC5/USBFS.c **** 
 606:Generated_Source\PSoC5/USBFS.c ****     #if (USBFS_LPM_ACTIVE)
 607:Generated_Source\PSoC5/USBFS.c ****         if (NULL != USBFS_GetBOSPtr())
 608:Generated_Source\PSoC5/USBFS.c ****         {
 609:Generated_Source\PSoC5/USBFS.c ****             /* Enable LPM and acknowledge LPM packets for active device.
 610:Generated_Source\PSoC5/USBFS.c ****             * Reset NYET_EN and SUB_RESP bits in the LPM_CTRL register.
 611:Generated_Source\PSoC5/USBFS.c ****             */
 612:Generated_Source\PSoC5/USBFS.c ****             USBFS_LPM_CTRL_REG = (USBFS_LPM_CTRL_LPM_EN | \
 613:Generated_Source\PSoC5/USBFS.c ****                                              USBFS_LPM_CTRL_LPM_ACK_RESP);
 614:Generated_Source\PSoC5/USBFS.c ****         }
 615:Generated_Source\PSoC5/USBFS.c ****         else
 616:Generated_Source\PSoC5/USBFS.c ****         {
 617:Generated_Source\PSoC5/USBFS.c ****             /* Disable LPM for active device. */
 618:Generated_Source\PSoC5/USBFS.c ****             USBFS_LPM_CTRL_REG &= (uint32) ~USBFS_LPM_CTRL_LPM_EN;
 619:Generated_Source\PSoC5/USBFS.c ****         }
 620:Generated_Source\PSoC5/USBFS.c ****     #endif /* (USBFS_LPM_ACTIVE) */
 621:Generated_Source\PSoC5/USBFS.c **** 
 622:Generated_Source\PSoC5/USBFS.c ****     /* Enable device to responds to USB traffic with address 0. */
 623:Generated_Source\PSoC5/USBFS.c ****     USBFS_CR0_REG = USBFS_DEFUALT_CR0;
 624:Generated_Source\PSoC5/USBFS.c **** 
 625:Generated_Source\PSoC5/USBFS.c **** #else
 626:Generated_Source\PSoC5/USBFS.c ****     /* Set EP0.CR: ACK Setup, STALL IN/OUT. */
 627:Generated_Source\PSoC5/USBFS.c ****     USBFS_EP0_CR_REG = USBFS_MODE_STALL_IN_OUT;
 309              		.loc 1 627 0
 310 0058 114B     		ldr	r3, .L13+44
 311 005a 0322     		movs	r2, #3
 312 005c 1A70     		strb	r2, [r3]
 628:Generated_Source\PSoC5/USBFS.c **** 
 629:Generated_Source\PSoC5/USBFS.c ****     /* Enable device to respond to USB traffic with address 0. */
 630:Generated_Source\PSoC5/USBFS.c ****     USBFS_CR0_REG = USBFS_DEFUALT_CR0;
 313              		.loc 1 630 0
 314 005e 8022     		movs	r2, #128
 315 0060 03F8202C 		strb	r2, [r3, #-32]
 631:Generated_Source\PSoC5/USBFS.c ****     CyDelayCycles(USBFS_WAIT_CR0_REG_STABILITY);
ARM GAS  C:\Users\rabbit\AppData\Local\Temp\ccUovuGe.s 			page 18


 316              		.loc 1 631 0
 317 0064 0120     		movs	r0, #1
 318 0066 FFF7FEFF 		bl	CyDelayCycles
 319              	.LVL25:
 632:Generated_Source\PSoC5/USBFS.c **** #endif /* (CY_PSOC4) */
 633:Generated_Source\PSoC5/USBFS.c **** 
 634:Generated_Source\PSoC5/USBFS.c ****     /* Enable D+ pull-up and keep USB control on IO. */
 635:Generated_Source\PSoC5/USBFS.c ****     USBFS_USBIO_CR1_REG = USBFS_USBIO_CR1_USBPUEN;
 320              		.loc 1 635 0
 321 006a 0E4B     		ldr	r3, .L13+48
 322 006c 0422     		movs	r2, #4
 323 006e 1A70     		strb	r2, [r3]
 324 0070 08BD     		pop	{r3, pc}
 325              	.L14:
 326 0072 00BF     		.align	2
 327              	.L13:
 328 0074 00000000 		.word	USBFS_hidProtocol
 329 0078 00000000 		.word	USBFS_device
 330 007c 00000000 		.word	USBFS_transferState
 331 0080 00000000 		.word	USBFS_configurationChanged
 332 0084 00000000 		.word	USBFS_configuration
 333 0088 00000000 		.word	USBFS_interfaceNumber
 334 008c 00000000 		.word	USBFS_deviceAddress
 335 0090 00000000 		.word	USBFS_deviceStatus
 336 0094 00000000 		.word	USBFS_lastPacketSize
 337 0098 00E100E0 		.word	-536813312
 338 009c 09600040 		.word	1073766409
 339 00a0 28600040 		.word	1073766440
 340 00a4 12600040 		.word	1073766418
 341              		.cfi_endproc
 342              	.LFE2:
 343              		.size	USBFS_InitComponent, .-USBFS_InitComponent
 344              		.section	.text.USBFS_Start,"ax",%progbits
 345              		.align	1
 346              		.global	USBFS_Start
 347              		.thumb
 348              		.thumb_func
 349              		.type	USBFS_Start, %function
 350              	USBFS_Start:
 351              	.LFB0:
 187:Generated_Source\PSoC5/USBFS.c ****     if (0u == USBFS_initVar)
 352              		.loc 1 187 0
 353              		.cfi_startproc
 354              		@ args = 0, pretend = 0, frame = 0
 355              		@ frame_needed = 0, uses_anonymous_args = 0
 356              	.LVL26:
 357 0000 70B5     		push	{r4, r5, r6, lr}
 358              		.cfi_def_cfa_offset 16
 359              		.cfi_offset 4, -16
 360              		.cfi_offset 5, -12
 361              		.cfi_offset 6, -8
 362              		.cfi_offset 14, -4
 188:Generated_Source\PSoC5/USBFS.c ****     {
 363              		.loc 1 188 0
 364 0002 074C     		ldr	r4, .L17
 187:Generated_Source\PSoC5/USBFS.c ****     if (0u == USBFS_initVar)
 365              		.loc 1 187 0
ARM GAS  C:\Users\rabbit\AppData\Local\Temp\ccUovuGe.s 			page 19


 366 0004 0546     		mov	r5, r0
 188:Generated_Source\PSoC5/USBFS.c ****     {
 367              		.loc 1 188 0
 368 0006 2378     		ldrb	r3, [r4]	@ zero_extendqisi2
 187:Generated_Source\PSoC5/USBFS.c ****     if (0u == USBFS_initVar)
 369              		.loc 1 187 0
 370 0008 0E46     		mov	r6, r1
 188:Generated_Source\PSoC5/USBFS.c ****     {
 371              		.loc 1 188 0
 372 000a 1BB9     		cbnz	r3, .L16
 190:Generated_Source\PSoC5/USBFS.c ****         USBFS_initVar = 1u;
 373              		.loc 1 190 0
 374 000c FFF7FEFF 		bl	USBFS_Init
 375              	.LVL27:
 191:Generated_Source\PSoC5/USBFS.c ****     }
 376              		.loc 1 191 0
 377 0010 0123     		movs	r3, #1
 378 0012 2370     		strb	r3, [r4]
 379              	.L16:
 194:Generated_Source\PSoC5/USBFS.c **** }
 380              		.loc 1 194 0
 381 0014 3146     		mov	r1, r6
 382 0016 2846     		mov	r0, r5
 195:Generated_Source\PSoC5/USBFS.c **** 
 383              		.loc 1 195 0
 384 0018 BDE87040 		pop	{r4, r5, r6, lr}
 385              		.cfi_restore 14
 386              		.cfi_restore 6
 387              		.cfi_restore 5
 388              		.cfi_restore 4
 389              		.cfi_def_cfa_offset 0
 194:Generated_Source\PSoC5/USBFS.c **** }
 390              		.loc 1 194 0
 391 001c FFF7FEBF 		b	USBFS_InitComponent
 392              	.LVL28:
 393              	.L18:
 394              		.align	2
 395              	.L17:
 396 0020 00000000 		.word	.LANCHOR0
 397              		.cfi_endproc
 398              	.LFE0:
 399              		.size	USBFS_Start, .-USBFS_Start
 400              		.section	.text.USBFS_ReInitComponent,"ax",%progbits
 401              		.align	1
 402              		.global	USBFS_ReInitComponent
 403              		.thumb
 404              		.thumb_func
 405              		.type	USBFS_ReInitComponent, %function
 406              	USBFS_ReInitComponent:
 407              	.LFB3:
 636:Generated_Source\PSoC5/USBFS.c **** }
 637:Generated_Source\PSoC5/USBFS.c **** 
 638:Generated_Source\PSoC5/USBFS.c **** 
 639:Generated_Source\PSoC5/USBFS.c **** /*******************************************************************************
 640:Generated_Source\PSoC5/USBFS.c **** * Function Name: USBFS_ReInitComponent
 641:Generated_Source\PSoC5/USBFS.c **** ****************************************************************************//**
 642:Generated_Source\PSoC5/USBFS.c **** *
ARM GAS  C:\Users\rabbit\AppData\Local\Temp\ccUovuGe.s 			page 20


 643:Generated_Source\PSoC5/USBFS.c **** *  This function reinitialize the component configuration and is
 644:Generated_Source\PSoC5/USBFS.c **** *  intend to be called from the Reset interrupt.
 645:Generated_Source\PSoC5/USBFS.c **** *
 646:Generated_Source\PSoC5/USBFS.c **** * \globalvars
 647:Generated_Source\PSoC5/USBFS.c **** *   USBFS_device - Contains the device number of the desired Device
 648:Generated_Source\PSoC5/USBFS.c **** *        Descriptor. The device number can be found in the Device Descriptor tab
 649:Generated_Source\PSoC5/USBFS.c **** *       of the Configure dialog, under the settings of the desired Device Descriptor,
 650:Generated_Source\PSoC5/USBFS.c **** *       in the Device Number field.
 651:Generated_Source\PSoC5/USBFS.c **** *   USBFS_transferState - This variable is used by the communication
 652:Generated_Source\PSoC5/USBFS.c **** *       functions to handle the current transfer state. Initialized to
 653:Generated_Source\PSoC5/USBFS.c **** *       TRANS_STATE_IDLE in this API.
 654:Generated_Source\PSoC5/USBFS.c **** *   USBFS_configuration - Contains the current configuration number
 655:Generated_Source\PSoC5/USBFS.c **** *       set by the Host using a SET_CONFIGURATION request.
 656:Generated_Source\PSoC5/USBFS.c **** *       Initialized to zero in this API.
 657:Generated_Source\PSoC5/USBFS.c **** *   USBFS_deviceAddress - Contains the current device address. This
 658:Generated_Source\PSoC5/USBFS.c **** *       variable is initialized to zero in this API. The Host starts to communicate
 659:Generated_Source\PSoC5/USBFS.c **** *      to the device with address 0 and then sets it to a whatever value using
 660:Generated_Source\PSoC5/USBFS.c **** *      a SET_ADDRESS request.
 661:Generated_Source\PSoC5/USBFS.c **** *   USBFS_deviceStatus - Initialized to 0.
 662:Generated_Source\PSoC5/USBFS.c **** *       This is a two-bit variable which contains the power status in the first bit
 663:Generated_Source\PSoC5/USBFS.c **** *       (DEVICE_STATUS_BUS_POWERED or DEVICE_STATUS_SELF_POWERED) and the remote
 664:Generated_Source\PSoC5/USBFS.c **** *       wakeup status (DEVICE_STATUS_REMOTE_WAKEUP) in the second bit.
 665:Generated_Source\PSoC5/USBFS.c **** *   USBFS_lastPacketSize - Initialized to 0;
 666:Generated_Source\PSoC5/USBFS.c **** *
 667:Generated_Source\PSoC5/USBFS.c **** * \reentrant
 668:Generated_Source\PSoC5/USBFS.c **** *  No.
 669:Generated_Source\PSoC5/USBFS.c **** *
 670:Generated_Source\PSoC5/USBFS.c **** *******************************************************************************/
 671:Generated_Source\PSoC5/USBFS.c **** void USBFS_ReInitComponent(void) 
 672:Generated_Source\PSoC5/USBFS.c **** {
 408              		.loc 1 672 0
 409              		.cfi_startproc
 410              		@ args = 0, pretend = 0, frame = 0
 411              		@ frame_needed = 0, uses_anonymous_args = 0
 412              		@ link register save eliminated.
 413              	.LVL29:
 673:Generated_Source\PSoC5/USBFS.c ****     /* Initialize _hidProtocol variable to comply with HID 7.2.6 Set_Protocol
 674:Generated_Source\PSoC5/USBFS.c ****     *  Request: "When initialized, all devices default to report protocol."
 675:Generated_Source\PSoC5/USBFS.c ****     */
 676:Generated_Source\PSoC5/USBFS.c **** #if defined(USBFS_ENABLE_HID_CLASS)
 677:Generated_Source\PSoC5/USBFS.c ****     uint8 i;
 678:Generated_Source\PSoC5/USBFS.c **** 
 679:Generated_Source\PSoC5/USBFS.c ****     for (i = 0u; i < USBFS_MAX_INTERFACES_NUMBER; i++)
 680:Generated_Source\PSoC5/USBFS.c ****     {
 681:Generated_Source\PSoC5/USBFS.c ****         USBFS_hidProtocol[i] = USBFS_PROTOCOL_REPORT;
 414              		.loc 1 681 0
 415 0000 0C4B     		ldr	r3, .L20
 416 0002 0122     		movs	r2, #1
 417 0004 1A70     		strb	r2, [r3]
 418              	.LVL30:
 682:Generated_Source\PSoC5/USBFS.c ****     }
 683:Generated_Source\PSoC5/USBFS.c **** #endif /* USBFS_ENABLE_HID_CLASS */
 684:Generated_Source\PSoC5/USBFS.c **** 
 685:Generated_Source\PSoC5/USBFS.c ****     /* Reset component internal variables. */
 686:Generated_Source\PSoC5/USBFS.c ****     USBFS_transferState   = USBFS_TRANS_STATE_IDLE;
 419              		.loc 1 686 0
 420 0006 0C4A     		ldr	r2, .L20+4
ARM GAS  C:\Users\rabbit\AppData\Local\Temp\ccUovuGe.s 			page 21


 421 0008 0023     		movs	r3, #0
 422 000a 1370     		strb	r3, [r2]
 687:Generated_Source\PSoC5/USBFS.c ****     USBFS_configurationChanged = 0u;
 423              		.loc 1 687 0
 424 000c 0B4A     		ldr	r2, .L20+8
 425 000e 1370     		strb	r3, [r2]
 688:Generated_Source\PSoC5/USBFS.c ****     USBFS_configuration   = 0u;
 426              		.loc 1 688 0
 427 0010 0B4A     		ldr	r2, .L20+12
 428 0012 1370     		strb	r3, [r2]
 689:Generated_Source\PSoC5/USBFS.c ****     USBFS_interfaceNumber = 0u;
 429              		.loc 1 689 0
 430 0014 0B4A     		ldr	r2, .L20+16
 431 0016 1370     		strb	r3, [r2]
 690:Generated_Source\PSoC5/USBFS.c ****     USBFS_deviceAddress   = 0u;
 432              		.loc 1 690 0
 433 0018 0B4A     		ldr	r2, .L20+20
 434 001a 1370     		strb	r3, [r2]
 691:Generated_Source\PSoC5/USBFS.c ****     USBFS_deviceStatus    = 0u;
 435              		.loc 1 691 0
 436 001c 0B4A     		ldr	r2, .L20+24
 437 001e 1370     		strb	r3, [r2]
 692:Generated_Source\PSoC5/USBFS.c ****     USBFS_lastPacketSize  = 0u;
 438              		.loc 1 692 0
 439 0020 0B4A     		ldr	r2, .L20+28
 440 0022 1370     		strb	r3, [r2]
 693:Generated_Source\PSoC5/USBFS.c **** 
 694:Generated_Source\PSoC5/USBFS.c **** #if (CY_PSOC4)
 695:Generated_Source\PSoC5/USBFS.c ****     /* Set EP0.CR: ACK Setup, NAK IN/OUT. */
 696:Generated_Source\PSoC5/USBFS.c ****     USBFS_EP0_CR_REG = USBFS_MODE_NAK_IN_OUT;
 697:Generated_Source\PSoC5/USBFS.c **** #else
 698:Generated_Source\PSoC5/USBFS.c ****     /* Set EP0.CR: ACK Setup, STALL IN/OUT. */
 699:Generated_Source\PSoC5/USBFS.c ****     USBFS_EP0_CR_REG = USBFS_MODE_STALL_IN_OUT;
 441              		.loc 1 699 0
 442 0024 0B4B     		ldr	r3, .L20+32
 443 0026 0322     		movs	r2, #3
 444 0028 1A70     		strb	r2, [r3]
 700:Generated_Source\PSoC5/USBFS.c **** #endif /* (CY_PSOC4) */
 701:Generated_Source\PSoC5/USBFS.c **** 
 702:Generated_Source\PSoC5/USBFS.c ****     /* Enable device to respond to USB traffic with address 0. */
 703:Generated_Source\PSoC5/USBFS.c ****     USBFS_CR0_REG = USBFS_DEFUALT_CR0;
 445              		.loc 1 703 0
 446 002a 8022     		movs	r2, #128
 447 002c 03F8202C 		strb	r2, [r3, #-32]
 448 0030 7047     		bx	lr
 449              	.L21:
 450 0032 00BF     		.align	2
 451              	.L20:
 452 0034 00000000 		.word	USBFS_hidProtocol
 453 0038 00000000 		.word	USBFS_transferState
 454 003c 00000000 		.word	USBFS_configurationChanged
 455 0040 00000000 		.word	USBFS_configuration
 456 0044 00000000 		.word	USBFS_interfaceNumber
 457 0048 00000000 		.word	USBFS_deviceAddress
 458 004c 00000000 		.word	USBFS_deviceStatus
 459 0050 00000000 		.word	USBFS_lastPacketSize
 460 0054 28600040 		.word	1073766440
ARM GAS  C:\Users\rabbit\AppData\Local\Temp\ccUovuGe.s 			page 22


 461              		.cfi_endproc
 462              	.LFE3:
 463              		.size	USBFS_ReInitComponent, .-USBFS_ReInitComponent
 464              		.section	.text.USBFS_Stop,"ax",%progbits
 465              		.align	1
 466              		.global	USBFS_Stop
 467              		.thumb
 468              		.thumb_func
 469              		.type	USBFS_Stop, %function
 470              	USBFS_Stop:
 471              	.LFB4:
 704:Generated_Source\PSoC5/USBFS.c **** }
 705:Generated_Source\PSoC5/USBFS.c **** 
 706:Generated_Source\PSoC5/USBFS.c **** 
 707:Generated_Source\PSoC5/USBFS.c **** /*******************************************************************************
 708:Generated_Source\PSoC5/USBFS.c **** * Function Name: USBFS_Stop
 709:Generated_Source\PSoC5/USBFS.c **** ****************************************************************************//**
 710:Generated_Source\PSoC5/USBFS.c **** *
 711:Generated_Source\PSoC5/USBFS.c **** *  This function shuts down the USB function including to release
 712:Generated_Source\PSoC5/USBFS.c **** *  the D+ pull-up and disabling the SIE.
 713:Generated_Source\PSoC5/USBFS.c **** *
 714:Generated_Source\PSoC5/USBFS.c **** * \globalvars
 715:Generated_Source\PSoC5/USBFS.c **** *   \ref USBFS_configuration
 716:Generated_Source\PSoC5/USBFS.c **** *
 717:Generated_Source\PSoC5/USBFS.c **** *   USBFS_deviceAddress - Contains the current device address. This
 718:Generated_Source\PSoC5/USBFS.c **** *       variable is initialized to zero in this API. The Host starts to communicate
 719:Generated_Source\PSoC5/USBFS.c **** *      to the device with address 0 and then sets it to a whatever value using
 720:Generated_Source\PSoC5/USBFS.c **** *      a SET_ADDRESS request.
 721:Generated_Source\PSoC5/USBFS.c **** *
 722:Generated_Source\PSoC5/USBFS.c **** *   \ref USBFS_deviceStatus
 723:Generated_Source\PSoC5/USBFS.c **** *
 724:Generated_Source\PSoC5/USBFS.c **** *   \ref USBFS_configurationChanged
 725:Generated_Source\PSoC5/USBFS.c **** *
 726:Generated_Source\PSoC5/USBFS.c **** *   USBFS_intiVar -  This variable is set to zero
 727:Generated_Source\PSoC5/USBFS.c **** *
 728:Generated_Source\PSoC5/USBFS.c **** *******************************************************************************/
 729:Generated_Source\PSoC5/USBFS.c **** void USBFS_Stop(void) 
 730:Generated_Source\PSoC5/USBFS.c **** {
 472              		.loc 1 730 0
 473              		.cfi_startproc
 474              		@ args = 0, pretend = 0, frame = 0
 475              		@ frame_needed = 0, uses_anonymous_args = 0
 476 0000 08B5     		push	{r3, lr}
 477              		.cfi_def_cfa_offset 8
 478              		.cfi_offset 3, -8
 479              		.cfi_offset 14, -4
 731:Generated_Source\PSoC5/USBFS.c ****     uint8 enableInterrupts;
 732:Generated_Source\PSoC5/USBFS.c **** 
 733:Generated_Source\PSoC5/USBFS.c **** #if (USBFS_EP_MANAGEMENT_DMA)
 734:Generated_Source\PSoC5/USBFS.c ****     /* Stop all DMA channels. */
 735:Generated_Source\PSoC5/USBFS.c ****     USBFS_Stop_DMA(USBFS_MAX_EP);
 736:Generated_Source\PSoC5/USBFS.c **** #endif /* (USBFS_EP_MANAGEMENT_DMA) */
 737:Generated_Source\PSoC5/USBFS.c **** 
 738:Generated_Source\PSoC5/USBFS.c ****     enableInterrupts = CyEnterCriticalSection();
 480              		.loc 1 738 0
 481 0002 FFF7FEFF 		bl	CyEnterCriticalSection
 482              	.LVL31:
ARM GAS  C:\Users\rabbit\AppData\Local\Temp\ccUovuGe.s 			page 23


 739:Generated_Source\PSoC5/USBFS.c **** 
 740:Generated_Source\PSoC5/USBFS.c ****     /* Disable USB IP to respond to USB traffic. */
 741:Generated_Source\PSoC5/USBFS.c ****     USBFS_CR0_REG &= (uint8) ~USBFS_CR0_ENABLE;
 483              		.loc 1 741 0
 484 0006 204A     		ldr	r2, .L23
 485 0008 1378     		ldrb	r3, [r2]	@ zero_extendqisi2
 486 000a 03F07F03 		and	r3, r3, #127
 487 000e 1370     		strb	r3, [r2]
 742:Generated_Source\PSoC5/USBFS.c **** 
 743:Generated_Source\PSoC5/USBFS.c ****     /* Disable D+ pull-up. */
 744:Generated_Source\PSoC5/USBFS.c ****     USBFS_USBIO_CR1_REG &= (uint8) ~ USBFS_USBIO_CR1_USBPUEN;
 488              		.loc 1 744 0
 489 0010 937A     		ldrb	r3, [r2, #10]	@ zero_extendqisi2
 490 0012 03F0FB03 		and	r3, r3, #251
 491 0016 9372     		strb	r3, [r2, #10]
 745:Generated_Source\PSoC5/USBFS.c **** 
 746:Generated_Source\PSoC5/USBFS.c **** #if (CY_PSOC4)
 747:Generated_Source\PSoC5/USBFS.c ****     /* Disable USBFS block. */
 748:Generated_Source\PSoC5/USBFS.c ****     USBFS_POWER_CTRL_REG &= (uint32) ~USBFS_POWER_CTRL_ENABLE;
 749:Generated_Source\PSoC5/USBFS.c **** #else
 750:Generated_Source\PSoC5/USBFS.c ****     /* Clear power active and standby mode templates. */
 751:Generated_Source\PSoC5/USBFS.c ****     USBFS_PM_ACT_CFG_REG  &= (uint8) ~USBFS_PM_ACT_EN_FSUSB;
 492              		.loc 1 751 0
 493 0018 A2F5E352 		sub	r2, r2, #7264
 494 001c 033A     		subs	r2, r2, #3
 495 001e 1378     		ldrb	r3, [r2]	@ zero_extendqisi2
 496 0020 03F0FE03 		and	r3, r3, #254
 497 0024 1370     		strb	r3, [r2]
 752:Generated_Source\PSoC5/USBFS.c ****     USBFS_PM_STBY_CFG_REG &= (uint8) ~USBFS_PM_STBY_EN_FSUSB;
 498              		.loc 1 752 0
 499 0026 137C     		ldrb	r3, [r2, #16]	@ zero_extendqisi2
 500 0028 03F0FE03 		and	r3, r3, #254
 501 002c 1374     		strb	r3, [r2, #16]
 753:Generated_Source\PSoC5/USBFS.c **** 
 754:Generated_Source\PSoC5/USBFS.c ****     /* Ensure single-ended disable bits are high (PRT15.INP_DIS[7:6])
 755:Generated_Source\PSoC5/USBFS.c ****      * (input receiver disabled). */
 756:Generated_Source\PSoC5/USBFS.c ****     USBFS_DM_INP_DIS_REG |= (uint8) USBFS_DM_MASK;
 502              		.loc 1 756 0
 503 002e 174B     		ldr	r3, .L23+4
 504 0030 1A78     		ldrb	r2, [r3]	@ zero_extendqisi2
 505 0032 42F08002 		orr	r2, r2, #128
 506 0036 1A70     		strb	r2, [r3]
 757:Generated_Source\PSoC5/USBFS.c ****     USBFS_DP_INP_DIS_REG |= (uint8) USBFS_DP_MASK;
 507              		.loc 1 757 0
 508 0038 1A78     		ldrb	r2, [r3]	@ zero_extendqisi2
 509 003a 42F04002 		orr	r2, r2, #64
 510 003e 1A70     		strb	r2, [r3]
 758:Generated_Source\PSoC5/USBFS.c **** 
 759:Generated_Source\PSoC5/USBFS.c **** #endif /* (CY_PSOC4) */
 760:Generated_Source\PSoC5/USBFS.c **** 
 761:Generated_Source\PSoC5/USBFS.c ****     CyExitCriticalSection(enableInterrupts);
 511              		.loc 1 761 0
 512 0040 FFF7FEFF 		bl	CyExitCriticalSection
 513              	.LVL32:
 762:Generated_Source\PSoC5/USBFS.c **** 
 763:Generated_Source\PSoC5/USBFS.c ****     /* Disable component interrupts. */
 764:Generated_Source\PSoC5/USBFS.c **** #if (CY_PSOC4)
ARM GAS  C:\Users\rabbit\AppData\Local\Temp\ccUovuGe.s 			page 24


 765:Generated_Source\PSoC5/USBFS.c ****     CyIntDisable(USBFS_INTR_HI_VECT_NUM);
 766:Generated_Source\PSoC5/USBFS.c ****     CyIntDisable(USBFS_INTR_LO_VECT_NUM);
 767:Generated_Source\PSoC5/USBFS.c ****     CyIntDisable(USBFS_INTR_MED_VECT_NUM);
 768:Generated_Source\PSoC5/USBFS.c **** #else
 769:Generated_Source\PSoC5/USBFS.c **** 
 770:Generated_Source\PSoC5/USBFS.c ****     CyIntDisable(USBFS_BUS_RESET_VECT_NUM);
 514              		.loc 1 770 0
 515 0044 124B     		ldr	r3, .L23+8
 516 0046 4FF40002 		mov	r2, #8388608
 517 004a 1A60     		str	r2, [r3]
 771:Generated_Source\PSoC5/USBFS.c ****     CyIntDisable(USBFS_EP_0_VECT_NUM);
 518              		.loc 1 771 0
 519 004c 4FF08072 		mov	r2, #16777216
 520 0050 1A60     		str	r2, [r3]
 772:Generated_Source\PSoC5/USBFS.c **** 
 773:Generated_Source\PSoC5/USBFS.c ****     #if (USBFS_SOF_ISR_ACTIVE)
 774:Generated_Source\PSoC5/USBFS.c ****         CyIntDisable(USBFS_SOF_VECT_NUM);
 521              		.loc 1 774 0
 522 0052 4FF40012 		mov	r2, #2097152
 523 0056 1A60     		str	r2, [r3]
 775:Generated_Source\PSoC5/USBFS.c ****     #endif /* (USBFS_SOF_ISR_ACTIVE) */
 776:Generated_Source\PSoC5/USBFS.c **** 
 777:Generated_Source\PSoC5/USBFS.c ****     #if (USBFS_EP1_ISR_ACTIVE)
 778:Generated_Source\PSoC5/USBFS.c ****         CyIntDisable(USBFS_EP_1_VECT_NUM);
 524              		.loc 1 778 0
 525 0058 0122     		movs	r2, #1
 526 005a 1A60     		str	r2, [r3]
 779:Generated_Source\PSoC5/USBFS.c ****     #endif /* (USBFS_EP1_ISR_ACTIVE) */
 780:Generated_Source\PSoC5/USBFS.c **** 
 781:Generated_Source\PSoC5/USBFS.c ****     #if (USBFS_EP2_ISR_ACTIVE)
 782:Generated_Source\PSoC5/USBFS.c ****         CyIntDisable(USBFS_EP_2_VECT_NUM);
 527              		.loc 1 782 0
 528 005c 0222     		movs	r2, #2
 529 005e 1A60     		str	r2, [r3]
 783:Generated_Source\PSoC5/USBFS.c ****     #endif /* (USBFS_EP2_ISR_ACTIVE) */
 784:Generated_Source\PSoC5/USBFS.c **** 
 785:Generated_Source\PSoC5/USBFS.c ****     #if (USBFS_EP3_ISR_ACTIVE)
 786:Generated_Source\PSoC5/USBFS.c ****         CyIntDisable(USBFS_EP_3_VECT_NUM);
 787:Generated_Source\PSoC5/USBFS.c ****     #endif /* (USBFS_EP3_ISR_ACTIVE) */
 788:Generated_Source\PSoC5/USBFS.c **** 
 789:Generated_Source\PSoC5/USBFS.c ****     #if (USBFS_EP4_ISR_ACTIVE)
 790:Generated_Source\PSoC5/USBFS.c ****         CyIntDisable(USBFS_EP_4_VECT_NUM);
 791:Generated_Source\PSoC5/USBFS.c ****     #endif /* (USBFS_EP4_ISR_ACTIVE) */
 792:Generated_Source\PSoC5/USBFS.c **** 
 793:Generated_Source\PSoC5/USBFS.c ****     #if (USBFS_EP5_ISR_ACTIVE)
 794:Generated_Source\PSoC5/USBFS.c ****         CyIntDisable(USBFS_EP_5_VECT_NUM);
 795:Generated_Source\PSoC5/USBFS.c ****     #endif /* (USBFS_EP5_ISR_ACTIVE) */
 796:Generated_Source\PSoC5/USBFS.c **** 
 797:Generated_Source\PSoC5/USBFS.c ****     #if (USBFS_EP6_ISR_ACTIVE)
 798:Generated_Source\PSoC5/USBFS.c ****         CyIntDisable(USBFS_EP_6_VECT_NUM);
 799:Generated_Source\PSoC5/USBFS.c ****     #endif /* USBFS_EP6_ISR_REMOVE */
 800:Generated_Source\PSoC5/USBFS.c **** 
 801:Generated_Source\PSoC5/USBFS.c ****     #if (USBFS_EP7_ISR_ACTIVE)
 802:Generated_Source\PSoC5/USBFS.c ****         CyIntDisable(USBFS_EP_7_VECT_NUM);
 803:Generated_Source\PSoC5/USBFS.c ****     #endif /* (USBFS_EP7_ISR_ACTIVE) */
 804:Generated_Source\PSoC5/USBFS.c **** 
 805:Generated_Source\PSoC5/USBFS.c ****     #if (USBFS_EP8_ISR_ACTIVE)
ARM GAS  C:\Users\rabbit\AppData\Local\Temp\ccUovuGe.s 			page 25


 806:Generated_Source\PSoC5/USBFS.c ****         CyIntDisable(USBFS_EP_8_VECT_NUM);
 807:Generated_Source\PSoC5/USBFS.c ****     #endif /* (USBFS_EP8_ISR_ACTIVE) */
 808:Generated_Source\PSoC5/USBFS.c **** 
 809:Generated_Source\PSoC5/USBFS.c ****     #if (USBFS_DP_ISR_ACTIVE)
 810:Generated_Source\PSoC5/USBFS.c ****         /* Clear active mode Dp interrupt source history. */
 811:Generated_Source\PSoC5/USBFS.c ****         (void) USBFS_Dp_ClearInterrupt();
 530              		.loc 1 811 0
 531 0060 FFF7FEFF 		bl	USBFS_Dp_ClearInterrupt
 532              	.LVL33:
 812:Generated_Source\PSoC5/USBFS.c ****         CyIntClearPending(USBFS_DP_INTC_VECT_NUM);
 533              		.loc 1 812 0
 534 0064 0B4B     		ldr	r3, .L23+12
 535 0066 4FF48052 		mov	r2, #4096
 536 006a 1A60     		str	r2, [r3]
 813:Generated_Source\PSoC5/USBFS.c ****     #endif /* (USBFS_DP_ISR_ACTIVE). */
 814:Generated_Source\PSoC5/USBFS.c **** 
 815:Generated_Source\PSoC5/USBFS.c **** #endif /* (CY_PSOC4) */
 816:Generated_Source\PSoC5/USBFS.c **** 
 817:Generated_Source\PSoC5/USBFS.c ****     /* Reset component internal variables. */
 818:Generated_Source\PSoC5/USBFS.c ****     USBFS_configurationChanged = 0u;
 537              		.loc 1 818 0
 538 006c 0A4A     		ldr	r2, .L23+16
 539 006e 0023     		movs	r3, #0
 540 0070 1370     		strb	r3, [r2]
 819:Generated_Source\PSoC5/USBFS.c ****     USBFS_configuration   = 0u;
 541              		.loc 1 819 0
 542 0072 0A4A     		ldr	r2, .L23+20
 543 0074 1370     		strb	r3, [r2]
 820:Generated_Source\PSoC5/USBFS.c ****     USBFS_interfaceNumber = 0u;
 544              		.loc 1 820 0
 545 0076 0A4A     		ldr	r2, .L23+24
 546 0078 1370     		strb	r3, [r2]
 821:Generated_Source\PSoC5/USBFS.c ****     USBFS_deviceAddress   = 0u;
 547              		.loc 1 821 0
 548 007a 0A4A     		ldr	r2, .L23+28
 549 007c 1370     		strb	r3, [r2]
 822:Generated_Source\PSoC5/USBFS.c ****     USBFS_deviceStatus    = 0u;
 550              		.loc 1 822 0
 551 007e 0A4A     		ldr	r2, .L23+32
 552 0080 1370     		strb	r3, [r2]
 823:Generated_Source\PSoC5/USBFS.c **** 
 824:Generated_Source\PSoC5/USBFS.c ****     /* It is mandatory for correct device startup. */
 825:Generated_Source\PSoC5/USBFS.c ****     USBFS_initVar = 0u;
 553              		.loc 1 825 0
 554 0082 0A4A     		ldr	r2, .L23+36
 555 0084 1370     		strb	r3, [r2]
 556 0086 08BD     		pop	{r3, pc}
 557              	.L24:
 558              		.align	2
 559              	.L23:
 560 0088 08600040 		.word	1073766408
 561 008c F8510040 		.word	1073762808
 562 0090 80E100E0 		.word	-536813184
 563 0094 80E200E0 		.word	-536812928
 564 0098 00000000 		.word	USBFS_configurationChanged
 565 009c 00000000 		.word	USBFS_configuration
 566 00a0 00000000 		.word	USBFS_interfaceNumber
ARM GAS  C:\Users\rabbit\AppData\Local\Temp\ccUovuGe.s 			page 26


 567 00a4 00000000 		.word	USBFS_deviceAddress
 568 00a8 00000000 		.word	USBFS_deviceStatus
 569 00ac 00000000 		.word	.LANCHOR0
 570              		.cfi_endproc
 571              	.LFE4:
 572              		.size	USBFS_Stop, .-USBFS_Stop
 573              		.section	.text.USBFS_CheckActivity,"ax",%progbits
 574              		.align	1
 575              		.global	USBFS_CheckActivity
 576              		.thumb
 577              		.thumb_func
 578              		.type	USBFS_CheckActivity, %function
 579              	USBFS_CheckActivity:
 580              	.LFB5:
 826:Generated_Source\PSoC5/USBFS.c **** }
 827:Generated_Source\PSoC5/USBFS.c **** 
 828:Generated_Source\PSoC5/USBFS.c **** 
 829:Generated_Source\PSoC5/USBFS.c **** /*******************************************************************************
 830:Generated_Source\PSoC5/USBFS.c **** * Function Name: USBFS_CheckActivity
 831:Generated_Source\PSoC5/USBFS.c **** ****************************************************************************//**
 832:Generated_Source\PSoC5/USBFS.c **** *
 833:Generated_Source\PSoC5/USBFS.c **** *  This function returns the activity status of the bus. It clears the hardware
 834:Generated_Source\PSoC5/USBFS.c **** *  status to provide updated status on the next call of this function. It
 835:Generated_Source\PSoC5/USBFS.c **** *  provides a way to determine whether any USB bus activity occurred. The
 836:Generated_Source\PSoC5/USBFS.c **** *  application should use this function to determine if the USB suspend
 837:Generated_Source\PSoC5/USBFS.c **** *  conditions are met.
 838:Generated_Source\PSoC5/USBFS.c **** *
 839:Generated_Source\PSoC5/USBFS.c **** *
 840:Generated_Source\PSoC5/USBFS.c **** * \return
 841:Generated_Source\PSoC5/USBFS.c **** *  cystatus: Status of the bus since the last call of the function.
 842:Generated_Source\PSoC5/USBFS.c **** *  Return Value |   Description
 843:Generated_Source\PSoC5/USBFS.c **** *  -------------|---------------------------------------------------------------
 844:Generated_Source\PSoC5/USBFS.c **** *  1            |Bus activity was detected since the last call to this function
 845:Generated_Source\PSoC5/USBFS.c **** *  0            |Bus activity was not detected since the last call to this function
 846:Generated_Source\PSoC5/USBFS.c **** *
 847:Generated_Source\PSoC5/USBFS.c **** *
 848:Generated_Source\PSoC5/USBFS.c **** *******************************************************************************/
 849:Generated_Source\PSoC5/USBFS.c **** uint8 USBFS_CheckActivity(void) 
 850:Generated_Source\PSoC5/USBFS.c **** {
 581              		.loc 1 850 0
 582              		.cfi_startproc
 583              		@ args = 0, pretend = 0, frame = 0
 584              		@ frame_needed = 0, uses_anonymous_args = 0
 585              		@ link register save eliminated.
 851:Generated_Source\PSoC5/USBFS.c ****     uint8 cr1Reg = USBFS_CR1_REG;
 586              		.loc 1 851 0
 587 0000 044B     		ldr	r3, .L26
 588 0002 1878     		ldrb	r0, [r3]	@ zero_extendqisi2
 589 0004 C0B2     		uxtb	r0, r0
 590              	.LVL34:
 852:Generated_Source\PSoC5/USBFS.c **** 
 853:Generated_Source\PSoC5/USBFS.c ****     /* Clear bus activity. */
 854:Generated_Source\PSoC5/USBFS.c ****     USBFS_CR1_REG = (cr1Reg & (uint8) ~USBFS_CR1_BUS_ACTIVITY);
 591              		.loc 1 854 0
 592 0006 00F0FB02 		and	r2, r0, #251
 593 000a 1A70     		strb	r2, [r3]
 855:Generated_Source\PSoC5/USBFS.c **** 
ARM GAS  C:\Users\rabbit\AppData\Local\Temp\ccUovuGe.s 			page 27


 856:Generated_Source\PSoC5/USBFS.c ****     /* Get bus activity. */
 857:Generated_Source\PSoC5/USBFS.c ****     return ((0u != (cr1Reg & USBFS_CR1_BUS_ACTIVITY)) ? (1u) : (0u));
 858:Generated_Source\PSoC5/USBFS.c **** }
 594              		.loc 1 858 0
 595 000c C0F38000 		ubfx	r0, r0, #2, #1
 596              	.LVL35:
 597 0010 7047     		bx	lr
 598              	.L27:
 599 0012 00BF     		.align	2
 600              	.L26:
 601 0014 09600040 		.word	1073766409
 602              		.cfi_endproc
 603              	.LFE5:
 604              		.size	USBFS_CheckActivity, .-USBFS_CheckActivity
 605              		.section	.text.USBFS_GetConfiguration,"ax",%progbits
 606              		.align	1
 607              		.global	USBFS_GetConfiguration
 608              		.thumb
 609              		.thumb_func
 610              		.type	USBFS_GetConfiguration, %function
 611              	USBFS_GetConfiguration:
 612              	.LFB6:
 859:Generated_Source\PSoC5/USBFS.c **** 
 860:Generated_Source\PSoC5/USBFS.c **** 
 861:Generated_Source\PSoC5/USBFS.c **** /*******************************************************************************
 862:Generated_Source\PSoC5/USBFS.c **** * Function Name: USBFS_GetConfiguration
 863:Generated_Source\PSoC5/USBFS.c **** ****************************************************************************//**
 864:Generated_Source\PSoC5/USBFS.c **** *
 865:Generated_Source\PSoC5/USBFS.c **** *  This function gets the current configuration of the USB device.
 866:Generated_Source\PSoC5/USBFS.c **** *
 867:Generated_Source\PSoC5/USBFS.c **** * \return
 868:Generated_Source\PSoC5/USBFS.c **** *  Returns the currently assigned configuration. Returns 0 if the device
 869:Generated_Source\PSoC5/USBFS.c **** *  is not configured
 870:Generated_Source\PSoC5/USBFS.c **** *
 871:Generated_Source\PSoC5/USBFS.c **** *******************************************************************************/
 872:Generated_Source\PSoC5/USBFS.c **** uint8 USBFS_GetConfiguration(void) 
 873:Generated_Source\PSoC5/USBFS.c **** {
 613              		.loc 1 873 0
 614              		.cfi_startproc
 615              		@ args = 0, pretend = 0, frame = 0
 616              		@ frame_needed = 0, uses_anonymous_args = 0
 617              		@ link register save eliminated.
 874:Generated_Source\PSoC5/USBFS.c ****     return (USBFS_configuration);
 618              		.loc 1 874 0
 619 0000 014B     		ldr	r3, .L29
 620 0002 1878     		ldrb	r0, [r3]	@ zero_extendqisi2
 875:Generated_Source\PSoC5/USBFS.c **** }
 621              		.loc 1 875 0
 622 0004 7047     		bx	lr
 623              	.L30:
 624 0006 00BF     		.align	2
 625              	.L29:
 626 0008 00000000 		.word	USBFS_configuration
 627              		.cfi_endproc
 628              	.LFE6:
 629              		.size	USBFS_GetConfiguration, .-USBFS_GetConfiguration
 630              		.section	.text.USBFS_IsConfigurationChanged,"ax",%progbits
ARM GAS  C:\Users\rabbit\AppData\Local\Temp\ccUovuGe.s 			page 28


 631              		.align	1
 632              		.global	USBFS_IsConfigurationChanged
 633              		.thumb
 634              		.thumb_func
 635              		.type	USBFS_IsConfigurationChanged, %function
 636              	USBFS_IsConfigurationChanged:
 637              	.LFB7:
 876:Generated_Source\PSoC5/USBFS.c **** 
 877:Generated_Source\PSoC5/USBFS.c **** 
 878:Generated_Source\PSoC5/USBFS.c **** /*******************************************************************************
 879:Generated_Source\PSoC5/USBFS.c **** * Function Name: USBFS_IsConfigurationChanged
 880:Generated_Source\PSoC5/USBFS.c **** ****************************************************************************//**
 881:Generated_Source\PSoC5/USBFS.c **** *
 882:Generated_Source\PSoC5/USBFS.c **** *  This function returns the clear-on-read configuration state.  It is useful
 883:Generated_Source\PSoC5/USBFS.c **** *  when the host sends double SET_CONFIGURATION request with the same 
 884:Generated_Source\PSoC5/USBFS.c **** *  configuration number or changes alternate settings of the interface. 
 885:Generated_Source\PSoC5/USBFS.c **** *  After configuration has been changed the OUT endpoints must be enabled and IN 
 886:Generated_Source\PSoC5/USBFS.c **** *  endpoint must be loaded with data to start communication with the host.
 887:Generated_Source\PSoC5/USBFS.c **** *
 888:Generated_Source\PSoC5/USBFS.c **** * \return
 889:Generated_Source\PSoC5/USBFS.c **** *  None-zero value when new configuration has been changed, otherwise zero is
 890:Generated_Source\PSoC5/USBFS.c **** *  returned.
 891:Generated_Source\PSoC5/USBFS.c **** *
 892:Generated_Source\PSoC5/USBFS.c **** * \globalvars
 893:Generated_Source\PSoC5/USBFS.c **** *
 894:Generated_Source\PSoC5/USBFS.c **** *  \ref USBFS_configurationChanged - This variable is set to 1 after
 895:Generated_Source\PSoC5/USBFS.c **** *   a SET_CONFIGURATION request and cleared in this function.
 896:Generated_Source\PSoC5/USBFS.c **** *
 897:Generated_Source\PSoC5/USBFS.c **** *******************************************************************************/
 898:Generated_Source\PSoC5/USBFS.c **** uint8 USBFS_IsConfigurationChanged(void) 
 899:Generated_Source\PSoC5/USBFS.c **** {
 638              		.loc 1 899 0
 639              		.cfi_startproc
 640              		@ args = 0, pretend = 0, frame = 0
 641              		@ frame_needed = 0, uses_anonymous_args = 0
 642              		@ link register save eliminated.
 643              	.LVL36:
 900:Generated_Source\PSoC5/USBFS.c ****     uint8 res = 0u;
 901:Generated_Source\PSoC5/USBFS.c **** 
 902:Generated_Source\PSoC5/USBFS.c ****     if (USBFS_configurationChanged != 0u)
 644              		.loc 1 902 0
 645 0000 044B     		ldr	r3, .L34
 646 0002 1A78     		ldrb	r2, [r3]	@ zero_extendqisi2
 647 0004 02F0FF00 		and	r0, r2, #255
 648 0008 1AB1     		cbz	r2, .L32
 903:Generated_Source\PSoC5/USBFS.c ****     {
 904:Generated_Source\PSoC5/USBFS.c ****         res = USBFS_configurationChanged;
 649              		.loc 1 904 0
 650 000a 1878     		ldrb	r0, [r3]	@ zero_extendqisi2
 905:Generated_Source\PSoC5/USBFS.c ****         USBFS_configurationChanged = 0u;
 651              		.loc 1 905 0
 652 000c 0022     		movs	r2, #0
 904:Generated_Source\PSoC5/USBFS.c ****         USBFS_configurationChanged = 0u;
 653              		.loc 1 904 0
 654 000e C0B2     		uxtb	r0, r0
 655              	.LVL37:
 656              		.loc 1 905 0
ARM GAS  C:\Users\rabbit\AppData\Local\Temp\ccUovuGe.s 			page 29


 657 0010 1A70     		strb	r2, [r3]
 658              	.LVL38:
 659              	.L32:
 906:Generated_Source\PSoC5/USBFS.c ****     }
 907:Generated_Source\PSoC5/USBFS.c **** 
 908:Generated_Source\PSoC5/USBFS.c ****     return (res);
 909:Generated_Source\PSoC5/USBFS.c **** }
 660              		.loc 1 909 0
 661 0012 7047     		bx	lr
 662              	.L35:
 663              		.align	2
 664              	.L34:
 665 0014 00000000 		.word	USBFS_configurationChanged
 666              		.cfi_endproc
 667              	.LFE7:
 668              		.size	USBFS_IsConfigurationChanged, .-USBFS_IsConfigurationChanged
 669              		.section	.text.USBFS_GetInterfaceSetting,"ax",%progbits
 670              		.align	1
 671              		.global	USBFS_GetInterfaceSetting
 672              		.thumb
 673              		.thumb_func
 674              		.type	USBFS_GetInterfaceSetting, %function
 675              	USBFS_GetInterfaceSetting:
 676              	.LFB8:
 910:Generated_Source\PSoC5/USBFS.c **** 
 911:Generated_Source\PSoC5/USBFS.c **** 
 912:Generated_Source\PSoC5/USBFS.c **** /*******************************************************************************
 913:Generated_Source\PSoC5/USBFS.c **** * Function Name: USBFS_GetInterfaceSetting
 914:Generated_Source\PSoC5/USBFS.c **** ****************************************************************************//**
 915:Generated_Source\PSoC5/USBFS.c **** *
 916:Generated_Source\PSoC5/USBFS.c **** *  This function gets the current alternate setting for the specified interface.
 917:Generated_Source\PSoC5/USBFS.c **** *  It is useful to identify which alternate settings are active in the specified 
 918:Generated_Source\PSoC5/USBFS.c **** *  interface.
 919:Generated_Source\PSoC5/USBFS.c **** *
 920:Generated_Source\PSoC5/USBFS.c **** *  \param
 921:Generated_Source\PSoC5/USBFS.c **** *  interfaceNumber interface number
 922:Generated_Source\PSoC5/USBFS.c **** *
 923:Generated_Source\PSoC5/USBFS.c **** * \return
 924:Generated_Source\PSoC5/USBFS.c **** *  Returns the current alternate setting for the specified interface.
 925:Generated_Source\PSoC5/USBFS.c **** *
 926:Generated_Source\PSoC5/USBFS.c **** *******************************************************************************/
 927:Generated_Source\PSoC5/USBFS.c **** uint8  USBFS_GetInterfaceSetting(uint8 interfaceNumber)
 928:Generated_Source\PSoC5/USBFS.c ****                                                     
 929:Generated_Source\PSoC5/USBFS.c **** {
 677              		.loc 1 929 0
 678              		.cfi_startproc
 679              		@ args = 0, pretend = 0, frame = 0
 680              		@ frame_needed = 0, uses_anonymous_args = 0
 681              		@ link register save eliminated.
 682              	.LVL39:
 930:Generated_Source\PSoC5/USBFS.c ****     return (USBFS_interfaceSetting[interfaceNumber]);
 683              		.loc 1 930 0
 684 0000 014B     		ldr	r3, .L37
 685 0002 185C     		ldrb	r0, [r3, r0]	@ zero_extendqisi2
 686              	.LVL40:
 931:Generated_Source\PSoC5/USBFS.c **** }
 687              		.loc 1 931 0
ARM GAS  C:\Users\rabbit\AppData\Local\Temp\ccUovuGe.s 			page 30


 688 0004 7047     		bx	lr
 689              	.L38:
 690 0006 00BF     		.align	2
 691              	.L37:
 692 0008 00000000 		.word	USBFS_interfaceSetting
 693              		.cfi_endproc
 694              	.LFE8:
 695              		.size	USBFS_GetInterfaceSetting, .-USBFS_GetInterfaceSetting
 696              		.section	.text.USBFS_GetEPState,"ax",%progbits
 697              		.align	1
 698              		.global	USBFS_GetEPState
 699              		.thumb
 700              		.thumb_func
 701              		.type	USBFS_GetEPState, %function
 702              	USBFS_GetEPState:
 703              	.LFB9:
 932:Generated_Source\PSoC5/USBFS.c **** 
 933:Generated_Source\PSoC5/USBFS.c **** 
 934:Generated_Source\PSoC5/USBFS.c **** /*******************************************************************************
 935:Generated_Source\PSoC5/USBFS.c **** * Function Name: USBFS_GetEPState
 936:Generated_Source\PSoC5/USBFS.c **** ****************************************************************************//**
 937:Generated_Source\PSoC5/USBFS.c **** *
 938:Generated_Source\PSoC5/USBFS.c **** *  This function returns the state of the requested endpoint.
 939:Generated_Source\PSoC5/USBFS.c **** *
 940:Generated_Source\PSoC5/USBFS.c **** * \param epNumber Data endpoint number
 941:Generated_Source\PSoC5/USBFS.c **** *
 942:Generated_Source\PSoC5/USBFS.c **** * \return
 943:Generated_Source\PSoC5/USBFS.c **** *  Returns the current state of the specified USBFS endpoint. Symbolic names and
 944:Generated_Source\PSoC5/USBFS.c **** *  their associated values are given in the following table. Use these constants
 945:Generated_Source\PSoC5/USBFS.c **** *  whenever you write code to change the state of the endpoints, such as ISR
 946:Generated_Source\PSoC5/USBFS.c **** *  code, to handle data sent or received.
 947:Generated_Source\PSoC5/USBFS.c **** *
 948:Generated_Source\PSoC5/USBFS.c **** *  Return Value           | Description
 949:Generated_Source\PSoC5/USBFS.c **** *  -----------------------|-----------------------------------------------------
 950:Generated_Source\PSoC5/USBFS.c **** *  USBFS_NO_EVENT_PENDING |The endpoint is awaiting SIE action
 951:Generated_Source\PSoC5/USBFS.c **** *  USBFS_EVENT_PENDING    |The endpoint is awaiting CPU action
 952:Generated_Source\PSoC5/USBFS.c **** *  USBFS_NO_EVENT_ALLOWED |The endpoint is locked from access
 953:Generated_Source\PSoC5/USBFS.c **** *  USBFS_IN_BUFFER_FULL   |The IN endpoint is loaded and the mode is set to ACK IN
 954:Generated_Source\PSoC5/USBFS.c **** *  USBFS_IN_BUFFER_EMPTY  |An IN transaction occurred and more data can be loaded
 955:Generated_Source\PSoC5/USBFS.c **** *  USBFS_OUT_BUFFER_EMPTY |The OUT endpoint is set to ACK OUT and is waiting for data
 956:Generated_Source\PSoC5/USBFS.c **** *  USBFS_OUT_BUFFER_FULL  |An OUT transaction has occurred and data can be read
 957:Generated_Source\PSoC5/USBFS.c **** *
 958:Generated_Source\PSoC5/USBFS.c **** *******************************************************************************/
 959:Generated_Source\PSoC5/USBFS.c **** uint8 USBFS_GetEPState(uint8 epNumber) 
 960:Generated_Source\PSoC5/USBFS.c **** {
 704              		.loc 1 960 0
 705              		.cfi_startproc
 706              		@ args = 0, pretend = 0, frame = 0
 707              		@ frame_needed = 0, uses_anonymous_args = 0
 708              		@ link register save eliminated.
 709              	.LVL41:
 961:Generated_Source\PSoC5/USBFS.c ****     return (USBFS_EP[epNumber].apiEpState);
 710              		.loc 1 961 0
 711 0000 024A     		ldr	r2, .L40
 712 0002 0C23     		movs	r3, #12
 713 0004 03FB0020 		mla	r0, r3, r0, r2
 714              	.LVL42:
ARM GAS  C:\Users\rabbit\AppData\Local\Temp\ccUovuGe.s 			page 31


 715 0008 4078     		ldrb	r0, [r0, #1]	@ zero_extendqisi2
 962:Generated_Source\PSoC5/USBFS.c **** }
 716              		.loc 1 962 0
 717 000a 7047     		bx	lr
 718              	.L41:
 719              		.align	2
 720              	.L40:
 721 000c 00000000 		.word	USBFS_EP
 722              		.cfi_endproc
 723              	.LFE9:
 724              		.size	USBFS_GetEPState, .-USBFS_GetEPState
 725              		.section	.text.USBFS_GetEPCount,"ax",%progbits
 726              		.align	1
 727              		.global	USBFS_GetEPCount
 728              		.thumb
 729              		.thumb_func
 730              		.type	USBFS_GetEPCount, %function
 731              	USBFS_GetEPCount:
 732              	.LFB10:
 963:Generated_Source\PSoC5/USBFS.c **** 
 964:Generated_Source\PSoC5/USBFS.c **** 
 965:Generated_Source\PSoC5/USBFS.c **** /*******************************************************************************
 966:Generated_Source\PSoC5/USBFS.c **** * Function Name: USBFS_GetEPCount
 967:Generated_Source\PSoC5/USBFS.c **** ****************************************************************************//**
 968:Generated_Source\PSoC5/USBFS.c **** *
 969:Generated_Source\PSoC5/USBFS.c **** *  This function supports Data Endpoints only(EP1-EP8).
 970:Generated_Source\PSoC5/USBFS.c **** *  Returns the transfer count for the requested endpoint.  The value from
 971:Generated_Source\PSoC5/USBFS.c **** *  the count registers includes 2 counts for the two byte checksum of the
 972:Generated_Source\PSoC5/USBFS.c **** *  packet.  This function subtracts the two counts.
 973:Generated_Source\PSoC5/USBFS.c **** *
 974:Generated_Source\PSoC5/USBFS.c **** *  \param epNumber Data Endpoint Number.
 975:Generated_Source\PSoC5/USBFS.c **** *                   Valid values are between 1 and 8.
 976:Generated_Source\PSoC5/USBFS.c **** *
 977:Generated_Source\PSoC5/USBFS.c **** * \return
 978:Generated_Source\PSoC5/USBFS.c **** *  Returns the current byte count from the specified endpoint or 0 for an
 979:Generated_Source\PSoC5/USBFS.c **** *  invalid endpoint.
 980:Generated_Source\PSoC5/USBFS.c **** *
 981:Generated_Source\PSoC5/USBFS.c **** *******************************************************************************/
 982:Generated_Source\PSoC5/USBFS.c **** uint16 USBFS_GetEPCount(uint8 epNumber) 
 983:Generated_Source\PSoC5/USBFS.c **** {
 733              		.loc 1 983 0
 734              		.cfi_startproc
 735              		@ args = 0, pretend = 0, frame = 0
 736              		@ frame_needed = 0, uses_anonymous_args = 0
 737              		@ link register save eliminated.
 738              	.LVL43:
 984:Generated_Source\PSoC5/USBFS.c ****     uint16 cntr = 0u;
 985:Generated_Source\PSoC5/USBFS.c **** 
 986:Generated_Source\PSoC5/USBFS.c ****     if ((epNumber > USBFS_EP0) && (epNumber < USBFS_MAX_EP))
 739              		.loc 1 986 0
 740 0000 431E     		subs	r3, r0, #1
 741 0002 072B     		cmp	r3, #7
 742 0004 0CD8     		bhi	.L44
 743              	.LVL44:
 744              	.LBB4:
 745              	.LBB5:
 987:Generated_Source\PSoC5/USBFS.c ****     {
ARM GAS  C:\Users\rabbit\AppData\Local\Temp\ccUovuGe.s 			page 32


 988:Generated_Source\PSoC5/USBFS.c ****         /* Get 11-bits EP counter where epCnt0 - 3 bits MSB and epCnt1 - 8 bits LSB. */
 989:Generated_Source\PSoC5/USBFS.c ****         cntr  = ((uint16) USBFS_SIE_EP_BASE.sieEp[epNumber].epCnt0) & USBFS_EPX_CNT0_MASK;
 746              		.loc 1 989 0
 747 0006 074A     		ldr	r2, .L45
 748 0008 064B     		ldr	r3, .L45
 749 000a 0001     		lsls	r0, r0, #4
 750              	.LVL45:
 751 000c 0344     		add	r3, r3, r0
 752 000e 805C     		ldrb	r0, [r0, r2]	@ zero_extendqisi2
 753              	.LVL46:
 990:Generated_Source\PSoC5/USBFS.c ****         cntr  = ((uint16) (cntr << 8u)) | ((uint16) USBFS_SIE_EP_BASE.sieEp[epNumber].epCnt1);
 754              		.loc 1 990 0
 755 0010 5B78     		ldrb	r3, [r3, #1]	@ zero_extendqisi2
 756 0012 00F00F00 		and	r0, r0, #15
 757              	.LVL47:
 991:Generated_Source\PSoC5/USBFS.c ****         cntr -= USBFS_EPX_CNTX_CRC_COUNT;
 758              		.loc 1 991 0
 759 0016 43EA0020 		orr	r0, r3, r0, lsl #8
 760              	.LVL48:
 761 001a 0238     		subs	r0, r0, #2
 762 001c 80B2     		uxth	r0, r0
 763              	.LVL49:
 764 001e 7047     		bx	lr
 765              	.LVL50:
 766              	.L44:
 767              	.LBE5:
 768              	.LBE4:
 984:Generated_Source\PSoC5/USBFS.c **** 
 769              		.loc 1 984 0
 770 0020 0020     		movs	r0, #0
 771              	.LVL51:
 992:Generated_Source\PSoC5/USBFS.c ****     }
 993:Generated_Source\PSoC5/USBFS.c **** 
 994:Generated_Source\PSoC5/USBFS.c ****     return (cntr);
 995:Generated_Source\PSoC5/USBFS.c **** }
 772              		.loc 1 995 0
 773 0022 7047     		bx	lr
 774              	.L46:
 775              		.align	2
 776              	.L45:
 777 0024 FC5F0040 		.word	1073766396
 778              		.cfi_endproc
 779              	.LFE10:
 780              		.size	USBFS_GetEPCount, .-USBFS_GetEPCount
 781              		.section	.text.USBFS_LoadInEP,"ax",%progbits
 782              		.align	1
 783              		.global	USBFS_LoadInEP
 784              		.thumb
 785              		.thumb_func
 786              		.type	USBFS_LoadInEP, %function
 787              	USBFS_LoadInEP:
 788              	.LFB11:
 996:Generated_Source\PSoC5/USBFS.c **** 
 997:Generated_Source\PSoC5/USBFS.c **** 
 998:Generated_Source\PSoC5/USBFS.c **** #if (USBFS_EP_MANAGEMENT_DMA)
 999:Generated_Source\PSoC5/USBFS.c **** #if (CY_PSOC4)
1000:Generated_Source\PSoC5/USBFS.c ****     /*******************************************************************************
ARM GAS  C:\Users\rabbit\AppData\Local\Temp\ccUovuGe.s 			page 33


1001:Generated_Source\PSoC5/USBFS.c ****     * Function Name: USBFS_InitEpDma
1002:Generated_Source\PSoC5/USBFS.c ****     ****************************************************************************//**
1003:Generated_Source\PSoC5/USBFS.c ****     *
1004:Generated_Source\PSoC5/USBFS.c ****     *  This function configures priority for all DMA channels utilized by the
1005:Generated_Source\PSoC5/USBFS.c ****     *  component. Also sets callbacks for DMA auto mode.
1006:Generated_Source\PSoC5/USBFS.c ****     *
1007:Generated_Source\PSoC5/USBFS.c ****     *******************************************************************************/
1008:Generated_Source\PSoC5/USBFS.c ****     static void USBFS_InitEpDma(void)
1009:Generated_Source\PSoC5/USBFS.c ****     {
1010:Generated_Source\PSoC5/USBFS.c ****     #if (USBFS_DMA1_ACTIVE)
1011:Generated_Source\PSoC5/USBFS.c ****         CYDMA_CH_CTL_BASE.ctl[USBFS_ep1_dma_CHANNEL] = USBFS_ep1_dma_CHANNEL_CFG;
1012:Generated_Source\PSoC5/USBFS.c ****     #endif /* (USBFS_DMA1_ACTIVE) */
1013:Generated_Source\PSoC5/USBFS.c **** 
1014:Generated_Source\PSoC5/USBFS.c ****     #if (USBFS_DMA2_ACTIVE)
1015:Generated_Source\PSoC5/USBFS.c ****         CYDMA_CH_CTL_BASE.ctl[USBFS_ep2_dma_CHANNEL] = USBFS_ep2_dma_CHANNEL_CFG;
1016:Generated_Source\PSoC5/USBFS.c ****     #endif /* (USBFS_DMA2_ACTIVE) */
1017:Generated_Source\PSoC5/USBFS.c **** 
1018:Generated_Source\PSoC5/USBFS.c ****     #if (USBFS_DMA3_ACTIVE)
1019:Generated_Source\PSoC5/USBFS.c ****         CYDMA_CH_CTL_BASE.ctl[USBFS_ep3_dma_CHANNEL] = USBFS_ep3_dma_CHANNEL_CFG;
1020:Generated_Source\PSoC5/USBFS.c ****     #endif /* (USBFS_DMA3_ACTIVE) */
1021:Generated_Source\PSoC5/USBFS.c **** 
1022:Generated_Source\PSoC5/USBFS.c ****     #if (USBFS_DMA4_ACTIVE)
1023:Generated_Source\PSoC5/USBFS.c ****         CYDMA_CH_CTL_BASE.ctl[USBFS_ep4_dma_CHANNEL] = USBFS_ep4_dma_CHANNEL_CFG;
1024:Generated_Source\PSoC5/USBFS.c ****     #endif /* (USBFS_DMA4_ACTIVE) */
1025:Generated_Source\PSoC5/USBFS.c **** 
1026:Generated_Source\PSoC5/USBFS.c ****     #if (USBFS_DMA5_ACTIVE)
1027:Generated_Source\PSoC5/USBFS.c ****         CYDMA_CH_CTL_BASE.ctl[USBFS_ep5_dma_CHANNEL] = USBFS_ep5_dma_CHANNEL_CFG;
1028:Generated_Source\PSoC5/USBFS.c ****     #endif /* (USBFS_DMA5_ACTIVE) */
1029:Generated_Source\PSoC5/USBFS.c **** 
1030:Generated_Source\PSoC5/USBFS.c ****     #if (USBFS_DMA6_ACTIVE)
1031:Generated_Source\PSoC5/USBFS.c ****         CYDMA_CH_CTL_BASE.ctl[USBFS_ep6_dma_CHANNEL] = USBFS_ep6_dma_CHANNEL_CFG;
1032:Generated_Source\PSoC5/USBFS.c ****     #endif /* (USBFS_DMA6_ACTIVE) */
1033:Generated_Source\PSoC5/USBFS.c **** 
1034:Generated_Source\PSoC5/USBFS.c ****     #if (USBFS_DMA7_ACTIVE)
1035:Generated_Source\PSoC5/USBFS.c ****         CYDMA_CH_CTL_BASE.ctl[USBFS_ep7_dma_CHANNEL] = USBFS_ep7_dma_CHANNEL_CFG;
1036:Generated_Source\PSoC5/USBFS.c ****     #endif /* (USBFS_DMA7_ACTIVE) */
1037:Generated_Source\PSoC5/USBFS.c **** 
1038:Generated_Source\PSoC5/USBFS.c ****     #if (USBFS_DMA8_ACTIVE)
1039:Generated_Source\PSoC5/USBFS.c ****         CYDMA_CH_CTL_BASE.ctl[USBFS_ep8_dma_CHANNEL] = USBFS_ep8_dma_CHANNEL_CFG;
1040:Generated_Source\PSoC5/USBFS.c ****     #endif /* (USBFS_DMA8_ACTIVE) */
1041:Generated_Source\PSoC5/USBFS.c **** 
1042:Generated_Source\PSoC5/USBFS.c ****     #if (USBFS_EP_MANAGEMENT_DMA_AUTO)
1043:Generated_Source\PSoC5/USBFS.c ****         /* Initialize DMA channel callbacks. */
1044:Generated_Source\PSoC5/USBFS.c ****         #if (USBFS_DMA1_ACTIVE)
1045:Generated_Source\PSoC5/USBFS.c ****             (void) USBFS_ep1_dma_SetInterruptCallback(&USBFS_EP1_DMA_DONE_ISR);
1046:Generated_Source\PSoC5/USBFS.c ****         #endif /* (USBFS_DMA1_ACTIVE) */
1047:Generated_Source\PSoC5/USBFS.c **** 
1048:Generated_Source\PSoC5/USBFS.c ****         #if (USBFS_DMA2_ACTIVE)
1049:Generated_Source\PSoC5/USBFS.c ****             (void) USBFS_ep2_dma_SetInterruptCallback(&USBFS_EP2_DMA_DONE_ISR);
1050:Generated_Source\PSoC5/USBFS.c ****         #endif /* (USBFS_DMA2_ACTIVE) */
1051:Generated_Source\PSoC5/USBFS.c **** 
1052:Generated_Source\PSoC5/USBFS.c ****         #if (USBFS_DMA3_ACTIVE)
1053:Generated_Source\PSoC5/USBFS.c ****             (void) USBFS_ep3_dma_SetInterruptCallback(&USBFS_EP3_DMA_DONE_ISR);
1054:Generated_Source\PSoC5/USBFS.c ****         #endif /* (USBFS_DMA3_ACTIVE) */
1055:Generated_Source\PSoC5/USBFS.c **** 
1056:Generated_Source\PSoC5/USBFS.c ****         #if (USBFS_DMA4_ACTIVE)
1057:Generated_Source\PSoC5/USBFS.c ****             (void) USBFS_ep4_dma_SetInterruptCallback(&USBFS_EP4_DMA_DONE_ISR);
ARM GAS  C:\Users\rabbit\AppData\Local\Temp\ccUovuGe.s 			page 34


1058:Generated_Source\PSoC5/USBFS.c ****         #endif /* (USBFS_DMA4_ACTIVE) */
1059:Generated_Source\PSoC5/USBFS.c **** 
1060:Generated_Source\PSoC5/USBFS.c ****         #if (USBFS_DMA5_ACTIVE)
1061:Generated_Source\PSoC5/USBFS.c ****             (void) USBFS_ep5_dma_SetInterruptCallback(&USBFS_EP5_DMA_DONE_ISR);
1062:Generated_Source\PSoC5/USBFS.c ****         #endif /* (USBFS_DMA5_ACTIVE) */
1063:Generated_Source\PSoC5/USBFS.c **** 
1064:Generated_Source\PSoC5/USBFS.c ****         #if (USBFS_DMA6_ACTIVE)
1065:Generated_Source\PSoC5/USBFS.c ****             (void) USBFS_ep6_dma_SetInterruptCallback(&USBFS_EP6_DMA_DONE_ISR);
1066:Generated_Source\PSoC5/USBFS.c ****         #endif /* (USBFS_DMA6_ACTIVE) */
1067:Generated_Source\PSoC5/USBFS.c **** 
1068:Generated_Source\PSoC5/USBFS.c ****         #if (USBFS_DMA7_ACTIVE)
1069:Generated_Source\PSoC5/USBFS.c ****             (void) USBFS_ep7_dma_SetInterruptCallback(&USBFS_EP7_DMA_DONE_ISR);
1070:Generated_Source\PSoC5/USBFS.c ****         #endif /* (USBFS_DMA7_ACTIVE) */
1071:Generated_Source\PSoC5/USBFS.c **** 
1072:Generated_Source\PSoC5/USBFS.c ****         #if (USBFS_DMA8_ACTIVE)
1073:Generated_Source\PSoC5/USBFS.c ****             (void) USBFS_ep8_dma_SetInterruptCallback(&USBFS_EP8_DMA_DONE_ISR);
1074:Generated_Source\PSoC5/USBFS.c ****         #endif /* (USBFS_DMA8_ACTIVE) */
1075:Generated_Source\PSoC5/USBFS.c ****     #endif /* (USBFS_EP_MANAGEMENT_DMA_AUTO) */
1076:Generated_Source\PSoC5/USBFS.c ****     }
1077:Generated_Source\PSoC5/USBFS.c **** #else
1078:Generated_Source\PSoC5/USBFS.c **** 
1079:Generated_Source\PSoC5/USBFS.c **** 
1080:Generated_Source\PSoC5/USBFS.c ****     /***************************************************************************
1081:Generated_Source\PSoC5/USBFS.c ****     * Function Name: USBFS_InitEP_DMA
1082:Generated_Source\PSoC5/USBFS.c ****     ************************************************************************//**
1083:Generated_Source\PSoC5/USBFS.c ****     *
1084:Generated_Source\PSoC5/USBFS.c ****     *  This function allocates and initializes a DMA channel to be used by the
1085:Generated_Source\PSoC5/USBFS.c ****     *  USBFS_LoadInEP() or USBFS_ReadOutEP() APIs for data
1086:Generated_Source\PSoC5/USBFS.c ****     *  transfer. It is available when the Endpoint Memory Management parameter
1087:Generated_Source\PSoC5/USBFS.c ****     *  is set to DMA.
1088:Generated_Source\PSoC5/USBFS.c ****     *
1089:Generated_Source\PSoC5/USBFS.c ****     *  This function is automatically called from the USBFS_LoadInEP() and USBFS_ReadOutEP() APIs.
1090:Generated_Source\PSoC5/USBFS.c ****     *
1091:Generated_Source\PSoC5/USBFS.c ****     *  \param epNumber Contains the data endpoint number.
1092:Generated_Source\PSoC5/USBFS.c ****     *            Valid values are between 1 and 8.
1093:Generated_Source\PSoC5/USBFS.c ****     *  \param *pData Pointer to a data array that is related to the EP transfers.
1094:Generated_Source\PSoC5/USBFS.c ****     *
1095:Generated_Source\PSoC5/USBFS.c ****     * \reentrant No.
1096:Generated_Source\PSoC5/USBFS.c ****     *
1097:Generated_Source\PSoC5/USBFS.c ****     ***************************************************************************/
1098:Generated_Source\PSoC5/USBFS.c ****     void USBFS_InitEP_DMA(uint8 epNumber, const uint8 *pData)
1099:Generated_Source\PSoC5/USBFS.c ****                                                                     
1100:Generated_Source\PSoC5/USBFS.c ****     {
1101:Generated_Source\PSoC5/USBFS.c ****         uint16 src;
1102:Generated_Source\PSoC5/USBFS.c ****         uint16 dst;
1103:Generated_Source\PSoC5/USBFS.c **** 
1104:Generated_Source\PSoC5/USBFS.c ****     #if (CY_PSOC3)
1105:Generated_Source\PSoC5/USBFS.c ****         src = HI16(CYDEV_SRAM_BASE);
1106:Generated_Source\PSoC5/USBFS.c ****         dst = HI16(CYDEV_PERIPH_BASE);
1107:Generated_Source\PSoC5/USBFS.c ****         pData = pData;
1108:Generated_Source\PSoC5/USBFS.c ****     #else
1109:Generated_Source\PSoC5/USBFS.c ****         if ((USBFS_EP[epNumber].addr & USBFS_DIR_IN) != 0u)
1110:Generated_Source\PSoC5/USBFS.c ****         {
1111:Generated_Source\PSoC5/USBFS.c ****             /* IN endpoint: source is memory buffer. */
1112:Generated_Source\PSoC5/USBFS.c ****             src = HI16(pData);
1113:Generated_Source\PSoC5/USBFS.c ****             dst = HI16(CYDEV_PERIPH_BASE);
1114:Generated_Source\PSoC5/USBFS.c ****         }
ARM GAS  C:\Users\rabbit\AppData\Local\Temp\ccUovuGe.s 			page 35


1115:Generated_Source\PSoC5/USBFS.c ****         else
1116:Generated_Source\PSoC5/USBFS.c ****         {
1117:Generated_Source\PSoC5/USBFS.c ****             /* OUT endpoint: source is USB IP memory buffer. */
1118:Generated_Source\PSoC5/USBFS.c ****             src = HI16(CYDEV_PERIPH_BASE);
1119:Generated_Source\PSoC5/USBFS.c ****             dst = HI16(pData);
1120:Generated_Source\PSoC5/USBFS.c ****         }
1121:Generated_Source\PSoC5/USBFS.c ****     #endif  /* (CY_PSOC3) */
1122:Generated_Source\PSoC5/USBFS.c **** 
1123:Generated_Source\PSoC5/USBFS.c ****         switch(epNumber)
1124:Generated_Source\PSoC5/USBFS.c ****         {
1125:Generated_Source\PSoC5/USBFS.c ****     #if (USBFS_DMA1_ACTIVE)
1126:Generated_Source\PSoC5/USBFS.c ****         case USBFS_EP1:
1127:Generated_Source\PSoC5/USBFS.c ****             USBFS_DmaChan[epNumber] = USBFS_ep1_DmaInitialize(USBFS_DMA_BYTES_PER_BURST,
1128:Generated_Source\PSoC5/USBFS.c ****                                                                                     USBFS_DMA_REQUE
1129:Generated_Source\PSoC5/USBFS.c ****             break;
1130:Generated_Source\PSoC5/USBFS.c ****     #endif /* (USBFS_DMA1_ACTIVE) */
1131:Generated_Source\PSoC5/USBFS.c **** 
1132:Generated_Source\PSoC5/USBFS.c ****     #if (USBFS_DMA2_ACTIVE)
1133:Generated_Source\PSoC5/USBFS.c ****         case USBFS_EP2:
1134:Generated_Source\PSoC5/USBFS.c ****             USBFS_DmaChan[epNumber] = USBFS_ep2_DmaInitialize(USBFS_DMA_BYTES_PER_BURST,
1135:Generated_Source\PSoC5/USBFS.c ****                                                                                     USBFS_DMA_REQUE
1136:Generated_Source\PSoC5/USBFS.c ****             break;
1137:Generated_Source\PSoC5/USBFS.c ****     #endif /* (USBFS_DMA2_ACTIVE) */
1138:Generated_Source\PSoC5/USBFS.c **** 
1139:Generated_Source\PSoC5/USBFS.c ****     #if (USBFS_DMA3_ACTIVE)
1140:Generated_Source\PSoC5/USBFS.c ****             case USBFS_EP3:
1141:Generated_Source\PSoC5/USBFS.c ****                 USBFS_DmaChan[epNumber] = USBFS_ep3_DmaInitialize(USBFS_DMA_BYTES_PER_BURST,
1142:Generated_Source\PSoC5/USBFS.c ****                                                                                         USBFS_DMA_R
1143:Generated_Source\PSoC5/USBFS.c ****             break;
1144:Generated_Source\PSoC5/USBFS.c ****     #endif /* (USBFS_DMA3_ACTIVE) */
1145:Generated_Source\PSoC5/USBFS.c **** 
1146:Generated_Source\PSoC5/USBFS.c ****     #if (USBFS_DMA4_ACTIVE)
1147:Generated_Source\PSoC5/USBFS.c ****             case USBFS_EP4:
1148:Generated_Source\PSoC5/USBFS.c ****                 USBFS_DmaChan[epNumber] = USBFS_ep4_DmaInitialize(USBFS_DMA_BYTES_PER_BURST,
1149:Generated_Source\PSoC5/USBFS.c ****                                                                                         USBFS_DMA_R
1150:Generated_Source\PSoC5/USBFS.c ****             break;
1151:Generated_Source\PSoC5/USBFS.c ****     #endif /* (USBFS_DMA4_ACTIVE) */
1152:Generated_Source\PSoC5/USBFS.c **** 
1153:Generated_Source\PSoC5/USBFS.c ****     #if (USBFS_DMA5_ACTIVE)
1154:Generated_Source\PSoC5/USBFS.c ****             case USBFS_EP5:
1155:Generated_Source\PSoC5/USBFS.c ****                 USBFS_DmaChan[epNumber] = USBFS_ep5_DmaInitialize(USBFS_DMA_BYTES_PER_BURST,
1156:Generated_Source\PSoC5/USBFS.c ****                                                                                         USBFS_DMA_R
1157:Generated_Source\PSoC5/USBFS.c ****             break;
1158:Generated_Source\PSoC5/USBFS.c ****     #endif /* (USBFS_DMA5_ACTIVE) */
1159:Generated_Source\PSoC5/USBFS.c **** 
1160:Generated_Source\PSoC5/USBFS.c ****     #if (USBFS_DMA6_ACTIVE)
1161:Generated_Source\PSoC5/USBFS.c ****         case USBFS_EP6:
1162:Generated_Source\PSoC5/USBFS.c ****             USBFS_DmaChan[epNumber] = USBFS_ep6_DmaInitialize(USBFS_DMA_BYTES_PER_BURST,
1163:Generated_Source\PSoC5/USBFS.c ****                                                                                     USBFS_DMA_REQUE
1164:Generated_Source\PSoC5/USBFS.c ****             break;
1165:Generated_Source\PSoC5/USBFS.c ****     #endif /* (USBFS_DMA6_ACTIVE) */
1166:Generated_Source\PSoC5/USBFS.c **** 
1167:Generated_Source\PSoC5/USBFS.c ****     #if (USBFS_DMA7_ACTIVE)
1168:Generated_Source\PSoC5/USBFS.c ****         case USBFS_EP7:
1169:Generated_Source\PSoC5/USBFS.c ****                 USBFS_DmaChan[epNumber] = USBFS_ep7_DmaInitialize(USBFS_DMA_BYTES_PER_BURST,
1170:Generated_Source\PSoC5/USBFS.c ****                                                                                         USBFS_DMA_R
1171:Generated_Source\PSoC5/USBFS.c ****             break;
ARM GAS  C:\Users\rabbit\AppData\Local\Temp\ccUovuGe.s 			page 36


1172:Generated_Source\PSoC5/USBFS.c ****     #endif /* (USBFS_DMA7_ACTIVE) */
1173:Generated_Source\PSoC5/USBFS.c **** 
1174:Generated_Source\PSoC5/USBFS.c ****     #if (USBFS_DMA8_ACTIVE)
1175:Generated_Source\PSoC5/USBFS.c ****         case USBFS_EP8:
1176:Generated_Source\PSoC5/USBFS.c ****                 USBFS_DmaChan[epNumber] = USBFS_ep8_DmaInitialize(USBFS_DMA_BYTES_PER_BURST,
1177:Generated_Source\PSoC5/USBFS.c ****                                                                                         USBFS_DMA_R
1178:Generated_Source\PSoC5/USBFS.c ****             break;
1179:Generated_Source\PSoC5/USBFS.c ****     #endif /* (USBFS_DMA8_ACTIVE) */
1180:Generated_Source\PSoC5/USBFS.c **** 
1181:Generated_Source\PSoC5/USBFS.c ****         default:
1182:Generated_Source\PSoC5/USBFS.c ****             /* Do nothing for endpoints other than 1-8. */
1183:Generated_Source\PSoC5/USBFS.c ****             break;
1184:Generated_Source\PSoC5/USBFS.c ****         }
1185:Generated_Source\PSoC5/USBFS.c **** 
1186:Generated_Source\PSoC5/USBFS.c ****         if ((epNumber > USBFS_EP0) && (epNumber < USBFS_MAX_EP))
1187:Generated_Source\PSoC5/USBFS.c ****         {
1188:Generated_Source\PSoC5/USBFS.c ****             USBFS_DmaTd[epNumber] = CyDmaTdAllocate();
1189:Generated_Source\PSoC5/USBFS.c **** 
1190:Generated_Source\PSoC5/USBFS.c ****         #if (USBFS_EP_MANAGEMENT_DMA_AUTO && (USBFS_EP_DMA_AUTO_OPT == 0u))
1191:Generated_Source\PSoC5/USBFS.c ****             USBFS_DmaNextTd[epNumber] = CyDmaTdAllocate();
1192:Generated_Source\PSoC5/USBFS.c ****         #endif /* (USBFS_EP_MANAGEMENT_DMA_AUTO && (USBFS_EP_DMA_AUTO_OPT == 0u)) */
1193:Generated_Source\PSoC5/USBFS.c ****         }
1194:Generated_Source\PSoC5/USBFS.c ****     }
1195:Generated_Source\PSoC5/USBFS.c **** #endif /* (CY_PSOC4) */
1196:Generated_Source\PSoC5/USBFS.c **** 
1197:Generated_Source\PSoC5/USBFS.c ****     /***************************************************************************
1198:Generated_Source\PSoC5/USBFS.c ****     * Function Name: USBFS_Stop_DMA
1199:Generated_Source\PSoC5/USBFS.c ****     ************************************************************************//**
1200:Generated_Source\PSoC5/USBFS.c ****     *  
1201:Generated_Source\PSoC5/USBFS.c ****     *  This function stops DMA channel associated with endpoint. It is available 
1202:Generated_Source\PSoC5/USBFS.c ****     *  when the Endpoint Buffer Management parameter is set to DMA. Call this 
1203:Generated_Source\PSoC5/USBFS.c ****     *  function when endpoint direction is changed from IN to OUT or vice versa 
1204:Generated_Source\PSoC5/USBFS.c ****     *  to trigger DMA re-configuration when USBFS_LoadInEP() or 
1205:Generated_Source\PSoC5/USBFS.c ****     *  USBFS_ReadOutEP() functions are called the first time. 
1206:Generated_Source\PSoC5/USBFS.c ****     *  
1207:Generated_Source\PSoC5/USBFS.c ****     *  \param epNumber: The data endpoint number for which associated DMA 
1208:Generated_Source\PSoC5/USBFS.c ****     *  channel is stopped. The range of valid values is between 1 and 8. To stop 
1209:Generated_Source\PSoC5/USBFS.c ****     *  all DMAs associated with endpoints call this function with 
1210:Generated_Source\PSoC5/USBFS.c ****     *  USBFS_MAX_EP argument.
1211:Generated_Source\PSoC5/USBFS.c ****     *
1212:Generated_Source\PSoC5/USBFS.c ****     * \reentrant
1213:Generated_Source\PSoC5/USBFS.c ****     *  No.
1214:Generated_Source\PSoC5/USBFS.c ****     *
1215:Generated_Source\PSoC5/USBFS.c ****     ***************************************************************************/
1216:Generated_Source\PSoC5/USBFS.c ****     void USBFS_Stop_DMA(uint8 epNumber) 
1217:Generated_Source\PSoC5/USBFS.c ****     {
1218:Generated_Source\PSoC5/USBFS.c ****         uint8 i;
1219:Generated_Source\PSoC5/USBFS.c **** 
1220:Generated_Source\PSoC5/USBFS.c ****         i = (epNumber < USBFS_MAX_EP) ? epNumber : USBFS_EP1;
1221:Generated_Source\PSoC5/USBFS.c **** 
1222:Generated_Source\PSoC5/USBFS.c ****         do
1223:Generated_Source\PSoC5/USBFS.c ****         {
1224:Generated_Source\PSoC5/USBFS.c ****         #if (CY_PSOC4)
1225:Generated_Source\PSoC5/USBFS.c ****             if (0u != USBFS_DmaChan[i])
1226:Generated_Source\PSoC5/USBFS.c ****             {
1227:Generated_Source\PSoC5/USBFS.c ****                 USBFS_CyDmaChDisable(USBFS_DmaChan[i]);
1228:Generated_Source\PSoC5/USBFS.c ****             }
ARM GAS  C:\Users\rabbit\AppData\Local\Temp\ccUovuGe.s 			page 37


1229:Generated_Source\PSoC5/USBFS.c ****         #else
1230:Generated_Source\PSoC5/USBFS.c ****             if(USBFS_DmaTd[i] != DMA_INVALID_TD)
1231:Generated_Source\PSoC5/USBFS.c ****             {
1232:Generated_Source\PSoC5/USBFS.c ****                 (void) CyDmaChDisable(USBFS_DmaChan[i]);
1233:Generated_Source\PSoC5/USBFS.c ****                 CyDmaTdFree(USBFS_DmaTd[i]);
1234:Generated_Source\PSoC5/USBFS.c ****                 USBFS_DmaTd[i] = DMA_INVALID_TD;
1235:Generated_Source\PSoC5/USBFS.c ****             }
1236:Generated_Source\PSoC5/USBFS.c **** 
1237:Generated_Source\PSoC5/USBFS.c ****             #if (USBFS_EP_MANAGEMENT_DMA_AUTO && (USBFS_EP_DMA_AUTO_OPT == 0u))
1238:Generated_Source\PSoC5/USBFS.c ****                 if(USBFS_DmaNextTd[i] != DMA_INVALID_TD)
1239:Generated_Source\PSoC5/USBFS.c ****                 {
1240:Generated_Source\PSoC5/USBFS.c ****                     CyDmaTdFree(USBFS_DmaNextTd[i]);
1241:Generated_Source\PSoC5/USBFS.c ****                     USBFS_DmaNextTd[i] = DMA_INVALID_TD;
1242:Generated_Source\PSoC5/USBFS.c ****                 }
1243:Generated_Source\PSoC5/USBFS.c ****             #endif /* (USBFS_EP_MANAGEMENT_DMA_AUTO && (USBFS_EP_DMA_AUTO_OPT == 0u)) */
1244:Generated_Source\PSoC5/USBFS.c **** 
1245:Generated_Source\PSoC5/USBFS.c ****         #endif /* (CY_PSOC4) */
1246:Generated_Source\PSoC5/USBFS.c ****             i++;
1247:Generated_Source\PSoC5/USBFS.c ****         }
1248:Generated_Source\PSoC5/USBFS.c ****         while ((i < USBFS_MAX_EP) && (epNumber == USBFS_MAX_EP));
1249:Generated_Source\PSoC5/USBFS.c ****     }
1250:Generated_Source\PSoC5/USBFS.c **** #endif /* (USBFS_EP_MANAGEMENT_DMA) */
1251:Generated_Source\PSoC5/USBFS.c **** 
1252:Generated_Source\PSoC5/USBFS.c **** 
1253:Generated_Source\PSoC5/USBFS.c **** #if (CY_PSOC3 || CY_PSOC5)
1254:Generated_Source\PSoC5/USBFS.c **** #if (USBFS_EP_MANAGEMENT_DMA_AUTO && (USBFS_EP_DMA_AUTO_OPT == 0u))
1255:Generated_Source\PSoC5/USBFS.c ****     /***************************************************************************
1256:Generated_Source\PSoC5/USBFS.c ****     * Function Name: USBFS_LoadNextInEP
1257:Generated_Source\PSoC5/USBFS.c ****     ************************************************************************//**
1258:Generated_Source\PSoC5/USBFS.c ****     *
1259:Generated_Source\PSoC5/USBFS.c ****     * Summary:
1260:Generated_Source\PSoC5/USBFS.c ****     *  This internal function is used for IN endpoint DMA reconfiguration in
1261:Generated_Source\PSoC5/USBFS.c ****     *  Auto DMA mode.
1262:Generated_Source\PSoC5/USBFS.c ****     *
1263:Generated_Source\PSoC5/USBFS.c ****     * Parameters:
1264:Generated_Source\PSoC5/USBFS.c ****     *  epNumber: Contains the data endpoint number.
1265:Generated_Source\PSoC5/USBFS.c ****     *  mode:   0 - Configure DMA to send the the rest of data.
1266:Generated_Source\PSoC5/USBFS.c ****     *          1 - Configure DMA to repeat 2 last bytes of the first burst.
1267:Generated_Source\PSoC5/USBFS.c ****     *
1268:Generated_Source\PSoC5/USBFS.c ****     ***************************************************************************/
1269:Generated_Source\PSoC5/USBFS.c ****     void USBFS_LoadNextInEP(uint8 epNumber, uint8 mode) 
1270:Generated_Source\PSoC5/USBFS.c ****     {
1271:Generated_Source\PSoC5/USBFS.c ****         reg16 *convert;
1272:Generated_Source\PSoC5/USBFS.c **** 
1273:Generated_Source\PSoC5/USBFS.c ****         if (mode == 0u)
1274:Generated_Source\PSoC5/USBFS.c ****         {
1275:Generated_Source\PSoC5/USBFS.c ****             /* Configure DMA to send rest of data. */
1276:Generated_Source\PSoC5/USBFS.c ****             /* CyDmaTdSetConfiguration API is optimized to change transfer length only and configur
1277:Generated_Source\PSoC5/USBFS.c ****             convert = (reg16 *) &CY_DMA_TDMEM_STRUCT_PTR[USBFS_DmaTd[epNumber]].TD0[0u];
1278:Generated_Source\PSoC5/USBFS.c ****             /* Set transfer length. */
1279:Generated_Source\PSoC5/USBFS.c ****             CY_SET_REG16(convert, USBFS_inLength[epNumber] - USBFS_DMA_BYTES_PER_BURST);
1280:Generated_Source\PSoC5/USBFS.c ****             /* CyDmaTdSetAddress API is optimized to change source address only. */
1281:Generated_Source\PSoC5/USBFS.c ****             convert = (reg16 *) &CY_DMA_TDMEM_STRUCT_PTR[USBFS_DmaTd[epNumber]].TD1[0u];
1282:Generated_Source\PSoC5/USBFS.c ****             CY_SET_REG16(convert, LO16((uint32)USBFS_inDataPointer[epNumber] +
1283:Generated_Source\PSoC5/USBFS.c ****                                             USBFS_DMA_BYTES_PER_BURST));
1284:Generated_Source\PSoC5/USBFS.c ****             USBFS_inBufFull[epNumber] = 1u;
1285:Generated_Source\PSoC5/USBFS.c ****         }
ARM GAS  C:\Users\rabbit\AppData\Local\Temp\ccUovuGe.s 			page 38


1286:Generated_Source\PSoC5/USBFS.c ****         else
1287:Generated_Source\PSoC5/USBFS.c ****         {
1288:Generated_Source\PSoC5/USBFS.c ****             /* Configure DMA to repeat 2 last bytes of the first burst. */
1289:Generated_Source\PSoC5/USBFS.c ****             /* CyDmaTdSetConfiguration API is optimized to change transfer length only and configur
1290:Generated_Source\PSoC5/USBFS.c ****             convert = (reg16 *) &CY_DMA_TDMEM_STRUCT_PTR[USBFS_DmaTd[epNumber]].TD0[0u];
1291:Generated_Source\PSoC5/USBFS.c ****             /* Set transfer length. */
1292:Generated_Source\PSoC5/USBFS.c ****             CY_SET_REG16(convert, USBFS_DMA_BYTES_REPEAT);
1293:Generated_Source\PSoC5/USBFS.c ****             /* CyDmaTdSetAddress API is optimized to change source address only. */
1294:Generated_Source\PSoC5/USBFS.c ****             convert = (reg16 *) &CY_DMA_TDMEM_STRUCT_PTR[USBFS_DmaTd[epNumber]].TD1[0u];
1295:Generated_Source\PSoC5/USBFS.c ****             CY_SET_REG16(convert,  LO16((uint32)USBFS_inDataPointer[epNumber] +
1296:Generated_Source\PSoC5/USBFS.c ****                                    (USBFS_DMA_BYTES_PER_BURST - USBFS_DMA_BYTES_REPEAT)));
1297:Generated_Source\PSoC5/USBFS.c ****         }
1298:Generated_Source\PSoC5/USBFS.c **** 
1299:Generated_Source\PSoC5/USBFS.c ****         /* CyDmaChSetInitialTd API is optimized to initialize TD. */
1300:Generated_Source\PSoC5/USBFS.c ****         CY_DMA_CH_STRUCT_PTR[USBFS_DmaChan[epNumber]].basic_status[1u] = USBFS_DmaTd[epNumber];
1301:Generated_Source\PSoC5/USBFS.c ****     }
1302:Generated_Source\PSoC5/USBFS.c **** #endif /* (USBFS_EP_MANAGEMENT_DMA_AUTO && (USBFS_EP_DMA_AUTO_OPT == 0u)) */
1303:Generated_Source\PSoC5/USBFS.c **** #endif /* (CY_PSOC3 || CY_PSOC5) */
1304:Generated_Source\PSoC5/USBFS.c **** 
1305:Generated_Source\PSoC5/USBFS.c **** 
1306:Generated_Source\PSoC5/USBFS.c **** /*******************************************************************************
1307:Generated_Source\PSoC5/USBFS.c **** * Function Name: USBFS_LoadInEP
1308:Generated_Source\PSoC5/USBFS.c **** ****************************************************************************//**
1309:Generated_Source\PSoC5/USBFS.c **** *
1310:Generated_Source\PSoC5/USBFS.c **** *  This function performs different functionality depending on the Component’s
1311:Generated_Source\PSoC5/USBFS.c **** *  configured Endpoint Buffer Management. This parameter is defined in
1312:Generated_Source\PSoC5/USBFS.c **** *  the Descriptor Root in Component Configure window.
1313:Generated_Source\PSoC5/USBFS.c **** *
1314:Generated_Source\PSoC5/USBFS.c **** *  *Manual (Static/Dynamic Allocation):*
1315:Generated_Source\PSoC5/USBFS.c **** *  This function loads and enables the specified USB data endpoint for an IN
1316:Generated_Source\PSoC5/USBFS.c **** *  data transfer.
1317:Generated_Source\PSoC5/USBFS.c **** *
1318:Generated_Source\PSoC5/USBFS.c **** *  *DMA with Manual Buffer Management:*
1319:Generated_Source\PSoC5/USBFS.c **** *  Configures DMA for a data transfer from system RAM to endpoint buffer.
1320:Generated_Source\PSoC5/USBFS.c **** *  Generates request for a transfer.
1321:Generated_Source\PSoC5/USBFS.c **** *
1322:Generated_Source\PSoC5/USBFS.c **** *  *DMA with Automatic Buffer Management:*
1323:Generated_Source\PSoC5/USBFS.c **** *  Configures DMA. This is required only once, so it is done only when parameter
1324:Generated_Source\PSoC5/USBFS.c **** *  pData is not NULL. When the pData pointer is NULL, the function skips this
1325:Generated_Source\PSoC5/USBFS.c **** *  task. Sets Data ready status: This generates the first DMA transfer and
1326:Generated_Source\PSoC5/USBFS.c **** *  prepares data in endpoint buffer.
1327:Generated_Source\PSoC5/USBFS.c **** *
1328:Generated_Source\PSoC5/USBFS.c **** *  \param epNumber Contains the data endpoint number.
1329:Generated_Source\PSoC5/USBFS.c **** *            Valid values are between 1 and 8.
1330:Generated_Source\PSoC5/USBFS.c **** *  \param *pData A pointer to a data array from which the data for the endpoint space
1331:Generated_Source\PSoC5/USBFS.c **** *          is loaded.
1332:Generated_Source\PSoC5/USBFS.c **** *  \param length The number of bytes to transfer from the array and then send as
1333:Generated_Source\PSoC5/USBFS.c **** *          a result of an IN request. Valid values are between 0 and 512
1334:Generated_Source\PSoC5/USBFS.c **** *          (1023 for DMA with Automatic Buffer Management mode). The value 512
1335:Generated_Source\PSoC5/USBFS.c **** *          is applicable if only one endpoint is used.
1336:Generated_Source\PSoC5/USBFS.c **** *
1337:Generated_Source\PSoC5/USBFS.c **** *
1338:Generated_Source\PSoC5/USBFS.c **** * \reentrant
1339:Generated_Source\PSoC5/USBFS.c **** *  No.
1340:Generated_Source\PSoC5/USBFS.c **** *
1341:Generated_Source\PSoC5/USBFS.c **** *******************************************************************************/
1342:Generated_Source\PSoC5/USBFS.c **** void USBFS_LoadInEP(uint8 epNumber, const uint8 pData[], uint16 length)
ARM GAS  C:\Users\rabbit\AppData\Local\Temp\ccUovuGe.s 			page 39


1343:Generated_Source\PSoC5/USBFS.c ****                                                                         
1344:Generated_Source\PSoC5/USBFS.c **** {
 789              		.loc 1 1344 0
 790              		.cfi_startproc
 791              		@ args = 0, pretend = 0, frame = 0
 792              		@ frame_needed = 0, uses_anonymous_args = 0
 793              	.LVL52:
1345:Generated_Source\PSoC5/USBFS.c ****     if ((epNumber > USBFS_EP0) && (epNumber < USBFS_MAX_EP))
 794              		.loc 1 1345 0
 795 0000 431E     		subs	r3, r0, #1
 796 0002 072B     		cmp	r3, #7
1344:Generated_Source\PSoC5/USBFS.c ****     if ((epNumber > USBFS_EP0) && (epNumber < USBFS_MAX_EP))
 797              		.loc 1 1344 0
 798 0004 F0B5     		push	{r4, r5, r6, r7, lr}
 799              		.cfi_def_cfa_offset 20
 800              		.cfi_offset 4, -20
 801              		.cfi_offset 5, -16
 802              		.cfi_offset 6, -12
 803              		.cfi_offset 7, -8
 804              		.cfi_offset 14, -4
 805              		.loc 1 1345 0
 806 0006 31D8     		bhi	.L47
1346:Generated_Source\PSoC5/USBFS.c ****     {
1347:Generated_Source\PSoC5/USBFS.c ****     #if (!USBFS_EP_MANAGEMENT_DMA_AUTO)
1348:Generated_Source\PSoC5/USBFS.c ****         /* Limit length to available buffer USB IP buffer size.*/
1349:Generated_Source\PSoC5/USBFS.c ****         if (length > (USBFS_EPX_DATA_BUF_MAX - USBFS_EP[epNumber].buffOffset))
 807              		.loc 1 1349 0
 808 0008 194B     		ldr	r3, .L54
 809 000a 0C25     		movs	r5, #12
 810 000c 05FB0035 		mla	r5, r5, r0, r3
 811 0010 EC88     		ldrh	r4, [r5, #6]
1350:Generated_Source\PSoC5/USBFS.c ****         {
1351:Generated_Source\PSoC5/USBFS.c ****             length = USBFS_EPX_DATA_BUF_MAX - USBFS_EP[epNumber].buffOffset;
1352:Generated_Source\PSoC5/USBFS.c ****         }
1353:Generated_Source\PSoC5/USBFS.c ****     #endif /* (!USBFS_EP_MANAGEMENT_DMA_AUTO) */
1354:Generated_Source\PSoC5/USBFS.c **** 
1355:Generated_Source\PSoC5/USBFS.c ****         /* Set count and data toggle. */
1356:Generated_Source\PSoC5/USBFS.c ****         USBFS_SIE_EP_BASE.sieEp[epNumber].epCnt0 = (uint8) HI8(length) | USBFS_EP[epNumber].epToggl
 812              		.loc 1 1356 0
 813 0012 184F     		ldr	r7, .L54+4
1349:Generated_Source\PSoC5/USBFS.c ****         {
 814              		.loc 1 1349 0
 815 0014 A4B2     		uxth	r4, r4
 816 0016 C4F50074 		rsb	r4, r4, #512
 817 001a A242     		cmp	r2, r4
 818              		.loc 1 1356 0
 819 001c 4FF00C04 		mov	r4, #12
 820 0020 04FB0034 		mla	r4, r4, r0, r3
1351:Generated_Source\PSoC5/USBFS.c ****         }
 821              		.loc 1 1351 0
 822 0024 88BF     		it	hi
 823 0026 EA88     		ldrhhi	r2, [r5, #6]
 824              	.LVL53:
 825              		.loc 1 1356 0
 826 0028 E678     		ldrb	r6, [r4, #3]	@ zero_extendqisi2
1351:Generated_Source\PSoC5/USBFS.c ****         }
 827              		.loc 1 1351 0
ARM GAS  C:\Users\rabbit\AppData\Local\Temp\ccUovuGe.s 			page 40


 828 002a 84BF     		itt	hi
 829 002c C2F50072 		rsbhi	r2, r2, #512
 830 0030 92B2     		uxthhi	r2, r2
 831              	.LVL54:
 832 0032 104C     		ldr	r4, .L54+4
 833              		.loc 1 1356 0
 834 0034 46EA1226 		orr	r6, r6, r2, lsr #8
 835 0038 0501     		lsls	r5, r0, #4
 836 003a EE55     		strb	r6, [r5, r7]
 837 003c 2C44     		add	r4, r4, r5
1357:Generated_Source\PSoC5/USBFS.c ****         USBFS_SIE_EP_BASE.sieEp[epNumber].epCnt1 = (uint8) LO8(length);
 838              		.loc 1 1357 0
 839 003e D6B2     		uxtb	r6, r2
 840 0040 6670     		strb	r6, [r4, #1]
1358:Generated_Source\PSoC5/USBFS.c **** 
1359:Generated_Source\PSoC5/USBFS.c ****     #if (USBFS_EP_MANAGEMENT_MANUAL)
1360:Generated_Source\PSoC5/USBFS.c ****         if (NULL != pData)
 841              		.loc 1 1360 0
 842 0042 41B9     		cbnz	r1, .L50
 843              	.L53:
1361:Generated_Source\PSoC5/USBFS.c ****         {
1362:Generated_Source\PSoC5/USBFS.c **** 			/* Copy data using arbiter data register. */
1363:Generated_Source\PSoC5/USBFS.c ****             uint16 i;
1364:Generated_Source\PSoC5/USBFS.c ****             for (i = 0u; i < length; ++i)
1365:Generated_Source\PSoC5/USBFS.c ****             {
1366:Generated_Source\PSoC5/USBFS.c ****                 USBFS_ARB_EP_BASE.arbEp[epNumber].rwDr = pData[i];
1367:Generated_Source\PSoC5/USBFS.c ****             }
1368:Generated_Source\PSoC5/USBFS.c ****         }
1369:Generated_Source\PSoC5/USBFS.c **** 
1370:Generated_Source\PSoC5/USBFS.c ****         /* IN endpoint buffer is full - read to be read. */
1371:Generated_Source\PSoC5/USBFS.c ****         USBFS_EP[epNumber].apiEpState = USBFS_NO_EVENT_PENDING;
 844              		.loc 1 1371 0
 845 0044 0C22     		movs	r2, #12
 846              	.LVL55:
 847 0046 02FB0030 		mla	r0, r2, r0, r3
 848              	.LVL56:
 849 004a 0023     		movs	r3, #0
 850 004c 4370     		strb	r3, [r0, #1]
1372:Generated_Source\PSoC5/USBFS.c **** 
1373:Generated_Source\PSoC5/USBFS.c ****         /* Arm IN endpoint. */
1374:Generated_Source\PSoC5/USBFS.c ****         USBFS_SIE_EP_BASE.sieEp[epNumber].epCr0 = USBFS_EP[epNumber].epMode;
 851              		.loc 1 1374 0
 852 004e 4379     		ldrb	r3, [r0, #5]	@ zero_extendqisi2
 853 0050 DBB2     		uxtb	r3, r3
 854 0052 A370     		strb	r3, [r4, #2]
 855 0054 F0BD     		pop	{r4, r5, r6, r7, pc}
 856              	.LVL57:
 857              	.L50:
1360:Generated_Source\PSoC5/USBFS.c ****         {
 858              		.loc 1 1360 0
 859 0056 0E46     		mov	r6, r1
 860              	.LBB6:
1366:Generated_Source\PSoC5/USBFS.c ****             }
 861              		.loc 1 1366 0
 862 0058 074F     		ldr	r7, .L54+8
 863 005a 2F44     		add	r7, r7, r5
 864              	.L51:
ARM GAS  C:\Users\rabbit\AppData\Local\Temp\ccUovuGe.s 			page 41


 865              	.LVL58:
1364:Generated_Source\PSoC5/USBFS.c ****             {
 866              		.loc 1 1364 0 discriminator 1
 867 005c 751A     		subs	r5, r6, r1
 868 005e ADB2     		uxth	r5, r5
 869 0060 AA42     		cmp	r2, r5
 870 0062 EFD9     		bls	.L53
1366:Generated_Source\PSoC5/USBFS.c ****             }
 871              		.loc 1 1366 0 discriminator 3
 872 0064 16F8015B 		ldrb	r5, [r6], #1	@ zero_extendqisi2
 873              	.LVL59:
 874 0068 3D72     		strb	r5, [r7, #8]
 875              	.LVL60:
 876 006a F7E7     		b	.L51
 877              	.LVL61:
 878              	.L47:
 879 006c F0BD     		pop	{r4, r5, r6, r7, pc}
 880              	.L55:
 881 006e 00BF     		.align	2
 882              	.L54:
 883 0070 00000000 		.word	USBFS_EP
 884 0074 FC5F0040 		.word	1073766396
 885 0078 70600040 		.word	1073766512
 886              	.LBE6:
 887              		.cfi_endproc
 888              	.LFE11:
 889              		.size	USBFS_LoadInEP, .-USBFS_LoadInEP
 890              		.section	.text.USBFS_EnableOutEP,"ax",%progbits
 891              		.align	1
 892              		.global	USBFS_EnableOutEP
 893              		.thumb
 894              		.thumb_func
 895              		.type	USBFS_EnableOutEP, %function
 896              	USBFS_EnableOutEP:
 897              	.LFB13:
1375:Generated_Source\PSoC5/USBFS.c **** 
1376:Generated_Source\PSoC5/USBFS.c ****     #else
1377:Generated_Source\PSoC5/USBFS.c **** 
1378:Generated_Source\PSoC5/USBFS.c ****         #if (CY_PSOC3 || CY_PSOC5LP)
1379:Generated_Source\PSoC5/USBFS.c ****             /* Initialize DMA if it was not initialized. */
1380:Generated_Source\PSoC5/USBFS.c ****             if (DMA_INVALID_TD == USBFS_DmaTd[epNumber])
1381:Generated_Source\PSoC5/USBFS.c ****             {
1382:Generated_Source\PSoC5/USBFS.c ****                 USBFS_InitEP_DMA(epNumber, pData);
1383:Generated_Source\PSoC5/USBFS.c ****             }
1384:Generated_Source\PSoC5/USBFS.c ****         #endif /* (CY_PSOC3 || CY_PSOC5LP) */
1385:Generated_Source\PSoC5/USBFS.c **** 
1386:Generated_Source\PSoC5/USBFS.c ****         #if (USBFS_EP_MANAGEMENT_DMA_MANUAL)
1387:Generated_Source\PSoC5/USBFS.c ****             /* IN endpoint buffer will be fully loaded by DMA shortly. */
1388:Generated_Source\PSoC5/USBFS.c ****             USBFS_EP[epNumber].apiEpState = USBFS_NO_EVENT_PENDING;
1389:Generated_Source\PSoC5/USBFS.c **** 
1390:Generated_Source\PSoC5/USBFS.c ****             if ((pData != NULL) && (length > 0u))
1391:Generated_Source\PSoC5/USBFS.c ****             {
1392:Generated_Source\PSoC5/USBFS.c ****             #if (CY_PSOC4)
1393:Generated_Source\PSoC5/USBFS.c ****                 uint32 channelNum = (uint32) USBFS_DmaChan[epNumber];
1394:Generated_Source\PSoC5/USBFS.c **** 
1395:Generated_Source\PSoC5/USBFS.c ****                 /* Disable DMA channel: start configuration. */
1396:Generated_Source\PSoC5/USBFS.c ****                 USBFS_CyDmaChDisable(channelNum);
ARM GAS  C:\Users\rabbit\AppData\Local\Temp\ccUovuGe.s 			page 42


1397:Generated_Source\PSoC5/USBFS.c **** 
1398:Generated_Source\PSoC5/USBFS.c ****                 /* Configure source and destination. */
1399:Generated_Source\PSoC5/USBFS.c ****                 USBFS_CyDmaSetSrcAddress(channelNum, USBFS_DMA_DESCR0, (void*) pData);
1400:Generated_Source\PSoC5/USBFS.c ****                 USBFS_CyDmaSetDstAddress(channelNum, USBFS_DMA_DESCR0, (void*) &USBFS_ARB_EP_BASE.a
1401:Generated_Source\PSoC5/USBFS.c **** 
1402:Generated_Source\PSoC5/USBFS.c ****                 /* Configure DMA descriptor. */
1403:Generated_Source\PSoC5/USBFS.c ****                 --length;
1404:Generated_Source\PSoC5/USBFS.c ****                 USBFS_CyDmaSetConfiguration(channelNum, USBFS_DMA_DESCR0, USBFS_DMA_COMMON_CFG | le
1405:Generated_Source\PSoC5/USBFS.c ****                                                         CYDMA_BYTE | CYDMA_ELEMENT_WORD | CYDMA_INC
1406:Generated_Source\PSoC5/USBFS.c **** 
1407:Generated_Source\PSoC5/USBFS.c ****                 /* Validate descriptor to execute on following DMA request. */
1408:Generated_Source\PSoC5/USBFS.c ****                 USBFS_CyDmaValidateDescriptor(channelNum, USBFS_DMA_DESCR0);
1409:Generated_Source\PSoC5/USBFS.c **** 
1410:Generated_Source\PSoC5/USBFS.c ****                 /* Enable DMA channel: configuration complete. */
1411:Generated_Source\PSoC5/USBFS.c ****                 USBFS_CyDmaChEnable(channelNum);
1412:Generated_Source\PSoC5/USBFS.c ****             #else
1413:Generated_Source\PSoC5/USBFS.c ****                 /* Configure DMA to transfer data. */
1414:Generated_Source\PSoC5/USBFS.c ****                 (void) CyDmaChDisable(USBFS_DmaChan[epNumber]);
1415:Generated_Source\PSoC5/USBFS.c ****                 (void) CyDmaTdSetConfiguration(USBFS_DmaTd[epNumber], length, CY_DMA_DISABLE_TD, TD
1416:Generated_Source\PSoC5/USBFS.c ****                 (void) CyDmaTdSetAddress(USBFS_DmaTd[epNumber], LO16((uint32) pData), LO16((uint32)
1417:Generated_Source\PSoC5/USBFS.c **** 
1418:Generated_Source\PSoC5/USBFS.c ****                 /* Enable DMA channel. */
1419:Generated_Source\PSoC5/USBFS.c ****                 (void) CyDmaChSetInitialTd(USBFS_DmaChan[epNumber], USBFS_DmaTd[epNumber]);
1420:Generated_Source\PSoC5/USBFS.c ****                 (void) CyDmaChEnable(USBFS_DmaChan[epNumber], 1u);
1421:Generated_Source\PSoC5/USBFS.c ****             #endif /* (CY_PSOC4) */
1422:Generated_Source\PSoC5/USBFS.c **** 
1423:Generated_Source\PSoC5/USBFS.c ****                 /* Generate DMA request. */
1424:Generated_Source\PSoC5/USBFS.c ****                 USBFS_ARB_EP_BASE.arbEp[epNumber].epCfg |=  (uint8)  USBFS_ARB_EPX_CFG_DMA_REQ;
1425:Generated_Source\PSoC5/USBFS.c ****                 USBFS_ARB_EP_BASE.arbEp[epNumber].epCfg &=  (uint8) ~USBFS_ARB_EPX_CFG_DMA_REQ;
1426:Generated_Source\PSoC5/USBFS.c **** 
1427:Generated_Source\PSoC5/USBFS.c ****                 /* IN endpoint will be armed in ARB_ISR(source: IN_BUF_FULL) after first DMA transf
1428:Generated_Source\PSoC5/USBFS.c ****             }
1429:Generated_Source\PSoC5/USBFS.c ****             else
1430:Generated_Source\PSoC5/USBFS.c ****             {
1431:Generated_Source\PSoC5/USBFS.c ****                 /* When zero-length packet: arm IN endpoint directly. */
1432:Generated_Source\PSoC5/USBFS.c ****                 USBFS_SIE_EP_BASE.sieEp[epNumber].epCr0 = USBFS_EP[epNumber].epMode;
1433:Generated_Source\PSoC5/USBFS.c ****             }
1434:Generated_Source\PSoC5/USBFS.c ****         #endif /* (USBFS_EP_MANAGEMENT_DMA_MANUAL) */
1435:Generated_Source\PSoC5/USBFS.c **** 
1436:Generated_Source\PSoC5/USBFS.c ****         #if (USBFS_EP_MANAGEMENT_DMA_AUTO)
1437:Generated_Source\PSoC5/USBFS.c ****             if (pData != NULL)
1438:Generated_Source\PSoC5/USBFS.c ****             {
1439:Generated_Source\PSoC5/USBFS.c ****             #if (CY_PSOC4)
1440:Generated_Source\PSoC5/USBFS.c ****                 uint32 channelNum = (uint32) USBFS_DmaChan[epNumber];
1441:Generated_Source\PSoC5/USBFS.c **** 
1442:Generated_Source\PSoC5/USBFS.c ****                 /* Store address of buffer. */
1443:Generated_Source\PSoC5/USBFS.c ****                 USBFS_DmaEpBufferAddrBackup[epNumber] = (uint32) pData;
1444:Generated_Source\PSoC5/USBFS.c **** 
1445:Generated_Source\PSoC5/USBFS.c ****                 /* Disable DMA channel: start configuration. */
1446:Generated_Source\PSoC5/USBFS.c ****                 USBFS_CyDmaChDisable(channelNum);
1447:Generated_Source\PSoC5/USBFS.c **** 
1448:Generated_Source\PSoC5/USBFS.c ****                 /* Set destination address. */
1449:Generated_Source\PSoC5/USBFS.c ****                 USBFS_CyDmaSetDstAddress(channelNum, USBFS_DMA_DESCR0, (void*) &USBFS_ARB_EP_BASE.a
1450:Generated_Source\PSoC5/USBFS.c ****                 USBFS_CyDmaSetDstAddress(channelNum, USBFS_DMA_DESCR1, (void*) &USBFS_ARB_EP_BASE.a
1451:Generated_Source\PSoC5/USBFS.c **** 
1452:Generated_Source\PSoC5/USBFS.c ****                 /* Configure DMA descriptor. */
1453:Generated_Source\PSoC5/USBFS.c ****                 USBFS_CyDmaSetConfiguration(channelNum, USBFS_DMA_DESCR0, USBFS_DMA_COMMON_CFG  |
ARM GAS  C:\Users\rabbit\AppData\Local\Temp\ccUovuGe.s 			page 43


1454:Generated_Source\PSoC5/USBFS.c ****                                                         CYDMA_BYTE | CYDMA_ELEMENT_WORD | CYDMA_INC
1455:Generated_Source\PSoC5/USBFS.c **** 
1456:Generated_Source\PSoC5/USBFS.c ****                 /* Configure DMA descriptor. */
1457:Generated_Source\PSoC5/USBFS.c ****                 USBFS_CyDmaSetConfiguration(channelNum, USBFS_DMA_DESCR1, USBFS_DMA_COMMON_CFG  |
1458:Generated_Source\PSoC5/USBFS.c ****                                                         CYDMA_BYTE | CYDMA_ELEMENT_WORD | CYDMA_INC
1459:Generated_Source\PSoC5/USBFS.c **** 
1460:Generated_Source\PSoC5/USBFS.c ****                 /* Enable interrupt from DMA channel. */
1461:Generated_Source\PSoC5/USBFS.c ****                 USBFS_CyDmaSetInterruptMask(channelNum);
1462:Generated_Source\PSoC5/USBFS.c **** 
1463:Generated_Source\PSoC5/USBFS.c **** 
1464:Generated_Source\PSoC5/USBFS.c ****                 /* Enable DMA channel: configuration complete. */
1465:Generated_Source\PSoC5/USBFS.c ****                 USBFS_CyDmaChEnable(channelNum);
1466:Generated_Source\PSoC5/USBFS.c **** 
1467:Generated_Source\PSoC5/USBFS.c ****             #else
1468:Generated_Source\PSoC5/USBFS.c ****                 (void) CyDmaChDisable(USBFS_DmaChan[epNumber]);
1469:Generated_Source\PSoC5/USBFS.c **** 
1470:Generated_Source\PSoC5/USBFS.c ****                 #if (USBFS_EP_DMA_AUTO_OPT == 0u)
1471:Generated_Source\PSoC5/USBFS.c ****                     USBFS_inLength[epNumber] = length;
1472:Generated_Source\PSoC5/USBFS.c ****                     USBFS_inDataPointer[epNumber] = pData;
1473:Generated_Source\PSoC5/USBFS.c **** 
1474:Generated_Source\PSoC5/USBFS.c ****                     /* Configure DMA to send data only for first burst */
1475:Generated_Source\PSoC5/USBFS.c ****                     (void) CyDmaTdSetConfiguration(USBFS_DmaTd[epNumber],
1476:Generated_Source\PSoC5/USBFS.c ****                         (length > USBFS_DMA_BYTES_PER_BURST) ? USBFS_DMA_BYTES_PER_BURST : length,
1477:Generated_Source\PSoC5/USBFS.c ****                         USBFS_DmaNextTd[epNumber], TD_TERMIN_EN | TD_INC_SRC_ADR);
1478:Generated_Source\PSoC5/USBFS.c ****                     (void) CyDmaTdSetAddress(USBFS_DmaTd[epNumber], LO16((uint32) pData),
1479:Generated_Source\PSoC5/USBFS.c ****                                                                                LO16((uint32) &USBFS
1480:Generated_Source\PSoC5/USBFS.c **** 
1481:Generated_Source\PSoC5/USBFS.c ****                     /* The second TD will be executed only when the first one fails.
1482:Generated_Source\PSoC5/USBFS.c ****                     *  The intention of this TD is to generate NRQ interrupt
1483:Generated_Source\PSoC5/USBFS.c ****                     *  and repeat 2 last bytes of the first burst.
1484:Generated_Source\PSoC5/USBFS.c ****                     */
1485:Generated_Source\PSoC5/USBFS.c ****                     (void) CyDmaTdSetConfiguration(USBFS_DmaNextTd[epNumber], 1u,
1486:Generated_Source\PSoC5/USBFS.c ****                                                    USBFS_DmaNextTd[epNumber],
1487:Generated_Source\PSoC5/USBFS.c ****                                                    USBFS_epX_TD_TERMOUT_EN[epNumber]);
1488:Generated_Source\PSoC5/USBFS.c **** 
1489:Generated_Source\PSoC5/USBFS.c ****                     /* Configure DmaNextTd to clear Data Ready status. */
1490:Generated_Source\PSoC5/USBFS.c ****                     (void) CyDmaTdSetAddress(USBFS_DmaNextTd[epNumber], LO16((uint32) &clearInDataR
1491:Generated_Source\PSoC5/USBFS.c ****                                                                                    LO16((uint32) &U
1492:Generated_Source\PSoC5/USBFS.c ****                 #else
1493:Generated_Source\PSoC5/USBFS.c ****                     /* Configure DMA to send all data. */
1494:Generated_Source\PSoC5/USBFS.c ****                     (void) CyDmaTdSetConfiguration(USBFS_DmaTd[epNumber], length,
1495:Generated_Source\PSoC5/USBFS.c ****                                                    USBFS_DmaTd[epNumber], TD_TERMIN_EN | TD_INC_SRC
1496:Generated_Source\PSoC5/USBFS.c ****                     (void) CyDmaTdSetAddress(USBFS_DmaTd[epNumber], LO16((uint32) pData),
1497:Generated_Source\PSoC5/USBFS.c ****                                                                                LO16((uint32) &USBFS
1498:Generated_Source\PSoC5/USBFS.c ****                 #endif /* (USBFS_EP_DMA_AUTO_OPT == 0u) */
1499:Generated_Source\PSoC5/USBFS.c **** 
1500:Generated_Source\PSoC5/USBFS.c ****                 /* Clear any potential pending DMA requests before starting DMA channel to transfer
1501:Generated_Source\PSoC5/USBFS.c ****                 (void) CyDmaClearPendingDrq(USBFS_DmaChan[epNumber]);
1502:Generated_Source\PSoC5/USBFS.c ****                 /* Enable DMA. */
1503:Generated_Source\PSoC5/USBFS.c ****                 (void) CyDmaChSetInitialTd(USBFS_DmaChan[epNumber], USBFS_DmaTd[epNumber]);
1504:Generated_Source\PSoC5/USBFS.c ****                 (void) CyDmaChEnable(USBFS_DmaChan[epNumber], 1u);
1505:Generated_Source\PSoC5/USBFS.c ****             #endif /* (CY_PSOC4) */
1506:Generated_Source\PSoC5/USBFS.c ****             }
1507:Generated_Source\PSoC5/USBFS.c ****             else
1508:Generated_Source\PSoC5/USBFS.c ****             {
1509:Generated_Source\PSoC5/USBFS.c ****                 /* IN endpoint buffer (32 bytes) will shortly be preloaded by DMA. */
1510:Generated_Source\PSoC5/USBFS.c ****                 USBFS_EP[epNumber].apiEpState = USBFS_NO_EVENT_PENDING;
ARM GAS  C:\Users\rabbit\AppData\Local\Temp\ccUovuGe.s 			page 44


1511:Generated_Source\PSoC5/USBFS.c **** 
1512:Generated_Source\PSoC5/USBFS.c ****                 if (length > 0u)
1513:Generated_Source\PSoC5/USBFS.c ****                 {
1514:Generated_Source\PSoC5/USBFS.c ****                 #if (CY_PSOC4)
1515:Generated_Source\PSoC5/USBFS.c ****                     uint32 lengthDescr0, lengthDescr1;
1516:Generated_Source\PSoC5/USBFS.c ****                     uint32 channelNum = (uint32) USBFS_DmaChan[epNumber];
1517:Generated_Source\PSoC5/USBFS.c **** 
1518:Generated_Source\PSoC5/USBFS.c ****                     /* Get number of full bursts. */
1519:Generated_Source\PSoC5/USBFS.c ****                     USBFS_DmaEpBurstCnt[epNumber] = (uint8) (length / USBFS_DMA_BYTES_PER_BURST);
1520:Generated_Source\PSoC5/USBFS.c **** 
1521:Generated_Source\PSoC5/USBFS.c ****                     /* Get number of elements in the last burst. */
1522:Generated_Source\PSoC5/USBFS.c ****                     USBFS_DmaEpLastBurstEl[epNumber] = (uint8) (length % USBFS_DMA_BYTES_PER_BURST)
1523:Generated_Source\PSoC5/USBFS.c **** 
1524:Generated_Source\PSoC5/USBFS.c ****                     /* Get total number of bursts. */
1525:Generated_Source\PSoC5/USBFS.c ****                     USBFS_DmaEpBurstCnt[epNumber] += (0u != USBFS_DmaEpLastBurstEl[epNumber]) ? 1u 
1526:Generated_Source\PSoC5/USBFS.c **** 
1527:Generated_Source\PSoC5/USBFS.c ****                     /* Adjust number of data elements transferred in last burst. */
1528:Generated_Source\PSoC5/USBFS.c ****                     USBFS_DmaEpLastBurstEl[epNumber] = (0u != USBFS_DmaEpLastBurstEl[epNumber]) ?
1529:Generated_Source\PSoC5/USBFS.c ****                                                                           (USBFS_DmaEpLastBurstEl[e
1530:Generated_Source\PSoC5/USBFS.c ****                                                                           (USBFS_DMA_BYTES_PER_BURS
1531:Generated_Source\PSoC5/USBFS.c **** 
1532:Generated_Source\PSoC5/USBFS.c ****                     /* Get number of data elements to transfer for descriptor 0 and 1. */
1533:Generated_Source\PSoC5/USBFS.c ****                     lengthDescr0 = (1u == USBFS_DmaEpBurstCnt[epNumber]) ? USBFS_DmaEpLastBurstEl[e
1534:Generated_Source\PSoC5/USBFS.c ****                     lengthDescr1 = (2u == USBFS_DmaEpBurstCnt[epNumber]) ? USBFS_DmaEpLastBurstEl[e
1535:Generated_Source\PSoC5/USBFS.c **** 
1536:Generated_Source\PSoC5/USBFS.c **** 
1537:Generated_Source\PSoC5/USBFS.c ****                     /* Mark which descriptor is last one to execute. */
1538:Generated_Source\PSoC5/USBFS.c ****                     USBFS_DmaEpLastBurstEl[epNumber] |= (0u != (USBFS_DmaEpBurstCnt[epNumber] & 0x1
1539:Generated_Source\PSoC5/USBFS.c ****                                                                             USBFS_DMA_DESCR0_MASK :
1540:Generated_Source\PSoC5/USBFS.c **** 
1541:Generated_Source\PSoC5/USBFS.c ****                     /* Restore DMA settings for current transfer. */
1542:Generated_Source\PSoC5/USBFS.c ****                     USBFS_CyDmaChDisable(channelNum);
1543:Generated_Source\PSoC5/USBFS.c **** 
1544:Generated_Source\PSoC5/USBFS.c ****                     /* Restore destination address for input endpoint. */
1545:Generated_Source\PSoC5/USBFS.c ****                     USBFS_CyDmaSetSrcAddress(channelNum, USBFS_DMA_DESCR0, (void*) ((uint32) USBFS_
1546:Generated_Source\PSoC5/USBFS.c ****                     USBFS_CyDmaSetSrcAddress(channelNum, USBFS_DMA_DESCR1, (void*) ((uint32) USBFS_
1547:Generated_Source\PSoC5/USBFS.c ****                                                                                                    
1548:Generated_Source\PSoC5/USBFS.c **** 
1549:Generated_Source\PSoC5/USBFS.c ****                     /* Set number of elements to transfer. */
1550:Generated_Source\PSoC5/USBFS.c ****                     USBFS_CyDmaSetNumDataElements(channelNum, USBFS_DMA_DESCR0, lengthDescr0);
1551:Generated_Source\PSoC5/USBFS.c ****                     USBFS_CyDmaSetNumDataElements(channelNum, USBFS_DMA_DESCR1, lengthDescr1);
1552:Generated_Source\PSoC5/USBFS.c **** 
1553:Generated_Source\PSoC5/USBFS.c ****                     /* Validate descriptor 0 and command to start with it. */
1554:Generated_Source\PSoC5/USBFS.c ****                     USBFS_CyDmaValidateDescriptor(channelNum, USBFS_DMA_DESCR0);
1555:Generated_Source\PSoC5/USBFS.c ****                     USBFS_CyDmaSetDescriptor0Next(channelNum);
1556:Generated_Source\PSoC5/USBFS.c **** 
1557:Generated_Source\PSoC5/USBFS.c ****                     /* Validate descriptor 1. */
1558:Generated_Source\PSoC5/USBFS.c ****                     if (USBFS_DmaEpBurstCnt[epNumber] > 1u)
1559:Generated_Source\PSoC5/USBFS.c ****                     {
1560:Generated_Source\PSoC5/USBFS.c ****                         USBFS_CyDmaValidateDescriptor(channelNum, USBFS_DMA_DESCR1); 
1561:Generated_Source\PSoC5/USBFS.c ****                     }                   
1562:Generated_Source\PSoC5/USBFS.c **** 
1563:Generated_Source\PSoC5/USBFS.c ****                     /* Adjust burst counter taking to account: 2 valid descriptors and interrupt tr
1564:Generated_Source\PSoC5/USBFS.c ****                     USBFS_DmaEpBurstCnt[epNumber] = USBFS_DMA_GET_BURST_CNT(USBFS_DmaEpBurstCnt[epN
1565:Generated_Source\PSoC5/USBFS.c **** 
1566:Generated_Source\PSoC5/USBFS.c ****                     /* Enable DMA channel: configuration complete. */
1567:Generated_Source\PSoC5/USBFS.c ****                     USBFS_CyDmaChEnable(channelNum);
ARM GAS  C:\Users\rabbit\AppData\Local\Temp\ccUovuGe.s 			page 45


1568:Generated_Source\PSoC5/USBFS.c **** 
1569:Generated_Source\PSoC5/USBFS.c ****                 #elif (USBFS_EP_DMA_AUTO_OPT == 0u)
1570:Generated_Source\PSoC5/USBFS.c ****                     USBFS_inLength[epNumber]  = length;
1571:Generated_Source\PSoC5/USBFS.c ****                     USBFS_inBufFull[epNumber] = 0u;
1572:Generated_Source\PSoC5/USBFS.c **** 
1573:Generated_Source\PSoC5/USBFS.c ****                     (void) CyDmaChDisable(USBFS_DmaChan[epNumber]);
1574:Generated_Source\PSoC5/USBFS.c ****                     /* Configure DMA to send data only for first burst. */
1575:Generated_Source\PSoC5/USBFS.c ****                     (void) CyDmaTdSetConfiguration(
1576:Generated_Source\PSoC5/USBFS.c ****                         USBFS_DmaTd[epNumber], (length > USBFS_DMA_BYTES_PER_BURST) ?
1577:Generated_Source\PSoC5/USBFS.c ****                         USBFS_DMA_BYTES_PER_BURST : length,
1578:Generated_Source\PSoC5/USBFS.c ****                         USBFS_DmaNextTd[epNumber], TD_TERMIN_EN | TD_INC_SRC_ADR );
1579:Generated_Source\PSoC5/USBFS.c ****                     (void) CyDmaTdSetAddress(USBFS_DmaTd[epNumber], LO16((uint32)  USBFS_inDataPoin
1580:Generated_Source\PSoC5/USBFS.c ****                                                                                LO16((uint32) &USBFS
1581:Generated_Source\PSoC5/USBFS.c ****                     /* Clear Any potential pending DMA requests before starting DMA channel to tran
1582:Generated_Source\PSoC5/USBFS.c ****                     (void) CyDmaClearPendingDrq(USBFS_DmaChan[epNumber]);
1583:Generated_Source\PSoC5/USBFS.c ****                     /* Enable DMA. */
1584:Generated_Source\PSoC5/USBFS.c ****                     (void) CyDmaChSetInitialTd(USBFS_DmaChan[epNumber], USBFS_DmaTd[epNumber]);
1585:Generated_Source\PSoC5/USBFS.c ****                     (void) CyDmaChEnable(USBFS_DmaChan[epNumber], 1u);
1586:Generated_Source\PSoC5/USBFS.c ****                 #endif /* (CY_PSOC4) */
1587:Generated_Source\PSoC5/USBFS.c **** 
1588:Generated_Source\PSoC5/USBFS.c ****                 #if !defined (USBFS_MANUAL_IN_EP_ARM)
1589:Generated_Source\PSoC5/USBFS.c ****                     /* Set IN data ready to generate DMA request to load data into endpoint buffer.
1590:Generated_Source\PSoC5/USBFS.c ****                     USBFS_ARB_EP_BASE.arbEp[epNumber].epCfg |= USBFS_ARB_EPX_CFG_IN_DATA_RDY;
1591:Generated_Source\PSoC5/USBFS.c ****                 #endif  /* (USBFS_MANUAL_IN_EP_ARM) */
1592:Generated_Source\PSoC5/USBFS.c **** 
1593:Generated_Source\PSoC5/USBFS.c ****                     /* IN endpoint will be armed in ARB_ISR(source: IN_BUF_FULL) after first DMA tr
1594:Generated_Source\PSoC5/USBFS.c ****                 }
1595:Generated_Source\PSoC5/USBFS.c ****                 else
1596:Generated_Source\PSoC5/USBFS.c ****                 {
1597:Generated_Source\PSoC5/USBFS.c ****                     /* When zero-length packet: arm IN endpoint directly. */
1598:Generated_Source\PSoC5/USBFS.c ****                     USBFS_SIE_EP_BASE.sieEp[epNumber].epCr0 = USBFS_EP[epNumber].epMode;
1599:Generated_Source\PSoC5/USBFS.c ****                 }
1600:Generated_Source\PSoC5/USBFS.c ****             }
1601:Generated_Source\PSoC5/USBFS.c ****         #endif /* (USBFS_EP_MANAGEMENT_DMA_AUTO) */
1602:Generated_Source\PSoC5/USBFS.c ****     #endif /* (USBFS_EP_MANAGEMENT_MANUAL) */
1603:Generated_Source\PSoC5/USBFS.c ****     }
1604:Generated_Source\PSoC5/USBFS.c **** }
1605:Generated_Source\PSoC5/USBFS.c **** 
1606:Generated_Source\PSoC5/USBFS.c **** 
1607:Generated_Source\PSoC5/USBFS.c **** /*******************************************************************************
1608:Generated_Source\PSoC5/USBFS.c **** * Function Name: USBFS_ReadOutEP
1609:Generated_Source\PSoC5/USBFS.c **** ****************************************************************************//**
1610:Generated_Source\PSoC5/USBFS.c **** *
1611:Generated_Source\PSoC5/USBFS.c **** *   This function performs different functionality depending on the Component’s
1612:Generated_Source\PSoC5/USBFS.c **** *   configured Endpoint Buffer Management. This parameter is defined in the
1613:Generated_Source\PSoC5/USBFS.c **** *   Descriptor Root in Component Configure window.
1614:Generated_Source\PSoC5/USBFS.c **** *
1615:Generated_Source\PSoC5/USBFS.c **** *   *Manual (Static/Dynamic Allocation):*
1616:Generated_Source\PSoC5/USBFS.c **** *   This function moves the specified number of bytes from endpoint buffer to
1617:Generated_Source\PSoC5/USBFS.c **** *   system RAM. The number of bytes actually transferred from endpoint buffer to
1618:Generated_Source\PSoC5/USBFS.c **** *   system RAM is the lesser of the actual number of bytes sent by the host or
1619:Generated_Source\PSoC5/USBFS.c **** *   the number of bytes requested by the length parameter.
1620:Generated_Source\PSoC5/USBFS.c **** *
1621:Generated_Source\PSoC5/USBFS.c **** *   *DMA with Manual Buffer Management:*
1622:Generated_Source\PSoC5/USBFS.c **** *   Configure DMA to transfer data from endpoint buffer to system RAM. Generate
1623:Generated_Source\PSoC5/USBFS.c **** *   a DMA request. The firmware must wait until the DMA completes the data
1624:Generated_Source\PSoC5/USBFS.c **** *   transfer after calling the USBFS_ReadOutEP() API. For example,
ARM GAS  C:\Users\rabbit\AppData\Local\Temp\ccUovuGe.s 			page 46


1625:Generated_Source\PSoC5/USBFS.c **** *   by checking EPstate:
1626:Generated_Source\PSoC5/USBFS.c **** *
1627:Generated_Source\PSoC5/USBFS.c **** *   \snippet /USBFS_sut_02.cydsn/main.c checking EPstatey
1628:Generated_Source\PSoC5/USBFS.c **** *
1629:Generated_Source\PSoC5/USBFS.c **** *   The USBFS_EnableOutEP() has to be called to allow host to write data into
1630:Generated_Source\PSoC5/USBFS.c **** *   the endpoint buffer after DMA has completed transfer data from OUT endpoint
1631:Generated_Source\PSoC5/USBFS.c **** *   buffer to SRAM.
1632:Generated_Source\PSoC5/USBFS.c **** *
1633:Generated_Source\PSoC5/USBFS.c **** *   *DMA with Automatic Buffer Management:*
1634:Generated_Source\PSoC5/USBFS.c **** *   Configure DMA. This is required only once and automatically generates DMA
1635:Generated_Source\PSoC5/USBFS.c **** *   requests as data arrives
1636:Generated_Source\PSoC5/USBFS.c **** *
1637:Generated_Source\PSoC5/USBFS.c **** *  \param epNumber: Contains the data endpoint number.
1638:Generated_Source\PSoC5/USBFS.c **** *            Valid values are between 1 and 8.
1639:Generated_Source\PSoC5/USBFS.c **** *  \param pData: A pointer to a data array from which the data for the endpoint
1640:Generated_Source\PSoC5/USBFS.c **** *         space is loaded.
1641:Generated_Source\PSoC5/USBFS.c **** *  \param length: The number of bytes to transfer from the USB Out endpoint and
1642:Generated_Source\PSoC5/USBFS.c **** *          loads it into data array. Valid values are between 0 and 1023. The
1643:Generated_Source\PSoC5/USBFS.c **** *          function moves fewer than the requested number of bytes if the host
1644:Generated_Source\PSoC5/USBFS.c **** *          sends fewer bytes than requested.
1645:Generated_Source\PSoC5/USBFS.c **** *
1646:Generated_Source\PSoC5/USBFS.c **** * \return
1647:Generated_Source\PSoC5/USBFS.c **** *  Number of bytes received, 0 for an invalid endpoint.
1648:Generated_Source\PSoC5/USBFS.c **** *
1649:Generated_Source\PSoC5/USBFS.c **** * \reentrant
1650:Generated_Source\PSoC5/USBFS.c **** *  No.
1651:Generated_Source\PSoC5/USBFS.c **** *
1652:Generated_Source\PSoC5/USBFS.c **** *******************************************************************************/
1653:Generated_Source\PSoC5/USBFS.c **** uint16 USBFS_ReadOutEP(uint8 epNumber, uint8 pData[], uint16 length)
1654:Generated_Source\PSoC5/USBFS.c ****                                                                         
1655:Generated_Source\PSoC5/USBFS.c **** {
1656:Generated_Source\PSoC5/USBFS.c ****     if ((pData != NULL) && (epNumber > USBFS_EP0) && (epNumber < USBFS_MAX_EP))
1657:Generated_Source\PSoC5/USBFS.c ****     {
1658:Generated_Source\PSoC5/USBFS.c ****     #if (!USBFS_EP_MANAGEMENT_DMA_AUTO)
1659:Generated_Source\PSoC5/USBFS.c ****         /* Adjust requested length to available data. */
1660:Generated_Source\PSoC5/USBFS.c ****         length = (length > USBFS_GetEPCount(epNumber)) ? USBFS_GetEPCount(epNumber) : length;
1661:Generated_Source\PSoC5/USBFS.c ****     #endif /* (!USBFS_EP_MANAGEMENT_DMA_AUTO) */
1662:Generated_Source\PSoC5/USBFS.c **** 
1663:Generated_Source\PSoC5/USBFS.c ****     #if (USBFS_EP_MANAGEMENT_MANUAL)
1664:Generated_Source\PSoC5/USBFS.c ****         {
1665:Generated_Source\PSoC5/USBFS.c ****             /* Copy data using arbiter data register. */
1666:Generated_Source\PSoC5/USBFS.c ****             uint16 i;
1667:Generated_Source\PSoC5/USBFS.c ****             for (i = 0u; i < length; ++i)
1668:Generated_Source\PSoC5/USBFS.c ****             {
1669:Generated_Source\PSoC5/USBFS.c ****                 pData[i] = (uint8) USBFS_ARB_EP_BASE.arbEp[epNumber].rwDr;
1670:Generated_Source\PSoC5/USBFS.c ****             }
1671:Generated_Source\PSoC5/USBFS.c ****         }
1672:Generated_Source\PSoC5/USBFS.c **** 
1673:Generated_Source\PSoC5/USBFS.c ****         /* Arm OUT endpoint after data has been copied from endpoint buffer. */
1674:Generated_Source\PSoC5/USBFS.c ****         USBFS_EnableOutEP(epNumber);
1675:Generated_Source\PSoC5/USBFS.c ****     #else
1676:Generated_Source\PSoC5/USBFS.c **** 
1677:Generated_Source\PSoC5/USBFS.c ****         #if (CY_PSOC3 || CY_PSOC5LP)
1678:Generated_Source\PSoC5/USBFS.c ****             /* Initialize DMA if it was not initialized. */
1679:Generated_Source\PSoC5/USBFS.c ****             if (DMA_INVALID_TD == USBFS_DmaTd[epNumber])
1680:Generated_Source\PSoC5/USBFS.c ****             {
1681:Generated_Source\PSoC5/USBFS.c ****                 USBFS_InitEP_DMA(epNumber, pData);
ARM GAS  C:\Users\rabbit\AppData\Local\Temp\ccUovuGe.s 			page 47


1682:Generated_Source\PSoC5/USBFS.c ****             }
1683:Generated_Source\PSoC5/USBFS.c ****         #endif /* (CY_PSOC3 || CY_PSOC5LP) */
1684:Generated_Source\PSoC5/USBFS.c **** 
1685:Generated_Source\PSoC5/USBFS.c ****         #if (USBFS_EP_MANAGEMENT_DMA_MANUAL)
1686:Generated_Source\PSoC5/USBFS.c ****         #if (CY_PSOC4)
1687:Generated_Source\PSoC5/USBFS.c ****         {
1688:Generated_Source\PSoC5/USBFS.c ****             uint32 channelNum = (uint32) USBFS_DmaChan[epNumber];
1689:Generated_Source\PSoC5/USBFS.c **** 
1690:Generated_Source\PSoC5/USBFS.c ****             /* Disable DMA channel: start configuration. */
1691:Generated_Source\PSoC5/USBFS.c ****             USBFS_CyDmaChDisable(channelNum);
1692:Generated_Source\PSoC5/USBFS.c **** 
1693:Generated_Source\PSoC5/USBFS.c ****             /* Configure source and destination. */
1694:Generated_Source\PSoC5/USBFS.c ****             USBFS_CyDmaSetSrcAddress(channelNum, USBFS_DMA_DESCR0, (void*) &USBFS_ARB_EP_BASE.arbEp
1695:Generated_Source\PSoC5/USBFS.c ****             USBFS_CyDmaSetDstAddress(channelNum, USBFS_DMA_DESCR0, (void*) pData);
1696:Generated_Source\PSoC5/USBFS.c **** 
1697:Generated_Source\PSoC5/USBFS.c ****             /* Configure DMA descriptor. */
1698:Generated_Source\PSoC5/USBFS.c ****             USBFS_CyDmaSetConfiguration(channelNum, USBFS_DMA_DESCR0, USBFS_DMA_COMMON_CFG | (uint1
1699:Generated_Source\PSoC5/USBFS.c ****                                                     CYDMA_BYTE | CYDMA_WORD_ELEMENT | CYDMA_INC_DST
1700:Generated_Source\PSoC5/USBFS.c **** 
1701:Generated_Source\PSoC5/USBFS.c ****             /* Validate descriptor to execute on following DMA request. */
1702:Generated_Source\PSoC5/USBFS.c ****             USBFS_CyDmaValidateDescriptor(channelNum, USBFS_DMA_DESCR0);
1703:Generated_Source\PSoC5/USBFS.c **** 
1704:Generated_Source\PSoC5/USBFS.c ****             /* Enable DMA channel: configuration complete. */
1705:Generated_Source\PSoC5/USBFS.c ****             USBFS_CyDmaChEnable(channelNum);
1706:Generated_Source\PSoC5/USBFS.c ****         }
1707:Generated_Source\PSoC5/USBFS.c ****         #else
1708:Generated_Source\PSoC5/USBFS.c ****             /* Configure DMA to transfer data. */
1709:Generated_Source\PSoC5/USBFS.c ****             (void) CyDmaChDisable(USBFS_DmaChan[epNumber]);
1710:Generated_Source\PSoC5/USBFS.c ****             (void) CyDmaTdSetConfiguration(USBFS_DmaTd[epNumber], length, CY_DMA_DISABLE_TD, TD_TER
1711:Generated_Source\PSoC5/USBFS.c ****             (void) CyDmaTdSetAddress(USBFS_DmaTd[epNumber], LO16((uint32) &USBFS_ARB_EP_BASE.arbEp[
1712:Generated_Source\PSoC5/USBFS.c **** 
1713:Generated_Source\PSoC5/USBFS.c ****             /* Enable DMA channel. */
1714:Generated_Source\PSoC5/USBFS.c ****             (void) CyDmaChSetInitialTd(USBFS_DmaChan[epNumber], USBFS_DmaTd[epNumber]);
1715:Generated_Source\PSoC5/USBFS.c ****             (void) CyDmaChEnable(USBFS_DmaChan[epNumber], 1u);
1716:Generated_Source\PSoC5/USBFS.c ****         #endif /* (CY_PSOC4) */
1717:Generated_Source\PSoC5/USBFS.c **** 
1718:Generated_Source\PSoC5/USBFS.c ****             /* Generate DMA request. */
1719:Generated_Source\PSoC5/USBFS.c ****             USBFS_ARB_EP_BASE.arbEp[epNumber].epCfg |=  (uint8)  USBFS_ARB_EPX_CFG_DMA_REQ;
1720:Generated_Source\PSoC5/USBFS.c ****             USBFS_ARB_EP_BASE.arbEp[epNumber].epCfg &=  (uint8) ~USBFS_ARB_EPX_CFG_DMA_REQ;
1721:Generated_Source\PSoC5/USBFS.c **** 
1722:Generated_Source\PSoC5/USBFS.c ****             /* OUT endpoint has to be armed again by user when DMA transfers have been completed.
1723:Generated_Source\PSoC5/USBFS.c ****             * NO_EVENT_PENDING: notifies that data has been copied from endpoint buffer.
1724:Generated_Source\PSoC5/USBFS.c ****             */
1725:Generated_Source\PSoC5/USBFS.c **** 
1726:Generated_Source\PSoC5/USBFS.c ****         #endif /* (USBFS_EP_MANAGEMENT_DMA_MANUAL) */
1727:Generated_Source\PSoC5/USBFS.c **** 
1728:Generated_Source\PSoC5/USBFS.c ****         #if (USBFS_EP_MANAGEMENT_DMA_AUTO)
1729:Generated_Source\PSoC5/USBFS.c ****         #if (CY_PSOC4)
1730:Generated_Source\PSoC5/USBFS.c ****         {
1731:Generated_Source\PSoC5/USBFS.c ****             uint32 channelNum = (uint32) USBFS_DmaChan[epNumber];
1732:Generated_Source\PSoC5/USBFS.c ****             uint32 lengthDescr0, lengthDescr1;
1733:Generated_Source\PSoC5/USBFS.c **** 
1734:Generated_Source\PSoC5/USBFS.c ****             /* Get number of full bursts. */
1735:Generated_Source\PSoC5/USBFS.c ****             USBFS_DmaEpBurstCnt[epNumber] = (uint8) (length / USBFS_DMA_BYTES_PER_BURST);
1736:Generated_Source\PSoC5/USBFS.c **** 
1737:Generated_Source\PSoC5/USBFS.c ****             /* Get number of elements in the last burst. */
1738:Generated_Source\PSoC5/USBFS.c ****             USBFS_DmaEpLastBurstEl[epNumber] = (uint8) (length % USBFS_DMA_BYTES_PER_BURST);
ARM GAS  C:\Users\rabbit\AppData\Local\Temp\ccUovuGe.s 			page 48


1739:Generated_Source\PSoC5/USBFS.c **** 
1740:Generated_Source\PSoC5/USBFS.c ****             /* Get total number of bursts. */
1741:Generated_Source\PSoC5/USBFS.c ****             USBFS_DmaEpBurstCnt[epNumber] += (0u != USBFS_DmaEpLastBurstEl[epNumber]) ? 1u : 0u;
1742:Generated_Source\PSoC5/USBFS.c **** 
1743:Generated_Source\PSoC5/USBFS.c ****             /* Adjust number of the data elements transfered in last burst. */
1744:Generated_Source\PSoC5/USBFS.c ****             USBFS_DmaEpLastBurstEl[epNumber] = (0u != USBFS_DmaEpLastBurstEl[epNumber]) ?
1745:Generated_Source\PSoC5/USBFS.c ****                                                                   (USBFS_DmaEpLastBurstEl[epNumber]
1746:Generated_Source\PSoC5/USBFS.c ****                                                                   (USBFS_DMA_BYTES_PER_BURST - 1u);
1747:Generated_Source\PSoC5/USBFS.c **** 
1748:Generated_Source\PSoC5/USBFS.c ****             /* Get number of data elements to transfer for descriptor 0 and 1. */
1749:Generated_Source\PSoC5/USBFS.c ****             lengthDescr0 = (1u == USBFS_DmaEpBurstCnt[epNumber]) ? USBFS_DmaEpLastBurstEl[epNumber]
1750:Generated_Source\PSoC5/USBFS.c ****             lengthDescr1 = (2u == USBFS_DmaEpBurstCnt[epNumber]) ? USBFS_DmaEpLastBurstEl[epNumber]
1751:Generated_Source\PSoC5/USBFS.c **** 
1752:Generated_Source\PSoC5/USBFS.c ****             /* Mark if revert number of data elements in descriptor after transfer completion. */
1753:Generated_Source\PSoC5/USBFS.c ****             USBFS_DmaEpLastBurstEl[epNumber] |= (USBFS_DmaEpBurstCnt[epNumber] > 2u) ? USBFS_DMA_DE
1754:Generated_Source\PSoC5/USBFS.c **** 
1755:Generated_Source\PSoC5/USBFS.c ****             /* Mark last descriptor to be executed. */
1756:Generated_Source\PSoC5/USBFS.c ****             USBFS_DmaEpLastBurstEl[epNumber] |= (0u != (USBFS_DmaEpBurstCnt[epNumber] & 0x1u)) ?
1757:Generated_Source\PSoC5/USBFS.c ****                                                                     USBFS_DMA_DESCR0_MASK : USBFS_D
1758:Generated_Source\PSoC5/USBFS.c **** 
1759:Generated_Source\PSoC5/USBFS.c ****             /* Store address of buffer and burst counter for endpoint. */
1760:Generated_Source\PSoC5/USBFS.c ****             USBFS_DmaEpBufferAddrBackup[epNumber] = (uint32) pData;
1761:Generated_Source\PSoC5/USBFS.c ****             USBFS_DmaEpBurstCntBackup[epNumber]   = USBFS_DmaEpBurstCnt[epNumber];
1762:Generated_Source\PSoC5/USBFS.c **** 
1763:Generated_Source\PSoC5/USBFS.c ****             /* Adjust burst counter taking to account: 2 valid descriptors and interrupt trigger af
1764:Generated_Source\PSoC5/USBFS.c ****             USBFS_DmaEpBurstCnt[epNumber] = USBFS_DMA_GET_BURST_CNT(USBFS_DmaEpBurstCnt[epNumber]);
1765:Generated_Source\PSoC5/USBFS.c **** 
1766:Generated_Source\PSoC5/USBFS.c ****             /* Disable DMA channel: start configuration. */
1767:Generated_Source\PSoC5/USBFS.c ****             USBFS_CyDmaChDisable(channelNum);
1768:Generated_Source\PSoC5/USBFS.c **** 
1769:Generated_Source\PSoC5/USBFS.c ****             /* Set destination address. */
1770:Generated_Source\PSoC5/USBFS.c ****             USBFS_CyDmaSetSrcAddress(channelNum, USBFS_DMA_DESCR0, (void*) &USBFS_ARB_EP_BASE.arbEp
1771:Generated_Source\PSoC5/USBFS.c ****             USBFS_CyDmaSetSrcAddress(channelNum, USBFS_DMA_DESCR1, (void*) &USBFS_ARB_EP_BASE.arbEp
1772:Generated_Source\PSoC5/USBFS.c **** 
1773:Generated_Source\PSoC5/USBFS.c ****             USBFS_CyDmaSetDstAddress(channelNum, USBFS_DMA_DESCR0, (void*) ((uint32) pData));
1774:Generated_Source\PSoC5/USBFS.c ****             USBFS_CyDmaSetDstAddress(channelNum, USBFS_DMA_DESCR1, (void*) ((uint32) pData + USBFS_
1775:Generated_Source\PSoC5/USBFS.c **** 
1776:Generated_Source\PSoC5/USBFS.c ****             /* Configure DMA descriptor. */
1777:Generated_Source\PSoC5/USBFS.c ****             USBFS_CyDmaSetConfiguration(channelNum, USBFS_DMA_DESCR0, USBFS_DMA_COMMON_CFG  | lengt
1778:Generated_Source\PSoC5/USBFS.c ****                                                     CYDMA_BYTE | CYDMA_WORD_ELEMENT | CYDMA_INC_DST
1779:Generated_Source\PSoC5/USBFS.c **** 
1780:Generated_Source\PSoC5/USBFS.c ****             /* Configure DMA descriptor. */
1781:Generated_Source\PSoC5/USBFS.c ****             USBFS_CyDmaSetConfiguration(channelNum, USBFS_DMA_DESCR1, USBFS_DMA_COMMON_CFG  | lengt
1782:Generated_Source\PSoC5/USBFS.c ****                                                     CYDMA_BYTE | CYDMA_WORD_ELEMENT | CYDMA_INC_DST
1783:Generated_Source\PSoC5/USBFS.c **** 
1784:Generated_Source\PSoC5/USBFS.c ****             /* Enable interrupt from DMA channel. */
1785:Generated_Source\PSoC5/USBFS.c ****             USBFS_CyDmaSetInterruptMask(channelNum);
1786:Generated_Source\PSoC5/USBFS.c **** 
1787:Generated_Source\PSoC5/USBFS.c ****             /* Validate DMA descriptor 0 and 1. */
1788:Generated_Source\PSoC5/USBFS.c ****             USBFS_CyDmaValidateDescriptor(channelNum, USBFS_DMA_DESCR0);
1789:Generated_Source\PSoC5/USBFS.c **** 
1790:Generated_Source\PSoC5/USBFS.c ****             if (USBFS_DmaEpBurstCntBackup[epNumber] > 1u)
1791:Generated_Source\PSoC5/USBFS.c ****             {
1792:Generated_Source\PSoC5/USBFS.c ****                 USBFS_CyDmaValidateDescriptor(channelNum, USBFS_DMA_DESCR1);
1793:Generated_Source\PSoC5/USBFS.c ****             }
1794:Generated_Source\PSoC5/USBFS.c **** 
1795:Generated_Source\PSoC5/USBFS.c ****             /* Enable DMA channel: configuration complete. */
ARM GAS  C:\Users\rabbit\AppData\Local\Temp\ccUovuGe.s 			page 49


1796:Generated_Source\PSoC5/USBFS.c ****             USBFS_CyDmaChEnable(channelNum);
1797:Generated_Source\PSoC5/USBFS.c ****         }
1798:Generated_Source\PSoC5/USBFS.c ****         #else
1799:Generated_Source\PSoC5/USBFS.c ****             (void) CyDmaChDisable(USBFS_DmaChan[epNumber]);
1800:Generated_Source\PSoC5/USBFS.c ****             (void) CyDmaTdSetConfiguration(USBFS_DmaTd[epNumber], length,  USBFS_DmaTd[epNumber], T
1801:Generated_Source\PSoC5/USBFS.c ****             (void) CyDmaTdSetAddress(USBFS_DmaTd[epNumber], LO16((uint32) &USBFS_ARB_EP_BASE.arbEp[
1802:Generated_Source\PSoC5/USBFS.c **** 
1803:Generated_Source\PSoC5/USBFS.c ****             /* Clear Any potential pending DMA requests before starting DMA channel to transfer dat
1804:Generated_Source\PSoC5/USBFS.c ****             (void) CyDmaClearPendingDrq(USBFS_DmaChan[epNumber]);
1805:Generated_Source\PSoC5/USBFS.c **** 
1806:Generated_Source\PSoC5/USBFS.c ****             /* Enable DMA channel. */
1807:Generated_Source\PSoC5/USBFS.c ****             (void) CyDmaChSetInitialTd(USBFS_DmaChan[epNumber], USBFS_DmaTd[epNumber]);
1808:Generated_Source\PSoC5/USBFS.c ****             (void) CyDmaChEnable(USBFS_DmaChan[epNumber], 1u);
1809:Generated_Source\PSoC5/USBFS.c ****         #endif /* (CY_PSOC4) */
1810:Generated_Source\PSoC5/USBFS.c **** 
1811:Generated_Source\PSoC5/USBFS.c ****             /* OUT endpoint has to be armed again by user when DMA transfers have been completed.
1812:Generated_Source\PSoC5/USBFS.c ****             * NO_EVENT_PENDING: notifies that data has been copied from endpoint buffer.
1813:Generated_Source\PSoC5/USBFS.c ****             */
1814:Generated_Source\PSoC5/USBFS.c **** 
1815:Generated_Source\PSoC5/USBFS.c ****         #endif /* (USBFS_EP_MANAGEMENT_DMA_AUTO) */
1816:Generated_Source\PSoC5/USBFS.c ****     #endif /* (USBFS_EP_MANAGEMENT_MANUAL) */
1817:Generated_Source\PSoC5/USBFS.c ****     }
1818:Generated_Source\PSoC5/USBFS.c ****     else
1819:Generated_Source\PSoC5/USBFS.c ****     {
1820:Generated_Source\PSoC5/USBFS.c ****         length = 0u;
1821:Generated_Source\PSoC5/USBFS.c ****     }
1822:Generated_Source\PSoC5/USBFS.c **** 
1823:Generated_Source\PSoC5/USBFS.c ****     return (length);
1824:Generated_Source\PSoC5/USBFS.c **** }
1825:Generated_Source\PSoC5/USBFS.c **** 
1826:Generated_Source\PSoC5/USBFS.c **** 
1827:Generated_Source\PSoC5/USBFS.c **** #if (USBFS_16BITS_EP_ACCESS_ENABLE)
1828:Generated_Source\PSoC5/USBFS.c **** /*******************************************************************************
1829:Generated_Source\PSoC5/USBFS.c **** * Function Name: USBFS_LoadInEP16
1830:Generated_Source\PSoC5/USBFS.c **** ****************************************************************************//**
1831:Generated_Source\PSoC5/USBFS.c **** *
1832:Generated_Source\PSoC5/USBFS.c **** *  This function performs different functionality depending on the Component’s
1833:Generated_Source\PSoC5/USBFS.c **** *  configured Endpoint Buffer Management. This parameter is defined in
1834:Generated_Source\PSoC5/USBFS.c **** *  the Descriptor Root in Component Configure window.
1835:Generated_Source\PSoC5/USBFS.c **** *
1836:Generated_Source\PSoC5/USBFS.c **** *  *Manual (Static/Dynamic Allocation):*
1837:Generated_Source\PSoC5/USBFS.c **** *  This function loads and enables the specified USB data endpoint for an IN
1838:Generated_Source\PSoC5/USBFS.c **** *  data transfer.
1839:Generated_Source\PSoC5/USBFS.c **** *
1840:Generated_Source\PSoC5/USBFS.c **** *  *DMA with Manual Buffer Management:*
1841:Generated_Source\PSoC5/USBFS.c **** *  Configures DMA for a data transfer from system RAM to endpoint buffer.
1842:Generated_Source\PSoC5/USBFS.c **** *  Generates request for a transfer.
1843:Generated_Source\PSoC5/USBFS.c **** *
1844:Generated_Source\PSoC5/USBFS.c **** *  *DMA with Automatic Buffer Management:*
1845:Generated_Source\PSoC5/USBFS.c **** *  Configures DMA. This is required only once, so it is done only when parameter
1846:Generated_Source\PSoC5/USBFS.c **** *  pData is not NULL. When the pData pointer is NULL, the function skips this
1847:Generated_Source\PSoC5/USBFS.c **** *  task. Sets Data ready status: This generates the first DMA transfer and
1848:Generated_Source\PSoC5/USBFS.c **** *  prepares data in endpoint buffer.
1849:Generated_Source\PSoC5/USBFS.c **** *
1850:Generated_Source\PSoC5/USBFS.c **** *  \param epNumber Contains the data endpoint number.
1851:Generated_Source\PSoC5/USBFS.c **** *        Valid values are between 1 and 8.
1852:Generated_Source\PSoC5/USBFS.c **** *  \param *pData A pointer to a data array from which the data for the endpoint
ARM GAS  C:\Users\rabbit\AppData\Local\Temp\ccUovuGe.s 			page 50


1853:Generated_Source\PSoC5/USBFS.c **** *        space is loaded. It shall be ensured that this pointer address is even
1854:Generated_Source\PSoC5/USBFS.c **** *        to ensure the 16-bit transfer is aligned to even address. Else, a hard
1855:Generated_Source\PSoC5/USBFS.c **** *        fault condition can occur.
1856:Generated_Source\PSoC5/USBFS.c **** *  \param length The number of bytes to transfer from the array and then send as
1857:Generated_Source\PSoC5/USBFS.c **** *        a result of an IN request. Valid values are between 0 and 512 (1023 for
1858:Generated_Source\PSoC5/USBFS.c **** *        DMA with Automatic Buffer Management mode). The value 512 is applicable
1859:Generated_Source\PSoC5/USBFS.c **** *        if only one endpoint is used.
1860:Generated_Source\PSoC5/USBFS.c **** *
1861:Generated_Source\PSoC5/USBFS.c **** * \reentrant
1862:Generated_Source\PSoC5/USBFS.c **** *  No.
1863:Generated_Source\PSoC5/USBFS.c **** *
1864:Generated_Source\PSoC5/USBFS.c **** *******************************************************************************/
1865:Generated_Source\PSoC5/USBFS.c **** void USBFS_LoadInEP16(uint8 epNumber, const uint8 pData[], uint16 length)
1866:Generated_Source\PSoC5/USBFS.c **** {
1867:Generated_Source\PSoC5/USBFS.c ****     /* Check array alignment on half-word boundary. */
1868:Generated_Source\PSoC5/USBFS.c ****     CYASSERT(0u == (((uint32) pData) & 0x01u));
1869:Generated_Source\PSoC5/USBFS.c **** 
1870:Generated_Source\PSoC5/USBFS.c ****     if ((epNumber > USBFS_EP0) && (epNumber < USBFS_MAX_EP))
1871:Generated_Source\PSoC5/USBFS.c ****     {
1872:Generated_Source\PSoC5/USBFS.c ****     #if (!USBFS_EP_MANAGEMENT_DMA_AUTO)
1873:Generated_Source\PSoC5/USBFS.c ****         /* Limit length to available buffer USB IP buffer size. */
1874:Generated_Source\PSoC5/USBFS.c ****         if (length > (USBFS_EPX_DATA_BUF_MAX - USBFS_EP[epNumber].buffOffset))
1875:Generated_Source\PSoC5/USBFS.c ****         {
1876:Generated_Source\PSoC5/USBFS.c ****             length = USBFS_EPX_DATA_BUF_MAX - USBFS_EP[epNumber].buffOffset;
1877:Generated_Source\PSoC5/USBFS.c ****         }
1878:Generated_Source\PSoC5/USBFS.c ****     #endif /* (!USBFS_EP_MANAGEMENT_DMA_AUTO) */
1879:Generated_Source\PSoC5/USBFS.c **** 
1880:Generated_Source\PSoC5/USBFS.c ****         /* Set count and data toggle. */
1881:Generated_Source\PSoC5/USBFS.c ****         USBFS_SIE_EP_BASE.sieEp[epNumber].epCnt0 = (uint32) HI8(length) | USBFS_EP[epNumber].epTogg
1882:Generated_Source\PSoC5/USBFS.c ****         USBFS_SIE_EP_BASE.sieEp[epNumber].epCnt1 = (uint32) LO8(length);
1883:Generated_Source\PSoC5/USBFS.c **** 
1884:Generated_Source\PSoC5/USBFS.c ****         /* Adjust requested length: 2 bytes are handled at one data register access. */
1885:Generated_Source\PSoC5/USBFS.c ****         length += (length & 0x01u);
1886:Generated_Source\PSoC5/USBFS.c **** 
1887:Generated_Source\PSoC5/USBFS.c ****     #if (USBFS_EP_MANAGEMENT_MANUAL)
1888:Generated_Source\PSoC5/USBFS.c ****         if (NULL != pData)
1889:Generated_Source\PSoC5/USBFS.c ****         {
1890:Generated_Source\PSoC5/USBFS.c ****             /* Convert uint8 array to uint16. */
1891:Generated_Source\PSoC5/USBFS.c ****             const uint16 *dataBuf = (uint16 *) pData;
1892:Generated_Source\PSoC5/USBFS.c **** 
1893:Generated_Source\PSoC5/USBFS.c ****             /* Copy data using 16-bits arbiter data register. */
1894:Generated_Source\PSoC5/USBFS.c ****             uint16 i;
1895:Generated_Source\PSoC5/USBFS.c ****             for (i = 0u; i < (length >> 1u); ++i)
1896:Generated_Source\PSoC5/USBFS.c ****             {
1897:Generated_Source\PSoC5/USBFS.c ****                 USBFS_ARB_EP16_BASE.arbEp[epNumber].rwDr16 = dataBuf[i];
1898:Generated_Source\PSoC5/USBFS.c ****             }
1899:Generated_Source\PSoC5/USBFS.c ****         }
1900:Generated_Source\PSoC5/USBFS.c **** 
1901:Generated_Source\PSoC5/USBFS.c ****         /* IN endpoint buffer is full - read to be read. */
1902:Generated_Source\PSoC5/USBFS.c ****         USBFS_EP[epNumber].apiEpState = USBFS_NO_EVENT_PENDING;
1903:Generated_Source\PSoC5/USBFS.c **** 
1904:Generated_Source\PSoC5/USBFS.c ****         /* Arm IN endpoint. */
1905:Generated_Source\PSoC5/USBFS.c ****         USBFS_SIE_EP_BASE.sieEp[epNumber].epCr0 = USBFS_EP[epNumber].epMode;
1906:Generated_Source\PSoC5/USBFS.c **** 
1907:Generated_Source\PSoC5/USBFS.c ****     #else
1908:Generated_Source\PSoC5/USBFS.c **** 
1909:Generated_Source\PSoC5/USBFS.c ****         #if (USBFS_EP_MANAGEMENT_DMA_MANUAL)
ARM GAS  C:\Users\rabbit\AppData\Local\Temp\ccUovuGe.s 			page 51


1910:Generated_Source\PSoC5/USBFS.c ****             /* IN endpoint buffer will be fully loaded by DMA shortly. */
1911:Generated_Source\PSoC5/USBFS.c ****             USBFS_EP[epNumber].apiEpState = USBFS_NO_EVENT_PENDING;
1912:Generated_Source\PSoC5/USBFS.c **** 
1913:Generated_Source\PSoC5/USBFS.c ****             if ((pData != NULL) && (length > 0u))
1914:Generated_Source\PSoC5/USBFS.c ****             {
1915:Generated_Source\PSoC5/USBFS.c ****                 uint32 channelNum = (uint32) USBFS_DmaChan[epNumber];
1916:Generated_Source\PSoC5/USBFS.c **** 
1917:Generated_Source\PSoC5/USBFS.c ****                 /* Disable DMA channel: start configuration. */
1918:Generated_Source\PSoC5/USBFS.c ****                 USBFS_CyDmaChDisable(channelNum);
1919:Generated_Source\PSoC5/USBFS.c **** 
1920:Generated_Source\PSoC5/USBFS.c ****                 /* Configure source and destination. */
1921:Generated_Source\PSoC5/USBFS.c ****                 USBFS_CyDmaSetSrcAddress(channelNum, USBFS_DMA_DESCR0, (void*) pData);
1922:Generated_Source\PSoC5/USBFS.c ****                 USBFS_CyDmaSetDstAddress(channelNum, USBFS_DMA_DESCR0, (void*) &USBFS_ARB_EP16_BASE
1923:Generated_Source\PSoC5/USBFS.c **** 
1924:Generated_Source\PSoC5/USBFS.c ****                 /* Configure DMA descriptor. */
1925:Generated_Source\PSoC5/USBFS.c ****                 length = (length >> 1u) - 1u;
1926:Generated_Source\PSoC5/USBFS.c ****                 USBFS_CyDmaSetConfiguration(channelNum, USBFS_DMA_DESCR0, USBFS_DMA_COMMON_CFG | le
1927:Generated_Source\PSoC5/USBFS.c ****                                                         CYDMA_HALFWORD | CYDMA_ELEMENT_WORD | CYDMA
1928:Generated_Source\PSoC5/USBFS.c **** 
1929:Generated_Source\PSoC5/USBFS.c ****                 /* Validate descriptor to execute on following DMA request. */
1930:Generated_Source\PSoC5/USBFS.c ****                 USBFS_CyDmaValidateDescriptor(channelNum, USBFS_DMA_DESCR0);
1931:Generated_Source\PSoC5/USBFS.c **** 
1932:Generated_Source\PSoC5/USBFS.c ****                 /* Enable DMA channel: configuration complete. */
1933:Generated_Source\PSoC5/USBFS.c ****                 USBFS_CyDmaChEnable(channelNum);
1934:Generated_Source\PSoC5/USBFS.c **** 
1935:Generated_Source\PSoC5/USBFS.c ****                 /* Generate DMA request. */
1936:Generated_Source\PSoC5/USBFS.c ****                 USBFS_ARB_EP_BASE.arbEp[epNumber].epCfg |=  (uint32)  USBFS_ARB_EPX_CFG_DMA_REQ;
1937:Generated_Source\PSoC5/USBFS.c ****                 USBFS_ARB_EP_BASE.arbEp[epNumber].epCfg &=  (uint32) ~USBFS_ARB_EPX_CFG_DMA_REQ;
1938:Generated_Source\PSoC5/USBFS.c **** 
1939:Generated_Source\PSoC5/USBFS.c ****                 /* IN endpoint will be armed in ARB_ISR(source: IN_BUF_FULL) after first DMA transf
1940:Generated_Source\PSoC5/USBFS.c ****             }
1941:Generated_Source\PSoC5/USBFS.c ****             else
1942:Generated_Source\PSoC5/USBFS.c ****             {
1943:Generated_Source\PSoC5/USBFS.c ****                 /* When zero-length packet: arm IN endpoint directly. */
1944:Generated_Source\PSoC5/USBFS.c ****                 USBFS_SIE_EP_BASE.sieEp[epNumber].epCr0 = USBFS_EP[epNumber].epMode;
1945:Generated_Source\PSoC5/USBFS.c ****             }
1946:Generated_Source\PSoC5/USBFS.c ****         #endif /* (USBFS_EP_MANAGEMENT_DMA_MANUAL) */
1947:Generated_Source\PSoC5/USBFS.c **** 
1948:Generated_Source\PSoC5/USBFS.c ****         #if (USBFS_EP_MANAGEMENT_DMA_AUTO)
1949:Generated_Source\PSoC5/USBFS.c ****             if (pData != NULL)
1950:Generated_Source\PSoC5/USBFS.c ****             {
1951:Generated_Source\PSoC5/USBFS.c ****                 uint32 channelNum = (uint32) USBFS_DmaChan[epNumber];
1952:Generated_Source\PSoC5/USBFS.c **** 
1953:Generated_Source\PSoC5/USBFS.c ****                 /* Store address of buffer. */
1954:Generated_Source\PSoC5/USBFS.c ****                 USBFS_DmaEpBufferAddrBackup[epNumber] = (uint32) pData;
1955:Generated_Source\PSoC5/USBFS.c **** 
1956:Generated_Source\PSoC5/USBFS.c ****                 /* Disable DMA channel: start configuration. */
1957:Generated_Source\PSoC5/USBFS.c ****                 USBFS_CyDmaChDisable(channelNum);
1958:Generated_Source\PSoC5/USBFS.c **** 
1959:Generated_Source\PSoC5/USBFS.c ****                 /* Set destination address. */
1960:Generated_Source\PSoC5/USBFS.c ****                 USBFS_CyDmaSetDstAddress(channelNum, USBFS_DMA_DESCR0, (void*) &USBFS_ARB_EP16_BASE
1961:Generated_Source\PSoC5/USBFS.c ****                 USBFS_CyDmaSetDstAddress(channelNum, USBFS_DMA_DESCR1, (void*) &USBFS_ARB_EP16_BASE
1962:Generated_Source\PSoC5/USBFS.c **** 
1963:Generated_Source\PSoC5/USBFS.c ****                 /* Configure DMA descriptor. */
1964:Generated_Source\PSoC5/USBFS.c ****                 USBFS_CyDmaSetConfiguration(channelNum, USBFS_DMA_DESCR0, USBFS_DMA_COMMON_CFG  |
1965:Generated_Source\PSoC5/USBFS.c ****                                                         CYDMA_HALFWORD | CYDMA_ELEMENT_WORD | CYDMA
1966:Generated_Source\PSoC5/USBFS.c **** 
ARM GAS  C:\Users\rabbit\AppData\Local\Temp\ccUovuGe.s 			page 52


1967:Generated_Source\PSoC5/USBFS.c ****                 /* Configure DMA descriptor. */
1968:Generated_Source\PSoC5/USBFS.c ****                 USBFS_CyDmaSetConfiguration(channelNum, USBFS_DMA_DESCR1, USBFS_DMA_COMMON_CFG  |
1969:Generated_Source\PSoC5/USBFS.c ****                                                         CYDMA_HALFWORD | CYDMA_ELEMENT_WORD | CYDMA
1970:Generated_Source\PSoC5/USBFS.c **** 
1971:Generated_Source\PSoC5/USBFS.c ****                 /* Enable interrupt from DMA channel. */
1972:Generated_Source\PSoC5/USBFS.c ****                 USBFS_CyDmaSetInterruptMask(channelNum);
1973:Generated_Source\PSoC5/USBFS.c **** 
1974:Generated_Source\PSoC5/USBFS.c ****                 /* Enable DMA channel: configuration complete. */
1975:Generated_Source\PSoC5/USBFS.c ****                 USBFS_CyDmaChEnable(channelNum);
1976:Generated_Source\PSoC5/USBFS.c ****             }
1977:Generated_Source\PSoC5/USBFS.c ****             else
1978:Generated_Source\PSoC5/USBFS.c ****             {
1979:Generated_Source\PSoC5/USBFS.c ****                 /* IN endpoint buffer (32 bytes) will shortly be preloaded by DMA. */
1980:Generated_Source\PSoC5/USBFS.c ****                 USBFS_EP[epNumber].apiEpState = USBFS_NO_EVENT_PENDING;
1981:Generated_Source\PSoC5/USBFS.c **** 
1982:Generated_Source\PSoC5/USBFS.c ****                 if (length > 0u)
1983:Generated_Source\PSoC5/USBFS.c ****                 {
1984:Generated_Source\PSoC5/USBFS.c ****                     uint32 lengthDescr0, lengthDescr1;
1985:Generated_Source\PSoC5/USBFS.c ****                     uint32 channelNum = (uint32) USBFS_DmaChan[epNumber];
1986:Generated_Source\PSoC5/USBFS.c **** 
1987:Generated_Source\PSoC5/USBFS.c ****                     /* Get number of full bursts. */
1988:Generated_Source\PSoC5/USBFS.c ****                     USBFS_DmaEpBurstCnt[epNumber] = (uint8) (length / USBFS_DMA_BYTES_PER_BURST);
1989:Generated_Source\PSoC5/USBFS.c **** 
1990:Generated_Source\PSoC5/USBFS.c ****                     /* Get number of elements in the last burst. */
1991:Generated_Source\PSoC5/USBFS.c ****                     USBFS_DmaEpLastBurstEl[epNumber] = (uint8) (length % USBFS_DMA_BYTES_PER_BURST)
1992:Generated_Source\PSoC5/USBFS.c **** 
1993:Generated_Source\PSoC5/USBFS.c ****                     /* Get total number of bursts. */
1994:Generated_Source\PSoC5/USBFS.c ****                     USBFS_DmaEpBurstCnt[epNumber] += (0u != USBFS_DmaEpLastBurstEl[epNumber]) ? 1u 
1995:Generated_Source\PSoC5/USBFS.c **** 
1996:Generated_Source\PSoC5/USBFS.c ****                     /* Adjust number of data elements transferred in last burst. */
1997:Generated_Source\PSoC5/USBFS.c ****                     USBFS_DmaEpLastBurstEl[epNumber] = (0u != USBFS_DmaEpLastBurstEl[epNumber]) ?
1998:Generated_Source\PSoC5/USBFS.c ****                                                                           ((USBFS_DmaEpLastBurstEl[
1999:Generated_Source\PSoC5/USBFS.c ****                                                                            (USBFS_DMA_HALFWORDS_PER
2000:Generated_Source\PSoC5/USBFS.c **** 
2001:Generated_Source\PSoC5/USBFS.c ****                     /* Get number of data elements to transfer for descriptor 0 and 1. */
2002:Generated_Source\PSoC5/USBFS.c ****                     lengthDescr0 = (1u == USBFS_DmaEpBurstCnt[epNumber]) ? USBFS_DmaEpLastBurstEl[e
2003:Generated_Source\PSoC5/USBFS.c ****                     lengthDescr1 = (2u == USBFS_DmaEpBurstCnt[epNumber]) ? USBFS_DmaEpLastBurstEl[e
2004:Generated_Source\PSoC5/USBFS.c **** 
2005:Generated_Source\PSoC5/USBFS.c ****                     /* Mark which descriptor is last one to execute. */
2006:Generated_Source\PSoC5/USBFS.c ****                     USBFS_DmaEpLastBurstEl[epNumber] |= (0u != (USBFS_DmaEpBurstCnt[epNumber] & 0x1
2007:Generated_Source\PSoC5/USBFS.c ****                                                                             USBFS_DMA_DESCR0_MASK :
2008:Generated_Source\PSoC5/USBFS.c **** 
2009:Generated_Source\PSoC5/USBFS.c ****                     /* Restore DMA settings for current transfer. */
2010:Generated_Source\PSoC5/USBFS.c ****                     USBFS_CyDmaChDisable(channelNum);
2011:Generated_Source\PSoC5/USBFS.c **** 
2012:Generated_Source\PSoC5/USBFS.c ****                     /* Restore destination address for input endpoint. */
2013:Generated_Source\PSoC5/USBFS.c ****                     USBFS_CyDmaSetSrcAddress(channelNum, USBFS_DMA_DESCR0, (void*) ((uint32) USBFS_
2014:Generated_Source\PSoC5/USBFS.c ****                     USBFS_CyDmaSetSrcAddress(channelNum, USBFS_DMA_DESCR1, (void*) ((uint32) USBFS_
2015:Generated_Source\PSoC5/USBFS.c ****                                                                                                    
2016:Generated_Source\PSoC5/USBFS.c **** 
2017:Generated_Source\PSoC5/USBFS.c ****                     /* Set number of elements to transfer. */
2018:Generated_Source\PSoC5/USBFS.c ****                     USBFS_CyDmaSetNumDataElements(channelNum, USBFS_DMA_DESCR0, lengthDescr0);
2019:Generated_Source\PSoC5/USBFS.c ****                     USBFS_CyDmaSetNumDataElements(channelNum, USBFS_DMA_DESCR1, lengthDescr1);
2020:Generated_Source\PSoC5/USBFS.c **** 
2021:Generated_Source\PSoC5/USBFS.c ****                     /* Validate descriptor 0 and command to start with it. */
2022:Generated_Source\PSoC5/USBFS.c ****                     USBFS_CyDmaValidateDescriptor(channelNum, USBFS_DMA_DESCR0);
2023:Generated_Source\PSoC5/USBFS.c ****                     USBFS_CyDmaSetDescriptor0Next(channelNum);
ARM GAS  C:\Users\rabbit\AppData\Local\Temp\ccUovuGe.s 			page 53


2024:Generated_Source\PSoC5/USBFS.c **** 
2025:Generated_Source\PSoC5/USBFS.c ****                     /* Validate descriptor 1. */
2026:Generated_Source\PSoC5/USBFS.c ****                     if (USBFS_DmaEpBurstCnt[epNumber] > 1u)
2027:Generated_Source\PSoC5/USBFS.c ****                     {
2028:Generated_Source\PSoC5/USBFS.c ****                         USBFS_CyDmaValidateDescriptor(channelNum, USBFS_DMA_DESCR1);
2029:Generated_Source\PSoC5/USBFS.c ****                     }
2030:Generated_Source\PSoC5/USBFS.c **** 
2031:Generated_Source\PSoC5/USBFS.c ****                     /* Adjust burst counter taking to account: 2 valid descriptors and interrupt tr
2032:Generated_Source\PSoC5/USBFS.c ****                     USBFS_DmaEpBurstCnt[epNumber] = USBFS_DMA_GET_BURST_CNT(USBFS_DmaEpBurstCnt[epN
2033:Generated_Source\PSoC5/USBFS.c **** 
2034:Generated_Source\PSoC5/USBFS.c ****                     /* Enable DMA channel: configuration complete. */
2035:Generated_Source\PSoC5/USBFS.c ****                     USBFS_CyDmaChEnable(channelNum);
2036:Generated_Source\PSoC5/USBFS.c **** 
2037:Generated_Source\PSoC5/USBFS.c ****                 #if !defined (USBFS_MANUAL_IN_EP_ARM)
2038:Generated_Source\PSoC5/USBFS.c ****                     /* Set IN data ready to generate DMA request to load data into endpoint buffer.
2039:Generated_Source\PSoC5/USBFS.c ****                     USBFS_ARB_EP_BASE.arbEp[epNumber].epCfg |= USBFS_ARB_EPX_CFG_IN_DATA_RDY;
2040:Generated_Source\PSoC5/USBFS.c ****                 #endif  /* (USBFS_MANUAL_IN_EP_ARM) */
2041:Generated_Source\PSoC5/USBFS.c **** 
2042:Generated_Source\PSoC5/USBFS.c ****                     /* IN endpoint will be armed in ARB_ISR(source: IN_BUF_FULL) after first DMA tr
2043:Generated_Source\PSoC5/USBFS.c ****                 }
2044:Generated_Source\PSoC5/USBFS.c ****                 else
2045:Generated_Source\PSoC5/USBFS.c ****                 {
2046:Generated_Source\PSoC5/USBFS.c ****                     /* When zero-length packet: arm IN endpoint directly. */
2047:Generated_Source\PSoC5/USBFS.c ****                     USBFS_SIE_EP_BASE.sieEp[epNumber].epCr0 = USBFS_EP[epNumber].epMode;
2048:Generated_Source\PSoC5/USBFS.c ****                 }
2049:Generated_Source\PSoC5/USBFS.c ****             }
2050:Generated_Source\PSoC5/USBFS.c ****         #endif /* (USBFS_EP_MANAGEMENT_DMA_AUTO) */
2051:Generated_Source\PSoC5/USBFS.c ****     #endif /* (USBFS_EP_MANAGEMENT_MANUAL) */
2052:Generated_Source\PSoC5/USBFS.c ****     }
2053:Generated_Source\PSoC5/USBFS.c **** }
2054:Generated_Source\PSoC5/USBFS.c **** 
2055:Generated_Source\PSoC5/USBFS.c **** 
2056:Generated_Source\PSoC5/USBFS.c **** /*******************************************************************************
2057:Generated_Source\PSoC5/USBFS.c **** * Function Name: USBFS_ReadOutEP16
2058:Generated_Source\PSoC5/USBFS.c **** ****************************************************************************//**
2059:Generated_Source\PSoC5/USBFS.c **** *
2060:Generated_Source\PSoC5/USBFS.c **** *   This function performs different functionality depending on the Component’s
2061:Generated_Source\PSoC5/USBFS.c **** *   configured Endpoint Buffer Management. This parameter is defined in the
2062:Generated_Source\PSoC5/USBFS.c **** *   Descriptor Root in Component Configure window.
2063:Generated_Source\PSoC5/USBFS.c **** *
2064:Generated_Source\PSoC5/USBFS.c **** *   *Manual (Static/Dynamic Allocation):*
2065:Generated_Source\PSoC5/USBFS.c **** *   This function moves the specified number of bytes from endpoint buffer to
2066:Generated_Source\PSoC5/USBFS.c **** *   system RAM. The number of bytes actually transferred from endpoint buffer to
2067:Generated_Source\PSoC5/USBFS.c **** *   system RAM is the lesser of the actual number of bytes sent by the host or
2068:Generated_Source\PSoC5/USBFS.c **** *   the number of bytes requested by the length parameter.
2069:Generated_Source\PSoC5/USBFS.c **** *
2070:Generated_Source\PSoC5/USBFS.c **** *   *DMA with Manual Buffer Management:*
2071:Generated_Source\PSoC5/USBFS.c **** *   Configure DMA to transfer data from endpoint buffer to system RAM. Generate
2072:Generated_Source\PSoC5/USBFS.c **** *   a DMA request. The firmware must wait until the DMA completes the data
2073:Generated_Source\PSoC5/USBFS.c **** *   transfer after calling the USBFS_ReadOutEP() API. For example,
2074:Generated_Source\PSoC5/USBFS.c **** *   by checking EPstate:
2075:Generated_Source\PSoC5/USBFS.c **** *
2076:Generated_Source\PSoC5/USBFS.c **** *   \snippet /USBFS_sut_02.cydsn/main.c checking EPstatey
2077:Generated_Source\PSoC5/USBFS.c **** *
2078:Generated_Source\PSoC5/USBFS.c **** *   The USBFS_EnableOutEP() has to be called to allow host to write data into
2079:Generated_Source\PSoC5/USBFS.c **** *   the endpoint buffer after DMA has completed transfer data from OUT endpoint
2080:Generated_Source\PSoC5/USBFS.c **** *   buffer to SRAM.
ARM GAS  C:\Users\rabbit\AppData\Local\Temp\ccUovuGe.s 			page 54


2081:Generated_Source\PSoC5/USBFS.c **** *
2082:Generated_Source\PSoC5/USBFS.c **** *   *DMA with Automatic Buffer Management:*
2083:Generated_Source\PSoC5/USBFS.c **** *   Configure DMA. This is required only once and automatically generates DMA
2084:Generated_Source\PSoC5/USBFS.c **** *   requests as data arrives
2085:Generated_Source\PSoC5/USBFS.c **** *
2086:Generated_Source\PSoC5/USBFS.c **** *  \param epNumber: Contains the data endpoint number.
2087:Generated_Source\PSoC5/USBFS.c **** *         Valid values are between 1 and 8.
2088:Generated_Source\PSoC5/USBFS.c **** *  \param pData: A pointer to a data array into which the data for the endpoint
2089:Generated_Source\PSoC5/USBFS.c **** *         space is copied. It shall be ensured that this pointer address is
2090:Generated_Source\PSoC5/USBFS.c **** *         even to ensure the 16-bit transfer is aligned to even address. Else,
2091:Generated_Source\PSoC5/USBFS.c **** *         a hard fault condition can occur.
2092:Generated_Source\PSoC5/USBFS.c **** *  \param length: The number of bytes to transfer from the USB Out endpoint and
2093:Generated_Source\PSoC5/USBFS.c **** *         loads it into data array. Valid values are between 0 and 1023. The
2094:Generated_Source\PSoC5/USBFS.c **** *         function moves fewer than the requested number of bytes if the host
2095:Generated_Source\PSoC5/USBFS.c **** *         sends fewer bytes than requested.
2096:Generated_Source\PSoC5/USBFS.c **** *
2097:Generated_Source\PSoC5/USBFS.c **** * \return
2098:Generated_Source\PSoC5/USBFS.c **** *  Number of bytes received, 0 for an invalid endpoint.
2099:Generated_Source\PSoC5/USBFS.c **** *
2100:Generated_Source\PSoC5/USBFS.c **** * \reentrant
2101:Generated_Source\PSoC5/USBFS.c **** *  No.
2102:Generated_Source\PSoC5/USBFS.c **** *
2103:Generated_Source\PSoC5/USBFS.c **** *******************************************************************************/
2104:Generated_Source\PSoC5/USBFS.c **** uint16 USBFS_ReadOutEP16(uint8 epNumber, uint8 pData[], uint16 length)
2105:Generated_Source\PSoC5/USBFS.c **** {
2106:Generated_Source\PSoC5/USBFS.c ****     uint32 adjLength;
2107:Generated_Source\PSoC5/USBFS.c **** 
2108:Generated_Source\PSoC5/USBFS.c ****     /* Check array alignment on half-word boundary */
2109:Generated_Source\PSoC5/USBFS.c ****     CYASSERT(0u == (((uint32) pData) & 0x01u));
2110:Generated_Source\PSoC5/USBFS.c **** 
2111:Generated_Source\PSoC5/USBFS.c ****     if ((pData != NULL) && (epNumber > USBFS_EP0) && (epNumber < USBFS_MAX_EP))
2112:Generated_Source\PSoC5/USBFS.c ****     {
2113:Generated_Source\PSoC5/USBFS.c ****     #if (!USBFS_EP_MANAGEMENT_DMA_AUTO)
2114:Generated_Source\PSoC5/USBFS.c ****         /* Adjust requested length to available data. */
2115:Generated_Source\PSoC5/USBFS.c ****         length = (length > USBFS_GetEPCount(epNumber)) ? USBFS_GetEPCount(epNumber) : length;
2116:Generated_Source\PSoC5/USBFS.c ****     #endif /* (!USBFS_EP_MANAGEMENT_DMA_AUTO) */
2117:Generated_Source\PSoC5/USBFS.c **** 
2118:Generated_Source\PSoC5/USBFS.c ****     /* Adjust requested length: 2 bytes are handled at one data register access. */
2119:Generated_Source\PSoC5/USBFS.c ****     adjLength =  length + ((uint32)length & 1u);
2120:Generated_Source\PSoC5/USBFS.c **** 
2121:Generated_Source\PSoC5/USBFS.c ****     #if (USBFS_EP_MANAGEMENT_MANUAL)
2122:Generated_Source\PSoC5/USBFS.c ****         {
2123:Generated_Source\PSoC5/USBFS.c ****             /* Convert uint8 array to uint16. */
2124:Generated_Source\PSoC5/USBFS.c ****             uint16 *dataBuf = (uint16 *) pData;
2125:Generated_Source\PSoC5/USBFS.c **** 
2126:Generated_Source\PSoC5/USBFS.c ****             /* Copy data using 16-bits arbiter data register. */
2127:Generated_Source\PSoC5/USBFS.c ****             uint16 i;
2128:Generated_Source\PSoC5/USBFS.c ****             for (i = 0u; i < (adjLength >> 1u); ++i)
2129:Generated_Source\PSoC5/USBFS.c ****             {
2130:Generated_Source\PSoC5/USBFS.c ****                 dataBuf[i] = (uint16) USBFS_ARB_EP16_BASE.arbEp[epNumber].rwDr16;
2131:Generated_Source\PSoC5/USBFS.c ****             }
2132:Generated_Source\PSoC5/USBFS.c ****         }
2133:Generated_Source\PSoC5/USBFS.c **** 
2134:Generated_Source\PSoC5/USBFS.c ****         /* Arm OUT endpoint after data has been read from endpoint buffer. */
2135:Generated_Source\PSoC5/USBFS.c ****         USBFS_EnableOutEP(epNumber);
2136:Generated_Source\PSoC5/USBFS.c ****     #else
2137:Generated_Source\PSoC5/USBFS.c **** 
ARM GAS  C:\Users\rabbit\AppData\Local\Temp\ccUovuGe.s 			page 55


2138:Generated_Source\PSoC5/USBFS.c ****         #if (USBFS_EP_MANAGEMENT_DMA_MANUAL)
2139:Generated_Source\PSoC5/USBFS.c ****         {
2140:Generated_Source\PSoC5/USBFS.c ****             uint32 channelNum = (uint32) USBFS_DmaChan[epNumber];
2141:Generated_Source\PSoC5/USBFS.c **** 
2142:Generated_Source\PSoC5/USBFS.c ****             /* Disable DMA channel: start configuration. */
2143:Generated_Source\PSoC5/USBFS.c ****             USBFS_CyDmaChDisable(channelNum);
2144:Generated_Source\PSoC5/USBFS.c **** 
2145:Generated_Source\PSoC5/USBFS.c ****             /* Configure source and destination. */
2146:Generated_Source\PSoC5/USBFS.c ****             USBFS_CyDmaSetSrcAddress(channelNum, USBFS_DMA_DESCR0, (void*) &USBFS_ARB_EP16_BASE.arb
2147:Generated_Source\PSoC5/USBFS.c ****             USBFS_CyDmaSetDstAddress(channelNum, USBFS_DMA_DESCR0, (void*) pData);
2148:Generated_Source\PSoC5/USBFS.c **** 
2149:Generated_Source\PSoC5/USBFS.c ****             /* Configure DMA descriptor. */
2150:Generated_Source\PSoC5/USBFS.c ****             USBFS_CyDmaSetConfiguration(channelNum, USBFS_DMA_DESCR0, USBFS_DMA_COMMON_CFG | (uint1
2151:Generated_Source\PSoC5/USBFS.c ****                                                     CYDMA_HALFWORD | CYDMA_WORD_ELEMENT | CYDMA_INC
2152:Generated_Source\PSoC5/USBFS.c **** 
2153:Generated_Source\PSoC5/USBFS.c ****             /* Validate descriptor to execute on following DMA request. */
2154:Generated_Source\PSoC5/USBFS.c ****             USBFS_CyDmaValidateDescriptor(channelNum, USBFS_DMA_DESCR0);
2155:Generated_Source\PSoC5/USBFS.c **** 
2156:Generated_Source\PSoC5/USBFS.c ****             /* Enable DMA channel: configuration complete. */
2157:Generated_Source\PSoC5/USBFS.c ****             USBFS_CyDmaChEnable(channelNum);
2158:Generated_Source\PSoC5/USBFS.c **** 
2159:Generated_Source\PSoC5/USBFS.c ****             /* Generate DMA request. */
2160:Generated_Source\PSoC5/USBFS.c ****             USBFS_ARB_EP_BASE.arbEp[epNumber].epCfg |=  (uint32)  USBFS_ARB_EPX_CFG_DMA_REQ;
2161:Generated_Source\PSoC5/USBFS.c ****             USBFS_ARB_EP_BASE.arbEp[epNumber].epCfg &=  (uint32) ~USBFS_ARB_EPX_CFG_DMA_REQ;
2162:Generated_Source\PSoC5/USBFS.c **** 
2163:Generated_Source\PSoC5/USBFS.c ****             /* OUT endpoint has to be armed again by user when DMA transfers have been completed.
2164:Generated_Source\PSoC5/USBFS.c ****             * NO_EVENT_PENDING: notifies that data has been copied from endpoint buffer.
2165:Generated_Source\PSoC5/USBFS.c ****             */
2166:Generated_Source\PSoC5/USBFS.c ****         }
2167:Generated_Source\PSoC5/USBFS.c ****         #endif /* (USBFS_EP_MANAGEMENT_DMA_MANUAL) */
2168:Generated_Source\PSoC5/USBFS.c **** 
2169:Generated_Source\PSoC5/USBFS.c ****         #if (USBFS_EP_MANAGEMENT_DMA_AUTO)
2170:Generated_Source\PSoC5/USBFS.c ****         {
2171:Generated_Source\PSoC5/USBFS.c ****             uint32 lengthDescr0, lengthDescr1;
2172:Generated_Source\PSoC5/USBFS.c ****             uint32 channelNum = (uint32) USBFS_DmaChan[epNumber];
2173:Generated_Source\PSoC5/USBFS.c **** 
2174:Generated_Source\PSoC5/USBFS.c ****             /* Get number of full bursts. */
2175:Generated_Source\PSoC5/USBFS.c ****             USBFS_DmaEpBurstCnt[epNumber] = (uint8) (adjLength / USBFS_DMA_BYTES_PER_BURST);
2176:Generated_Source\PSoC5/USBFS.c **** 
2177:Generated_Source\PSoC5/USBFS.c ****             /* Get number of elements in last burst. */
2178:Generated_Source\PSoC5/USBFS.c ****             USBFS_DmaEpLastBurstEl[epNumber] = (uint8) (adjLength % USBFS_DMA_BYTES_PER_BURST);
2179:Generated_Source\PSoC5/USBFS.c **** 
2180:Generated_Source\PSoC5/USBFS.c ****             /* Get total number of bursts. */
2181:Generated_Source\PSoC5/USBFS.c ****             USBFS_DmaEpBurstCnt[epNumber] += (0u != USBFS_DmaEpLastBurstEl[epNumber]) ? 1u : 0u;
2182:Generated_Source\PSoC5/USBFS.c **** 
2183:Generated_Source\PSoC5/USBFS.c ****             /* Adjust number of data elements transferred in last burst. */
2184:Generated_Source\PSoC5/USBFS.c ****             USBFS_DmaEpLastBurstEl[epNumber] = (0u != USBFS_DmaEpLastBurstEl[epNumber]) ?
2185:Generated_Source\PSoC5/USBFS.c ****                                                                   ((USBFS_DmaEpLastBurstEl[epNumber
2186:Generated_Source\PSoC5/USBFS.c ****                                                                    (USBFS_DMA_HALFWORDS_PER_BURST -
2187:Generated_Source\PSoC5/USBFS.c **** 
2188:Generated_Source\PSoC5/USBFS.c ****             /* Get number of data elements to transfer for descriptor 0 and 1. */
2189:Generated_Source\PSoC5/USBFS.c ****             lengthDescr0 = (1u == USBFS_DmaEpBurstCnt[epNumber]) ? USBFS_DmaEpLastBurstEl[epNumber]
2190:Generated_Source\PSoC5/USBFS.c ****             lengthDescr1 = (2u == USBFS_DmaEpBurstCnt[epNumber]) ? USBFS_DmaEpLastBurstEl[epNumber]
2191:Generated_Source\PSoC5/USBFS.c **** 
2192:Generated_Source\PSoC5/USBFS.c ****             /* Mark last descriptor to be executed. */
2193:Generated_Source\PSoC5/USBFS.c ****             USBFS_DmaEpLastBurstEl[epNumber] |= (0u != (USBFS_DmaEpBurstCnt[epNumber] & 0x1u)) ?
2194:Generated_Source\PSoC5/USBFS.c ****                                                                     USBFS_DMA_DESCR0_MASK : USBFS_D
ARM GAS  C:\Users\rabbit\AppData\Local\Temp\ccUovuGe.s 			page 56


2195:Generated_Source\PSoC5/USBFS.c **** 
2196:Generated_Source\PSoC5/USBFS.c ****             /* Mark if revert number of data elements in descriptor after transfer completion. */
2197:Generated_Source\PSoC5/USBFS.c ****             USBFS_DmaEpLastBurstEl[epNumber] |= (USBFS_DmaEpBurstCnt[epNumber] > 2u) ? USBFS_DMA_DE
2198:Generated_Source\PSoC5/USBFS.c **** 
2199:Generated_Source\PSoC5/USBFS.c ****             /* Mark that 16-bits access to data register is performed. */
2200:Generated_Source\PSoC5/USBFS.c ****             USBFS_DmaEpLastBurstEl[epNumber] |= USBFS_DMA_DESCR_16BITS;
2201:Generated_Source\PSoC5/USBFS.c **** 
2202:Generated_Source\PSoC5/USBFS.c ****             /* Store address of buffer and burst counter for endpoint. */
2203:Generated_Source\PSoC5/USBFS.c ****             USBFS_DmaEpBufferAddrBackup[epNumber] = (uint32) pData;
2204:Generated_Source\PSoC5/USBFS.c ****             USBFS_DmaEpBurstCntBackup[epNumber]   = USBFS_DmaEpBurstCnt[epNumber];
2205:Generated_Source\PSoC5/USBFS.c **** 
2206:Generated_Source\PSoC5/USBFS.c ****             /* Adjust burst counter taking to account: 2 valid descriptors and interrupt trigger af
2207:Generated_Source\PSoC5/USBFS.c ****             USBFS_DmaEpBurstCnt[epNumber] = USBFS_DMA_GET_BURST_CNT(USBFS_DmaEpBurstCnt[epNumber]);
2208:Generated_Source\PSoC5/USBFS.c **** 
2209:Generated_Source\PSoC5/USBFS.c ****             /* Disable DMA channel: start configuration. */
2210:Generated_Source\PSoC5/USBFS.c ****             USBFS_CyDmaChDisable(channelNum);
2211:Generated_Source\PSoC5/USBFS.c **** 
2212:Generated_Source\PSoC5/USBFS.c ****             /* Set destination address. */
2213:Generated_Source\PSoC5/USBFS.c ****             USBFS_CyDmaSetSrcAddress(channelNum, USBFS_DMA_DESCR0, (void*) &USBFS_ARB_EP16_BASE.arb
2214:Generated_Source\PSoC5/USBFS.c ****             USBFS_CyDmaSetSrcAddress(channelNum, USBFS_DMA_DESCR1, (void*) &USBFS_ARB_EP16_BASE.arb
2215:Generated_Source\PSoC5/USBFS.c **** 
2216:Generated_Source\PSoC5/USBFS.c ****             USBFS_CyDmaSetDstAddress(channelNum, USBFS_DMA_DESCR0, (void*) ((uint32) pData));
2217:Generated_Source\PSoC5/USBFS.c ****             USBFS_CyDmaSetDstAddress(channelNum, USBFS_DMA_DESCR1, (void*) ((uint32) pData + USBFS_
2218:Generated_Source\PSoC5/USBFS.c **** 
2219:Generated_Source\PSoC5/USBFS.c ****             /* Configure DMA descriptor 0. */
2220:Generated_Source\PSoC5/USBFS.c ****             USBFS_CyDmaSetConfiguration(channelNum, USBFS_DMA_DESCR0, USBFS_DMA_COMMON_CFG  | lengt
2221:Generated_Source\PSoC5/USBFS.c ****                                                     CYDMA_HALFWORD | CYDMA_WORD_ELEMENT | CYDMA_INC
2222:Generated_Source\PSoC5/USBFS.c **** 
2223:Generated_Source\PSoC5/USBFS.c ****             /* Configure DMA descriptor 1. */
2224:Generated_Source\PSoC5/USBFS.c ****             USBFS_CyDmaSetConfiguration(channelNum, USBFS_DMA_DESCR1, USBFS_DMA_COMMON_CFG  | lengt
2225:Generated_Source\PSoC5/USBFS.c ****                                                     CYDMA_HALFWORD | CYDMA_WORD_ELEMENT | CYDMA_INC
2226:Generated_Source\PSoC5/USBFS.c **** 
2227:Generated_Source\PSoC5/USBFS.c ****             /* Enable interrupt from DMA channel. */
2228:Generated_Source\PSoC5/USBFS.c ****             USBFS_CyDmaSetInterruptMask(channelNum);
2229:Generated_Source\PSoC5/USBFS.c **** 
2230:Generated_Source\PSoC5/USBFS.c ****             /* Validate DMA descriptor 0 and 1. */
2231:Generated_Source\PSoC5/USBFS.c ****             USBFS_CyDmaValidateDescriptor(channelNum, USBFS_DMA_DESCR0);
2232:Generated_Source\PSoC5/USBFS.c ****             
2233:Generated_Source\PSoC5/USBFS.c ****             if (USBFS_DmaEpBurstCntBackup[epNumber] > 1u)
2234:Generated_Source\PSoC5/USBFS.c ****             {
2235:Generated_Source\PSoC5/USBFS.c ****                 USBFS_CyDmaValidateDescriptor(channelNum, USBFS_DMA_DESCR1);
2236:Generated_Source\PSoC5/USBFS.c ****             }
2237:Generated_Source\PSoC5/USBFS.c **** 
2238:Generated_Source\PSoC5/USBFS.c ****             /* Enable DMA channel: configuration complete. */
2239:Generated_Source\PSoC5/USBFS.c ****             USBFS_CyDmaChEnable(channelNum);
2240:Generated_Source\PSoC5/USBFS.c **** 
2241:Generated_Source\PSoC5/USBFS.c ****             /* OUT endpoint has to be armed again by user when DMA transfers have been completed.
2242:Generated_Source\PSoC5/USBFS.c ****             * NO_EVENT_PENDING: notifies that data has been copied from endpoint buffer.
2243:Generated_Source\PSoC5/USBFS.c ****             */
2244:Generated_Source\PSoC5/USBFS.c ****         }
2245:Generated_Source\PSoC5/USBFS.c ****         #endif /* (USBFS_EP_MANAGEMENT_DMA_AUTO) */
2246:Generated_Source\PSoC5/USBFS.c ****     #endif /* (USBFS_EP_MANAGEMENT_MANUAL) */
2247:Generated_Source\PSoC5/USBFS.c ****     }
2248:Generated_Source\PSoC5/USBFS.c ****     else
2249:Generated_Source\PSoC5/USBFS.c ****     {
2250:Generated_Source\PSoC5/USBFS.c ****         length = 0u;
2251:Generated_Source\PSoC5/USBFS.c ****     }
ARM GAS  C:\Users\rabbit\AppData\Local\Temp\ccUovuGe.s 			page 57


2252:Generated_Source\PSoC5/USBFS.c **** 
2253:Generated_Source\PSoC5/USBFS.c ****     return (length);
2254:Generated_Source\PSoC5/USBFS.c **** }
2255:Generated_Source\PSoC5/USBFS.c **** #endif /* (USBFS_16BITS_EP_ACCESS_ENABLE) */
2256:Generated_Source\PSoC5/USBFS.c **** 
2257:Generated_Source\PSoC5/USBFS.c **** 
2258:Generated_Source\PSoC5/USBFS.c **** /*******************************************************************************
2259:Generated_Source\PSoC5/USBFS.c **** * Function Name: USBFS_EnableOutEP
2260:Generated_Source\PSoC5/USBFS.c **** ****************************************************************************//**
2261:Generated_Source\PSoC5/USBFS.c **** *
2262:Generated_Source\PSoC5/USBFS.c **** *  This function enables the specified endpoint for OUT transfers. Do not call
2263:Generated_Source\PSoC5/USBFS.c **** *  this function for IN endpoints.
2264:Generated_Source\PSoC5/USBFS.c **** *
2265:Generated_Source\PSoC5/USBFS.c **** *  \param epNumber: Contains the data endpoint number. Valid values are between
2266:Generated_Source\PSoC5/USBFS.c **** *  1 and 8.
2267:Generated_Source\PSoC5/USBFS.c **** *
2268:Generated_Source\PSoC5/USBFS.c **** * \globalvars
2269:Generated_Source\PSoC5/USBFS.c **** *
2270:Generated_Source\PSoC5/USBFS.c **** *  \ref USBFS_EP[epNumber].apiEpState - set to NO_EVENT_PENDING
2271:Generated_Source\PSoC5/USBFS.c **** *
2272:Generated_Source\PSoC5/USBFS.c **** * \reentrant
2273:Generated_Source\PSoC5/USBFS.c **** *  No.
2274:Generated_Source\PSoC5/USBFS.c **** *
2275:Generated_Source\PSoC5/USBFS.c **** *******************************************************************************/
2276:Generated_Source\PSoC5/USBFS.c **** void USBFS_EnableOutEP(uint8 epNumber) 
2277:Generated_Source\PSoC5/USBFS.c **** {
 898              		.loc 1 2277 0
 899              		.cfi_startproc
 900              		@ args = 0, pretend = 0, frame = 0
 901              		@ frame_needed = 0, uses_anonymous_args = 0
 902              		@ link register save eliminated.
 903              	.LVL62:
2278:Generated_Source\PSoC5/USBFS.c ****     if ((epNumber > USBFS_EP0) && (epNumber < USBFS_MAX_EP))
 904              		.loc 1 2278 0
 905 0000 431E     		subs	r3, r0, #1
 906 0002 072B     		cmp	r3, #7
 907 0004 0AD8     		bhi	.L56
2279:Generated_Source\PSoC5/USBFS.c ****     {
2280:Generated_Source\PSoC5/USBFS.c ****         USBFS_EP[epNumber].apiEpState = USBFS_NO_EVENT_PENDING;
 908              		.loc 1 2280 0
 909 0006 064A     		ldr	r2, .L58
 910 0008 0C23     		movs	r3, #12
 911 000a 03FB0023 		mla	r3, r3, r0, r2
 912 000e 0022     		movs	r2, #0
 913 0010 5A70     		strb	r2, [r3, #1]
2281:Generated_Source\PSoC5/USBFS.c **** 
2282:Generated_Source\PSoC5/USBFS.c ****         /* Enable OUT endpoint to be written by Host. */
2283:Generated_Source\PSoC5/USBFS.c ****         USBFS_SIE_EP_BASE.sieEp[epNumber].epCr0 = USBFS_EP[epNumber].epMode;
 914              		.loc 1 2283 0
 915 0012 5A79     		ldrb	r2, [r3, #5]	@ zero_extendqisi2
 916 0014 034B     		ldr	r3, .L58+4
 917 0016 D2B2     		uxtb	r2, r2
 918 0018 0001     		lsls	r0, r0, #4
 919              	.LVL63:
 920 001a 1A54     		strb	r2, [r3, r0]
 921              	.L56:
 922 001c 7047     		bx	lr
ARM GAS  C:\Users\rabbit\AppData\Local\Temp\ccUovuGe.s 			page 58


 923              	.L59:
 924 001e 00BF     		.align	2
 925              	.L58:
 926 0020 00000000 		.word	USBFS_EP
 927 0024 FE5F0040 		.word	1073766398
 928              		.cfi_endproc
 929              	.LFE13:
 930              		.size	USBFS_EnableOutEP, .-USBFS_EnableOutEP
 931              		.section	.text.USBFS_ReadOutEP,"ax",%progbits
 932              		.align	1
 933              		.global	USBFS_ReadOutEP
 934              		.thumb
 935              		.thumb_func
 936              		.type	USBFS_ReadOutEP, %function
 937              	USBFS_ReadOutEP:
 938              	.LFB12:
1655:Generated_Source\PSoC5/USBFS.c ****     if ((pData != NULL) && (epNumber > USBFS_EP0) && (epNumber < USBFS_MAX_EP))
 939              		.loc 1 1655 0
 940              		.cfi_startproc
 941              		@ args = 0, pretend = 0, frame = 0
 942              		@ frame_needed = 0, uses_anonymous_args = 0
 943              	.LVL64:
 944 0000 38B5     		push	{r3, r4, r5, lr}
 945              		.cfi_def_cfa_offset 16
 946              		.cfi_offset 3, -16
 947              		.cfi_offset 4, -12
 948              		.cfi_offset 5, -8
 949              		.cfi_offset 14, -4
1655:Generated_Source\PSoC5/USBFS.c ****     if ((pData != NULL) && (epNumber > USBFS_EP0) && (epNumber < USBFS_MAX_EP))
 950              		.loc 1 1655 0
 951 0002 0546     		mov	r5, r0
 952 0004 1446     		mov	r4, r2
1656:Generated_Source\PSoC5/USBFS.c ****     {
 953              		.loc 1 1656 0
 954 0006 D1B1     		cbz	r1, .L65
1656:Generated_Source\PSoC5/USBFS.c ****     {
 955              		.loc 1 1656 0 is_stmt 0 discriminator 1
 956 0008 431E     		subs	r3, r0, #1
 957 000a 072B     		cmp	r3, #7
 958 000c 19D8     		bhi	.L66
1660:Generated_Source\PSoC5/USBFS.c ****     #endif /* (!USBFS_EP_MANAGEMENT_DMA_AUTO) */
 959              		.loc 1 1660 0 is_stmt 1
 960 000e FFF7FEFF 		bl	USBFS_GetEPCount
 961              	.LVL65:
 962 0012 A042     		cmp	r0, r4
 963 0014 03D2     		bcs	.L62
1660:Generated_Source\PSoC5/USBFS.c ****     #endif /* (!USBFS_EP_MANAGEMENT_DMA_AUTO) */
 964              		.loc 1 1660 0 is_stmt 0 discriminator 1
 965 0016 2846     		mov	r0, r5
 966 0018 FFF7FEFF 		bl	USBFS_GetEPCount
 967              	.LVL66:
 968 001c 0446     		mov	r4, r0
 969              	.L62:
 970              	.LVL67:
 971              	.LBB7:
1667:Generated_Source\PSoC5/USBFS.c ****             {
 972              		.loc 1 1667 0 is_stmt 1 discriminator 4
ARM GAS  C:\Users\rabbit\AppData\Local\Temp\ccUovuGe.s 			page 59


 973 001e 0A46     		mov	r2, r1
1669:Generated_Source\PSoC5/USBFS.c ****             }
 974              		.loc 1 1669 0 discriminator 4
 975 0020 0948     		ldr	r0, .L68
 976 0022 2B01     		lsls	r3, r5, #4
 977 0024 1844     		add	r0, r0, r3
 978              	.LVL68:
 979              	.L63:
1667:Generated_Source\PSoC5/USBFS.c ****             {
 980              		.loc 1 1667 0 discriminator 1
 981 0026 531A     		subs	r3, r2, r1
 982 0028 9BB2     		uxth	r3, r3
 983 002a 9C42     		cmp	r4, r3
 984 002c 03D9     		bls	.L67
1669:Generated_Source\PSoC5/USBFS.c ****             }
 985              		.loc 1 1669 0 discriminator 3
 986 002e 037A     		ldrb	r3, [r0, #8]	@ zero_extendqisi2
 987 0030 02F8013B 		strb	r3, [r2], #1
 988              	.LVL69:
 989 0034 F7E7     		b	.L63
 990              	.L67:
 991              	.LBE7:
1674:Generated_Source\PSoC5/USBFS.c ****     #else
 992              		.loc 1 1674 0
 993 0036 2846     		mov	r0, r5
 994 0038 FFF7FEFF 		bl	USBFS_EnableOutEP
 995              	.LVL70:
 996 003c 02E0     		b	.L61
 997              	.LVL71:
 998              	.L65:
1820:Generated_Source\PSoC5/USBFS.c ****     }
 999              		.loc 1 1820 0
 1000 003e 0C46     		mov	r4, r1
 1001 0040 00E0     		b	.L61
 1002              	.L66:
 1003 0042 0024     		movs	r4, #0
 1004              	.LVL72:
 1005              	.L61:
1824:Generated_Source\PSoC5/USBFS.c **** 
 1006              		.loc 1 1824 0
 1007 0044 2046     		mov	r0, r4
 1008 0046 38BD     		pop	{r3, r4, r5, pc}
 1009              	.LVL73:
 1010              	.L69:
 1011              		.align	2
 1012              	.L68:
 1013 0048 70600040 		.word	1073766512
 1014              		.cfi_endproc
 1015              	.LFE12:
 1016              		.size	USBFS_ReadOutEP, .-USBFS_ReadOutEP
 1017              		.section	.text.USBFS_DisableOutEP,"ax",%progbits
 1018              		.align	1
 1019              		.global	USBFS_DisableOutEP
 1020              		.thumb
 1021              		.thumb_func
 1022              		.type	USBFS_DisableOutEP, %function
 1023              	USBFS_DisableOutEP:
ARM GAS  C:\Users\rabbit\AppData\Local\Temp\ccUovuGe.s 			page 60


 1024              	.LFB14:
2284:Generated_Source\PSoC5/USBFS.c ****         
2285:Generated_Source\PSoC5/USBFS.c ****     }
2286:Generated_Source\PSoC5/USBFS.c **** }
2287:Generated_Source\PSoC5/USBFS.c **** 
2288:Generated_Source\PSoC5/USBFS.c **** 
2289:Generated_Source\PSoC5/USBFS.c **** /*******************************************************************************
2290:Generated_Source\PSoC5/USBFS.c **** * Function Name: USBFS_DisableOutEP
2291:Generated_Source\PSoC5/USBFS.c **** ****************************************************************************//**
2292:Generated_Source\PSoC5/USBFS.c **** *
2293:Generated_Source\PSoC5/USBFS.c **** *  This function disables the specified USBFS OUT endpoint. Do not call this
2294:Generated_Source\PSoC5/USBFS.c **** *  function for IN endpoints.
2295:Generated_Source\PSoC5/USBFS.c **** *
2296:Generated_Source\PSoC5/USBFS.c **** *  \param epNumber: Contains the data endpoint number.
2297:Generated_Source\PSoC5/USBFS.c **** *            Valid values are between 1 and 8.
2298:Generated_Source\PSoC5/USBFS.c **** *
2299:Generated_Source\PSoC5/USBFS.c **** *******************************************************************************/
2300:Generated_Source\PSoC5/USBFS.c **** void USBFS_DisableOutEP(uint8 epNumber) 
2301:Generated_Source\PSoC5/USBFS.c **** {
 1025              		.loc 1 2301 0
 1026              		.cfi_startproc
 1027              		@ args = 0, pretend = 0, frame = 0
 1028              		@ frame_needed = 0, uses_anonymous_args = 0
 1029              		@ link register save eliminated.
 1030              	.LVL74:
2302:Generated_Source\PSoC5/USBFS.c ****     if ((epNumber > USBFS_EP0) && (epNumber < USBFS_MAX_EP))
 1031              		.loc 1 2302 0
 1032 0000 431E     		subs	r3, r0, #1
 1033 0002 072B     		cmp	r3, #7
2303:Generated_Source\PSoC5/USBFS.c ****     {
2304:Generated_Source\PSoC5/USBFS.c ****         /* Set NAK response for OUT endpoint. */
2305:Generated_Source\PSoC5/USBFS.c ****         USBFS_SIE_EP_BASE.sieEp[epNumber].epCr0 = USBFS_MODE_NAK_OUT;
 1034              		.loc 1 2305 0
 1035 0004 9FBF     		itttt	ls
 1036 0006 024B     		ldrls	r3, .L72
 1037 0008 0001     		lslls	r0, r0, #4
 1038              	.LVL75:
 1039 000a 0822     		movls	r2, #8
 1040 000c 1A54     		strbls	r2, [r3, r0]
 1041 000e 7047     		bx	lr
 1042              	.L73:
 1043              		.align	2
 1044              	.L72:
 1045 0010 FE5F0040 		.word	1073766398
 1046              		.cfi_endproc
 1047              	.LFE14:
 1048              		.size	USBFS_DisableOutEP, .-USBFS_DisableOutEP
 1049              		.section	.text.USBFS_Force,"ax",%progbits
 1050              		.align	1
 1051              		.global	USBFS_Force
 1052              		.thumb
 1053              		.thumb_func
 1054              		.type	USBFS_Force, %function
 1055              	USBFS_Force:
 1056              	.LFB15:
2306:Generated_Source\PSoC5/USBFS.c ****     }
2307:Generated_Source\PSoC5/USBFS.c **** }
ARM GAS  C:\Users\rabbit\AppData\Local\Temp\ccUovuGe.s 			page 61


2308:Generated_Source\PSoC5/USBFS.c **** 
2309:Generated_Source\PSoC5/USBFS.c **** 
2310:Generated_Source\PSoC5/USBFS.c **** /*******************************************************************************
2311:Generated_Source\PSoC5/USBFS.c **** * Function Name: USBFS_Force
2312:Generated_Source\PSoC5/USBFS.c **** ****************************************************************************//**
2313:Generated_Source\PSoC5/USBFS.c **** *
2314:Generated_Source\PSoC5/USBFS.c **** *  This function forces a USB J, K, or SE0 state on the D+/D– lines. It provides
2315:Generated_Source\PSoC5/USBFS.c **** *  the necessary mechanism for a USB device application to perform a USB Remote
2316:Generated_Source\PSoC5/USBFS.c **** *  Wakeup. For more information, see the USB 2.0 Specification for details on
2317:Generated_Source\PSoC5/USBFS.c **** *  Suspend and Resume.
2318:Generated_Source\PSoC5/USBFS.c **** *
2319:Generated_Source\PSoC5/USBFS.c **** *  \param state A byte indicating which of the four bus states to enable.
2320:Generated_Source\PSoC5/USBFS.c **** *        Symbolic names  and their associated values are listed here:
2321:Generated_Source\PSoC5/USBFS.c **** *    State                      |Description
2322:Generated_Source\PSoC5/USBFS.c **** *    ---------------------------|----------------------------------------------
2323:Generated_Source\PSoC5/USBFS.c **** *    USBFS_FORCE_J   | Force a J State onto the D+/D– lines
2324:Generated_Source\PSoC5/USBFS.c **** *    USBFS_FORCE_K   | Force a K State onto the D+/D– lines
2325:Generated_Source\PSoC5/USBFS.c **** *    USBFS_FORCE_SE0 | Force a Single Ended 0 onto the D+/D– lines
2326:Generated_Source\PSoC5/USBFS.c **** *    USBFS_FORCE_NONE| Return bus to SIE control
2327:Generated_Source\PSoC5/USBFS.c **** *
2328:Generated_Source\PSoC5/USBFS.c **** *
2329:Generated_Source\PSoC5/USBFS.c **** *******************************************************************************/
2330:Generated_Source\PSoC5/USBFS.c **** void USBFS_Force(uint8 bState) 
2331:Generated_Source\PSoC5/USBFS.c **** {
 1057              		.loc 1 2331 0
 1058              		.cfi_startproc
 1059              		@ args = 0, pretend = 0, frame = 0
 1060              		@ frame_needed = 0, uses_anonymous_args = 0
 1061              		@ link register save eliminated.
 1062              	.LVL76:
2332:Generated_Source\PSoC5/USBFS.c ****     /* This registers is used only for manual control of SIE (no masking is
2333:Generated_Source\PSoC5/USBFS.c ****     * needed before write into it).
2334:Generated_Source\PSoC5/USBFS.c ****     */
2335:Generated_Source\PSoC5/USBFS.c ****     USBFS_USBIO_CR0_REG = bState;
 1063              		.loc 1 2335 0
 1064 0000 014B     		ldr	r3, .L75
 1065 0002 1870     		strb	r0, [r3]
 1066 0004 7047     		bx	lr
 1067              	.L76:
 1068 0006 00BF     		.align	2
 1069              	.L75:
 1070 0008 10600040 		.word	1073766416
 1071              		.cfi_endproc
 1072              	.LFE15:
 1073              		.size	USBFS_Force, .-USBFS_Force
 1074              		.section	.text.USBFS_GetEPAckState,"ax",%progbits
 1075              		.align	1
 1076              		.global	USBFS_GetEPAckState
 1077              		.thumb
 1078              		.thumb_func
 1079              		.type	USBFS_GetEPAckState, %function
 1080              	USBFS_GetEPAckState:
 1081              	.LFB16:
2336:Generated_Source\PSoC5/USBFS.c **** }
2337:Generated_Source\PSoC5/USBFS.c **** 
2338:Generated_Source\PSoC5/USBFS.c **** 
2339:Generated_Source\PSoC5/USBFS.c **** /*******************************************************************************
ARM GAS  C:\Users\rabbit\AppData\Local\Temp\ccUovuGe.s 			page 62


2340:Generated_Source\PSoC5/USBFS.c **** * Function Name: USBFS_GetEPAckState
2341:Generated_Source\PSoC5/USBFS.c **** ****************************************************************************//**
2342:Generated_Source\PSoC5/USBFS.c **** *
2343:Generated_Source\PSoC5/USBFS.c **** *  This function determines whether an ACK transaction occurred on this endpoint
2344:Generated_Source\PSoC5/USBFS.c **** *  by reading the ACK bit in the control register of the endpoint. It does not
2345:Generated_Source\PSoC5/USBFS.c **** *  clear the ACK bit.
2346:Generated_Source\PSoC5/USBFS.c **** *
2347:Generated_Source\PSoC5/USBFS.c **** *  \param epNumber Contains the data endpoint number.
2348:Generated_Source\PSoC5/USBFS.c **** *            Valid values are between 1 and 8.
2349:Generated_Source\PSoC5/USBFS.c **** *
2350:Generated_Source\PSoC5/USBFS.c **** *  \return
2351:Generated_Source\PSoC5/USBFS.c **** *  If an ACKed transaction occurred, this function returns a non-zero value.
2352:Generated_Source\PSoC5/USBFS.c **** *  Otherwise, it returns zero.
2353:Generated_Source\PSoC5/USBFS.c **** *
2354:Generated_Source\PSoC5/USBFS.c **** *******************************************************************************/
2355:Generated_Source\PSoC5/USBFS.c **** uint8 USBFS_GetEPAckState(uint8 epNumber) 
2356:Generated_Source\PSoC5/USBFS.c **** {
 1082              		.loc 1 2356 0
 1083              		.cfi_startproc
 1084              		@ args = 0, pretend = 0, frame = 0
 1085              		@ frame_needed = 0, uses_anonymous_args = 0
 1086              		@ link register save eliminated.
 1087              	.LVL77:
2357:Generated_Source\PSoC5/USBFS.c ****     uint8 cr = 0u;
2358:Generated_Source\PSoC5/USBFS.c **** 
2359:Generated_Source\PSoC5/USBFS.c ****     if ((epNumber > USBFS_EP0) && (epNumber < USBFS_MAX_EP))
 1088              		.loc 1 2359 0
 1089 0000 431E     		subs	r3, r0, #1
 1090 0002 072B     		cmp	r3, #7
2360:Generated_Source\PSoC5/USBFS.c ****     {
2361:Generated_Source\PSoC5/USBFS.c ****         cr = USBFS_SIE_EP_BASE.sieEp[epNumber].epCr0 & USBFS_MODE_ACKD;
 1091              		.loc 1 2361 0
 1092 0004 9FBF     		itttt	ls
 1093 0006 044B     		ldrls	r3, .L80
 1094 0008 0001     		lslls	r0, r0, #4
 1095              	.LVL78:
 1096 000a 185C     		ldrbls	r0, [r3, r0]	@ zero_extendqisi2
 1097 000c 00F01000 		andls	r0, r0, #16
 1098 0010 94BF     		ite	ls
 1099 0012 C0B2     		uxtbls	r0, r0
 1100              	.LVL79:
2357:Generated_Source\PSoC5/USBFS.c ****     uint8 cr = 0u;
 1101              		.loc 1 2357 0
 1102 0014 0020     		movhi	r0, #0
 1103              	.LVL80:
2362:Generated_Source\PSoC5/USBFS.c ****     }
2363:Generated_Source\PSoC5/USBFS.c **** 
2364:Generated_Source\PSoC5/USBFS.c ****     return ((uint8) cr);
2365:Generated_Source\PSoC5/USBFS.c **** }
 1104              		.loc 1 2365 0
 1105 0016 7047     		bx	lr
 1106              	.L81:
 1107              		.align	2
 1108              	.L80:
 1109 0018 FE5F0040 		.word	1073766398
 1110              		.cfi_endproc
 1111              	.LFE16:
ARM GAS  C:\Users\rabbit\AppData\Local\Temp\ccUovuGe.s 			page 63


 1112              		.size	USBFS_GetEPAckState, .-USBFS_GetEPAckState
 1113              		.section	.text.USBFS_SetPowerStatus,"ax",%progbits
 1114              		.align	1
 1115              		.global	USBFS_SetPowerStatus
 1116              		.thumb
 1117              		.thumb_func
 1118              		.type	USBFS_SetPowerStatus, %function
 1119              	USBFS_SetPowerStatus:
 1120              	.LFB17:
2366:Generated_Source\PSoC5/USBFS.c **** 
2367:Generated_Source\PSoC5/USBFS.c **** 
2368:Generated_Source\PSoC5/USBFS.c **** /*******************************************************************************
2369:Generated_Source\PSoC5/USBFS.c **** * Function Name: USBFS_SetPowerStatus
2370:Generated_Source\PSoC5/USBFS.c **** ****************************************************************************//**
2371:Generated_Source\PSoC5/USBFS.c **** *
2372:Generated_Source\PSoC5/USBFS.c **** *  This function sets the current power status. The device replies to USB
2373:Generated_Source\PSoC5/USBFS.c **** *  GET_STATUS requests based on this value. This allows the device to properly
2374:Generated_Source\PSoC5/USBFS.c **** *  report its status for USB Chapter 9 compliance. Devices can change their
2375:Generated_Source\PSoC5/USBFS.c **** *  power source from self powered to bus powered at any time and report their
2376:Generated_Source\PSoC5/USBFS.c **** *  current power source as part of the device status. You should call this
2377:Generated_Source\PSoC5/USBFS.c **** *  function any time your device changes from self powered to bus powered or
2378:Generated_Source\PSoC5/USBFS.c **** *  vice versa, and set the status appropriately.
2379:Generated_Source\PSoC5/USBFS.c **** *
2380:Generated_Source\PSoC5/USBFS.c **** *  \param powerStatus: Contains the desired power status, one for self powered
2381:Generated_Source\PSoC5/USBFS.c **** *        or zero for bus powered. Symbolic names and their associated values are
2382:Generated_Source\PSoC5/USBFS.c **** *        given here:
2383:Generated_Source\PSoC5/USBFS.c **** *  Power Status                                |Description
2384:Generated_Source\PSoC5/USBFS.c **** *  --------------------------------------------|---------------------------
2385:Generated_Source\PSoC5/USBFS.c **** *  USBFS_DEVICE_STATUS_BUS_POWERED  | Set the device to bus powered
2386:Generated_Source\PSoC5/USBFS.c **** *  USBFS_DEVICE_STATUS_SELF_POWERED | Set the device to self powered
2387:Generated_Source\PSoC5/USBFS.c **** *
2388:Generated_Source\PSoC5/USBFS.c **** * \globalvars
2389:Generated_Source\PSoC5/USBFS.c **** *
2390:Generated_Source\PSoC5/USBFS.c **** *  \ref USBFS_deviceStatus - set power status
2391:Generated_Source\PSoC5/USBFS.c **** *
2392:Generated_Source\PSoC5/USBFS.c **** * \reentrant
2393:Generated_Source\PSoC5/USBFS.c **** *  No.
2394:Generated_Source\PSoC5/USBFS.c **** *
2395:Generated_Source\PSoC5/USBFS.c **** *******************************************************************************/
2396:Generated_Source\PSoC5/USBFS.c **** void USBFS_SetPowerStatus(uint8 powerStatus) 
2397:Generated_Source\PSoC5/USBFS.c **** {
 1121              		.loc 1 2397 0
 1122              		.cfi_startproc
 1123              		@ args = 0, pretend = 0, frame = 0
 1124              		@ frame_needed = 0, uses_anonymous_args = 0
 1125              		@ link register save eliminated.
 1126              	.LVL81:
 1127 0000 044B     		ldr	r3, .L86
2398:Generated_Source\PSoC5/USBFS.c ****     if (powerStatus != USBFS_DEVICE_STATUS_BUS_POWERED)
2399:Generated_Source\PSoC5/USBFS.c ****     {
2400:Generated_Source\PSoC5/USBFS.c ****         USBFS_deviceStatus |= (uint8)  USBFS_DEVICE_STATUS_SELF_POWERED;
 1128              		.loc 1 2400 0
 1129 0002 1A78     		ldrb	r2, [r3]	@ zero_extendqisi2
2398:Generated_Source\PSoC5/USBFS.c ****     if (powerStatus != USBFS_DEVICE_STATUS_BUS_POWERED)
 1130              		.loc 1 2398 0
 1131 0004 10B1     		cbz	r0, .L83
 1132              		.loc 1 2400 0
ARM GAS  C:\Users\rabbit\AppData\Local\Temp\ccUovuGe.s 			page 64


 1133 0006 42F00102 		orr	r2, r2, #1
 1134 000a 01E0     		b	.L85
 1135              	.L83:
2401:Generated_Source\PSoC5/USBFS.c ****     }
2402:Generated_Source\PSoC5/USBFS.c ****     else
2403:Generated_Source\PSoC5/USBFS.c ****     {
2404:Generated_Source\PSoC5/USBFS.c ****         USBFS_deviceStatus &= (uint8) ~USBFS_DEVICE_STATUS_SELF_POWERED;
 1136              		.loc 1 2404 0
 1137 000c 02F0FE02 		and	r2, r2, #254
 1138              	.L85:
 1139 0010 1A70     		strb	r2, [r3]
 1140 0012 7047     		bx	lr
 1141              	.L87:
 1142              		.align	2
 1143              	.L86:
 1144 0014 00000000 		.word	USBFS_deviceStatus
 1145              		.cfi_endproc
 1146              	.LFE17:
 1147              		.size	USBFS_SetPowerStatus, .-USBFS_SetPowerStatus
 1148              		.section	.text.USBFS_RWUEnabled,"ax",%progbits
 1149              		.align	1
 1150              		.global	USBFS_RWUEnabled
 1151              		.thumb
 1152              		.thumb_func
 1153              		.type	USBFS_RWUEnabled, %function
 1154              	USBFS_RWUEnabled:
 1155              	.LFB18:
2405:Generated_Source\PSoC5/USBFS.c ****     }
2406:Generated_Source\PSoC5/USBFS.c **** }
2407:Generated_Source\PSoC5/USBFS.c **** 
2408:Generated_Source\PSoC5/USBFS.c **** 
2409:Generated_Source\PSoC5/USBFS.c **** #if (USBFS_VBUS_MONITORING_ENABLE)
2410:Generated_Source\PSoC5/USBFS.c ****     /***************************************************************************
2411:Generated_Source\PSoC5/USBFS.c ****     * Function Name: USBFS_VBusPresent
2412:Generated_Source\PSoC5/USBFS.c ****     ************************************************************************//**
2413:Generated_Source\PSoC5/USBFS.c ****     *
2414:Generated_Source\PSoC5/USBFS.c ****     *  Determines VBUS presence for self-powered devices. This function is
2415:Generated_Source\PSoC5/USBFS.c ****     *  available when the VBUS Monitoring option is enabled in the Advanced tab.
2416:Generated_Source\PSoC5/USBFS.c ****     *
2417:Generated_Source\PSoC5/USBFS.c ****     * \return
2418:Generated_Source\PSoC5/USBFS.c ****     *  The return value can be the following:
2419:Generated_Source\PSoC5/USBFS.c ****     *  Return Value | Description
2420:Generated_Source\PSoC5/USBFS.c ****     *  -------------|-----------------
2421:Generated_Source\PSoC5/USBFS.c ****     *  1            | VBUS is present
2422:Generated_Source\PSoC5/USBFS.c ****     *  0            | VBUS is absent
2423:Generated_Source\PSoC5/USBFS.c ****     *
2424:Generated_Source\PSoC5/USBFS.c ****     *
2425:Generated_Source\PSoC5/USBFS.c ****     ***************************************************************************/
2426:Generated_Source\PSoC5/USBFS.c ****     uint8 USBFS_VBusPresent(void) 
2427:Generated_Source\PSoC5/USBFS.c ****     {
