ARM GAS  C:\Users\rabbit\AppData\Local\Temp\cc8OJZQ7.s 			page 1


   1              		.syntax unified
   2              		.cpu cortex-m3
   3              		.fpu softvfp
   4              		.eabi_attribute 20, 1
   5              		.eabi_attribute 21, 1
   6              		.eabi_attribute 23, 3
   7              		.eabi_attribute 24, 1
   8              		.eabi_attribute 25, 1
   9              		.eabi_attribute 26, 1
  10              		.eabi_attribute 30, 4
  11              		.eabi_attribute 34, 1
  12              		.eabi_attribute 18, 4
  13              		.thumb
  14              		.syntax unified
  15              		.file	"USBFS_msc.c"
  16              		.text
  17              	.Ltext0:
  18              		.cfi_sections	.debug_frame
  19              		.section	.text.USBFS_DispatchMSCClassRqst,"ax",%progbits
  20              		.align	1
  21              		.global	USBFS_DispatchMSCClassRqst
  22              		.thumb
  23              		.thumb_func
  24              		.type	USBFS_DispatchMSCClassRqst, %function
  25              	USBFS_DispatchMSCClassRqst:
  26              	.LFB0:
  27              		.file 1 "Generated_Source\\PSoC5\\USBFS_msc.c"
   1:Generated_Source\PSoC5/USBFS_msc.c **** /***************************************************************************//**
   2:Generated_Source\PSoC5/USBFS_msc.c **** * \file USBFS_cdc.c
   3:Generated_Source\PSoC5/USBFS_msc.c **** * \version 3.20
   4:Generated_Source\PSoC5/USBFS_msc.c **** *
   5:Generated_Source\PSoC5/USBFS_msc.c **** * \brief
   6:Generated_Source\PSoC5/USBFS_msc.c **** *  This file contains the USB MSC Class request handler and global API for MSC 
   7:Generated_Source\PSoC5/USBFS_msc.c **** *  class.
   8:Generated_Source\PSoC5/USBFS_msc.c **** *
   9:Generated_Source\PSoC5/USBFS_msc.c **** * Related Document:
  10:Generated_Source\PSoC5/USBFS_msc.c **** *  Universal Serial Bus Class Definitions for Communication Devices Version 1.1
  11:Generated_Source\PSoC5/USBFS_msc.c **** *
  12:Generated_Source\PSoC5/USBFS_msc.c **** ********************************************************************************
  13:Generated_Source\PSoC5/USBFS_msc.c **** * \copyright
  14:Generated_Source\PSoC5/USBFS_msc.c **** * Copyright 2012-2016, Cypress Semiconductor Corporation.  All rights reserved.
  15:Generated_Source\PSoC5/USBFS_msc.c **** * You may use this file only in accordance with the license, terms, conditions,
  16:Generated_Source\PSoC5/USBFS_msc.c **** * disclaimers, and limitations in the end user license agreement accompanying
  17:Generated_Source\PSoC5/USBFS_msc.c **** * the software package with which this file was provided.
  18:Generated_Source\PSoC5/USBFS_msc.c **** *******************************************************************************/
  19:Generated_Source\PSoC5/USBFS_msc.c **** 
  20:Generated_Source\PSoC5/USBFS_msc.c **** #include "USBFS_msc.h"
  21:Generated_Source\PSoC5/USBFS_msc.c **** #include "USBFS_pvt.h"
  22:Generated_Source\PSoC5/USBFS_msc.c **** 
  23:Generated_Source\PSoC5/USBFS_msc.c **** 
  24:Generated_Source\PSoC5/USBFS_msc.c **** #if (USBFS_HANDLE_MSC_REQUESTS)
  25:Generated_Source\PSoC5/USBFS_msc.c **** 
  26:Generated_Source\PSoC5/USBFS_msc.c **** /***************************************
  27:Generated_Source\PSoC5/USBFS_msc.c **** *          Internal variables
  28:Generated_Source\PSoC5/USBFS_msc.c **** ***************************************/
  29:Generated_Source\PSoC5/USBFS_msc.c **** 
  30:Generated_Source\PSoC5/USBFS_msc.c **** static uint8 USBFS_lunCount = USBFS_MSC_LUN_NUMBER;
ARM GAS  C:\Users\rabbit\AppData\Local\Temp\cc8OJZQ7.s 			page 2


  31:Generated_Source\PSoC5/USBFS_msc.c **** 
  32:Generated_Source\PSoC5/USBFS_msc.c **** 
  33:Generated_Source\PSoC5/USBFS_msc.c **** /*******************************************************************************
  34:Generated_Source\PSoC5/USBFS_msc.c **** * Function Name: USBFS_DispatchMSCClassRqst
  35:Generated_Source\PSoC5/USBFS_msc.c **** ****************************************************************************//**
  36:Generated_Source\PSoC5/USBFS_msc.c **** *   
  37:Generated_Source\PSoC5/USBFS_msc.c **** *  \internal 
  38:Generated_Source\PSoC5/USBFS_msc.c **** *  This routine dispatches MSC class requests.
  39:Generated_Source\PSoC5/USBFS_msc.c **** *
  40:Generated_Source\PSoC5/USBFS_msc.c **** * \return
  41:Generated_Source\PSoC5/USBFS_msc.c **** *  Status of request processing: handled or not handled.
  42:Generated_Source\PSoC5/USBFS_msc.c **** *
  43:Generated_Source\PSoC5/USBFS_msc.c **** * \globalvars
  44:Generated_Source\PSoC5/USBFS_msc.c **** *  USBFS_lunCount - stores number of LUN (logical units).
  45:Generated_Source\PSoC5/USBFS_msc.c **** *
  46:Generated_Source\PSoC5/USBFS_msc.c **** * \reentrant
  47:Generated_Source\PSoC5/USBFS_msc.c **** *  No.
  48:Generated_Source\PSoC5/USBFS_msc.c **** *
  49:Generated_Source\PSoC5/USBFS_msc.c **** *******************************************************************************/
  50:Generated_Source\PSoC5/USBFS_msc.c **** uint8 USBFS_DispatchMSCClassRqst(void) 
  51:Generated_Source\PSoC5/USBFS_msc.c **** {
  28              		.loc 1 51 0
  29              		.cfi_startproc
  30              		@ args = 0, pretend = 0, frame = 0
  31              		@ frame_needed = 0, uses_anonymous_args = 0
  32              		@ link register save eliminated.
  33              	.LVL0:
  52:Generated_Source\PSoC5/USBFS_msc.c ****     uint8 requestHandled = USBFS_FALSE;
  53:Generated_Source\PSoC5/USBFS_msc.c ****     
  54:Generated_Source\PSoC5/USBFS_msc.c ****     /* Get request data. */
  55:Generated_Source\PSoC5/USBFS_msc.c ****     uint16 value  = USBFS_GET_UINT16(USBFS_wValueHiReg,  USBFS_wValueLoReg);
  34              		.loc 1 55 0
  35 0000 104B     		ldr	r3, .L11
  36 0002 D978     		ldrb	r1, [r3, #3]	@ zero_extendqisi2
  37 0004 9A78     		ldrb	r2, [r3, #2]	@ zero_extendqisi2
  56:Generated_Source\PSoC5/USBFS_msc.c ****     uint16 dataLength = USBFS_GET_UINT16(USBFS_wLengthHiReg, USBFS_wLengthLoReg);
  38              		.loc 1 56 0
  39 0006 D879     		ldrb	r0, [r3, #7]	@ zero_extendqisi2
  55:Generated_Source\PSoC5/USBFS_msc.c ****     uint16 dataLength = USBFS_GET_UINT16(USBFS_wLengthHiReg, USBFS_wLengthLoReg);
  40              		.loc 1 55 0
  41 0008 42EA0121 		orr	r1, r2, r1, lsl #8
  42              	.LVL1:
  43              		.loc 1 56 0
  44 000c 9A79     		ldrb	r2, [r3, #6]	@ zero_extendqisi2
  45 000e 42EA0022 		orr	r2, r2, r0, lsl #8
  46              	.LVL2:
  57:Generated_Source\PSoC5/USBFS_msc.c ****        
  58:Generated_Source\PSoC5/USBFS_msc.c ****     /* Check request direction: D2H or H2D. */
  59:Generated_Source\PSoC5/USBFS_msc.c ****     if (0u != (USBFS_bmRequestTypeReg & USBFS_RQST_DIR_D2H))
  47              		.loc 1 59 0
  48 0012 1878     		ldrb	r0, [r3]	@ zero_extendqisi2
  60:Generated_Source\PSoC5/USBFS_msc.c ****     {
  61:Generated_Source\PSoC5/USBFS_msc.c ****         /* Handle direction from device to host. */
  62:Generated_Source\PSoC5/USBFS_msc.c ****         
  63:Generated_Source\PSoC5/USBFS_msc.c ****         if (USBFS_MSC_GET_MAX_LUN == USBFS_bRequestReg)
  49              		.loc 1 63 0
  50 0014 5B78     		ldrb	r3, [r3, #1]	@ zero_extendqisi2
ARM GAS  C:\Users\rabbit\AppData\Local\Temp\cc8OJZQ7.s 			page 3


  59:Generated_Source\PSoC5/USBFS_msc.c ****     {
  51              		.loc 1 59 0
  52 0016 0006     		lsls	r0, r0, #24
  53 0018 0AD5     		bpl	.L2
  54              		.loc 1 63 0
  55 001a FE2B     		cmp	r3, #254
  56 001c 10D1     		bne	.L3
  64:Generated_Source\PSoC5/USBFS_msc.c ****         {
  65:Generated_Source\PSoC5/USBFS_msc.c ****             /* Check request fields. */
  66:Generated_Source\PSoC5/USBFS_msc.c ****             if ((value  == USBFS_MSC_GET_MAX_LUN_WVALUE) &&
  57              		.loc 1 66 0
  58 001e 79B9     		cbnz	r1, .L3
  59              		.loc 1 66 0 is_stmt 0 discriminator 1
  60 0020 012A     		cmp	r2, #1
  61 0022 0DD1     		bne	.L3
  67:Generated_Source\PSoC5/USBFS_msc.c ****                 (dataLength == USBFS_MSC_GET_MAX_LUN_WLENGTH))
  68:Generated_Source\PSoC5/USBFS_msc.c ****             {
  69:Generated_Source\PSoC5/USBFS_msc.c ****                 /* Reply to Get Max LUN request: setup control read. */
  70:Generated_Source\PSoC5/USBFS_msc.c ****                 USBFS_currentTD.pData = &USBFS_lunCount;
  62              		.loc 1 70 0 is_stmt 1
  63 0024 084B     		ldr	r3, .L11+4
  64 0026 0949     		ldr	r1, .L11+8
  65              	.LVL3:
  66 0028 5960     		str	r1, [r3, #4]
  71:Generated_Source\PSoC5/USBFS_msc.c ****                 USBFS_currentTD.count =  USBFS_MSC_GET_MAX_LUN_WLENGTH;
  67              		.loc 1 71 0
  68 002a 1A80     		strh	r2, [r3]	@ movhi
  72:Generated_Source\PSoC5/USBFS_msc.c ****                 
  73:Generated_Source\PSoC5/USBFS_msc.c ****                 requestHandled  = USBFS_InitControlRead();
  69              		.loc 1 73 0
  70 002c FFF7FEBF 		b	USBFS_InitControlRead
  71              	.LVL4:
  72              	.L2:
  74:Generated_Source\PSoC5/USBFS_msc.c ****             }
  75:Generated_Source\PSoC5/USBFS_msc.c ****         }
  76:Generated_Source\PSoC5/USBFS_msc.c ****     }
  77:Generated_Source\PSoC5/USBFS_msc.c ****     else
  78:Generated_Source\PSoC5/USBFS_msc.c ****     {
  79:Generated_Source\PSoC5/USBFS_msc.c ****         /* Handle direction from host to device. */
  80:Generated_Source\PSoC5/USBFS_msc.c ****         
  81:Generated_Source\PSoC5/USBFS_msc.c ****         if (USBFS_MSC_RESET == USBFS_bRequestReg)
  73              		.loc 1 81 0
  74 0030 FF2B     		cmp	r3, #255
  75 0032 05D1     		bne	.L3
  82:Generated_Source\PSoC5/USBFS_msc.c ****         {
  83:Generated_Source\PSoC5/USBFS_msc.c ****             /* Check request fields. */
  84:Generated_Source\PSoC5/USBFS_msc.c ****             if ((value  == USBFS_MSC_RESET_WVALUE) &&
  76              		.loc 1 84 0
  77 0034 21B9     		cbnz	r1, .L3
  78              		.loc 1 84 0 is_stmt 0 discriminator 1
  79 0036 1AB9     		cbnz	r2, .L3
  85:Generated_Source\PSoC5/USBFS_msc.c ****                 (dataLength == USBFS_MSC_RESET_WLENGTH))
  86:Generated_Source\PSoC5/USBFS_msc.c ****             {
  87:Generated_Source\PSoC5/USBFS_msc.c ****                 /* Handle to Bulk-Only Reset request: no data control transfer. */
  88:Generated_Source\PSoC5/USBFS_msc.c ****                 USBFS_currentTD.count = USBFS_MSC_RESET_WLENGTH;
  80              		.loc 1 88 0 is_stmt 1
  81 0038 034B     		ldr	r3, .L11+4
ARM GAS  C:\Users\rabbit\AppData\Local\Temp\cc8OJZQ7.s 			page 4


  82 003a 1A80     		strh	r2, [r3]	@ movhi
  89:Generated_Source\PSoC5/USBFS_msc.c ****                 
  90:Generated_Source\PSoC5/USBFS_msc.c ****             #ifdef USBFS_DISPATCH_MSC_CLASS_MSC_RESET_RQST_CALLBACK
  91:Generated_Source\PSoC5/USBFS_msc.c ****                 USBFS_DispatchMSCClass_MSC_RESET_RQST_Callback();
  92:Generated_Source\PSoC5/USBFS_msc.c ****             #endif /* (USBFS_DISPATCH_MSC_CLASS_MSC_RESET_RQST_CALLBACK) */
  93:Generated_Source\PSoC5/USBFS_msc.c ****                 
  94:Generated_Source\PSoC5/USBFS_msc.c ****                 requestHandled = USBFS_InitNoDataControlTransfer();
  83              		.loc 1 94 0
  84 003c FFF7FEBF 		b	USBFS_InitNoDataControlTransfer
  85              	.LVL5:
  86              	.L3:
  95:Generated_Source\PSoC5/USBFS_msc.c ****             }
  96:Generated_Source\PSoC5/USBFS_msc.c ****         }
  97:Generated_Source\PSoC5/USBFS_msc.c ****     }
  98:Generated_Source\PSoC5/USBFS_msc.c ****     
  99:Generated_Source\PSoC5/USBFS_msc.c ****     return (requestHandled);
 100:Generated_Source\PSoC5/USBFS_msc.c **** }
  87              		.loc 1 100 0
  88 0040 0020     		movs	r0, #0
  89 0042 7047     		bx	lr
  90              	.L12:
  91              		.align	2
  92              	.L11:
  93 0044 00600040 		.word	1073766400
  94 0048 00000000 		.word	USBFS_currentTD
  95 004c 00000000 		.word	.LANCHOR0
  96              		.cfi_endproc
  97              	.LFE0:
  98              		.size	USBFS_DispatchMSCClassRqst, .-USBFS_DispatchMSCClassRqst
  99              		.section	.text.USBFS_MSC_SetLunCount,"ax",%progbits
 100              		.align	1
 101              		.global	USBFS_MSC_SetLunCount
 102              		.thumb
 103              		.thumb_func
 104              		.type	USBFS_MSC_SetLunCount, %function
 105              	USBFS_MSC_SetLunCount:
 106              	.LFB1:
 101:Generated_Source\PSoC5/USBFS_msc.c **** 
 102:Generated_Source\PSoC5/USBFS_msc.c **** 
 103:Generated_Source\PSoC5/USBFS_msc.c **** /*******************************************************************************
 104:Generated_Source\PSoC5/USBFS_msc.c **** * Function Name: USBFS_MSC_SetLunCount
 105:Generated_Source\PSoC5/USBFS_msc.c **** ****************************************************************************//**
 106:Generated_Source\PSoC5/USBFS_msc.c **** *
 107:Generated_Source\PSoC5/USBFS_msc.c **** *  This function sets the number of logical units supported in the application. 
 108:Generated_Source\PSoC5/USBFS_msc.c **** *  The default number of logical units is set in the component customizer.
 109:Generated_Source\PSoC5/USBFS_msc.c **** *
 110:Generated_Source\PSoC5/USBFS_msc.c **** *  \param lunCount: Count of the logical units. Valid range is between 1 and 16.
 111:Generated_Source\PSoC5/USBFS_msc.c **** *
 112:Generated_Source\PSoC5/USBFS_msc.c **** *
 113:Generated_Source\PSoC5/USBFS_msc.c **** * \globalvars
 114:Generated_Source\PSoC5/USBFS_msc.c **** *  USBFS_lunCount - stores number of LUN (logical units).
 115:Generated_Source\PSoC5/USBFS_msc.c **** *
 116:Generated_Source\PSoC5/USBFS_msc.c **** * \reentrant
 117:Generated_Source\PSoC5/USBFS_msc.c **** *  No.
 118:Generated_Source\PSoC5/USBFS_msc.c **** *
 119:Generated_Source\PSoC5/USBFS_msc.c **** *******************************************************************************/
 120:Generated_Source\PSoC5/USBFS_msc.c **** void USBFS_MSC_SetLunCount(uint8 lunCount) 
ARM GAS  C:\Users\rabbit\AppData\Local\Temp\cc8OJZQ7.s 			page 5


 121:Generated_Source\PSoC5/USBFS_msc.c **** {
 107              		.loc 1 121 0
 108              		.cfi_startproc
 109              		@ args = 0, pretend = 0, frame = 0
 110              		@ frame_needed = 0, uses_anonymous_args = 0
 111              		@ link register save eliminated.
 112              	.LVL6:
 122:Generated_Source\PSoC5/USBFS_msc.c ****     USBFS_lunCount = (lunCount - 1u);
 113              		.loc 1 122 0
 114 0000 014B     		ldr	r3, .L14
 115 0002 0138     		subs	r0, r0, #1
 116              	.LVL7:
 117 0004 1870     		strb	r0, [r3]
 118 0006 7047     		bx	lr
 119              	.L15:
 120              		.align	2
 121              	.L14:
 122 0008 00000000 		.word	.LANCHOR0
 123              		.cfi_endproc
 124              	.LFE1:
 125              		.size	USBFS_MSC_SetLunCount, .-USBFS_MSC_SetLunCount
 126              		.section	.text.USBFS_MSC_GetLunCount,"ax",%progbits
 127              		.align	1
 128              		.global	USBFS_MSC_GetLunCount
 129              		.thumb
 130              		.thumb_func
 131              		.type	USBFS_MSC_GetLunCount, %function
 132              	USBFS_MSC_GetLunCount:
 133              	.LFB2:
 123:Generated_Source\PSoC5/USBFS_msc.c **** }
 124:Generated_Source\PSoC5/USBFS_msc.c **** 
 125:Generated_Source\PSoC5/USBFS_msc.c **** 
 126:Generated_Source\PSoC5/USBFS_msc.c **** /*******************************************************************************
 127:Generated_Source\PSoC5/USBFS_msc.c **** * Function Name: USBFS_MSC_GetLunCount
 128:Generated_Source\PSoC5/USBFS_msc.c **** ****************************************************************************//**
 129:Generated_Source\PSoC5/USBFS_msc.c **** *
 130:Generated_Source\PSoC5/USBFS_msc.c **** *  This function returns the number of logical units.
 131:Generated_Source\PSoC5/USBFS_msc.c **** *
 132:Generated_Source\PSoC5/USBFS_msc.c **** * \return
 133:Generated_Source\PSoC5/USBFS_msc.c **** *   Number of the logical units.
 134:Generated_Source\PSoC5/USBFS_msc.c **** *
 135:Generated_Source\PSoC5/USBFS_msc.c **** * \globalvars
 136:Generated_Source\PSoC5/USBFS_msc.c **** *  USBFS_lunCount - stores number of LUN (logical units).
 137:Generated_Source\PSoC5/USBFS_msc.c **** *
 138:Generated_Source\PSoC5/USBFS_msc.c **** * \reentrant
 139:Generated_Source\PSoC5/USBFS_msc.c **** *  No.
 140:Generated_Source\PSoC5/USBFS_msc.c **** *
 141:Generated_Source\PSoC5/USBFS_msc.c **** *******************************************************************************/
 142:Generated_Source\PSoC5/USBFS_msc.c **** uint8 USBFS_MSC_GetLunCount(void) 
 143:Generated_Source\PSoC5/USBFS_msc.c **** {
 134              		.loc 1 143 0
 135              		.cfi_startproc
 136              		@ args = 0, pretend = 0, frame = 0
 137              		@ frame_needed = 0, uses_anonymous_args = 0
 138              		@ link register save eliminated.
 144:Generated_Source\PSoC5/USBFS_msc.c ****     return (USBFS_lunCount + 1u);
 139              		.loc 1 144 0
ARM GAS  C:\Users\rabbit\AppData\Local\Temp\cc8OJZQ7.s 			page 6


 140 0000 024B     		ldr	r3, .L17
 141 0002 1878     		ldrb	r0, [r3]	@ zero_extendqisi2
 142 0004 0130     		adds	r0, r0, #1
 145:Generated_Source\PSoC5/USBFS_msc.c **** }   
 143              		.loc 1 145 0
 144 0006 C0B2     		uxtb	r0, r0
 145 0008 7047     		bx	lr
 146              	.L18:
 147 000a 00BF     		.align	2
 148              	.L17:
 149 000c 00000000 		.word	.LANCHOR0
 150              		.cfi_endproc
 151              	.LFE2:
 152              		.size	USBFS_MSC_GetLunCount, .-USBFS_MSC_GetLunCount
 153              		.bss
 154              		.set	.LANCHOR0,. + 0
 155              		.type	USBFS_lunCount, %object
 156              		.size	USBFS_lunCount, 1
 157              	USBFS_lunCount:
 158 0000 00       		.space	1
 159              		.text
 160              	.Letext0:
 161              		.file 2 "Generated_Source\\PSoC5\\cytypes.h"
 162              		.file 3 "Generated_Source\\PSoC5\\USBFS.h"
 163              		.file 4 "Generated_Source\\PSoC5\\USBFS_pvt.h"