ARM GAS  C:\Users\rabbit\AppData\Local\Temp\cccb5bWv.s 			page 1


   1              		.syntax unified
   2              		.cpu cortex-m3
   3              		.fpu softvfp
   4              		.eabi_attribute 20, 1
   5              		.eabi_attribute 21, 1
   6              		.eabi_attribute 23, 3
   7              		.eabi_attribute 24, 1
   8              		.eabi_attribute 25, 1
   9              		.eabi_attribute 26, 1
  10              		.eabi_attribute 30, 4
  11              		.eabi_attribute 34, 1
  12              		.eabi_attribute 18, 4
  13              		.thumb
  14              		.syntax unified
  15              		.file	"USBFS_std.c"
  16              		.text
  17              	.Ltext0:
  18              		.cfi_sections	.debug_frame
  19              		.section	.text.USBFS_ConfigReg,"ax",%progbits
  20              		.align	1
  21              		.global	USBFS_ConfigReg
  22              		.thumb
  23              		.thumb_func
  24              		.type	USBFS_ConfigReg, %function
  25              	USBFS_ConfigReg:
  26              	.LFB1:
  27              		.file 1 "Generated_Source\\PSoC5\\USBFS_std.c"
   1:Generated_Source\PSoC5/USBFS_std.c **** /***************************************************************************//**
   2:Generated_Source\PSoC5/USBFS_std.c **** * \file USBFS_std.c
   3:Generated_Source\PSoC5/USBFS_std.c **** * \version 3.20
   4:Generated_Source\PSoC5/USBFS_std.c **** *
   5:Generated_Source\PSoC5/USBFS_std.c **** * \brief
   6:Generated_Source\PSoC5/USBFS_std.c **** *  This file contains the USB Standard request handler.
   7:Generated_Source\PSoC5/USBFS_std.c **** *
   8:Generated_Source\PSoC5/USBFS_std.c **** ********************************************************************************
   9:Generated_Source\PSoC5/USBFS_std.c **** * \copyright
  10:Generated_Source\PSoC5/USBFS_std.c **** * Copyright 2008-2016, Cypress Semiconductor Corporation.  All rights reserved.
  11:Generated_Source\PSoC5/USBFS_std.c **** * You may use this file only in accordance with the license, terms, conditions,
  12:Generated_Source\PSoC5/USBFS_std.c **** * disclaimers, and limitations in the end user license agreement accompanying
  13:Generated_Source\PSoC5/USBFS_std.c **** * the software package with which this file was provided.
  14:Generated_Source\PSoC5/USBFS_std.c **** *******************************************************************************/
  15:Generated_Source\PSoC5/USBFS_std.c **** 
  16:Generated_Source\PSoC5/USBFS_std.c **** #include "USBFS_pvt.h"
  17:Generated_Source\PSoC5/USBFS_std.c **** 
  18:Generated_Source\PSoC5/USBFS_std.c **** /***************************************
  19:Generated_Source\PSoC5/USBFS_std.c **** *   Static data allocation
  20:Generated_Source\PSoC5/USBFS_std.c **** ***************************************/
  21:Generated_Source\PSoC5/USBFS_std.c **** 
  22:Generated_Source\PSoC5/USBFS_std.c **** #if defined(USBFS_ENABLE_FWSN_STRING)
  23:Generated_Source\PSoC5/USBFS_std.c ****     static volatile uint8* USBFS_fwSerialNumberStringDescriptor;
  24:Generated_Source\PSoC5/USBFS_std.c ****     static volatile uint8  USBFS_snStringConfirm = USBFS_FALSE;
  25:Generated_Source\PSoC5/USBFS_std.c **** #endif  /* (USBFS_ENABLE_FWSN_STRING) */
  26:Generated_Source\PSoC5/USBFS_std.c **** 
  27:Generated_Source\PSoC5/USBFS_std.c **** #if defined(USBFS_ENABLE_FWSN_STRING)
  28:Generated_Source\PSoC5/USBFS_std.c ****     /***************************************************************************
  29:Generated_Source\PSoC5/USBFS_std.c ****     * Function Name: USBFS_SerialNumString
  30:Generated_Source\PSoC5/USBFS_std.c ****     ************************************************************************//**
ARM GAS  C:\Users\rabbit\AppData\Local\Temp\cccb5bWv.s 			page 2


  31:Generated_Source\PSoC5/USBFS_std.c ****     *
  32:Generated_Source\PSoC5/USBFS_std.c ****     *  This function is available only when the User Call Back option in the 
  33:Generated_Source\PSoC5/USBFS_std.c ****     *  Serial Number String descriptor properties is selected. Application 
  34:Generated_Source\PSoC5/USBFS_std.c ****     *  firmware can provide the source of the USB device serial number string 
  35:Generated_Source\PSoC5/USBFS_std.c ****     *  descriptor during run time. The default string is used if the application 
  36:Generated_Source\PSoC5/USBFS_std.c ****     *  firmware does not use this function or sets the wrong string descriptor.
  37:Generated_Source\PSoC5/USBFS_std.c ****     *
  38:Generated_Source\PSoC5/USBFS_std.c ****     *  \param snString:  Pointer to the user-defined string descriptor. The 
  39:Generated_Source\PSoC5/USBFS_std.c ****     *  string descriptor should meet the Universal Serial Bus Specification 
  40:Generated_Source\PSoC5/USBFS_std.c ****     *  revision 2.0 chapter 9.6.7
  41:Generated_Source\PSoC5/USBFS_std.c ****     *  Offset|Size|Value|Description
  42:Generated_Source\PSoC5/USBFS_std.c ****     *  ------|----|------|---------------------------------
  43:Generated_Source\PSoC5/USBFS_std.c ****     *  0     |1   |N     |Size of this descriptor in bytes
  44:Generated_Source\PSoC5/USBFS_std.c ****     *  1     |1   |0x03  |STRING Descriptor Type
  45:Generated_Source\PSoC5/USBFS_std.c ****     *  2     |N-2 |Number|UNICODE encoded string
  46:Generated_Source\PSoC5/USBFS_std.c ****     *  
  47:Generated_Source\PSoC5/USBFS_std.c ****     * *For example:* uint8 snString[16]={0x0E,0x03,'F',0,'W',0,'S',0,'N',0,'0',0,'1',0};
  48:Generated_Source\PSoC5/USBFS_std.c ****     *
  49:Generated_Source\PSoC5/USBFS_std.c ****     * \reentrant
  50:Generated_Source\PSoC5/USBFS_std.c ****     *  No.
  51:Generated_Source\PSoC5/USBFS_std.c ****     *
  52:Generated_Source\PSoC5/USBFS_std.c ****     ***************************************************************************/
  53:Generated_Source\PSoC5/USBFS_std.c ****     void  USBFS_SerialNumString(uint8 snString[]) 
  54:Generated_Source\PSoC5/USBFS_std.c ****     {
  55:Generated_Source\PSoC5/USBFS_std.c ****         USBFS_snStringConfirm = USBFS_FALSE;
  56:Generated_Source\PSoC5/USBFS_std.c ****         
  57:Generated_Source\PSoC5/USBFS_std.c ****         if (snString != NULL)
  58:Generated_Source\PSoC5/USBFS_std.c ****         {
  59:Generated_Source\PSoC5/USBFS_std.c ****             /* Check descriptor validation */
  60:Generated_Source\PSoC5/USBFS_std.c ****             if ((snString[0u] > 1u) && (snString[1u] == USBFS_DESCR_STRING))
  61:Generated_Source\PSoC5/USBFS_std.c ****             {
  62:Generated_Source\PSoC5/USBFS_std.c ****                 USBFS_fwSerialNumberStringDescriptor = snString;
  63:Generated_Source\PSoC5/USBFS_std.c ****                 USBFS_snStringConfirm = USBFS_TRUE;
  64:Generated_Source\PSoC5/USBFS_std.c ****             }
  65:Generated_Source\PSoC5/USBFS_std.c ****         }
  66:Generated_Source\PSoC5/USBFS_std.c ****     }
  67:Generated_Source\PSoC5/USBFS_std.c **** #endif  /* USBFS_ENABLE_FWSN_STRING */
  68:Generated_Source\PSoC5/USBFS_std.c **** 
  69:Generated_Source\PSoC5/USBFS_std.c **** 
  70:Generated_Source\PSoC5/USBFS_std.c **** /*******************************************************************************
  71:Generated_Source\PSoC5/USBFS_std.c **** * Function Name: USBFS_HandleStandardRqst
  72:Generated_Source\PSoC5/USBFS_std.c **** ****************************************************************************//**
  73:Generated_Source\PSoC5/USBFS_std.c **** *
  74:Generated_Source\PSoC5/USBFS_std.c **** *  This Routine dispatches standard requests
  75:Generated_Source\PSoC5/USBFS_std.c **** *
  76:Generated_Source\PSoC5/USBFS_std.c **** *
  77:Generated_Source\PSoC5/USBFS_std.c **** * \return
  78:Generated_Source\PSoC5/USBFS_std.c **** *  TRUE if request handled.
  79:Generated_Source\PSoC5/USBFS_std.c **** *
  80:Generated_Source\PSoC5/USBFS_std.c **** * \reentrant
  81:Generated_Source\PSoC5/USBFS_std.c **** *  No.
  82:Generated_Source\PSoC5/USBFS_std.c **** *
  83:Generated_Source\PSoC5/USBFS_std.c **** *******************************************************************************/
  84:Generated_Source\PSoC5/USBFS_std.c **** uint8 USBFS_HandleStandardRqst(void) 
  85:Generated_Source\PSoC5/USBFS_std.c **** {
  86:Generated_Source\PSoC5/USBFS_std.c ****     uint8 requestHandled = USBFS_FALSE;
  87:Generated_Source\PSoC5/USBFS_std.c ****     uint8 interfaceNumber;
ARM GAS  C:\Users\rabbit\AppData\Local\Temp\cccb5bWv.s 			page 3


  88:Generated_Source\PSoC5/USBFS_std.c ****     uint8 configurationN;
  89:Generated_Source\PSoC5/USBFS_std.c ****     uint8 bmRequestType = USBFS_bmRequestTypeReg;
  90:Generated_Source\PSoC5/USBFS_std.c **** 
  91:Generated_Source\PSoC5/USBFS_std.c **** #if defined(USBFS_ENABLE_STRINGS)
  92:Generated_Source\PSoC5/USBFS_std.c ****     volatile uint8 *pStr = 0u;
  93:Generated_Source\PSoC5/USBFS_std.c ****     #if defined(USBFS_ENABLE_DESCRIPTOR_STRINGS)
  94:Generated_Source\PSoC5/USBFS_std.c ****         uint8 nStr;
  95:Generated_Source\PSoC5/USBFS_std.c ****         uint8 descrLength;
  96:Generated_Source\PSoC5/USBFS_std.c ****     #endif /* (USBFS_ENABLE_DESCRIPTOR_STRINGS) */
  97:Generated_Source\PSoC5/USBFS_std.c **** #endif /* (USBFS_ENABLE_STRINGS) */
  98:Generated_Source\PSoC5/USBFS_std.c ****     
  99:Generated_Source\PSoC5/USBFS_std.c ****     static volatile uint8 USBFS_tBuffer[USBFS_STATUS_LENGTH_MAX];
 100:Generated_Source\PSoC5/USBFS_std.c ****     const T_USBFS_LUT CYCODE *pTmp;
 101:Generated_Source\PSoC5/USBFS_std.c **** 
 102:Generated_Source\PSoC5/USBFS_std.c ****     USBFS_currentTD.count = 0u;
 103:Generated_Source\PSoC5/USBFS_std.c **** 
 104:Generated_Source\PSoC5/USBFS_std.c ****     if (USBFS_RQST_DIR_D2H == (bmRequestType & USBFS_RQST_DIR_MASK))
 105:Generated_Source\PSoC5/USBFS_std.c ****     {
 106:Generated_Source\PSoC5/USBFS_std.c ****         /* Control Read */
 107:Generated_Source\PSoC5/USBFS_std.c ****         switch (USBFS_bRequestReg)
 108:Generated_Source\PSoC5/USBFS_std.c ****         {
 109:Generated_Source\PSoC5/USBFS_std.c ****             case USBFS_GET_DESCRIPTOR:
 110:Generated_Source\PSoC5/USBFS_std.c ****                 if (USBFS_DESCR_DEVICE ==USBFS_wValueHiReg)
 111:Generated_Source\PSoC5/USBFS_std.c ****                 {
 112:Generated_Source\PSoC5/USBFS_std.c ****                     pTmp = USBFS_GetDeviceTablePtr();
 113:Generated_Source\PSoC5/USBFS_std.c ****                     USBFS_currentTD.pData = (volatile uint8 *)pTmp->p_list;
 114:Generated_Source\PSoC5/USBFS_std.c ****                     USBFS_currentTD.count = USBFS_DEVICE_DESCR_LENGTH;
 115:Generated_Source\PSoC5/USBFS_std.c ****                     
 116:Generated_Source\PSoC5/USBFS_std.c ****                     requestHandled  = USBFS_InitControlRead();
 117:Generated_Source\PSoC5/USBFS_std.c ****                 }
 118:Generated_Source\PSoC5/USBFS_std.c ****                 else if (USBFS_DESCR_CONFIG == USBFS_wValueHiReg)
 119:Generated_Source\PSoC5/USBFS_std.c ****                 {
 120:Generated_Source\PSoC5/USBFS_std.c ****                     pTmp = USBFS_GetConfigTablePtr((uint8) USBFS_wValueLoReg);
 121:Generated_Source\PSoC5/USBFS_std.c ****                     
 122:Generated_Source\PSoC5/USBFS_std.c ****                     /* Verify that requested descriptor exists */
 123:Generated_Source\PSoC5/USBFS_std.c ****                     if (pTmp != NULL)
 124:Generated_Source\PSoC5/USBFS_std.c ****                     {
 125:Generated_Source\PSoC5/USBFS_std.c ****                         USBFS_currentTD.pData = (volatile uint8 *)pTmp->p_list;
 126:Generated_Source\PSoC5/USBFS_std.c ****                         USBFS_currentTD.count = (uint16)((uint16)(USBFS_currentTD.pData)[USBFS_CONF
 127:Generated_Source\PSoC5/USBFS_std.c ****                                                                             (USBFS_currentTD.pData)
 128:Generated_Source\PSoC5/USBFS_std.c ****                         requestHandled  = USBFS_InitControlRead();
 129:Generated_Source\PSoC5/USBFS_std.c ****                     }
 130:Generated_Source\PSoC5/USBFS_std.c ****                 }
 131:Generated_Source\PSoC5/USBFS_std.c ****                 
 132:Generated_Source\PSoC5/USBFS_std.c ****             #if(USBFS_BOS_ENABLE)
 133:Generated_Source\PSoC5/USBFS_std.c ****                 else if (USBFS_DESCR_BOS == USBFS_wValueHiReg)
 134:Generated_Source\PSoC5/USBFS_std.c ****                 {
 135:Generated_Source\PSoC5/USBFS_std.c ****                     pTmp = USBFS_GetBOSPtr();
 136:Generated_Source\PSoC5/USBFS_std.c ****                     
 137:Generated_Source\PSoC5/USBFS_std.c ****                     /* Verify that requested descriptor exists */
 138:Generated_Source\PSoC5/USBFS_std.c ****                     if (pTmp != NULL)
 139:Generated_Source\PSoC5/USBFS_std.c ****                     {
 140:Generated_Source\PSoC5/USBFS_std.c ****                         USBFS_currentTD.pData = (volatile uint8 *)pTmp;
 141:Generated_Source\PSoC5/USBFS_std.c ****                         USBFS_currentTD.count = ((uint16)((uint16)(USBFS_currentTD.pData)[USBFS_BOS
 142:Generated_Source\PSoC5/USBFS_std.c ****                                                                              (USBFS_currentTD.pData
 143:Generated_Source\PSoC5/USBFS_std.c ****                         requestHandled  = USBFS_InitControlRead();
 144:Generated_Source\PSoC5/USBFS_std.c ****                     }
ARM GAS  C:\Users\rabbit\AppData\Local\Temp\cccb5bWv.s 			page 4


 145:Generated_Source\PSoC5/USBFS_std.c ****                 }
 146:Generated_Source\PSoC5/USBFS_std.c ****             #endif /*(USBFS_BOS_ENABLE)*/
 147:Generated_Source\PSoC5/USBFS_std.c ****             
 148:Generated_Source\PSoC5/USBFS_std.c ****             #if defined(USBFS_ENABLE_STRINGS)
 149:Generated_Source\PSoC5/USBFS_std.c ****                 else if (USBFS_DESCR_STRING == USBFS_wValueHiReg)
 150:Generated_Source\PSoC5/USBFS_std.c ****                 {
 151:Generated_Source\PSoC5/USBFS_std.c ****                 /* Descriptor Strings */
 152:Generated_Source\PSoC5/USBFS_std.c ****                 #if defined(USBFS_ENABLE_DESCRIPTOR_STRINGS)
 153:Generated_Source\PSoC5/USBFS_std.c ****                     nStr = 0u;
 154:Generated_Source\PSoC5/USBFS_std.c ****                     pStr = (volatile uint8 *) &USBFS_STRING_DESCRIPTORS[0u];
 155:Generated_Source\PSoC5/USBFS_std.c ****                     
 156:Generated_Source\PSoC5/USBFS_std.c ****                     while ((USBFS_wValueLoReg > nStr) && (*pStr != 0u))
 157:Generated_Source\PSoC5/USBFS_std.c ****                     {
 158:Generated_Source\PSoC5/USBFS_std.c ****                         /* Read descriptor length from 1st byte */
 159:Generated_Source\PSoC5/USBFS_std.c ****                         descrLength = *pStr;
 160:Generated_Source\PSoC5/USBFS_std.c ****                         /* Move to next string descriptor */
 161:Generated_Source\PSoC5/USBFS_std.c ****                         pStr = &pStr[descrLength];
 162:Generated_Source\PSoC5/USBFS_std.c ****                         nStr++;
 163:Generated_Source\PSoC5/USBFS_std.c ****                     }
 164:Generated_Source\PSoC5/USBFS_std.c ****                 #endif /* (USBFS_ENABLE_DESCRIPTOR_STRINGS) */
 165:Generated_Source\PSoC5/USBFS_std.c ****                 
 166:Generated_Source\PSoC5/USBFS_std.c ****                 /* Microsoft OS String */
 167:Generated_Source\PSoC5/USBFS_std.c ****                 #if defined(USBFS_ENABLE_MSOS_STRING)
 168:Generated_Source\PSoC5/USBFS_std.c ****                     if (USBFS_STRING_MSOS == USBFS_wValueLoReg)
 169:Generated_Source\PSoC5/USBFS_std.c ****                     {
 170:Generated_Source\PSoC5/USBFS_std.c ****                         pStr = (volatile uint8 *)& USBFS_MSOS_DESCRIPTOR[0u];
 171:Generated_Source\PSoC5/USBFS_std.c ****                     }
 172:Generated_Source\PSoC5/USBFS_std.c ****                 #endif /* (USBFS_ENABLE_MSOS_STRING) */
 173:Generated_Source\PSoC5/USBFS_std.c ****                 
 174:Generated_Source\PSoC5/USBFS_std.c ****                 /* SN string */
 175:Generated_Source\PSoC5/USBFS_std.c ****                 #if defined(USBFS_ENABLE_SN_STRING)
 176:Generated_Source\PSoC5/USBFS_std.c ****                     if ((USBFS_wValueLoReg != 0u) && 
 177:Generated_Source\PSoC5/USBFS_std.c ****                         (USBFS_wValueLoReg == USBFS_DEVICE0_DESCR[USBFS_DEVICE_DESCR_SN_SHIFT]))
 178:Generated_Source\PSoC5/USBFS_std.c ****                     {
 179:Generated_Source\PSoC5/USBFS_std.c ****                     #if defined(USBFS_ENABLE_IDSN_STRING)
 180:Generated_Source\PSoC5/USBFS_std.c ****                         /* Read DIE ID and generate string descriptor in RAM */
 181:Generated_Source\PSoC5/USBFS_std.c ****                         USBFS_ReadDieID(USBFS_idSerialNumberStringDescriptor);
 182:Generated_Source\PSoC5/USBFS_std.c ****                         pStr = USBFS_idSerialNumberStringDescriptor;
 183:Generated_Source\PSoC5/USBFS_std.c ****                     #elif defined(USBFS_ENABLE_FWSN_STRING)
 184:Generated_Source\PSoC5/USBFS_std.c ****                         
 185:Generated_Source\PSoC5/USBFS_std.c ****                         if(USBFS_snStringConfirm != USBFS_FALSE)
 186:Generated_Source\PSoC5/USBFS_std.c ****                         {
 187:Generated_Source\PSoC5/USBFS_std.c ****                             pStr = USBFS_fwSerialNumberStringDescriptor;
 188:Generated_Source\PSoC5/USBFS_std.c ****                         }
 189:Generated_Source\PSoC5/USBFS_std.c ****                         else
 190:Generated_Source\PSoC5/USBFS_std.c ****                         {
 191:Generated_Source\PSoC5/USBFS_std.c ****                             pStr = (volatile uint8 *)&USBFS_SN_STRING_DESCRIPTOR[0u];
 192:Generated_Source\PSoC5/USBFS_std.c ****                         }
 193:Generated_Source\PSoC5/USBFS_std.c ****                     #else
 194:Generated_Source\PSoC5/USBFS_std.c ****                         pStr = (volatile uint8 *)&USBFS_SN_STRING_DESCRIPTOR[0u];
 195:Generated_Source\PSoC5/USBFS_std.c ****                     #endif  /* (USBFS_ENABLE_IDSN_STRING) */
 196:Generated_Source\PSoC5/USBFS_std.c ****                     }
 197:Generated_Source\PSoC5/USBFS_std.c ****                 #endif /* (USBFS_ENABLE_SN_STRING) */
 198:Generated_Source\PSoC5/USBFS_std.c ****                 
 199:Generated_Source\PSoC5/USBFS_std.c ****                     if (*pStr != 0u)
 200:Generated_Source\PSoC5/USBFS_std.c ****                     {
 201:Generated_Source\PSoC5/USBFS_std.c ****                         USBFS_currentTD.count = *pStr;
ARM GAS  C:\Users\rabbit\AppData\Local\Temp\cccb5bWv.s 			page 5


 202:Generated_Source\PSoC5/USBFS_std.c ****                         USBFS_currentTD.pData = pStr;
 203:Generated_Source\PSoC5/USBFS_std.c ****                         requestHandled  = USBFS_InitControlRead();
 204:Generated_Source\PSoC5/USBFS_std.c ****                     }
 205:Generated_Source\PSoC5/USBFS_std.c ****                 }
 206:Generated_Source\PSoC5/USBFS_std.c ****             #endif /*  USBFS_ENABLE_STRINGS */
 207:Generated_Source\PSoC5/USBFS_std.c ****                 else
 208:Generated_Source\PSoC5/USBFS_std.c ****                 {
 209:Generated_Source\PSoC5/USBFS_std.c ****                     requestHandled = USBFS_DispatchClassRqst();
 210:Generated_Source\PSoC5/USBFS_std.c ****                 }
 211:Generated_Source\PSoC5/USBFS_std.c ****                 break;
 212:Generated_Source\PSoC5/USBFS_std.c ****                 
 213:Generated_Source\PSoC5/USBFS_std.c ****             case USBFS_GET_STATUS:
 214:Generated_Source\PSoC5/USBFS_std.c ****                 switch (bmRequestType & USBFS_RQST_RCPT_MASK)
 215:Generated_Source\PSoC5/USBFS_std.c ****                 {
 216:Generated_Source\PSoC5/USBFS_std.c ****                     case USBFS_RQST_RCPT_EP:
 217:Generated_Source\PSoC5/USBFS_std.c ****                         USBFS_currentTD.count = USBFS_EP_STATUS_LENGTH;
 218:Generated_Source\PSoC5/USBFS_std.c ****                         USBFS_tBuffer[0u]     = USBFS_EP[USBFS_wIndexLoReg & USBFS_DIR_UNUSED].hwEp
 219:Generated_Source\PSoC5/USBFS_std.c ****                         USBFS_tBuffer[1u]     = 0u;
 220:Generated_Source\PSoC5/USBFS_std.c ****                         USBFS_currentTD.pData = &USBFS_tBuffer[0u];
 221:Generated_Source\PSoC5/USBFS_std.c ****                         
 222:Generated_Source\PSoC5/USBFS_std.c ****                         requestHandled  = USBFS_InitControlRead();
 223:Generated_Source\PSoC5/USBFS_std.c ****                         break;
 224:Generated_Source\PSoC5/USBFS_std.c ****                     case USBFS_RQST_RCPT_DEV:
 225:Generated_Source\PSoC5/USBFS_std.c ****                         USBFS_currentTD.count = USBFS_DEVICE_STATUS_LENGTH;
 226:Generated_Source\PSoC5/USBFS_std.c ****                         USBFS_tBuffer[0u]     = USBFS_deviceStatus;
 227:Generated_Source\PSoC5/USBFS_std.c ****                         USBFS_tBuffer[1u]     = 0u;
 228:Generated_Source\PSoC5/USBFS_std.c ****                         USBFS_currentTD.pData = &USBFS_tBuffer[0u];
 229:Generated_Source\PSoC5/USBFS_std.c ****                         
 230:Generated_Source\PSoC5/USBFS_std.c ****                         requestHandled  = USBFS_InitControlRead();
 231:Generated_Source\PSoC5/USBFS_std.c ****                         break;
 232:Generated_Source\PSoC5/USBFS_std.c ****                     default:    /* requestHandled is initialized as FALSE by default */
 233:Generated_Source\PSoC5/USBFS_std.c ****                         break;
 234:Generated_Source\PSoC5/USBFS_std.c ****                 }
 235:Generated_Source\PSoC5/USBFS_std.c ****                 break;
 236:Generated_Source\PSoC5/USBFS_std.c ****                 
 237:Generated_Source\PSoC5/USBFS_std.c ****             case USBFS_GET_CONFIGURATION:
 238:Generated_Source\PSoC5/USBFS_std.c ****                 USBFS_currentTD.count = 1u;
 239:Generated_Source\PSoC5/USBFS_std.c ****                 USBFS_currentTD.pData = (volatile uint8 *) &USBFS_configuration;
 240:Generated_Source\PSoC5/USBFS_std.c ****                 requestHandled  = USBFS_InitControlRead();
 241:Generated_Source\PSoC5/USBFS_std.c ****                 break;
 242:Generated_Source\PSoC5/USBFS_std.c ****                 
 243:Generated_Source\PSoC5/USBFS_std.c ****             case USBFS_GET_INTERFACE:
 244:Generated_Source\PSoC5/USBFS_std.c ****                 USBFS_currentTD.count = 1u;
 245:Generated_Source\PSoC5/USBFS_std.c ****                 USBFS_currentTD.pData = (volatile uint8 *) &USBFS_interfaceSetting[USBFS_wIndexLoRe
 246:Generated_Source\PSoC5/USBFS_std.c ****                 requestHandled  = USBFS_InitControlRead();
 247:Generated_Source\PSoC5/USBFS_std.c ****                 break;
 248:Generated_Source\PSoC5/USBFS_std.c ****                 
 249:Generated_Source\PSoC5/USBFS_std.c ****             default: /* requestHandled is initialized as FALSE by default */
 250:Generated_Source\PSoC5/USBFS_std.c ****                 break;
 251:Generated_Source\PSoC5/USBFS_std.c ****         }
 252:Generated_Source\PSoC5/USBFS_std.c ****     }
 253:Generated_Source\PSoC5/USBFS_std.c ****     else
 254:Generated_Source\PSoC5/USBFS_std.c ****     {
 255:Generated_Source\PSoC5/USBFS_std.c ****         /* Control Write */
 256:Generated_Source\PSoC5/USBFS_std.c ****         switch (USBFS_bRequestReg)
 257:Generated_Source\PSoC5/USBFS_std.c ****         {
 258:Generated_Source\PSoC5/USBFS_std.c ****             case USBFS_SET_ADDRESS:
ARM GAS  C:\Users\rabbit\AppData\Local\Temp\cccb5bWv.s 			page 6


 259:Generated_Source\PSoC5/USBFS_std.c ****                 /* Store address to be set in USBFS_NoDataControlStatusStage(). */
 260:Generated_Source\PSoC5/USBFS_std.c ****                 USBFS_deviceAddress = (uint8) USBFS_wValueLoReg;
 261:Generated_Source\PSoC5/USBFS_std.c ****                 requestHandled = USBFS_InitNoDataControlTransfer();
 262:Generated_Source\PSoC5/USBFS_std.c ****                 break;
 263:Generated_Source\PSoC5/USBFS_std.c ****                 
 264:Generated_Source\PSoC5/USBFS_std.c ****             case USBFS_SET_CONFIGURATION:
 265:Generated_Source\PSoC5/USBFS_std.c ****                 configurationN = USBFS_wValueLoReg;
 266:Generated_Source\PSoC5/USBFS_std.c ****                 
 267:Generated_Source\PSoC5/USBFS_std.c ****                 /* Verify that configuration descriptor exists */
 268:Generated_Source\PSoC5/USBFS_std.c ****                 if(configurationN > 0u)
 269:Generated_Source\PSoC5/USBFS_std.c ****                 {
 270:Generated_Source\PSoC5/USBFS_std.c ****                     pTmp = USBFS_GetConfigTablePtr((uint8) configurationN - 1u);
 271:Generated_Source\PSoC5/USBFS_std.c ****                 }
 272:Generated_Source\PSoC5/USBFS_std.c ****                 
 273:Generated_Source\PSoC5/USBFS_std.c ****                 /* Responds with a Request Error when configuration number is invalid */
 274:Generated_Source\PSoC5/USBFS_std.c ****                 if (((configurationN > 0u) && (pTmp != NULL)) || (configurationN == 0u))
 275:Generated_Source\PSoC5/USBFS_std.c ****                 {
 276:Generated_Source\PSoC5/USBFS_std.c ****                     /* Set new configuration if it has been changed */
 277:Generated_Source\PSoC5/USBFS_std.c ****                     if(configurationN != USBFS_configuration)
 278:Generated_Source\PSoC5/USBFS_std.c ****                     {
 279:Generated_Source\PSoC5/USBFS_std.c ****                         USBFS_configuration = (uint8) configurationN;
 280:Generated_Source\PSoC5/USBFS_std.c ****                         USBFS_configurationChanged = USBFS_TRUE;
 281:Generated_Source\PSoC5/USBFS_std.c ****                         USBFS_Config(USBFS_TRUE);
 282:Generated_Source\PSoC5/USBFS_std.c ****                     }
 283:Generated_Source\PSoC5/USBFS_std.c ****                     requestHandled = USBFS_InitNoDataControlTransfer();
 284:Generated_Source\PSoC5/USBFS_std.c ****                 }
 285:Generated_Source\PSoC5/USBFS_std.c ****                 break;
 286:Generated_Source\PSoC5/USBFS_std.c ****                 
 287:Generated_Source\PSoC5/USBFS_std.c ****             case USBFS_SET_INTERFACE:
 288:Generated_Source\PSoC5/USBFS_std.c ****                 if (0u != USBFS_ValidateAlternateSetting())
 289:Generated_Source\PSoC5/USBFS_std.c ****                 {
 290:Generated_Source\PSoC5/USBFS_std.c ****                     /* Get interface number from the request. */
 291:Generated_Source\PSoC5/USBFS_std.c ****                     interfaceNumber = USBFS_wIndexLoReg;
 292:Generated_Source\PSoC5/USBFS_std.c ****                     USBFS_interfaceNumber = (uint8) USBFS_wIndexLoReg;
 293:Generated_Source\PSoC5/USBFS_std.c ****                      
 294:Generated_Source\PSoC5/USBFS_std.c ****                     /* Check if alternate settings is changed for interface. */
 295:Generated_Source\PSoC5/USBFS_std.c ****                     if (USBFS_interfaceSettingLast[interfaceNumber] != USBFS_interfaceSetting[inter
 296:Generated_Source\PSoC5/USBFS_std.c ****                     {
 297:Generated_Source\PSoC5/USBFS_std.c ****                         USBFS_configurationChanged = USBFS_TRUE;
 298:Generated_Source\PSoC5/USBFS_std.c ****                     
 299:Generated_Source\PSoC5/USBFS_std.c ****                         /* Change alternate setting for the endpoints. */
 300:Generated_Source\PSoC5/USBFS_std.c ****                     #if (USBFS_EP_MANAGEMENT_MANUAL && USBFS_EP_ALLOC_DYNAMIC)
 301:Generated_Source\PSoC5/USBFS_std.c ****                         USBFS_Config(USBFS_FALSE);
 302:Generated_Source\PSoC5/USBFS_std.c ****                     #else
 303:Generated_Source\PSoC5/USBFS_std.c ****                         USBFS_ConfigAltChanged();
 304:Generated_Source\PSoC5/USBFS_std.c ****                     #endif /* (USBFS_EP_MANAGEMENT_MANUAL && USBFS_EP_ALLOC_DYNAMIC) */
 305:Generated_Source\PSoC5/USBFS_std.c ****                     }
 306:Generated_Source\PSoC5/USBFS_std.c ****                     
 307:Generated_Source\PSoC5/USBFS_std.c ****                     requestHandled = USBFS_InitNoDataControlTransfer();
 308:Generated_Source\PSoC5/USBFS_std.c ****                 }
 309:Generated_Source\PSoC5/USBFS_std.c ****                 break;
 310:Generated_Source\PSoC5/USBFS_std.c ****                 
 311:Generated_Source\PSoC5/USBFS_std.c ****             case USBFS_CLEAR_FEATURE:
 312:Generated_Source\PSoC5/USBFS_std.c ****                 switch (bmRequestType & USBFS_RQST_RCPT_MASK)
 313:Generated_Source\PSoC5/USBFS_std.c ****                 {
 314:Generated_Source\PSoC5/USBFS_std.c ****                     case USBFS_RQST_RCPT_EP:
 315:Generated_Source\PSoC5/USBFS_std.c ****                         if (USBFS_wValueLoReg == USBFS_ENDPOINT_HALT)
ARM GAS  C:\Users\rabbit\AppData\Local\Temp\cccb5bWv.s 			page 7


 316:Generated_Source\PSoC5/USBFS_std.c ****                         {
 317:Generated_Source\PSoC5/USBFS_std.c ****                             requestHandled = USBFS_ClearEndpointHalt();
 318:Generated_Source\PSoC5/USBFS_std.c ****                         }
 319:Generated_Source\PSoC5/USBFS_std.c ****                         break;
 320:Generated_Source\PSoC5/USBFS_std.c ****                     case USBFS_RQST_RCPT_DEV:
 321:Generated_Source\PSoC5/USBFS_std.c ****                         /* Clear device REMOTE_WAKEUP */
 322:Generated_Source\PSoC5/USBFS_std.c ****                         if (USBFS_wValueLoReg == USBFS_DEVICE_REMOTE_WAKEUP)
 323:Generated_Source\PSoC5/USBFS_std.c ****                         {
 324:Generated_Source\PSoC5/USBFS_std.c ****                             USBFS_deviceStatus &= (uint8)~USBFS_DEVICE_STATUS_REMOTE_WAKEUP;
 325:Generated_Source\PSoC5/USBFS_std.c ****                             requestHandled = USBFS_InitNoDataControlTransfer();
 326:Generated_Source\PSoC5/USBFS_std.c ****                         }
 327:Generated_Source\PSoC5/USBFS_std.c ****                         break;
 328:Generated_Source\PSoC5/USBFS_std.c ****                     case USBFS_RQST_RCPT_IFC:
 329:Generated_Source\PSoC5/USBFS_std.c ****                         /* Validate interfaceNumber */
 330:Generated_Source\PSoC5/USBFS_std.c ****                         if (USBFS_wIndexLoReg < USBFS_MAX_INTERFACES_NUMBER)
 331:Generated_Source\PSoC5/USBFS_std.c ****                         {
 332:Generated_Source\PSoC5/USBFS_std.c ****                             USBFS_interfaceStatus[USBFS_wIndexLoReg] &= (uint8) ~USBFS_wValueLoReg;
 333:Generated_Source\PSoC5/USBFS_std.c ****                             requestHandled = USBFS_InitNoDataControlTransfer();
 334:Generated_Source\PSoC5/USBFS_std.c ****                         }
 335:Generated_Source\PSoC5/USBFS_std.c ****                         break;
 336:Generated_Source\PSoC5/USBFS_std.c ****                     default:    /* requestHandled is initialized as FALSE by default */
 337:Generated_Source\PSoC5/USBFS_std.c ****                         break;
 338:Generated_Source\PSoC5/USBFS_std.c ****                 }
 339:Generated_Source\PSoC5/USBFS_std.c ****                 break;
 340:Generated_Source\PSoC5/USBFS_std.c ****                 
 341:Generated_Source\PSoC5/USBFS_std.c ****             case USBFS_SET_FEATURE:
 342:Generated_Source\PSoC5/USBFS_std.c ****                 switch (bmRequestType & USBFS_RQST_RCPT_MASK)
 343:Generated_Source\PSoC5/USBFS_std.c ****                 {
 344:Generated_Source\PSoC5/USBFS_std.c ****                     case USBFS_RQST_RCPT_EP:
 345:Generated_Source\PSoC5/USBFS_std.c ****                         if (USBFS_wValueLoReg == USBFS_ENDPOINT_HALT)
 346:Generated_Source\PSoC5/USBFS_std.c ****                         {
 347:Generated_Source\PSoC5/USBFS_std.c ****                             requestHandled = USBFS_SetEndpointHalt();
 348:Generated_Source\PSoC5/USBFS_std.c ****                         }
 349:Generated_Source\PSoC5/USBFS_std.c ****                         break;
 350:Generated_Source\PSoC5/USBFS_std.c ****                         
 351:Generated_Source\PSoC5/USBFS_std.c ****                     case USBFS_RQST_RCPT_DEV:
 352:Generated_Source\PSoC5/USBFS_std.c ****                         /* Set device REMOTE_WAKEUP */
 353:Generated_Source\PSoC5/USBFS_std.c ****                         if (USBFS_wValueLoReg == USBFS_DEVICE_REMOTE_WAKEUP)
 354:Generated_Source\PSoC5/USBFS_std.c ****                         {
 355:Generated_Source\PSoC5/USBFS_std.c ****                             USBFS_deviceStatus |= USBFS_DEVICE_STATUS_REMOTE_WAKEUP;
 356:Generated_Source\PSoC5/USBFS_std.c ****                             requestHandled = USBFS_InitNoDataControlTransfer();
 357:Generated_Source\PSoC5/USBFS_std.c ****                         }
 358:Generated_Source\PSoC5/USBFS_std.c ****                         break;
 359:Generated_Source\PSoC5/USBFS_std.c ****                         
 360:Generated_Source\PSoC5/USBFS_std.c ****                     case USBFS_RQST_RCPT_IFC:
 361:Generated_Source\PSoC5/USBFS_std.c ****                         /* Validate interfaceNumber */
 362:Generated_Source\PSoC5/USBFS_std.c ****                         if (USBFS_wIndexLoReg < USBFS_MAX_INTERFACES_NUMBER)
 363:Generated_Source\PSoC5/USBFS_std.c ****                         {
 364:Generated_Source\PSoC5/USBFS_std.c ****                             USBFS_interfaceStatus[USBFS_wIndexLoReg] &= (uint8) ~USBFS_wValueLoReg;
 365:Generated_Source\PSoC5/USBFS_std.c ****                             requestHandled = USBFS_InitNoDataControlTransfer();
 366:Generated_Source\PSoC5/USBFS_std.c ****                         }
 367:Generated_Source\PSoC5/USBFS_std.c ****                         break;
 368:Generated_Source\PSoC5/USBFS_std.c ****                     
 369:Generated_Source\PSoC5/USBFS_std.c ****                     default:    /* requestHandled is initialized as FALSE by default */
 370:Generated_Source\PSoC5/USBFS_std.c ****                         break;
 371:Generated_Source\PSoC5/USBFS_std.c ****                 }
 372:Generated_Source\PSoC5/USBFS_std.c ****                 break;
ARM GAS  C:\Users\rabbit\AppData\Local\Temp\cccb5bWv.s 			page 8


 373:Generated_Source\PSoC5/USBFS_std.c ****                 
 374:Generated_Source\PSoC5/USBFS_std.c ****             default:    /* requestHandled is initialized as FALSE by default */
 375:Generated_Source\PSoC5/USBFS_std.c ****                 break;
 376:Generated_Source\PSoC5/USBFS_std.c ****         }
 377:Generated_Source\PSoC5/USBFS_std.c ****     }
 378:Generated_Source\PSoC5/USBFS_std.c ****     
 379:Generated_Source\PSoC5/USBFS_std.c ****     return (requestHandled);
 380:Generated_Source\PSoC5/USBFS_std.c **** }
 381:Generated_Source\PSoC5/USBFS_std.c **** 
 382:Generated_Source\PSoC5/USBFS_std.c **** 
 383:Generated_Source\PSoC5/USBFS_std.c **** #if defined(USBFS_ENABLE_IDSN_STRING)
 384:Generated_Source\PSoC5/USBFS_std.c ****     /***************************************************************************
 385:Generated_Source\PSoC5/USBFS_std.c ****     * Function Name: USBFS_ReadDieID
 386:Generated_Source\PSoC5/USBFS_std.c ****     ************************************************************************//**
 387:Generated_Source\PSoC5/USBFS_std.c ****     *
 388:Generated_Source\PSoC5/USBFS_std.c ****     *  This routine read Die ID and generate Serial Number string descriptor.
 389:Generated_Source\PSoC5/USBFS_std.c ****     *
 390:Generated_Source\PSoC5/USBFS_std.c ****     *  \param descr:  pointer on string descriptor. This string size has to be equal or
 391:Generated_Source\PSoC5/USBFS_std.c ****     *          greater than USBFS_IDSN_DESCR_LENGTH.
 392:Generated_Source\PSoC5/USBFS_std.c ****     *
 393:Generated_Source\PSoC5/USBFS_std.c ****     *
 394:Generated_Source\PSoC5/USBFS_std.c ****     * \reentrant
 395:Generated_Source\PSoC5/USBFS_std.c ****     *  No.
 396:Generated_Source\PSoC5/USBFS_std.c ****     *
 397:Generated_Source\PSoC5/USBFS_std.c ****     ***************************************************************************/
 398:Generated_Source\PSoC5/USBFS_std.c ****     void USBFS_ReadDieID(uint8 descr[]) 
 399:Generated_Source\PSoC5/USBFS_std.c ****     {
 400:Generated_Source\PSoC5/USBFS_std.c ****         const char8 CYCODE hex[] = "0123456789ABCDEF";
 401:Generated_Source\PSoC5/USBFS_std.c ****         uint8 i;
 402:Generated_Source\PSoC5/USBFS_std.c ****         uint8 j = 0u;
 403:Generated_Source\PSoC5/USBFS_std.c ****         uint8 uniqueId[8u];
 404:Generated_Source\PSoC5/USBFS_std.c **** 
 405:Generated_Source\PSoC5/USBFS_std.c ****         if (NULL != descr)
 406:Generated_Source\PSoC5/USBFS_std.c ****         {
 407:Generated_Source\PSoC5/USBFS_std.c ****             /* Initialize descriptor header. */
 408:Generated_Source\PSoC5/USBFS_std.c ****             descr[0u] = USBFS_IDSN_DESCR_LENGTH;
 409:Generated_Source\PSoC5/USBFS_std.c ****             descr[1u] = USBFS_DESCR_STRING;
 410:Generated_Source\PSoC5/USBFS_std.c ****             
 411:Generated_Source\PSoC5/USBFS_std.c ****             /* Unique ID size is 8 bytes. */
 412:Generated_Source\PSoC5/USBFS_std.c ****             CyGetUniqueId((uint32 *) uniqueId);
 413:Generated_Source\PSoC5/USBFS_std.c **** 
 414:Generated_Source\PSoC5/USBFS_std.c ****             /* Fill descriptor with unique device ID. */
 415:Generated_Source\PSoC5/USBFS_std.c ****             for (i = 2u; i < USBFS_IDSN_DESCR_LENGTH; i += 4u)
 416:Generated_Source\PSoC5/USBFS_std.c ****             {
 417:Generated_Source\PSoC5/USBFS_std.c ****                 descr[i]      = (uint8) hex[(uniqueId[j] >> 4u)];
 418:Generated_Source\PSoC5/USBFS_std.c ****                 descr[i + 1u] = 0u;
 419:Generated_Source\PSoC5/USBFS_std.c ****                 descr[i + 2u] = (uint8) hex[(uniqueId[j] & 0x0Fu)];
 420:Generated_Source\PSoC5/USBFS_std.c ****                 descr[i + 3u] = 0u;
 421:Generated_Source\PSoC5/USBFS_std.c ****                 ++j;
 422:Generated_Source\PSoC5/USBFS_std.c ****             }
 423:Generated_Source\PSoC5/USBFS_std.c ****         }
 424:Generated_Source\PSoC5/USBFS_std.c ****     }
 425:Generated_Source\PSoC5/USBFS_std.c **** #endif /* (USBFS_ENABLE_IDSN_STRING) */
 426:Generated_Source\PSoC5/USBFS_std.c **** 
 427:Generated_Source\PSoC5/USBFS_std.c **** 
 428:Generated_Source\PSoC5/USBFS_std.c **** /*******************************************************************************
 429:Generated_Source\PSoC5/USBFS_std.c **** * Function Name: USBFS_ConfigReg
ARM GAS  C:\Users\rabbit\AppData\Local\Temp\cccb5bWv.s 			page 9


 430:Generated_Source\PSoC5/USBFS_std.c **** ****************************************************************************//**
 431:Generated_Source\PSoC5/USBFS_std.c **** *
 432:Generated_Source\PSoC5/USBFS_std.c **** *  This routine configures hardware registers from the variables.
 433:Generated_Source\PSoC5/USBFS_std.c **** *  It is called from USBFS_Config() function and from RestoreConfig
 434:Generated_Source\PSoC5/USBFS_std.c **** *  after Wakeup.
 435:Generated_Source\PSoC5/USBFS_std.c **** *
 436:Generated_Source\PSoC5/USBFS_std.c **** *******************************************************************************/
 437:Generated_Source\PSoC5/USBFS_std.c **** void USBFS_ConfigReg(void) 
 438:Generated_Source\PSoC5/USBFS_std.c **** {
  28              		.loc 1 438 0
  29              		.cfi_startproc
  30              		@ args = 0, pretend = 0, frame = 0
  31              		@ frame_needed = 0, uses_anonymous_args = 0
  32              	.LVL0:
  33 0000 2DE9F041 		push	{r4, r5, r6, r7, r8, lr}
  34              		.cfi_def_cfa_offset 24
  35              		.cfi_offset 4, -24
  36              		.cfi_offset 5, -20
  37              		.cfi_offset 6, -16
  38              		.cfi_offset 7, -12
  39              		.cfi_offset 8, -8
  40              		.cfi_offset 14, -4
 439:Generated_Source\PSoC5/USBFS_std.c ****     uint8 ep;
 440:Generated_Source\PSoC5/USBFS_std.c **** 
 441:Generated_Source\PSoC5/USBFS_std.c **** #if (USBFS_EP_MANAGEMENT_DMA_AUTO)
 442:Generated_Source\PSoC5/USBFS_std.c ****     uint8 epType = 0u;
 443:Generated_Source\PSoC5/USBFS_std.c **** #endif /* (USBFS_EP_MANAGEMENT_DMA_AUTO) */
 444:Generated_Source\PSoC5/USBFS_std.c **** 
 445:Generated_Source\PSoC5/USBFS_std.c ****     /* Go thought all endpoints and set hardware configuration */
 446:Generated_Source\PSoC5/USBFS_std.c ****     for (ep = USBFS_EP1; ep < USBFS_MAX_EP; ++ep)
 447:Generated_Source\PSoC5/USBFS_std.c ****     {
 448:Generated_Source\PSoC5/USBFS_std.c ****         USBFS_ARB_EP_BASE.arbEp[ep].epCfg = USBFS_ARB_EPX_CFG_DEFAULT;
 449:Generated_Source\PSoC5/USBFS_std.c ****         
 450:Generated_Source\PSoC5/USBFS_std.c ****     #if (USBFS_EP_MANAGEMENT_DMA)
 451:Generated_Source\PSoC5/USBFS_std.c ****         /* Enable arbiter endpoint interrupt sources */
 452:Generated_Source\PSoC5/USBFS_std.c ****         USBFS_ARB_EP_BASE.arbEp[ep].epIntEn = USBFS_ARB_EPX_INT_MASK;
 453:Generated_Source\PSoC5/USBFS_std.c ****     #endif /* (USBFS_EP_MANAGEMENT_DMA) */
 454:Generated_Source\PSoC5/USBFS_std.c ****     
 455:Generated_Source\PSoC5/USBFS_std.c ****         if (USBFS_EP[ep].epMode != USBFS_MODE_DISABLE)
  41              		.loc 1 455 0
  42 0004 1A4D     		ldr	r5, .L8
 438:Generated_Source\PSoC5/USBFS_std.c ****     uint8 ep;
  43              		.loc 1 438 0
  44 0006 0122     		movs	r2, #1
  45 0008 2E46     		mov	r6, r5
 448:Generated_Source\PSoC5/USBFS_std.c ****         
  46              		.loc 1 448 0
  47 000a 0C20     		movs	r0, #12
 456:Generated_Source\PSoC5/USBFS_std.c ****         {
 457:Generated_Source\PSoC5/USBFS_std.c ****             if (0u != (USBFS_EP[ep].addr & USBFS_DIR_IN))
 458:Generated_Source\PSoC5/USBFS_std.c ****             {
 459:Generated_Source\PSoC5/USBFS_std.c ****                 USBFS_SIE_EP_BASE.sieEp[ep].epCr0 = USBFS_MODE_NAK_IN;
 460:Generated_Source\PSoC5/USBFS_std.c ****                 
 461:Generated_Source\PSoC5/USBFS_std.c ****             #if (USBFS_EP_MANAGEMENT_DMA_AUTO && CY_PSOC4)
 462:Generated_Source\PSoC5/USBFS_std.c ****                 /* Clear DMA_TERMIN for IN endpoint. */
 463:Generated_Source\PSoC5/USBFS_std.c ****                 USBFS_ARB_EP_BASE.arbEp[ep].epIntEn &= (uint32) ~USBFS_ARB_EPX_INT_DMA_TERMIN;
 464:Generated_Source\PSoC5/USBFS_std.c ****             #endif /* (USBFS_EP_MANAGEMENT_DMA_AUTO && CY_PSOC4) */
ARM GAS  C:\Users\rabbit\AppData\Local\Temp\cccb5bWv.s 			page 10


 465:Generated_Source\PSoC5/USBFS_std.c ****             }
 466:Generated_Source\PSoC5/USBFS_std.c ****             else
 467:Generated_Source\PSoC5/USBFS_std.c ****             {
 468:Generated_Source\PSoC5/USBFS_std.c ****                 USBFS_SIE_EP_BASE.sieEp[ep].epCr0 = USBFS_MODE_NAK_OUT;
 469:Generated_Source\PSoC5/USBFS_std.c **** 
 470:Generated_Source\PSoC5/USBFS_std.c ****             #if (USBFS_EP_MANAGEMENT_DMA_AUTO)
 471:Generated_Source\PSoC5/USBFS_std.c ****                 /* (CY_PSOC4): DMA_TERMIN for OUT endpoint is set above. */
 472:Generated_Source\PSoC5/USBFS_std.c ****                 
 473:Generated_Source\PSoC5/USBFS_std.c ****                 /* Prepare endpoint type mask. */
 474:Generated_Source\PSoC5/USBFS_std.c ****                 epType |= (uint8) (0x01u << (ep - USBFS_EP1));
 475:Generated_Source\PSoC5/USBFS_std.c ****             #endif /* (USBFS_EP_MANAGEMENT_DMA_AUTO) */
 476:Generated_Source\PSoC5/USBFS_std.c ****             }
 477:Generated_Source\PSoC5/USBFS_std.c ****         }
 478:Generated_Source\PSoC5/USBFS_std.c ****         else
 479:Generated_Source\PSoC5/USBFS_std.c ****         {
 480:Generated_Source\PSoC5/USBFS_std.c ****             USBFS_SIE_EP_BASE.sieEp[ep].epCr0 = USBFS_MODE_STALL_DATA_EP;
  48              		.loc 1 480 0
  49 000c 8027     		movs	r7, #128
 468:Generated_Source\PSoC5/USBFS_std.c **** 
  50              		.loc 1 468 0
  51 000e 4FF0080E 		mov	lr, #8
  52              	.LVL1:
  53              	.L5:
  54 0012 184B     		ldr	r3, .L8+4
 455:Generated_Source\PSoC5/USBFS_std.c ****         {
  55              		.loc 1 455 0
  56 0014 00FB025C 		mla	ip, r0, r2, r5
  57 0018 1401     		lsls	r4, r2, #4
  58 001a 2344     		add	r3, r3, r4
 448:Generated_Source\PSoC5/USBFS_std.c ****         
  59              		.loc 1 448 0
  60 001c 1870     		strb	r0, [r3]
  61 001e 1649     		ldr	r1, .L8+8
 455:Generated_Source\PSoC5/USBFS_std.c ****         {
  62              		.loc 1 455 0
  63 0020 9CF80580 		ldrb	r8, [ip, #5]	@ zero_extendqisi2
  64 0024 2144     		add	r1, r1, r4
  65 0026 B8F1000F 		cmp	r8, #0
  66 002a 07D0     		beq	.L2
 457:Generated_Source\PSoC5/USBFS_std.c ****             {
  67              		.loc 1 457 0
  68 002c 9CF80440 		ldrb	r4, [ip, #4]	@ zero_extendqisi2
  69 0030 2406     		lsls	r4, r4, #24
 459:Generated_Source\PSoC5/USBFS_std.c ****                 
  70              		.loc 1 459 0
  71 0032 4CBF     		ite	mi
  72 0034 8870     		strbmi	r0, [r1, #2]
 468:Generated_Source\PSoC5/USBFS_std.c **** 
  73              		.loc 1 468 0
  74 0036 81F802E0 		strbpl	lr, [r1, #2]
  75 003a 00E0     		b	.L4
  76              	.L2:
  77              		.loc 1 480 0
  78 003c 8F70     		strb	r7, [r1, #2]
  79              	.L4:
 481:Generated_Source\PSoC5/USBFS_std.c ****         }
 482:Generated_Source\PSoC5/USBFS_std.c ****         
ARM GAS  C:\Users\rabbit\AppData\Local\Temp\cccb5bWv.s 			page 11


 483:Generated_Source\PSoC5/USBFS_std.c ****     #if (!USBFS_EP_MANAGEMENT_DMA_AUTO)
 484:Generated_Source\PSoC5/USBFS_std.c ****         #if (CY_PSOC4)
 485:Generated_Source\PSoC5/USBFS_std.c ****             USBFS_ARB_EP16_BASE.arbEp[ep].rwRa16  = (uint32) USBFS_EP[ep].buffOffset;
 486:Generated_Source\PSoC5/USBFS_std.c ****             USBFS_ARB_EP16_BASE.arbEp[ep].rwWa16  = (uint32) USBFS_EP[ep].buffOffset;
 487:Generated_Source\PSoC5/USBFS_std.c ****         #else
 488:Generated_Source\PSoC5/USBFS_std.c ****             USBFS_ARB_EP_BASE.arbEp[ep].rwRa    = LO8(USBFS_EP[ep].buffOffset);
  80              		.loc 1 488 0 discriminator 2
  81 003e 00FB0261 		mla	r1, r0, r2, r6
  82 0042 CC88     		ldrh	r4, [r1, #6]
  83 0044 0132     		adds	r2, r2, #1
  84              	.LVL2:
  85 0046 E4B2     		uxtb	r4, r4
  86 0048 9C71     		strb	r4, [r3, #6]
 489:Generated_Source\PSoC5/USBFS_std.c ****             USBFS_ARB_EP_BASE.arbEp[ep].rwRaMsb = HI8(USBFS_EP[ep].buffOffset);
  87              		.loc 1 489 0 discriminator 2
  88 004a CC88     		ldrh	r4, [r1, #6]
 446:Generated_Source\PSoC5/USBFS_std.c ****     {
  89              		.loc 1 446 0 discriminator 2
  90 004c 092A     		cmp	r2, #9
  91              		.loc 1 489 0 discriminator 2
  92 004e C4F30724 		ubfx	r4, r4, #8, #8
  93 0052 DC71     		strb	r4, [r3, #7]
 490:Generated_Source\PSoC5/USBFS_std.c ****             USBFS_ARB_EP_BASE.arbEp[ep].rwWa    = LO8(USBFS_EP[ep].buffOffset);
  94              		.loc 1 490 0 discriminator 2
  95 0054 CC88     		ldrh	r4, [r1, #6]
  96 0056 E4B2     		uxtb	r4, r4
  97 0058 1C71     		strb	r4, [r3, #4]
 491:Generated_Source\PSoC5/USBFS_std.c ****             USBFS_ARB_EP_BASE.arbEp[ep].rwWaMsb = HI8(USBFS_EP[ep].buffOffset);
  98              		.loc 1 491 0 discriminator 2
  99 005a C988     		ldrh	r1, [r1, #6]
 100 005c C1F30721 		ubfx	r1, r1, #8, #8
 101 0060 5971     		strb	r1, [r3, #5]
 446:Generated_Source\PSoC5/USBFS_std.c ****     {
 102              		.loc 1 446 0 discriminator 2
 103 0062 D6D1     		bne	.L5
 492:Generated_Source\PSoC5/USBFS_std.c ****         #endif /* (CY_PSOC4) */
 493:Generated_Source\PSoC5/USBFS_std.c ****     #endif /* (!USBFS_EP_MANAGEMENT_DMA_AUTO) */
 494:Generated_Source\PSoC5/USBFS_std.c ****     }
 495:Generated_Source\PSoC5/USBFS_std.c **** 
 496:Generated_Source\PSoC5/USBFS_std.c **** #if (USBFS_EP_MANAGEMENT_DMA_AUTO)
 497:Generated_Source\PSoC5/USBFS_std.c ****      /* BUF_SIZE depend on DMA_THRESS value:0x55-32 bytes  0x44-16 bytes 0x33-8 bytes 0x22-4 bytes 
 498:Generated_Source\PSoC5/USBFS_std.c ****     USBFS_BUF_SIZE_REG = USBFS_DMA_BUF_SIZE;
 499:Generated_Source\PSoC5/USBFS_std.c **** 
 500:Generated_Source\PSoC5/USBFS_std.c ****     /* Configure DMA burst threshold */
 501:Generated_Source\PSoC5/USBFS_std.c **** #if (CY_PSOC4)
 502:Generated_Source\PSoC5/USBFS_std.c ****     USBFS_DMA_THRES16_REG   = USBFS_DMA_BYTES_PER_BURST;
 503:Generated_Source\PSoC5/USBFS_std.c **** #else
 504:Generated_Source\PSoC5/USBFS_std.c ****     USBFS_DMA_THRES_REG     = USBFS_DMA_BYTES_PER_BURST;
 505:Generated_Source\PSoC5/USBFS_std.c ****     USBFS_DMA_THRES_MSB_REG = 0u;
 506:Generated_Source\PSoC5/USBFS_std.c **** #endif /* (CY_PSOC4) */
 507:Generated_Source\PSoC5/USBFS_std.c ****     USBFS_EP_ACTIVE_REG = USBFS_DEFAULT_ARB_INT_EN;
 508:Generated_Source\PSoC5/USBFS_std.c ****     USBFS_EP_TYPE_REG   = epType;
 509:Generated_Source\PSoC5/USBFS_std.c ****     
 510:Generated_Source\PSoC5/USBFS_std.c ****     /* Cfg_cmp bit set to 1 once configuration is complete. */
 511:Generated_Source\PSoC5/USBFS_std.c ****     /* Lock arbiter configtuation */
 512:Generated_Source\PSoC5/USBFS_std.c ****     USBFS_ARB_CFG_REG |= (uint8)  USBFS_ARB_CFG_CFG_CMP;
 513:Generated_Source\PSoC5/USBFS_std.c ****     /* Cfg_cmp bit set to 0 during configuration of PFSUSB Registers. */
ARM GAS  C:\Users\rabbit\AppData\Local\Temp\cccb5bWv.s 			page 12


 514:Generated_Source\PSoC5/USBFS_std.c ****     USBFS_ARB_CFG_REG &= (uint8) ~USBFS_ARB_CFG_CFG_CMP;
 515:Generated_Source\PSoC5/USBFS_std.c **** 
 516:Generated_Source\PSoC5/USBFS_std.c **** #endif /* (USBFS_EP_MANAGEMENT_DMA_AUTO) */
 517:Generated_Source\PSoC5/USBFS_std.c **** 
 518:Generated_Source\PSoC5/USBFS_std.c ****     /* Enable interrupt SIE interurpt source from EP0-EP1 */
 519:Generated_Source\PSoC5/USBFS_std.c ****     USBFS_SIE_EP_INT_EN_REG = (uint8) USBFS_DEFAULT_SIE_EP_INT_EN;
 104              		.loc 1 519 0
 105 0064 054B     		ldr	r3, .L8+12
 106 0066 FF22     		movs	r2, #255
 107 0068 1A70     		strb	r2, [r3]
 108 006a BDE8F081 		pop	{r4, r5, r6, r7, r8, pc}
 109              	.L9:
 110 006e 00BF     		.align	2
 111              	.L8:
 112 0070 00000000 		.word	USBFS_EP
 113 0074 70600040 		.word	1073766512
 114 0078 FC5F0040 		.word	1073766396
 115 007c 0A600040 		.word	1073766410
 116              		.cfi_endproc
 117              	.LFE1:
 118              		.size	USBFS_ConfigReg, .-USBFS_ConfigReg
 119              		.section	.text.USBFS_EpStateInit,"ax",%progbits
 120              		.align	1
 121              		.global	USBFS_EpStateInit
 122              		.thumb
 123              		.thumb_func
 124              		.type	USBFS_EpStateInit, %function
 125              	USBFS_EpStateInit:
 126              	.LFB2:
 520:Generated_Source\PSoC5/USBFS_std.c **** }
 521:Generated_Source\PSoC5/USBFS_std.c **** 
 522:Generated_Source\PSoC5/USBFS_std.c **** 
 523:Generated_Source\PSoC5/USBFS_std.c **** /*******************************************************************************
 524:Generated_Source\PSoC5/USBFS_std.c **** * Function Name: USBFS_EpStateInit
 525:Generated_Source\PSoC5/USBFS_std.c **** ****************************************************************************//**
 526:Generated_Source\PSoC5/USBFS_std.c **** *
 527:Generated_Source\PSoC5/USBFS_std.c **** *  This routine initialize state of Data end points based of its type: 
 528:Generated_Source\PSoC5/USBFS_std.c **** *   IN  - USBFS_IN_BUFFER_EMPTY (USBFS_EVENT_PENDING)
 529:Generated_Source\PSoC5/USBFS_std.c **** *   OUT - USBFS_OUT_BUFFER_EMPTY (USBFS_NO_EVENT_PENDING)
 530:Generated_Source\PSoC5/USBFS_std.c **** *
 531:Generated_Source\PSoC5/USBFS_std.c **** *******************************************************************************/
 532:Generated_Source\PSoC5/USBFS_std.c **** void USBFS_EpStateInit(void) 
 533:Generated_Source\PSoC5/USBFS_std.c **** {
 127              		.loc 1 533 0
 128              		.cfi_startproc
 129              		@ args = 0, pretend = 0, frame = 0
 130              		@ frame_needed = 0, uses_anonymous_args = 0
 131              	.LVL3:
 132 0000 0123     		movs	r3, #1
 133 0002 70B5     		push	{r4, r5, r6, lr}
 134              		.cfi_def_cfa_offset 16
 135              		.cfi_offset 4, -16
 136              		.cfi_offset 5, -12
 137              		.cfi_offset 6, -8
 138              		.cfi_offset 14, -4
 534:Generated_Source\PSoC5/USBFS_std.c ****     uint8 i;
 535:Generated_Source\PSoC5/USBFS_std.c **** 
ARM GAS  C:\Users\rabbit\AppData\Local\Temp\cccb5bWv.s 			page 13


 536:Generated_Source\PSoC5/USBFS_std.c ****     for (i = USBFS_EP1; i < USBFS_MAX_EP; i++)
 537:Generated_Source\PSoC5/USBFS_std.c ****     { 
 538:Generated_Source\PSoC5/USBFS_std.c ****         if (0u != (USBFS_EP[i].addr & USBFS_DIR_IN))
 539:Generated_Source\PSoC5/USBFS_std.c ****         {
 540:Generated_Source\PSoC5/USBFS_std.c ****             /* IN Endpoint */
 541:Generated_Source\PSoC5/USBFS_std.c ****             USBFS_EP[i].apiEpState = USBFS_EVENT_PENDING;
 139              		.loc 1 541 0
 140 0004 1D46     		mov	r5, r3
 538:Generated_Source\PSoC5/USBFS_std.c ****         {
 141              		.loc 1 538 0
 142 0006 0749     		ldr	r1, .L15
 143 0008 0C20     		movs	r0, #12
 542:Generated_Source\PSoC5/USBFS_std.c ****         }
 543:Generated_Source\PSoC5/USBFS_std.c ****         else
 544:Generated_Source\PSoC5/USBFS_std.c ****         {
 545:Generated_Source\PSoC5/USBFS_std.c ****             /* OUT Endpoint */
 546:Generated_Source\PSoC5/USBFS_std.c ****             USBFS_EP[i].apiEpState = USBFS_NO_EVENT_PENDING;
 144              		.loc 1 546 0
 145 000a 0024     		movs	r4, #0
 146              	.LVL4:
 147              	.L13:
 538:Generated_Source\PSoC5/USBFS_std.c ****         {
 148              		.loc 1 538 0
 149 000c 00FB0312 		mla	r2, r0, r3, r1
 150 0010 1679     		ldrb	r6, [r2, #4]	@ zero_extendqisi2
 151 0012 0133     		adds	r3, r3, #1
 152              	.LVL5:
 153 0014 3606     		lsls	r6, r6, #24
 541:Generated_Source\PSoC5/USBFS_std.c ****         }
 154              		.loc 1 541 0
 155 0016 4CBF     		ite	mi
 156 0018 5570     		strbmi	r5, [r2, #1]
 157              		.loc 1 546 0
 158 001a 5470     		strbpl	r4, [r2, #1]
 536:Generated_Source\PSoC5/USBFS_std.c ****     { 
 159              		.loc 1 536 0
 160 001c 092B     		cmp	r3, #9
 161 001e F5D1     		bne	.L13
 547:Generated_Source\PSoC5/USBFS_std.c ****         }
 548:Generated_Source\PSoC5/USBFS_std.c ****     }
 549:Generated_Source\PSoC5/USBFS_std.c ****                     
 550:Generated_Source\PSoC5/USBFS_std.c **** }
 162              		.loc 1 550 0
 163 0020 70BD     		pop	{r4, r5, r6, pc}
 164              	.L16:
 165 0022 00BF     		.align	2
 166              	.L15:
 167 0024 00000000 		.word	USBFS_EP
 168              		.cfi_endproc
 169              	.LFE2:
 170              		.size	USBFS_EpStateInit, .-USBFS_EpStateInit
 171              		.section	.text.USBFS_GetConfigTablePtr,"ax",%progbits
 172              		.align	1
 173              		.global	USBFS_GetConfigTablePtr
 174              		.thumb
 175              		.thumb_func
 176              		.type	USBFS_GetConfigTablePtr, %function
ARM GAS  C:\Users\rabbit\AppData\Local\Temp\cccb5bWv.s 			page 14


 177              	USBFS_GetConfigTablePtr:
 178              	.LFB5:
 551:Generated_Source\PSoC5/USBFS_std.c **** 
 552:Generated_Source\PSoC5/USBFS_std.c **** 
 553:Generated_Source\PSoC5/USBFS_std.c **** /*******************************************************************************
 554:Generated_Source\PSoC5/USBFS_std.c **** * Function Name: USBFS_Config
 555:Generated_Source\PSoC5/USBFS_std.c **** ****************************************************************************//**
 556:Generated_Source\PSoC5/USBFS_std.c **** *
 557:Generated_Source\PSoC5/USBFS_std.c **** *  This routine configures endpoints for the entire configuration by scanning
 558:Generated_Source\PSoC5/USBFS_std.c **** *  the configuration descriptor.
 559:Generated_Source\PSoC5/USBFS_std.c **** *
 560:Generated_Source\PSoC5/USBFS_std.c **** *  \param clearAltSetting: It configures the bAlternateSetting 0 for each interface.
 561:Generated_Source\PSoC5/USBFS_std.c **** *
 562:Generated_Source\PSoC5/USBFS_std.c **** * USBFS_interfaceClass - Initialized class array for each interface.
 563:Generated_Source\PSoC5/USBFS_std.c **** *   It is used for handling Class specific requests depend on interface class.
 564:Generated_Source\PSoC5/USBFS_std.c **** *   Different classes in multiple Alternate settings does not supported.
 565:Generated_Source\PSoC5/USBFS_std.c **** *
 566:Generated_Source\PSoC5/USBFS_std.c **** * \reentrant
 567:Generated_Source\PSoC5/USBFS_std.c **** *  No.
 568:Generated_Source\PSoC5/USBFS_std.c **** *
 569:Generated_Source\PSoC5/USBFS_std.c **** *******************************************************************************/
 570:Generated_Source\PSoC5/USBFS_std.c **** void USBFS_Config(uint8 clearAltSetting) 
 571:Generated_Source\PSoC5/USBFS_std.c **** {
 572:Generated_Source\PSoC5/USBFS_std.c ****     uint8 ep;
 573:Generated_Source\PSoC5/USBFS_std.c ****     uint8 curEp;
 574:Generated_Source\PSoC5/USBFS_std.c ****     uint8 i;
 575:Generated_Source\PSoC5/USBFS_std.c ****     uint8 epType;
 576:Generated_Source\PSoC5/USBFS_std.c ****     const uint8 *pDescr;
 577:Generated_Source\PSoC5/USBFS_std.c ****     
 578:Generated_Source\PSoC5/USBFS_std.c ****     #if (!USBFS_EP_MANAGEMENT_DMA_AUTO)
 579:Generated_Source\PSoC5/USBFS_std.c ****         uint16 buffCount = 0u;
 580:Generated_Source\PSoC5/USBFS_std.c ****     #endif /* (!USBFS_EP_MANAGEMENT_DMA_AUTO) */
 581:Generated_Source\PSoC5/USBFS_std.c **** 
 582:Generated_Source\PSoC5/USBFS_std.c ****     const T_USBFS_LUT CYCODE *pTmp;
 583:Generated_Source\PSoC5/USBFS_std.c ****     const T_USBFS_EP_SETTINGS_BLOCK CYCODE *pEP;
 584:Generated_Source\PSoC5/USBFS_std.c **** 
 585:Generated_Source\PSoC5/USBFS_std.c ****     /* Clear endpoints settings */
 586:Generated_Source\PSoC5/USBFS_std.c ****     for (ep = 0u; ep < USBFS_MAX_EP; ++ep)
 587:Generated_Source\PSoC5/USBFS_std.c ****     {
 588:Generated_Source\PSoC5/USBFS_std.c ****         USBFS_EP[ep].attrib     = 0u;
 589:Generated_Source\PSoC5/USBFS_std.c ****         USBFS_EP[ep].hwEpState  = 0u;
 590:Generated_Source\PSoC5/USBFS_std.c ****         USBFS_EP[ep].epToggle   = 0u;
 591:Generated_Source\PSoC5/USBFS_std.c ****         USBFS_EP[ep].bufferSize = 0u;
 592:Generated_Source\PSoC5/USBFS_std.c ****         USBFS_EP[ep].interface  = 0u;
 593:Generated_Source\PSoC5/USBFS_std.c ****         USBFS_EP[ep].apiEpState = USBFS_NO_EVENT_PENDING;
 594:Generated_Source\PSoC5/USBFS_std.c ****         USBFS_EP[ep].epMode     = USBFS_MODE_DISABLE;   
 595:Generated_Source\PSoC5/USBFS_std.c ****     }
 596:Generated_Source\PSoC5/USBFS_std.c **** 
 597:Generated_Source\PSoC5/USBFS_std.c ****     /* Clear Alternate settings for all interfaces. */
 598:Generated_Source\PSoC5/USBFS_std.c ****     if (0u != clearAltSetting)
 599:Generated_Source\PSoC5/USBFS_std.c ****     {
 600:Generated_Source\PSoC5/USBFS_std.c ****         for (i = 0u; i < USBFS_MAX_INTERFACES_NUMBER; ++i)
 601:Generated_Source\PSoC5/USBFS_std.c ****         {
 602:Generated_Source\PSoC5/USBFS_std.c ****             USBFS_interfaceSetting[i]     = 0u;
 603:Generated_Source\PSoC5/USBFS_std.c ****             USBFS_interfaceSettingLast[i] = 0u;
 604:Generated_Source\PSoC5/USBFS_std.c ****         }
 605:Generated_Source\PSoC5/USBFS_std.c ****     }
ARM GAS  C:\Users\rabbit\AppData\Local\Temp\cccb5bWv.s 			page 15


 606:Generated_Source\PSoC5/USBFS_std.c **** 
 607:Generated_Source\PSoC5/USBFS_std.c ****     /* Init Endpoints and Device Status if configured */
 608:Generated_Source\PSoC5/USBFS_std.c ****     if (USBFS_configuration > 0u)
 609:Generated_Source\PSoC5/USBFS_std.c ****     {
 610:Generated_Source\PSoC5/USBFS_std.c ****         #if defined(USBFS_ENABLE_CDC_CLASS)
 611:Generated_Source\PSoC5/USBFS_std.c ****             uint8 cdcComNums = 0u;
 612:Generated_Source\PSoC5/USBFS_std.c ****         #endif  /* (USBFS_ENABLE_CDC_CLASS) */  
 613:Generated_Source\PSoC5/USBFS_std.c **** 
 614:Generated_Source\PSoC5/USBFS_std.c ****         pTmp = USBFS_GetConfigTablePtr(USBFS_configuration - 1u);
 615:Generated_Source\PSoC5/USBFS_std.c ****         
 616:Generated_Source\PSoC5/USBFS_std.c ****         /* Set Power status for current configuration */
 617:Generated_Source\PSoC5/USBFS_std.c ****         pDescr = (const uint8 *)pTmp->p_list;
 618:Generated_Source\PSoC5/USBFS_std.c ****         if ((pDescr[USBFS_CONFIG_DESCR_ATTRIB] & USBFS_CONFIG_DESCR_ATTRIB_SELF_POWERED) != 0u)
 619:Generated_Source\PSoC5/USBFS_std.c ****         {
 620:Generated_Source\PSoC5/USBFS_std.c ****             USBFS_deviceStatus |= (uint8)  USBFS_DEVICE_STATUS_SELF_POWERED;
 621:Generated_Source\PSoC5/USBFS_std.c ****         }
 622:Generated_Source\PSoC5/USBFS_std.c ****         else
 623:Generated_Source\PSoC5/USBFS_std.c ****         {
 624:Generated_Source\PSoC5/USBFS_std.c ****             USBFS_deviceStatus &= (uint8) ~USBFS_DEVICE_STATUS_SELF_POWERED;
 625:Generated_Source\PSoC5/USBFS_std.c ****         }
 626:Generated_Source\PSoC5/USBFS_std.c ****         
 627:Generated_Source\PSoC5/USBFS_std.c ****         /* Move to next element */
 628:Generated_Source\PSoC5/USBFS_std.c ****         pTmp = &pTmp[1u];
 629:Generated_Source\PSoC5/USBFS_std.c ****         ep = pTmp->c;  /* For this table, c is the number of endpoints configurations  */
 630:Generated_Source\PSoC5/USBFS_std.c **** 
 631:Generated_Source\PSoC5/USBFS_std.c ****         #if (USBFS_EP_MANAGEMENT_MANUAL && USBFS_EP_ALLOC_DYNAMIC)
 632:Generated_Source\PSoC5/USBFS_std.c ****             /* Configure for dynamic EP memory allocation */
 633:Generated_Source\PSoC5/USBFS_std.c ****             /* p_list points the endpoint setting table. */
 634:Generated_Source\PSoC5/USBFS_std.c ****             pEP = (T_USBFS_EP_SETTINGS_BLOCK *) pTmp->p_list;
 635:Generated_Source\PSoC5/USBFS_std.c ****             
 636:Generated_Source\PSoC5/USBFS_std.c ****             for (i = 0u; i < ep; i++)
 637:Generated_Source\PSoC5/USBFS_std.c ****             {     
 638:Generated_Source\PSoC5/USBFS_std.c ****                 /* Compare current Alternate setting with EP Alt */
 639:Generated_Source\PSoC5/USBFS_std.c ****                 if (USBFS_interfaceSetting[pEP->interface] == pEP->altSetting)
 640:Generated_Source\PSoC5/USBFS_std.c ****                 {                                                          
 641:Generated_Source\PSoC5/USBFS_std.c ****                     curEp  = pEP->addr & USBFS_DIR_UNUSED;
 642:Generated_Source\PSoC5/USBFS_std.c ****                     epType = pEP->attributes & USBFS_EP_TYPE_MASK;
 643:Generated_Source\PSoC5/USBFS_std.c ****                     
 644:Generated_Source\PSoC5/USBFS_std.c ****                     USBFS_EP[curEp].addr       = pEP->addr;
 645:Generated_Source\PSoC5/USBFS_std.c ****                     USBFS_EP[curEp].attrib     = pEP->attributes;
 646:Generated_Source\PSoC5/USBFS_std.c ****                     USBFS_EP[curEp].bufferSize = pEP->bufferSize;
 647:Generated_Source\PSoC5/USBFS_std.c **** 
 648:Generated_Source\PSoC5/USBFS_std.c ****                     if (0u != (pEP->addr & USBFS_DIR_IN))
 649:Generated_Source\PSoC5/USBFS_std.c ****                     {
 650:Generated_Source\PSoC5/USBFS_std.c ****                         /* IN Endpoint */
 651:Generated_Source\PSoC5/USBFS_std.c ****                         USBFS_EP[curEp].epMode     = USBFS_GET_ACTIVE_IN_EP_CR0_MODE(epType);
 652:Generated_Source\PSoC5/USBFS_std.c ****                         USBFS_EP[curEp].apiEpState = USBFS_EVENT_PENDING;
 653:Generated_Source\PSoC5/USBFS_std.c ****                     
 654:Generated_Source\PSoC5/USBFS_std.c ****                     #if (defined(USBFS_ENABLE_MIDI_STREAMING) && (USBFS_MIDI_IN_BUFF_SIZE > 0))
 655:Generated_Source\PSoC5/USBFS_std.c ****                         if ((pEP->bMisc == USBFS_CLASS_AUDIO) && (epType == USBFS_EP_TYPE_BULK))
 656:Generated_Source\PSoC5/USBFS_std.c ****                         {
 657:Generated_Source\PSoC5/USBFS_std.c ****                             USBFS_midi_in_ep = curEp;
 658:Generated_Source\PSoC5/USBFS_std.c ****                         }
 659:Generated_Source\PSoC5/USBFS_std.c ****                     #endif  /* (USBFS_ENABLE_MIDI_STREAMING) */
 660:Generated_Source\PSoC5/USBFS_std.c ****                     }
 661:Generated_Source\PSoC5/USBFS_std.c ****                     else
 662:Generated_Source\PSoC5/USBFS_std.c ****                     {
ARM GAS  C:\Users\rabbit\AppData\Local\Temp\cccb5bWv.s 			page 16


 663:Generated_Source\PSoC5/USBFS_std.c ****                         /* OUT Endpoint */
 664:Generated_Source\PSoC5/USBFS_std.c ****                         USBFS_EP[curEp].epMode     = USBFS_GET_ACTIVE_OUT_EP_CR0_MODE(epType);
 665:Generated_Source\PSoC5/USBFS_std.c ****                         USBFS_EP[curEp].apiEpState = USBFS_NO_EVENT_PENDING;
 666:Generated_Source\PSoC5/USBFS_std.c ****                         
 667:Generated_Source\PSoC5/USBFS_std.c ****                     #if (defined(USBFS_ENABLE_MIDI_STREAMING) && (USBFS_MIDI_OUT_BUFF_SIZE > 0))
 668:Generated_Source\PSoC5/USBFS_std.c ****                         if ((pEP->bMisc == USBFS_CLASS_AUDIO) && (epType == USBFS_EP_TYPE_BULK))
 669:Generated_Source\PSoC5/USBFS_std.c ****                         {
 670:Generated_Source\PSoC5/USBFS_std.c ****                             USBFS_midi_out_ep = curEp;
 671:Generated_Source\PSoC5/USBFS_std.c ****                         }
 672:Generated_Source\PSoC5/USBFS_std.c ****                     #endif  /* (USBFS_ENABLE_MIDI_STREAMING) */
 673:Generated_Source\PSoC5/USBFS_std.c ****                     }
 674:Generated_Source\PSoC5/USBFS_std.c **** 
 675:Generated_Source\PSoC5/USBFS_std.c ****                 #if(defined (USBFS_ENABLE_CDC_CLASS))
 676:Generated_Source\PSoC5/USBFS_std.c ****                     if((pEP->bMisc == USBFS_CLASS_CDC_DATA) ||(pEP->bMisc == USBFS_CLASS_CDC))
 677:Generated_Source\PSoC5/USBFS_std.c ****                     {
 678:Generated_Source\PSoC5/USBFS_std.c ****                         cdcComNums = USBFS_Cdc_EpInit(pEP, curEp, cdcComNums);
 679:Generated_Source\PSoC5/USBFS_std.c ****                     }
 680:Generated_Source\PSoC5/USBFS_std.c ****                 #endif  /* (USBFS_ENABLE_CDC_CLASS) */
 681:Generated_Source\PSoC5/USBFS_std.c ****                 }
 682:Generated_Source\PSoC5/USBFS_std.c ****                 
 683:Generated_Source\PSoC5/USBFS_std.c ****                 pEP = &pEP[1u];
 684:Generated_Source\PSoC5/USBFS_std.c ****             }
 685:Generated_Source\PSoC5/USBFS_std.c ****             
 686:Generated_Source\PSoC5/USBFS_std.c ****         #else
 687:Generated_Source\PSoC5/USBFS_std.c ****             for (i = USBFS_EP1; i < USBFS_MAX_EP; ++i)
 688:Generated_Source\PSoC5/USBFS_std.c ****             {
 689:Generated_Source\PSoC5/USBFS_std.c ****                 /* p_list points the endpoint setting table. */
 690:Generated_Source\PSoC5/USBFS_std.c ****                 pEP = (const T_USBFS_EP_SETTINGS_BLOCK CYCODE *) pTmp->p_list;
 691:Generated_Source\PSoC5/USBFS_std.c ****                 /* Find max length for each EP and select it (length could be different in differen
 692:Generated_Source\PSoC5/USBFS_std.c ****                 /* but other settings should be correct with regards to Interface alt Setting */
 693:Generated_Source\PSoC5/USBFS_std.c ****                 
 694:Generated_Source\PSoC5/USBFS_std.c ****                 for (curEp = 0u; curEp < ep; ++curEp)
 695:Generated_Source\PSoC5/USBFS_std.c ****                 {
 696:Generated_Source\PSoC5/USBFS_std.c ****                     if (i == (pEP->addr & USBFS_DIR_UNUSED))
 697:Generated_Source\PSoC5/USBFS_std.c ****                     {
 698:Generated_Source\PSoC5/USBFS_std.c ****                         /* Compare endpoint buffers size with current size to find greater. */
 699:Generated_Source\PSoC5/USBFS_std.c ****                         if (USBFS_EP[i].bufferSize < pEP->bufferSize)
 700:Generated_Source\PSoC5/USBFS_std.c ****                         {
 701:Generated_Source\PSoC5/USBFS_std.c ****                             USBFS_EP[i].bufferSize = pEP->bufferSize;
 702:Generated_Source\PSoC5/USBFS_std.c ****                         }
 703:Generated_Source\PSoC5/USBFS_std.c ****                         
 704:Generated_Source\PSoC5/USBFS_std.c ****                         /* Compare current Alternate setting with EP Alt */
 705:Generated_Source\PSoC5/USBFS_std.c ****                         if (USBFS_interfaceSetting[pEP->interface] == pEP->altSetting)
 706:Generated_Source\PSoC5/USBFS_std.c ****                         {                            
 707:Generated_Source\PSoC5/USBFS_std.c ****                             USBFS_EP[i].addr = pEP->addr;
 708:Generated_Source\PSoC5/USBFS_std.c ****                             USBFS_EP[i].attrib = pEP->attributes;
 709:Generated_Source\PSoC5/USBFS_std.c ****                             
 710:Generated_Source\PSoC5/USBFS_std.c ****                             epType = pEP->attributes & USBFS_EP_TYPE_MASK;
 711:Generated_Source\PSoC5/USBFS_std.c ****                             
 712:Generated_Source\PSoC5/USBFS_std.c ****                             if (0u != (pEP->addr & USBFS_DIR_IN))
 713:Generated_Source\PSoC5/USBFS_std.c ****                             {
 714:Generated_Source\PSoC5/USBFS_std.c ****                                 /* IN Endpoint */
 715:Generated_Source\PSoC5/USBFS_std.c ****                                 USBFS_EP[i].epMode     = USBFS_GET_ACTIVE_IN_EP_CR0_MODE(epType);
 716:Generated_Source\PSoC5/USBFS_std.c ****                                 USBFS_EP[i].apiEpState = USBFS_EVENT_PENDING;
 717:Generated_Source\PSoC5/USBFS_std.c ****                                 
 718:Generated_Source\PSoC5/USBFS_std.c ****                             #if (defined(USBFS_ENABLE_MIDI_STREAMING) && (USBFS_MIDI_IN_BUFF_SIZE >
 719:Generated_Source\PSoC5/USBFS_std.c ****                                 if ((pEP->bMisc == USBFS_CLASS_AUDIO) && (epType == USBFS_EP_TYPE_B
ARM GAS  C:\Users\rabbit\AppData\Local\Temp\cccb5bWv.s 			page 17


 720:Generated_Source\PSoC5/USBFS_std.c ****                                 {
 721:Generated_Source\PSoC5/USBFS_std.c ****                                     USBFS_midi_in_ep = i;
 722:Generated_Source\PSoC5/USBFS_std.c ****                                 }
 723:Generated_Source\PSoC5/USBFS_std.c ****                             #endif  /* (USBFS_ENABLE_MIDI_STREAMING) */
 724:Generated_Source\PSoC5/USBFS_std.c ****                             }
 725:Generated_Source\PSoC5/USBFS_std.c ****                             else
 726:Generated_Source\PSoC5/USBFS_std.c ****                             {
 727:Generated_Source\PSoC5/USBFS_std.c ****                                 /* OUT Endpoint */
 728:Generated_Source\PSoC5/USBFS_std.c ****                                 USBFS_EP[i].epMode     = USBFS_GET_ACTIVE_OUT_EP_CR0_MODE(epType);
 729:Generated_Source\PSoC5/USBFS_std.c ****                                 USBFS_EP[i].apiEpState = USBFS_NO_EVENT_PENDING;
 730:Generated_Source\PSoC5/USBFS_std.c ****                                 
 731:Generated_Source\PSoC5/USBFS_std.c ****                             #if (defined(USBFS_ENABLE_MIDI_STREAMING) && (USBFS_MIDI_OUT_BUFF_SIZE 
 732:Generated_Source\PSoC5/USBFS_std.c ****                                 if ((pEP->bMisc == USBFS_CLASS_AUDIO) && (epType == USBFS_EP_TYPE_B
 733:Generated_Source\PSoC5/USBFS_std.c ****                                 {
 734:Generated_Source\PSoC5/USBFS_std.c ****                                     USBFS_midi_out_ep = i;
 735:Generated_Source\PSoC5/USBFS_std.c ****                                 }
 736:Generated_Source\PSoC5/USBFS_std.c ****                             #endif  /* (USBFS_ENABLE_MIDI_STREAMING) */
 737:Generated_Source\PSoC5/USBFS_std.c ****                             }
 738:Generated_Source\PSoC5/USBFS_std.c **** 
 739:Generated_Source\PSoC5/USBFS_std.c ****                         #if (defined(USBFS_ENABLE_CDC_CLASS))
 740:Generated_Source\PSoC5/USBFS_std.c ****                             if((pEP->bMisc == USBFS_CLASS_CDC_DATA) ||(pEP->bMisc == USBFS_CLASS_CD
 741:Generated_Source\PSoC5/USBFS_std.c ****                             {
 742:Generated_Source\PSoC5/USBFS_std.c ****                                 cdcComNums = USBFS_Cdc_EpInit(pEP, i, cdcComNums);
 743:Generated_Source\PSoC5/USBFS_std.c ****                             }
 744:Generated_Source\PSoC5/USBFS_std.c ****                         #endif  /* (USBFS_ENABLE_CDC_CLASS) */
 745:Generated_Source\PSoC5/USBFS_std.c **** 
 746:Generated_Source\PSoC5/USBFS_std.c ****                             #if (USBFS_EP_MANAGEMENT_DMA_AUTO)
 747:Generated_Source\PSoC5/USBFS_std.c ****                                 break;  /* Use first EP setting in Auto memory management */
 748:Generated_Source\PSoC5/USBFS_std.c ****                             #endif /* (USBFS_EP_MANAGEMENT_DMA_AUTO) */
 749:Generated_Source\PSoC5/USBFS_std.c ****                         }
 750:Generated_Source\PSoC5/USBFS_std.c ****                     }
 751:Generated_Source\PSoC5/USBFS_std.c ****                     
 752:Generated_Source\PSoC5/USBFS_std.c ****                     pEP = &pEP[1u];
 753:Generated_Source\PSoC5/USBFS_std.c ****                 }
 754:Generated_Source\PSoC5/USBFS_std.c ****             }
 755:Generated_Source\PSoC5/USBFS_std.c ****         #endif /*  (USBFS_EP_MANAGEMENT_MANUAL && USBFS_EP_ALLOC_DYNAMIC) */
 756:Generated_Source\PSoC5/USBFS_std.c **** 
 757:Generated_Source\PSoC5/USBFS_std.c ****         /* Init class array for each interface and interface number for each EP.
 758:Generated_Source\PSoC5/USBFS_std.c ****         *  It is used for handling Class specific requests directed to either an
 759:Generated_Source\PSoC5/USBFS_std.c ****         *  interface or the endpoint.
 760:Generated_Source\PSoC5/USBFS_std.c ****         */
 761:Generated_Source\PSoC5/USBFS_std.c ****         /* p_list points the endpoint setting table. */
 762:Generated_Source\PSoC5/USBFS_std.c ****         pEP = (const T_USBFS_EP_SETTINGS_BLOCK CYCODE *) pTmp->p_list;
 763:Generated_Source\PSoC5/USBFS_std.c ****         for (i = 0u; i < ep; i++)
 764:Generated_Source\PSoC5/USBFS_std.c ****         {
 765:Generated_Source\PSoC5/USBFS_std.c ****             /* Configure interface number for each EP */
 766:Generated_Source\PSoC5/USBFS_std.c ****             USBFS_EP[pEP->addr & USBFS_DIR_UNUSED].interface = pEP->interface;
 767:Generated_Source\PSoC5/USBFS_std.c ****             pEP = &pEP[1u];
 768:Generated_Source\PSoC5/USBFS_std.c ****         }
 769:Generated_Source\PSoC5/USBFS_std.c ****         
 770:Generated_Source\PSoC5/USBFS_std.c ****         /* Init pointer on interface class table */
 771:Generated_Source\PSoC5/USBFS_std.c ****         USBFS_interfaceClass = USBFS_GetInterfaceClassTablePtr();
 772:Generated_Source\PSoC5/USBFS_std.c ****         
 773:Generated_Source\PSoC5/USBFS_std.c ****     /* Set the endpoint buffer addresses */
 774:Generated_Source\PSoC5/USBFS_std.c ****     #if (!USBFS_EP_MANAGEMENT_DMA_AUTO)
 775:Generated_Source\PSoC5/USBFS_std.c ****         buffCount = 0u;
 776:Generated_Source\PSoC5/USBFS_std.c ****         for (ep = USBFS_EP1; ep < USBFS_MAX_EP; ++ep)
ARM GAS  C:\Users\rabbit\AppData\Local\Temp\cccb5bWv.s 			page 18


 777:Generated_Source\PSoC5/USBFS_std.c ****         {
 778:Generated_Source\PSoC5/USBFS_std.c ****             USBFS_EP[ep].buffOffset = buffCount;        
 779:Generated_Source\PSoC5/USBFS_std.c ****             buffCount += USBFS_EP[ep].bufferSize;
 780:Generated_Source\PSoC5/USBFS_std.c ****             
 781:Generated_Source\PSoC5/USBFS_std.c ****         #if (USBFS_GEN_16BITS_EP_ACCESS)
 782:Generated_Source\PSoC5/USBFS_std.c ****             /* Align EP buffers to be event size to access 16-bits DR register. */
 783:Generated_Source\PSoC5/USBFS_std.c ****             buffCount += (0u != (buffCount & 0x01u)) ? 1u : 0u;
 784:Generated_Source\PSoC5/USBFS_std.c ****         #endif /* (USBFS_GEN_16BITS_EP_ACCESS) */            
 785:Generated_Source\PSoC5/USBFS_std.c ****         }
 786:Generated_Source\PSoC5/USBFS_std.c ****     #endif /* (!USBFS_EP_MANAGEMENT_DMA_AUTO) */
 787:Generated_Source\PSoC5/USBFS_std.c **** 
 788:Generated_Source\PSoC5/USBFS_std.c ****         /* Configure hardware registers */
 789:Generated_Source\PSoC5/USBFS_std.c ****         USBFS_ConfigReg();
 790:Generated_Source\PSoC5/USBFS_std.c ****     }
 791:Generated_Source\PSoC5/USBFS_std.c **** }
 792:Generated_Source\PSoC5/USBFS_std.c **** 
 793:Generated_Source\PSoC5/USBFS_std.c **** 
 794:Generated_Source\PSoC5/USBFS_std.c **** /*******************************************************************************
 795:Generated_Source\PSoC5/USBFS_std.c **** * Function Name: USBFS_ConfigAltChanged
 796:Generated_Source\PSoC5/USBFS_std.c **** ****************************************************************************//**
 797:Generated_Source\PSoC5/USBFS_std.c **** *
 798:Generated_Source\PSoC5/USBFS_std.c **** *  This routine update configuration for the required endpoints only.
 799:Generated_Source\PSoC5/USBFS_std.c **** *  It is called after SET_INTERFACE request when Static memory allocation used.
 800:Generated_Source\PSoC5/USBFS_std.c **** *
 801:Generated_Source\PSoC5/USBFS_std.c **** * \reentrant
 802:Generated_Source\PSoC5/USBFS_std.c **** *  No.
 803:Generated_Source\PSoC5/USBFS_std.c **** *
 804:Generated_Source\PSoC5/USBFS_std.c **** *******************************************************************************/
 805:Generated_Source\PSoC5/USBFS_std.c **** void USBFS_ConfigAltChanged(void) 
 806:Generated_Source\PSoC5/USBFS_std.c **** {
 807:Generated_Source\PSoC5/USBFS_std.c ****     uint8 ep;
 808:Generated_Source\PSoC5/USBFS_std.c ****     uint8 curEp;
 809:Generated_Source\PSoC5/USBFS_std.c ****     uint8 epType;
 810:Generated_Source\PSoC5/USBFS_std.c ****     uint8 i;
 811:Generated_Source\PSoC5/USBFS_std.c ****     uint8 interfaceNum;
 812:Generated_Source\PSoC5/USBFS_std.c **** 
 813:Generated_Source\PSoC5/USBFS_std.c ****     const T_USBFS_LUT CYCODE *pTmp;
 814:Generated_Source\PSoC5/USBFS_std.c ****     const T_USBFS_EP_SETTINGS_BLOCK CYCODE *pEP;
 815:Generated_Source\PSoC5/USBFS_std.c **** 
 816:Generated_Source\PSoC5/USBFS_std.c ****     /* Init Endpoints and Device Status if configured */
 817:Generated_Source\PSoC5/USBFS_std.c ****     if (USBFS_configuration > 0u)
 818:Generated_Source\PSoC5/USBFS_std.c ****     {
 819:Generated_Source\PSoC5/USBFS_std.c ****         /* Get number of endpoints configurations (ep). */
 820:Generated_Source\PSoC5/USBFS_std.c ****         pTmp = USBFS_GetConfigTablePtr(USBFS_configuration - 1u);
 821:Generated_Source\PSoC5/USBFS_std.c ****         pTmp = &pTmp[1u];
 822:Generated_Source\PSoC5/USBFS_std.c ****         ep = pTmp->c;
 823:Generated_Source\PSoC5/USBFS_std.c **** 
 824:Generated_Source\PSoC5/USBFS_std.c ****         /* Get pointer to endpoints setting table (pEP). */
 825:Generated_Source\PSoC5/USBFS_std.c ****         pEP = (const T_USBFS_EP_SETTINGS_BLOCK CYCODE *) pTmp->p_list;
 826:Generated_Source\PSoC5/USBFS_std.c ****         
 827:Generated_Source\PSoC5/USBFS_std.c ****         /* Look through all possible endpoint configurations. Find endpoints 
 828:Generated_Source\PSoC5/USBFS_std.c ****         * which belong to current interface and alternate settings for 
 829:Generated_Source\PSoC5/USBFS_std.c ****         * re-configuration.
 830:Generated_Source\PSoC5/USBFS_std.c ****         */
 831:Generated_Source\PSoC5/USBFS_std.c ****         interfaceNum = USBFS_interfaceNumber;
 832:Generated_Source\PSoC5/USBFS_std.c ****         for (i = 0u; i < ep; i++)
 833:Generated_Source\PSoC5/USBFS_std.c ****         {
ARM GAS  C:\Users\rabbit\AppData\Local\Temp\cccb5bWv.s 			page 19


 834:Generated_Source\PSoC5/USBFS_std.c ****             /* Find endpoints which belong to current interface and alternate settings. */
 835:Generated_Source\PSoC5/USBFS_std.c ****             if ((interfaceNum == pEP->interface) && 
 836:Generated_Source\PSoC5/USBFS_std.c ****                 (USBFS_interfaceSetting[interfaceNum] == pEP->altSetting))
 837:Generated_Source\PSoC5/USBFS_std.c ****             {
 838:Generated_Source\PSoC5/USBFS_std.c ****                 curEp  = ((uint8) pEP->addr & USBFS_DIR_UNUSED);
 839:Generated_Source\PSoC5/USBFS_std.c ****                 epType = ((uint8) pEP->attributes & USBFS_EP_TYPE_MASK);
 840:Generated_Source\PSoC5/USBFS_std.c ****                 
 841:Generated_Source\PSoC5/USBFS_std.c ****                 /* Change the SIE mode for the selected EP to NAK ALL */
 842:Generated_Source\PSoC5/USBFS_std.c ****                 USBFS_EP[curEp].epToggle   = 0u;
 843:Generated_Source\PSoC5/USBFS_std.c ****                 USBFS_EP[curEp].addr       = pEP->addr;
 844:Generated_Source\PSoC5/USBFS_std.c ****                 USBFS_EP[curEp].attrib     = pEP->attributes;
 845:Generated_Source\PSoC5/USBFS_std.c ****                 USBFS_EP[curEp].bufferSize = pEP->bufferSize;
 846:Generated_Source\PSoC5/USBFS_std.c **** 
 847:Generated_Source\PSoC5/USBFS_std.c ****                 if (0u != (pEP->addr & USBFS_DIR_IN))
 848:Generated_Source\PSoC5/USBFS_std.c ****                 {
 849:Generated_Source\PSoC5/USBFS_std.c ****                     /* IN Endpoint */
 850:Generated_Source\PSoC5/USBFS_std.c ****                     USBFS_EP[curEp].epMode     = USBFS_GET_ACTIVE_IN_EP_CR0_MODE(epType);
 851:Generated_Source\PSoC5/USBFS_std.c ****                     USBFS_EP[curEp].apiEpState = USBFS_EVENT_PENDING;
 852:Generated_Source\PSoC5/USBFS_std.c ****                 }
 853:Generated_Source\PSoC5/USBFS_std.c ****                 else
 854:Generated_Source\PSoC5/USBFS_std.c ****                 {
 855:Generated_Source\PSoC5/USBFS_std.c ****                     /* OUT Endpoint */
 856:Generated_Source\PSoC5/USBFS_std.c ****                     USBFS_EP[curEp].epMode     = USBFS_GET_ACTIVE_OUT_EP_CR0_MODE(epType);
 857:Generated_Source\PSoC5/USBFS_std.c ****                     USBFS_EP[curEp].apiEpState = USBFS_NO_EVENT_PENDING;
 858:Generated_Source\PSoC5/USBFS_std.c ****                 }
 859:Generated_Source\PSoC5/USBFS_std.c ****                 
 860:Generated_Source\PSoC5/USBFS_std.c ****                 /* Make SIE to NAK any endpoint requests */
 861:Generated_Source\PSoC5/USBFS_std.c ****                 USBFS_SIE_EP_BASE.sieEp[curEp].epCr0 = USBFS_MODE_NAK_IN_OUT;
 862:Generated_Source\PSoC5/USBFS_std.c **** 
 863:Generated_Source\PSoC5/USBFS_std.c ****             #if (USBFS_EP_MANAGEMENT_DMA_AUTO)
 864:Generated_Source\PSoC5/USBFS_std.c ****                 /* Clear IN data ready. */
 865:Generated_Source\PSoC5/USBFS_std.c ****                 USBFS_ARB_EP_BASE.arbEp[curEp].epCfg &= (uint8) ~USBFS_ARB_EPX_CFG_IN_DATA_RDY;
 866:Generated_Source\PSoC5/USBFS_std.c **** 
 867:Generated_Source\PSoC5/USBFS_std.c ****                 /* Select endpoint number of reconfiguration */
 868:Generated_Source\PSoC5/USBFS_std.c ****                 USBFS_DYN_RECONFIG_REG = (uint8) ((curEp - 1u) << USBFS_DYN_RECONFIG_EP_SHIFT);
 869:Generated_Source\PSoC5/USBFS_std.c ****                 
 870:Generated_Source\PSoC5/USBFS_std.c ****                 /* Request for dynamic re-configuration of endpoint. */
 871:Generated_Source\PSoC5/USBFS_std.c ****                 USBFS_DYN_RECONFIG_REG |= USBFS_DYN_RECONFIG_ENABLE;
 872:Generated_Source\PSoC5/USBFS_std.c ****                 
 873:Generated_Source\PSoC5/USBFS_std.c ****                 /* Wait until block is ready for re-configuration */
 874:Generated_Source\PSoC5/USBFS_std.c ****                 while (0u == (USBFS_DYN_RECONFIG_REG & USBFS_DYN_RECONFIG_RDY_STS))
 875:Generated_Source\PSoC5/USBFS_std.c ****                 {
 876:Generated_Source\PSoC5/USBFS_std.c ****                 }
 877:Generated_Source\PSoC5/USBFS_std.c ****                 
 878:Generated_Source\PSoC5/USBFS_std.c ****                 /* Once DYN_RECONFIG_RDY_STS bit is set, FW can change the EP configuration. */
 879:Generated_Source\PSoC5/USBFS_std.c ****                 /* Change EP Type with new direction */
 880:Generated_Source\PSoC5/USBFS_std.c ****                 if (0u != (pEP->addr & USBFS_DIR_IN))
 881:Generated_Source\PSoC5/USBFS_std.c ****                 {
 882:Generated_Source\PSoC5/USBFS_std.c ****                     /* Set endpoint type: 0 - IN and 1 - OUT. */
 883:Generated_Source\PSoC5/USBFS_std.c ****                     USBFS_EP_TYPE_REG &= (uint8) ~(uint8)((uint8) 0x01u << (curEp - 1u));
 884:Generated_Source\PSoC5/USBFS_std.c ****                     
 885:Generated_Source\PSoC5/USBFS_std.c ****                 #if (CY_PSOC4)
 886:Generated_Source\PSoC5/USBFS_std.c ****                     /* Clear DMA_TERMIN for IN endpoint */
 887:Generated_Source\PSoC5/USBFS_std.c ****                     USBFS_ARB_EP_BASE.arbEp[curEp].epIntEn &= (uint32) ~USBFS_ARB_EPX_INT_DMA_TERMI
 888:Generated_Source\PSoC5/USBFS_std.c ****                 #endif /* (CY_PSOC4) */
 889:Generated_Source\PSoC5/USBFS_std.c ****                 }
 890:Generated_Source\PSoC5/USBFS_std.c ****                 else
ARM GAS  C:\Users\rabbit\AppData\Local\Temp\cccb5bWv.s 			page 20


 891:Generated_Source\PSoC5/USBFS_std.c ****                 {
 892:Generated_Source\PSoC5/USBFS_std.c ****                     /* Set endpoint type: 0 - IN and 1- OUT. */
 893:Generated_Source\PSoC5/USBFS_std.c ****                     USBFS_EP_TYPE_REG |= (uint8) ((uint8) 0x01u << (curEp - 1u));
 894:Generated_Source\PSoC5/USBFS_std.c ****                     
 895:Generated_Source\PSoC5/USBFS_std.c ****                 #if (CY_PSOC4)
 896:Generated_Source\PSoC5/USBFS_std.c ****                     /* Set DMA_TERMIN for OUT endpoint */
 897:Generated_Source\PSoC5/USBFS_std.c ****                     USBFS_ARB_EP_BASE.arbEp[curEp].epIntEn |= (uint32) USBFS_ARB_EPX_INT_DMA_TERMIN
 898:Generated_Source\PSoC5/USBFS_std.c ****                 #endif /* (CY_PSOC4) */
 899:Generated_Source\PSoC5/USBFS_std.c ****                 }
 900:Generated_Source\PSoC5/USBFS_std.c ****                 
 901:Generated_Source\PSoC5/USBFS_std.c ****                 /* Complete dynamic re-configuration: all endpoint related status and signals 
 902:Generated_Source\PSoC5/USBFS_std.c ****                 * are set into the default state.
 903:Generated_Source\PSoC5/USBFS_std.c ****                 */
 904:Generated_Source\PSoC5/USBFS_std.c ****                 USBFS_DYN_RECONFIG_REG &= (uint8) ~USBFS_DYN_RECONFIG_ENABLE;
 905:Generated_Source\PSoC5/USBFS_std.c **** 
 906:Generated_Source\PSoC5/USBFS_std.c ****             #else
 907:Generated_Source\PSoC5/USBFS_std.c ****                 USBFS_SIE_EP_BASE.sieEp[curEp].epCnt0 = HI8(USBFS_EP[curEp].bufferSize);
 908:Generated_Source\PSoC5/USBFS_std.c ****                 USBFS_SIE_EP_BASE.sieEp[curEp].epCnt1 = LO8(USBFS_EP[curEp].bufferSize);
 909:Generated_Source\PSoC5/USBFS_std.c ****                 
 910:Generated_Source\PSoC5/USBFS_std.c ****                 #if (CY_PSOC4)
 911:Generated_Source\PSoC5/USBFS_std.c ****                     USBFS_ARB_EP16_BASE.arbEp[curEp].rwRa16  = (uint32) USBFS_EP[curEp].buffOffset;
 912:Generated_Source\PSoC5/USBFS_std.c ****                     USBFS_ARB_EP16_BASE.arbEp[curEp].rwWa16  = (uint32) USBFS_EP[curEp].buffOffset;
 913:Generated_Source\PSoC5/USBFS_std.c ****                 #else
 914:Generated_Source\PSoC5/USBFS_std.c ****                     USBFS_ARB_EP_BASE.arbEp[curEp].rwRa    = LO8(USBFS_EP[curEp].buffOffset);
 915:Generated_Source\PSoC5/USBFS_std.c ****                     USBFS_ARB_EP_BASE.arbEp[curEp].rwRaMsb = HI8(USBFS_EP[curEp].buffOffset);
 916:Generated_Source\PSoC5/USBFS_std.c ****                     USBFS_ARB_EP_BASE.arbEp[curEp].rwWa    = LO8(USBFS_EP[curEp].buffOffset);
 917:Generated_Source\PSoC5/USBFS_std.c ****                     USBFS_ARB_EP_BASE.arbEp[curEp].rwWaMsb = HI8(USBFS_EP[curEp].buffOffset);
 918:Generated_Source\PSoC5/USBFS_std.c ****                 #endif /* (CY_PSOC4) */                
 919:Generated_Source\PSoC5/USBFS_std.c ****             #endif /* (USBFS_EP_MANAGEMENT_DMA_AUTO) */
 920:Generated_Source\PSoC5/USBFS_std.c ****             }
 921:Generated_Source\PSoC5/USBFS_std.c ****             
 922:Generated_Source\PSoC5/USBFS_std.c ****             pEP = &pEP[1u]; /* Get next EP element */
 923:Generated_Source\PSoC5/USBFS_std.c ****         }
 924:Generated_Source\PSoC5/USBFS_std.c ****         
 925:Generated_Source\PSoC5/USBFS_std.c ****         /* The main loop has to re-enable DMA and OUT endpoint */
 926:Generated_Source\PSoC5/USBFS_std.c ****     }
 927:Generated_Source\PSoC5/USBFS_std.c **** }
 928:Generated_Source\PSoC5/USBFS_std.c **** 
 929:Generated_Source\PSoC5/USBFS_std.c **** 
 930:Generated_Source\PSoC5/USBFS_std.c **** /*******************************************************************************
 931:Generated_Source\PSoC5/USBFS_std.c **** * Function Name: USBFS_GetConfigTablePtr
 932:Generated_Source\PSoC5/USBFS_std.c **** ****************************************************************************//**
 933:Generated_Source\PSoC5/USBFS_std.c **** *
 934:Generated_Source\PSoC5/USBFS_std.c **** *  This routine returns a pointer a configuration table entry
 935:Generated_Source\PSoC5/USBFS_std.c **** *
 936:Generated_Source\PSoC5/USBFS_std.c **** *  \param confIndex:  Configuration Index
 937:Generated_Source\PSoC5/USBFS_std.c **** *
 938:Generated_Source\PSoC5/USBFS_std.c **** * \return
 939:Generated_Source\PSoC5/USBFS_std.c **** *  Device Descriptor pointer or NULL when descriptor does not exist.
 940:Generated_Source\PSoC5/USBFS_std.c **** *
 941:Generated_Source\PSoC5/USBFS_std.c **** *******************************************************************************/
 942:Generated_Source\PSoC5/USBFS_std.c **** const T_USBFS_LUT CYCODE *USBFS_GetConfigTablePtr(uint8 confIndex)
 943:Generated_Source\PSoC5/USBFS_std.c ****                                                         
 944:Generated_Source\PSoC5/USBFS_std.c **** {
 179              		.loc 1 944 0
 180              		.cfi_startproc
 181              		@ args = 0, pretend = 0, frame = 0
ARM GAS  C:\Users\rabbit\AppData\Local\Temp\cccb5bWv.s 			page 21


 182              		@ frame_needed = 0, uses_anonymous_args = 0
 183              		@ link register save eliminated.
 184              	.LVL6:
 945:Generated_Source\PSoC5/USBFS_std.c ****     /* Device Table */
 946:Generated_Source\PSoC5/USBFS_std.c ****     const T_USBFS_LUT CYCODE *pTmp;
 947:Generated_Source\PSoC5/USBFS_std.c **** 
 948:Generated_Source\PSoC5/USBFS_std.c ****     pTmp = (const T_USBFS_LUT CYCODE *) USBFS_TABLE[USBFS_device].p_list;
 185              		.loc 1 948 0
 186 0000 064B     		ldr	r3, .L20
 187 0002 074A     		ldr	r2, .L20+4
 188 0004 1B78     		ldrb	r3, [r3]	@ zero_extendqisi2
 189 0006 02EBC302 		add	r2, r2, r3, lsl #3
 190 000a 5368     		ldr	r3, [r2, #4]
 191              	.LVL7:
 949:Generated_Source\PSoC5/USBFS_std.c **** 
 950:Generated_Source\PSoC5/USBFS_std.c ****     /* The first entry points to the Device Descriptor,
 951:Generated_Source\PSoC5/USBFS_std.c ****     *  the second entry point to the BOS Descriptor
 952:Generated_Source\PSoC5/USBFS_std.c ****     *  the rest configuration entries.
 953:Generated_Source\PSoC5/USBFS_std.c ****     *  Set pointer to the first Configuration Descriptor
 954:Generated_Source\PSoC5/USBFS_std.c ****     */
 955:Generated_Source\PSoC5/USBFS_std.c ****     pTmp = &pTmp[2u];
 956:Generated_Source\PSoC5/USBFS_std.c ****     /* For this table, c is the number of configuration descriptors  */
 957:Generated_Source\PSoC5/USBFS_std.c ****     if(confIndex >= pTmp->c)   /* Verify that required configuration descriptor exists */
 192              		.loc 1 957 0
 193 000c 1A7C     		ldrb	r2, [r3, #16]	@ zero_extendqisi2
 194 000e 8242     		cmp	r2, r0
 958:Generated_Source\PSoC5/USBFS_std.c ****     {
 959:Generated_Source\PSoC5/USBFS_std.c ****         pTmp = (const T_USBFS_LUT CYCODE *) NULL;
 960:Generated_Source\PSoC5/USBFS_std.c ****     }
 961:Generated_Source\PSoC5/USBFS_std.c ****     else
 962:Generated_Source\PSoC5/USBFS_std.c ****     {
 963:Generated_Source\PSoC5/USBFS_std.c ****         pTmp = (const T_USBFS_LUT CYCODE *) pTmp[confIndex].p_list;
 195              		.loc 1 963 0
 196 0010 86BF     		itte	hi
 197 0012 03EBC003 		addhi	r3, r3, r0, lsl #3
 198              	.LVL8:
 199 0016 5869     		ldrhi	r0, [r3, #20]
 200              	.LVL9:
 959:Generated_Source\PSoC5/USBFS_std.c ****     }
 201              		.loc 1 959 0
 202 0018 0020     		movls	r0, #0
 203              	.LVL10:
 964:Generated_Source\PSoC5/USBFS_std.c ****     }
 965:Generated_Source\PSoC5/USBFS_std.c **** 
 966:Generated_Source\PSoC5/USBFS_std.c ****     return (pTmp);
 967:Generated_Source\PSoC5/USBFS_std.c **** }
 204              		.loc 1 967 0
 205 001a 7047     		bx	lr
 206              	.L21:
 207              		.align	2
 208              	.L20:
 209 001c 00000000 		.word	USBFS_device
 210 0020 00000000 		.word	USBFS_TABLE
 211              		.cfi_endproc
 212              	.LFE5:
 213              		.size	USBFS_GetConfigTablePtr, .-USBFS_GetConfigTablePtr
 214              		.section	.text.USBFS_ConfigAltChanged,"ax",%progbits
ARM GAS  C:\Users\rabbit\AppData\Local\Temp\cccb5bWv.s 			page 22


 215              		.align	1
 216              		.global	USBFS_ConfigAltChanged
 217              		.thumb
 218              		.thumb_func
 219              		.type	USBFS_ConfigAltChanged, %function
 220              	USBFS_ConfigAltChanged:
 221              	.LFB4:
 806:Generated_Source\PSoC5/USBFS_std.c ****     uint8 ep;
 222              		.loc 1 806 0
 223              		.cfi_startproc
 224              		@ args = 0, pretend = 0, frame = 0
 225              		@ frame_needed = 0, uses_anonymous_args = 0
 226 0000 2DE9F84F 		push	{r3, r4, r5, r6, r7, r8, r9, r10, fp, lr}
 227              		.cfi_def_cfa_offset 40
 228              		.cfi_offset 3, -40
 229              		.cfi_offset 4, -36
 230              		.cfi_offset 5, -32
 231              		.cfi_offset 6, -28
 232              		.cfi_offset 7, -24
 233              		.cfi_offset 8, -20
 234              		.cfi_offset 9, -16
 235              		.cfi_offset 10, -12
 236              		.cfi_offset 11, -8
 237              		.cfi_offset 14, -4
 817:Generated_Source\PSoC5/USBFS_std.c ****     {
 238              		.loc 1 817 0
 239 0004 424B     		ldr	r3, .L34
 240 0006 1A78     		ldrb	r2, [r3]	@ zero_extendqisi2
 241 0008 002A     		cmp	r2, #0
 242 000a 7ED0     		beq	.L22
 243              	.LBB6:
 244              	.LBB7:
 820:Generated_Source\PSoC5/USBFS_std.c ****         pTmp = &pTmp[1u];
 245              		.loc 1 820 0
 246 000c 1878     		ldrb	r0, [r3]	@ zero_extendqisi2
 842:Generated_Source\PSoC5/USBFS_std.c ****                 USBFS_EP[curEp].addr       = pEP->addr;
 247              		.loc 1 842 0
 248 000e 414D     		ldr	r5, .L34+4
 820:Generated_Source\PSoC5/USBFS_std.c ****         pTmp = &pTmp[1u];
 249              		.loc 1 820 0
 250 0010 0138     		subs	r0, r0, #1
 251 0012 C0B2     		uxtb	r0, r0
 252 0014 FFF7FEFF 		bl	USBFS_GetConfigTablePtr
 253              	.LVL11:
 254 0018 A846     		mov	r8, r5
 831:Generated_Source\PSoC5/USBFS_std.c ****         for (i = 0u; i < ep; i++)
 255              		.loc 1 831 0
 256 001a 3F4A     		ldr	r2, .L34+8
 825:Generated_Source\PSoC5/USBFS_std.c ****         
 257              		.loc 1 825 0
 258 001c C368     		ldr	r3, [r0, #12]
 259              	.LVL12:
 831:Generated_Source\PSoC5/USBFS_std.c ****         for (i = 0u; i < ep; i++)
 260              		.loc 1 831 0
 261 001e 1478     		ldrb	r4, [r2]	@ zero_extendqisi2
 262 0020 007A     		ldrb	r0, [r0, #8]	@ zero_extendqisi2
 263              	.LVL13:
ARM GAS  C:\Users\rabbit\AppData\Local\Temp\cccb5bWv.s 			page 23


 836:Generated_Source\PSoC5/USBFS_std.c ****             {
 264              		.loc 1 836 0
 265 0022 DFF800C1 		ldr	ip, .L34+20
 831:Generated_Source\PSoC5/USBFS_std.c ****         for (i = 0u; i < ep; i++)
 266              		.loc 1 831 0
 267 0026 E4B2     		uxtb	r4, r4
 268              	.LVL14:
 269 0028 03EBC000 		add	r0, r3, r0, lsl #3
 270              	.LVL15:
 842:Generated_Source\PSoC5/USBFS_std.c ****                 USBFS_EP[curEp].addr       = pEP->addr;
 271              		.loc 1 842 0
 272 002c 0C26     		movs	r6, #12
 273 002e 0027     		movs	r7, #0
 861:Generated_Source\PSoC5/USBFS_std.c **** 
 274              		.loc 1 861 0
 275 0030 4FF0010E 		mov	lr, #1
 276              	.LVL16:
 277              	.L24:
 832:Generated_Source\PSoC5/USBFS_std.c ****         {
 278              		.loc 1 832 0
 279 0034 8342     		cmp	r3, r0
 280 0036 68D0     		beq	.L22
 835:Generated_Source\PSoC5/USBFS_std.c ****                 (USBFS_interfaceSetting[interfaceNum] == pEP->altSetting))
 281              		.loc 1 835 0
 282 0038 1A78     		ldrb	r2, [r3]	@ zero_extendqisi2
 283 003a A242     		cmp	r2, r4
 284 003c 63D1     		bne	.L25
 836:Generated_Source\PSoC5/USBFS_std.c ****             {
 285              		.loc 1 836 0
 286 003e 1CF80420 		ldrb	r2, [ip, r4]	@ zero_extendqisi2
 835:Generated_Source\PSoC5/USBFS_std.c ****                 (USBFS_interfaceSetting[interfaceNum] == pEP->altSetting))
 287              		.loc 1 835 0
 288 0042 5978     		ldrb	r1, [r3, #1]	@ zero_extendqisi2
 289 0044 9142     		cmp	r1, r2
 290 0046 5ED1     		bne	.L25
 838:Generated_Source\PSoC5/USBFS_std.c ****                 epType = ((uint8) pEP->attributes & USBFS_EP_TYPE_MASK);
 291              		.loc 1 838 0
 292 0048 9A78     		ldrb	r2, [r3, #2]	@ zero_extendqisi2
 839:Generated_Source\PSoC5/USBFS_std.c ****                 
 293              		.loc 1 839 0
 294 004a 93F80390 		ldrb	r9, [r3, #3]	@ zero_extendqisi2
 838:Generated_Source\PSoC5/USBFS_std.c ****                 epType = ((uint8) pEP->attributes & USBFS_EP_TYPE_MASK);
 295              		.loc 1 838 0
 296 004e 02F07F02 		and	r2, r2, #127
 297              	.LVL17:
 842:Generated_Source\PSoC5/USBFS_std.c ****                 USBFS_EP[curEp].addr       = pEP->addr;
 298              		.loc 1 842 0
 299 0052 06FB02FA 		mul	r10, r6, r2
 300 0056 05EB0A01 		add	r1, r5, r10
 301 005a CF70     		strb	r7, [r1, #3]
 843:Generated_Source\PSoC5/USBFS_std.c ****                 USBFS_EP[curEp].attrib     = pEP->attributes;
 302              		.loc 1 843 0
 303 005c 93F802B0 		ldrb	fp, [r3, #2]	@ zero_extendqisi2
 839:Generated_Source\PSoC5/USBFS_std.c ****                 
 304              		.loc 1 839 0
 305 0060 09F00309 		and	r9, r9, #3
 306              	.LVL18:
ARM GAS  C:\Users\rabbit\AppData\Local\Temp\cccb5bWv.s 			page 24


 843:Generated_Source\PSoC5/USBFS_std.c ****                 USBFS_EP[curEp].attrib     = pEP->attributes;
 307              		.loc 1 843 0
 308 0064 81F804B0 		strb	fp, [r1, #4]
 844:Generated_Source\PSoC5/USBFS_std.c ****                 USBFS_EP[curEp].bufferSize = pEP->bufferSize;
 309              		.loc 1 844 0
 310 0068 93F803B0 		ldrb	fp, [r3, #3]	@ zero_extendqisi2
 311 006c 05F80AB0 		strb	fp, [r5, r10]
 845:Generated_Source\PSoC5/USBFS_std.c **** 
 312              		.loc 1 845 0
 313 0070 B3F804A0 		ldrh	r10, [r3, #4]
 314 0074 A1F808A0 		strh	r10, [r1, #8]	@ movhi
 847:Generated_Source\PSoC5/USBFS_std.c ****                 {
 315              		.loc 1 847 0
 316 0078 93F902A0 		ldrsb	r10, [r3, #2]
 317 007c BAF1000F 		cmp	r10, #0
 318 0080 0BDA     		bge	.L26
 850:Generated_Source\PSoC5/USBFS_std.c ****                     USBFS_EP[curEp].apiEpState = USBFS_EVENT_PENDING;
 319              		.loc 1 850 0
 320 0082 B9F1010F 		cmp	r9, #1
 321 0086 0CBF     		ite	eq
 322 0088 4FF00709 		moveq	r9, #7
 323              	.LVL19:
 324 008c 4FF00D09 		movne	r9, #13
 325 0090 81F80590 		strb	r9, [r1, #5]
 851:Generated_Source\PSoC5/USBFS_std.c ****                 }
 326              		.loc 1 851 0
 327 0094 81F801E0 		strb	lr, [r1, #1]
 328 0098 09E0     		b	.L28
 329              	.LVL20:
 330              	.L26:
 856:Generated_Source\PSoC5/USBFS_std.c ****                     USBFS_EP[curEp].apiEpState = USBFS_NO_EVENT_PENDING;
 331              		.loc 1 856 0
 332 009a B9F1010F 		cmp	r9, #1
 333 009e 0CBF     		ite	eq
 334 00a0 4FF00509 		moveq	r9, #5
 335              	.LVL21:
 336 00a4 4FF00909 		movne	r9, #9
 337 00a8 81F80590 		strb	r9, [r1, #5]
 857:Generated_Source\PSoC5/USBFS_std.c ****                 }
 338              		.loc 1 857 0
 339 00ac 4F70     		strb	r7, [r1, #1]
 340              	.L28:
 341 00ae 4FEA0219 		lsl	r9, r2, #4
 342 00b2 1A49     		ldr	r1, .L34+12
 907:Generated_Source\PSoC5/USBFS_std.c ****                 USBFS_SIE_EP_BASE.sieEp[curEp].epCnt1 = LO8(USBFS_EP[curEp].bufferSize);
 343              		.loc 1 907 0
 344 00b4 06FB0282 		mla	r2, r6, r2, r8
 345              	.LVL22:
 346 00b8 4944     		add	r1, r1, r9
 861:Generated_Source\PSoC5/USBFS_std.c **** 
 347              		.loc 1 861 0
 348 00ba 81F802E0 		strb	lr, [r1, #2]
 907:Generated_Source\PSoC5/USBFS_std.c ****                 USBFS_SIE_EP_BASE.sieEp[curEp].epCnt1 = LO8(USBFS_EP[curEp].bufferSize);
 349              		.loc 1 907 0
 350 00be B2F808A0 		ldrh	r10, [r2, #8]
 351 00c2 CAF3072A 		ubfx	r10, r10, #8, #8
 352 00c6 81F800A0 		strb	r10, [r1]
ARM GAS  C:\Users\rabbit\AppData\Local\Temp\cccb5bWv.s 			page 25


 908:Generated_Source\PSoC5/USBFS_std.c ****                 
 353              		.loc 1 908 0
 354 00ca B2F808A0 		ldrh	r10, [r2, #8]
 355 00ce 5FFA8AFA 		uxtb	r10, r10
 356 00d2 81F801A0 		strb	r10, [r1, #1]
 914:Generated_Source\PSoC5/USBFS_std.c ****                     USBFS_ARB_EP_BASE.arbEp[curEp].rwRaMsb = HI8(USBFS_EP[curEp].buffOffset);
 357              		.loc 1 914 0
 358 00d6 B2F806A0 		ldrh	r10, [r2, #6]
 359 00da 1149     		ldr	r1, .L34+16
 360 00dc 5FFA8AFA 		uxtb	r10, r10
 361 00e0 4944     		add	r1, r1, r9
 362 00e2 81F806A0 		strb	r10, [r1, #6]
 915:Generated_Source\PSoC5/USBFS_std.c ****                     USBFS_ARB_EP_BASE.arbEp[curEp].rwWa    = LO8(USBFS_EP[curEp].buffOffset);
 363              		.loc 1 915 0
 364 00e6 B2F80690 		ldrh	r9, [r2, #6]
 365 00ea C9F30729 		ubfx	r9, r9, #8, #8
 366 00ee 81F80790 		strb	r9, [r1, #7]
 916:Generated_Source\PSoC5/USBFS_std.c ****                     USBFS_ARB_EP_BASE.arbEp[curEp].rwWaMsb = HI8(USBFS_EP[curEp].buffOffset);
 367              		.loc 1 916 0
 368 00f2 B2F80690 		ldrh	r9, [r2, #6]
 369 00f6 5FFA89F9 		uxtb	r9, r9
 370 00fa 81F80490 		strb	r9, [r1, #4]
 917:Generated_Source\PSoC5/USBFS_std.c ****                 #endif /* (CY_PSOC4) */                
 371              		.loc 1 917 0
 372 00fe D288     		ldrh	r2, [r2, #6]
 373 0100 C2F30722 		ubfx	r2, r2, #8, #8
 374 0104 4A71     		strb	r2, [r1, #5]
 375              	.L25:
 922:Generated_Source\PSoC5/USBFS_std.c ****         }
 376              		.loc 1 922 0
 377 0106 0833     		adds	r3, r3, #8
 378              	.LVL23:
 379 0108 94E7     		b	.L24
 380              	.LVL24:
 381              	.L22:
 382 010a BDE8F88F 		pop	{r3, r4, r5, r6, r7, r8, r9, r10, fp, pc}
 383              	.L35:
 384 010e 00BF     		.align	2
 385              	.L34:
 386 0110 00000000 		.word	USBFS_configuration
 387 0114 00000000 		.word	USBFS_EP
 388 0118 00000000 		.word	USBFS_interfaceNumber
 389 011c FC5F0040 		.word	1073766396
 390 0120 70600040 		.word	1073766512
 391 0124 00000000 		.word	USBFS_interfaceSetting
 392              	.LBE7:
 393              	.LBE6:
 394              		.cfi_endproc
 395              	.LFE4:
 396              		.size	USBFS_ConfigAltChanged, .-USBFS_ConfigAltChanged
 397              		.section	.text.USBFS_GetDeviceTablePtr,"ax",%progbits
 398              		.align	1
 399              		.global	USBFS_GetDeviceTablePtr
 400              		.thumb
 401              		.thumb_func
 402              		.type	USBFS_GetDeviceTablePtr, %function
 403              	USBFS_GetDeviceTablePtr:
ARM GAS  C:\Users\rabbit\AppData\Local\Temp\cccb5bWv.s 			page 26


 404              	.LFB6:
 968:Generated_Source\PSoC5/USBFS_std.c **** 
 969:Generated_Source\PSoC5/USBFS_std.c **** 
 970:Generated_Source\PSoC5/USBFS_std.c **** #if (USBFS_BOS_ENABLE)
 971:Generated_Source\PSoC5/USBFS_std.c ****     /*******************************************************************************
 972:Generated_Source\PSoC5/USBFS_std.c ****     * Function Name: USBFS_GetBOSPtr
 973:Generated_Source\PSoC5/USBFS_std.c ****     ****************************************************************************//**
 974:Generated_Source\PSoC5/USBFS_std.c ****     *
 975:Generated_Source\PSoC5/USBFS_std.c ****     *  This routine returns a pointer a BOS table entry
 976:Generated_Source\PSoC5/USBFS_std.c ****     *
 977:Generated_Source\PSoC5/USBFS_std.c ****     *  
 978:Generated_Source\PSoC5/USBFS_std.c ****     *
 979:Generated_Source\PSoC5/USBFS_std.c ****     * \return
 980:Generated_Source\PSoC5/USBFS_std.c ****     *  BOS Descriptor pointer or NULL when descriptor does not exist.
 981:Generated_Source\PSoC5/USBFS_std.c ****     *
 982:Generated_Source\PSoC5/USBFS_std.c ****     *******************************************************************************/
 983:Generated_Source\PSoC5/USBFS_std.c ****     const T_USBFS_LUT CYCODE *USBFS_GetBOSPtr(void)
 984:Generated_Source\PSoC5/USBFS_std.c ****                                                             
 985:Generated_Source\PSoC5/USBFS_std.c ****     {
 986:Generated_Source\PSoC5/USBFS_std.c ****         /* Device Table */
 987:Generated_Source\PSoC5/USBFS_std.c ****         const T_USBFS_LUT CYCODE *pTmp;
 988:Generated_Source\PSoC5/USBFS_std.c **** 
 989:Generated_Source\PSoC5/USBFS_std.c ****         pTmp = (const T_USBFS_LUT CYCODE *) USBFS_TABLE[USBFS_device].p_list;
 990:Generated_Source\PSoC5/USBFS_std.c **** 
 991:Generated_Source\PSoC5/USBFS_std.c ****         /* The first entry points to the Device Descriptor,
 992:Generated_Source\PSoC5/USBFS_std.c ****         *  the second entry points to the BOS Descriptor
 993:Generated_Source\PSoC5/USBFS_std.c ****         */
 994:Generated_Source\PSoC5/USBFS_std.c ****         pTmp = &pTmp[1u];
 995:Generated_Source\PSoC5/USBFS_std.c ****         pTmp = (const T_USBFS_LUT CYCODE *) pTmp->p_list;
 996:Generated_Source\PSoC5/USBFS_std.c ****         return (pTmp);
 997:Generated_Source\PSoC5/USBFS_std.c ****     }
 998:Generated_Source\PSoC5/USBFS_std.c **** #endif /* (USBFS_BOS_ENABLE) */
 999:Generated_Source\PSoC5/USBFS_std.c **** 
1000:Generated_Source\PSoC5/USBFS_std.c **** 
1001:Generated_Source\PSoC5/USBFS_std.c **** /*******************************************************************************
1002:Generated_Source\PSoC5/USBFS_std.c **** * Function Name: USBFS_GetDeviceTablePtr
1003:Generated_Source\PSoC5/USBFS_std.c **** ****************************************************************************//**
1004:Generated_Source\PSoC5/USBFS_std.c **** *
1005:Generated_Source\PSoC5/USBFS_std.c **** *  This routine returns a pointer to the Device table
1006:Generated_Source\PSoC5/USBFS_std.c **** *
1007:Generated_Source\PSoC5/USBFS_std.c **** * \return
1008:Generated_Source\PSoC5/USBFS_std.c **** *  Device Table pointer
1009:Generated_Source\PSoC5/USBFS_std.c **** *
1010:Generated_Source\PSoC5/USBFS_std.c **** *******************************************************************************/
1011:Generated_Source\PSoC5/USBFS_std.c **** const T_USBFS_LUT CYCODE *USBFS_GetDeviceTablePtr(void)
1012:Generated_Source\PSoC5/USBFS_std.c ****                                                             
1013:Generated_Source\PSoC5/USBFS_std.c **** {
 405              		.loc 1 1013 0
 406              		.cfi_startproc
 407              		@ args = 0, pretend = 0, frame = 0
 408              		@ frame_needed = 0, uses_anonymous_args = 0
 409              		@ link register save eliminated.
1014:Generated_Source\PSoC5/USBFS_std.c ****     /* Device Table */
1015:Generated_Source\PSoC5/USBFS_std.c ****     return( (const T_USBFS_LUT CYCODE *) USBFS_TABLE[USBFS_device].p_list );
 410              		.loc 1 1015 0
 411 0000 034B     		ldr	r3, .L37
 412 0002 1A78     		ldrb	r2, [r3]	@ zero_extendqisi2
ARM GAS  C:\Users\rabbit\AppData\Local\Temp\cccb5bWv.s 			page 27


 413 0004 034B     		ldr	r3, .L37+4
 414 0006 03EBC203 		add	r3, r3, r2, lsl #3
1016:Generated_Source\PSoC5/USBFS_std.c **** }
 415              		.loc 1 1016 0
 416 000a 5868     		ldr	r0, [r3, #4]
 417 000c 7047     		bx	lr
 418              	.L38:
 419 000e 00BF     		.align	2
 420              	.L37:
 421 0010 00000000 		.word	USBFS_device
 422 0014 00000000 		.word	USBFS_TABLE
 423              		.cfi_endproc
 424              	.LFE6:
 425              		.size	USBFS_GetDeviceTablePtr, .-USBFS_GetDeviceTablePtr
 426              		.section	.text.USBFS_GetInterfaceClassTablePtr,"ax",%progbits
 427              		.align	1
 428              		.global	USBFS_GetInterfaceClassTablePtr
 429              		.thumb
 430              		.thumb_func
 431              		.type	USBFS_GetInterfaceClassTablePtr, %function
 432              	USBFS_GetInterfaceClassTablePtr:
 433              	.LFB7:
1017:Generated_Source\PSoC5/USBFS_std.c **** 
1018:Generated_Source\PSoC5/USBFS_std.c **** 
1019:Generated_Source\PSoC5/USBFS_std.c **** /*******************************************************************************
1020:Generated_Source\PSoC5/USBFS_std.c **** * Function Name: USB_GetInterfaceClassTablePtr
1021:Generated_Source\PSoC5/USBFS_std.c **** ****************************************************************************//**
1022:Generated_Source\PSoC5/USBFS_std.c **** *
1023:Generated_Source\PSoC5/USBFS_std.c **** *  This routine returns Interface Class table pointer, which contains
1024:Generated_Source\PSoC5/USBFS_std.c **** *  the relation between interface number and interface class.
1025:Generated_Source\PSoC5/USBFS_std.c **** *
1026:Generated_Source\PSoC5/USBFS_std.c **** * \return
1027:Generated_Source\PSoC5/USBFS_std.c **** *  Interface Class table pointer.
1028:Generated_Source\PSoC5/USBFS_std.c **** *
1029:Generated_Source\PSoC5/USBFS_std.c **** *******************************************************************************/
1030:Generated_Source\PSoC5/USBFS_std.c **** const uint8 CYCODE *USBFS_GetInterfaceClassTablePtr(void)
1031:Generated_Source\PSoC5/USBFS_std.c ****                                                         
1032:Generated_Source\PSoC5/USBFS_std.c **** {
 434              		.loc 1 1032 0
 435              		.cfi_startproc
 436              		@ args = 0, pretend = 0, frame = 0
 437              		@ frame_needed = 0, uses_anonymous_args = 0
 438 0000 08B5     		push	{r3, lr}
 439              		.cfi_def_cfa_offset 8
 440              		.cfi_offset 3, -8
 441              		.cfi_offset 14, -4
1033:Generated_Source\PSoC5/USBFS_std.c ****     const T_USBFS_LUT CYCODE *pTmp;
1034:Generated_Source\PSoC5/USBFS_std.c ****     const uint8 CYCODE *pInterfaceClass;
1035:Generated_Source\PSoC5/USBFS_std.c ****     uint8 currentInterfacesNum;
1036:Generated_Source\PSoC5/USBFS_std.c **** 
1037:Generated_Source\PSoC5/USBFS_std.c ****     pTmp = USBFS_GetConfigTablePtr(USBFS_configuration - 1u);
 442              		.loc 1 1037 0
 443 0002 064B     		ldr	r3, .L42
 444 0004 1878     		ldrb	r0, [r3]	@ zero_extendqisi2
 445 0006 0138     		subs	r0, r0, #1
 446 0008 C0B2     		uxtb	r0, r0
 447 000a FFF7FEFF 		bl	USBFS_GetConfigTablePtr
ARM GAS  C:\Users\rabbit\AppData\Local\Temp\cccb5bWv.s 			page 28


 448              	.LVL25:
1038:Generated_Source\PSoC5/USBFS_std.c ****     if (pTmp != NULL)
 449              		.loc 1 1038 0
 450 000e 20B1     		cbz	r0, .L40
 451              	.LVL26:
1039:Generated_Source\PSoC5/USBFS_std.c ****     {
1040:Generated_Source\PSoC5/USBFS_std.c ****         currentInterfacesNum  = ((const uint8 *) pTmp->p_list)[USBFS_CONFIG_DESCR_NUM_INTERFACES];
 452              		.loc 1 1040 0
 453 0010 4368     		ldr	r3, [r0, #4]
1041:Generated_Source\PSoC5/USBFS_std.c ****         /* Third entry in the LUT starts the Interface Table pointers */
1042:Generated_Source\PSoC5/USBFS_std.c ****         /* The INTERFACE_CLASS table is located after all interfaces */
1043:Generated_Source\PSoC5/USBFS_std.c ****         pTmp = &pTmp[currentInterfacesNum + 2u];
 454              		.loc 1 1043 0
 455 0012 1B79     		ldrb	r3, [r3, #4]	@ zero_extendqisi2
 456              	.LVL27:
1044:Generated_Source\PSoC5/USBFS_std.c ****         pInterfaceClass = (const uint8 CYCODE *) pTmp->p_list;
 457              		.loc 1 1044 0
 458 0014 00EBC300 		add	r0, r0, r3, lsl #3
 459              	.LVL28:
 460 0018 4069     		ldr	r0, [r0, #20]
 461              	.LVL29:
 462              	.L40:
1045:Generated_Source\PSoC5/USBFS_std.c ****     }
1046:Generated_Source\PSoC5/USBFS_std.c ****     else
1047:Generated_Source\PSoC5/USBFS_std.c ****     {
1048:Generated_Source\PSoC5/USBFS_std.c ****         pInterfaceClass = (const uint8 CYCODE *) NULL;
1049:Generated_Source\PSoC5/USBFS_std.c ****     }
1050:Generated_Source\PSoC5/USBFS_std.c **** 
1051:Generated_Source\PSoC5/USBFS_std.c ****     return (pInterfaceClass);
1052:Generated_Source\PSoC5/USBFS_std.c **** }
 463              		.loc 1 1052 0
 464 001a 08BD     		pop	{r3, pc}
 465              	.L43:
 466              		.align	2
 467              	.L42:
 468 001c 00000000 		.word	USBFS_configuration
 469              		.cfi_endproc
 470              	.LFE7:
 471              		.size	USBFS_GetInterfaceClassTablePtr, .-USBFS_GetInterfaceClassTablePtr
 472              		.section	.text.USBFS_Config,"ax",%progbits
 473              		.align	1
 474              		.global	USBFS_Config
 475              		.thumb
 476              		.thumb_func
 477              		.type	USBFS_Config, %function
 478              	USBFS_Config:
 479              	.LFB3:
 571:Generated_Source\PSoC5/USBFS_std.c ****     uint8 ep;
 480              		.loc 1 571 0
 481              		.cfi_startproc
 482              		@ args = 0, pretend = 0, frame = 0
 483              		@ frame_needed = 0, uses_anonymous_args = 0
 484              	.LVL30:
 485 0000 0021     		movs	r1, #0
 486 0002 2DE9F84F 		push	{r3, r4, r5, r6, r7, r8, r9, r10, fp, lr}
 487              		.cfi_def_cfa_offset 40
 488              		.cfi_offset 3, -40
ARM GAS  C:\Users\rabbit\AppData\Local\Temp\cccb5bWv.s 			page 29


 489              		.cfi_offset 4, -36
 490              		.cfi_offset 5, -32
 491              		.cfi_offset 6, -28
 492              		.cfi_offset 7, -24
 493              		.cfi_offset 8, -20
 494              		.cfi_offset 9, -16
 495              		.cfi_offset 10, -12
 496              		.cfi_offset 11, -8
 497              		.cfi_offset 14, -4
 588:Generated_Source\PSoC5/USBFS_std.c ****         USBFS_EP[ep].hwEpState  = 0u;
 498              		.loc 1 588 0
 499 0006 0B46     		mov	r3, r1
 500 0008 4C4E     		ldr	r6, .L74
 501 000a 0C27     		movs	r7, #12
 502              	.LVL31:
 503              	.L45:
 588:Generated_Source\PSoC5/USBFS_std.c ****         USBFS_EP[ep].hwEpState  = 0u;
 504              		.loc 1 588 0 is_stmt 0 discriminator 3
 505 000c 07FB01F5 		mul	r5, r7, r1
 506 0010 0131     		adds	r1, r1, #1
 507              	.LVL32:
 508 0012 7219     		adds	r2, r6, r5
 586:Generated_Source\PSoC5/USBFS_std.c ****     {
 509              		.loc 1 586 0 is_stmt 1 discriminator 3
 510 0014 0929     		cmp	r1, #9
 588:Generated_Source\PSoC5/USBFS_std.c ****         USBFS_EP[ep].hwEpState  = 0u;
 511              		.loc 1 588 0 discriminator 3
 512 0016 7355     		strb	r3, [r6, r5]
 513 0018 4FF00004 		mov	r4, #0
 589:Generated_Source\PSoC5/USBFS_std.c ****         USBFS_EP[ep].epToggle   = 0u;
 514              		.loc 1 589 0 discriminator 3
 515 001c 9370     		strb	r3, [r2, #2]
 516 001e 474D     		ldr	r5, .L74
 590:Generated_Source\PSoC5/USBFS_std.c ****         USBFS_EP[ep].bufferSize = 0u;
 517              		.loc 1 590 0 discriminator 3
 518 0020 D370     		strb	r3, [r2, #3]
 591:Generated_Source\PSoC5/USBFS_std.c ****         USBFS_EP[ep].interface  = 0u;
 519              		.loc 1 591 0 discriminator 3
 520 0022 1381     		strh	r3, [r2, #8]	@ movhi
 592:Generated_Source\PSoC5/USBFS_std.c ****         USBFS_EP[ep].apiEpState = USBFS_NO_EVENT_PENDING;
 521              		.loc 1 592 0 discriminator 3
 522 0024 9372     		strb	r3, [r2, #10]
 593:Generated_Source\PSoC5/USBFS_std.c ****         USBFS_EP[ep].epMode     = USBFS_MODE_DISABLE;   
 523              		.loc 1 593 0 discriminator 3
 524 0026 5370     		strb	r3, [r2, #1]
 594:Generated_Source\PSoC5/USBFS_std.c ****     }
 525              		.loc 1 594 0 discriminator 3
 526 0028 5371     		strb	r3, [r2, #5]
 586:Generated_Source\PSoC5/USBFS_std.c ****     {
 527              		.loc 1 586 0 discriminator 3
 528 002a EFD1     		bne	.L45
 598:Generated_Source\PSoC5/USBFS_std.c ****     {
 529              		.loc 1 598 0
 530 002c 18B1     		cbz	r0, .L46
 531              	.LVL33:
 602:Generated_Source\PSoC5/USBFS_std.c ****             USBFS_interfaceSettingLast[i] = 0u;
 532              		.loc 1 602 0 discriminator 3
ARM GAS  C:\Users\rabbit\AppData\Local\Temp\cccb5bWv.s 			page 30


 533 002e 444B     		ldr	r3, .L74+4
 534 0030 1C70     		strb	r4, [r3]
 603:Generated_Source\PSoC5/USBFS_std.c ****         }
 535              		.loc 1 603 0 discriminator 3
 536 0032 444B     		ldr	r3, .L74+8
 537 0034 1C70     		strb	r4, [r3]
 538              	.LVL34:
 539              	.L46:
 608:Generated_Source\PSoC5/USBFS_std.c ****     {
 540              		.loc 1 608 0
 541 0036 444B     		ldr	r3, .L74+12
 542 0038 1A78     		ldrb	r2, [r3]	@ zero_extendqisi2
 543 003a 002A     		cmp	r2, #0
 544 003c 7BD0     		beq	.L44
 545              	.LVL35:
 546              	.LBB10:
 547              	.LBB11:
 614:Generated_Source\PSoC5/USBFS_std.c ****         
 548              		.loc 1 614 0
 549 003e 1878     		ldrb	r0, [r3]	@ zero_extendqisi2
 550              	.LVL36:
 629:Generated_Source\PSoC5/USBFS_std.c **** 
 551              		.loc 1 629 0
 552 0040 0124     		movs	r4, #1
 614:Generated_Source\PSoC5/USBFS_std.c ****         
 553              		.loc 1 614 0
 554 0042 0138     		subs	r0, r0, #1
 555 0044 C0B2     		uxtb	r0, r0
 556 0046 FFF7FEFF 		bl	USBFS_GetConfigTablePtr
 557              	.LVL37:
 716:Generated_Source\PSoC5/USBFS_std.c ****                                 
 558              		.loc 1 716 0
 559 004a A046     		mov	r8, r4
 618:Generated_Source\PSoC5/USBFS_std.c ****         {
 560              		.loc 1 618 0
 561 004c 4368     		ldr	r3, [r0, #4]
 705:Generated_Source\PSoC5/USBFS_std.c ****                         {                            
 562              		.loc 1 705 0
 563 004e DFF8F0E0 		ldr	lr, .L74+4
 618:Generated_Source\PSoC5/USBFS_std.c ****         {
 564              		.loc 1 618 0
 565 0052 DB79     		ldrb	r3, [r3, #7]	@ zero_extendqisi2
 699:Generated_Source\PSoC5/USBFS_std.c ****                         {
 566              		.loc 1 699 0
 567 0054 0C27     		movs	r7, #12
 618:Generated_Source\PSoC5/USBFS_std.c ****         {
 568              		.loc 1 618 0
 569 0056 13F0400F 		tst	r3, #64
 570 005a 3C4B     		ldr	r3, .L74+16
 729:Generated_Source\PSoC5/USBFS_std.c ****                                 
 571              		.loc 1 729 0
 572 005c 4FF0000C 		mov	ip, #0
 620:Generated_Source\PSoC5/USBFS_std.c ****         }
 573              		.loc 1 620 0
 574 0060 1A78     		ldrb	r2, [r3]	@ zero_extendqisi2
 575 0062 14BF     		ite	ne
 576 0064 42F00102 		orrne	r2, r2, #1
ARM GAS  C:\Users\rabbit\AppData\Local\Temp\cccb5bWv.s 			page 31


 624:Generated_Source\PSoC5/USBFS_std.c ****         }
 577              		.loc 1 624 0
 578 0068 02F0FE02 		andeq	r2, r2, #254
 579 006c 1A70     		strb	r2, [r3]
 580              	.LVL38:
 581 006e 027A     		ldrb	r2, [r0, #8]	@ zero_extendqisi2
 582 0070 D200     		lsls	r2, r2, #3
 583              	.LVL39:
 584              	.L59:
 699:Generated_Source\PSoC5/USBFS_std.c ****                         {
 585              		.loc 1 699 0
 586 0072 07FB0451 		mla	r1, r7, r4, r5
 690:Generated_Source\PSoC5/USBFS_std.c ****                 /* Find max length for each EP and select it (length could be different in differen
 587              		.loc 1 690 0
 588 0076 C368     		ldr	r3, [r0, #12]
 589              	.LVL40:
 590 0078 03EB0209 		add	r9, r3, r2
 591              	.LVL41:
 592              	.L50:
 694:Generated_Source\PSoC5/USBFS_std.c ****                 {
 593              		.loc 1 694 0
 594 007c 4B45     		cmp	r3, r9
 595 007e 31D0     		beq	.L72
 696:Generated_Source\PSoC5/USBFS_std.c ****                     {
 596              		.loc 1 696 0
 597 0080 93F802A0 		ldrb	r10, [r3, #2]	@ zero_extendqisi2
 598 0084 0AF07F06 		and	r6, r10, #127
 599 0088 A642     		cmp	r6, r4
 600 008a 29D1     		bne	.L52
 699:Generated_Source\PSoC5/USBFS_std.c ****                         {
 601              		.loc 1 699 0
 602 008c 0E89     		ldrh	r6, [r1, #8]
 603 008e B3F804B0 		ldrh	fp, [r3, #4]
 604 0092 B6B2     		uxth	r6, r6
 605 0094 5E45     		cmp	r6, fp
 701:Generated_Source\PSoC5/USBFS_std.c ****                         }
 606              		.loc 1 701 0
 607 0096 38BF     		it	cc
 608 0098 A1F808B0 		strhcc	fp, [r1, #8]	@ movhi
 705:Generated_Source\PSoC5/USBFS_std.c ****                         {                            
 609              		.loc 1 705 0
 610 009c 1E78     		ldrb	r6, [r3]	@ zero_extendqisi2
 611 009e 93F801B0 		ldrb	fp, [r3, #1]	@ zero_extendqisi2
 612 00a2 1EF80660 		ldrb	r6, [lr, r6]	@ zero_extendqisi2
 613 00a6 B345     		cmp	fp, r6
 614 00a8 1AD1     		bne	.L52
 707:Generated_Source\PSoC5/USBFS_std.c ****                             USBFS_EP[i].attrib = pEP->attributes;
 615              		.loc 1 707 0
 616 00aa 81F804A0 		strb	r10, [r1, #4]
 708:Generated_Source\PSoC5/USBFS_std.c ****                             
 617              		.loc 1 708 0
 618 00ae DE78     		ldrb	r6, [r3, #3]	@ zero_extendqisi2
 619 00b0 0E70     		strb	r6, [r1]
 712:Generated_Source\PSoC5/USBFS_std.c ****                             {
 620              		.loc 1 712 0
 621 00b2 93F902A0 		ldrsb	r10, [r3, #2]
 710:Generated_Source\PSoC5/USBFS_std.c ****                             
ARM GAS  C:\Users\rabbit\AppData\Local\Temp\cccb5bWv.s 			page 32


 622              		.loc 1 710 0
 623 00b6 DE78     		ldrb	r6, [r3, #3]	@ zero_extendqisi2
 712:Generated_Source\PSoC5/USBFS_std.c ****                             {
 624              		.loc 1 712 0
 625 00b8 BAF1000F 		cmp	r10, #0
 710:Generated_Source\PSoC5/USBFS_std.c ****                             
 626              		.loc 1 710 0
 627 00bc 06F00306 		and	r6, r6, #3
 628              	.LVL42:
 712:Generated_Source\PSoC5/USBFS_std.c ****                             {
 629              		.loc 1 712 0
 630 00c0 07DA     		bge	.L55
 715:Generated_Source\PSoC5/USBFS_std.c ****                                 USBFS_EP[i].apiEpState = USBFS_EVENT_PENDING;
 631              		.loc 1 715 0
 632 00c2 012E     		cmp	r6, #1
 633 00c4 0CBF     		ite	eq
 634 00c6 0726     		moveq	r6, #7
 635              	.LVL43:
 636 00c8 0D26     		movne	r6, #13
 637 00ca 4E71     		strb	r6, [r1, #5]
 638              	.LVL44:
 716:Generated_Source\PSoC5/USBFS_std.c ****                                 
 639              		.loc 1 716 0
 640 00cc 81F80180 		strb	r8, [r1, #1]
 641 00d0 06E0     		b	.L52
 642              	.LVL45:
 643              	.L55:
 728:Generated_Source\PSoC5/USBFS_std.c ****                                 USBFS_EP[i].apiEpState = USBFS_NO_EVENT_PENDING;
 644              		.loc 1 728 0
 645 00d2 012E     		cmp	r6, #1
 646 00d4 0CBF     		ite	eq
 647 00d6 0526     		moveq	r6, #5
 648              	.LVL46:
 649 00d8 0926     		movne	r6, #9
 650 00da 4E71     		strb	r6, [r1, #5]
 651              	.LVL47:
 729:Generated_Source\PSoC5/USBFS_std.c ****                                 
 652              		.loc 1 729 0
 653 00dc 81F801C0 		strb	ip, [r1, #1]
 654              	.L52:
 752:Generated_Source\PSoC5/USBFS_std.c ****                 }
 655              		.loc 1 752 0
 656 00e0 0833     		adds	r3, r3, #8
 657              	.LVL48:
 658 00e2 CBE7     		b	.L50
 659              	.L72:
 660              	.LVL49:
 661 00e4 0134     		adds	r4, r4, #1
 662              	.LVL50:
 687:Generated_Source\PSoC5/USBFS_std.c ****             {
 663              		.loc 1 687 0
 664 00e6 092C     		cmp	r4, #9
 665 00e8 C3D1     		bne	.L59
 762:Generated_Source\PSoC5/USBFS_std.c ****         for (i = 0u; i < ep; i++)
 666              		.loc 1 762 0
 667 00ea C168     		ldr	r1, [r0, #12]
 668              	.LVL51:
ARM GAS  C:\Users\rabbit\AppData\Local\Temp\cccb5bWv.s 			page 33


 669 00ec 0A32     		adds	r2, r2, #10
 670 00ee 8B1C     		adds	r3, r1, #2
 671 00f0 0A44     		add	r2, r2, r1
 766:Generated_Source\PSoC5/USBFS_std.c ****             pEP = &pEP[1u];
 672              		.loc 1 766 0
 673 00f2 0C20     		movs	r0, #12
 674              	.LVL52:
 675              	.L60:
 676 00f4 0833     		adds	r3, r3, #8
 677              	.LVL53:
 763:Generated_Source\PSoC5/USBFS_std.c ****         {
 678              		.loc 1 763 0
 679 00f6 9342     		cmp	r3, r2
 680 00f8 09D0     		beq	.L73
 766:Generated_Source\PSoC5/USBFS_std.c ****             pEP = &pEP[1u];
 681              		.loc 1 766 0
 682 00fa 13F8081C 		ldrb	r1, [r3, #-8]	@ zero_extendqisi2
 683 00fe 13F80A4C 		ldrb	r4, [r3, #-10]	@ zero_extendqisi2
 684 0102 01F07F01 		and	r1, r1, #127
 685 0106 00FB0151 		mla	r1, r0, r1, r5
 686 010a 8C72     		strb	r4, [r1, #10]
 687              	.LVL54:
 688 010c F2E7     		b	.L60
 689              	.LVL55:
 690              	.L73:
 771:Generated_Source\PSoC5/USBFS_std.c ****         
 691              		.loc 1 771 0
 692 010e FFF7FEFF 		bl	USBFS_GetInterfaceClassTablePtr
 693              	.LVL56:
 694 0112 0F4B     		ldr	r3, .L74+20
 695 0114 0122     		movs	r2, #1
 696 0116 1860     		str	r0, [r3]
 697              	.LVL57:
 775:Generated_Source\PSoC5/USBFS_std.c ****         for (ep = USBFS_EP1; ep < USBFS_MAX_EP; ++ep)
 698              		.loc 1 775 0
 699 0118 0023     		movs	r3, #0
 778:Generated_Source\PSoC5/USBFS_std.c ****             buffCount += USBFS_EP[ep].bufferSize;
 700              		.loc 1 778 0
 701 011a 0C20     		movs	r0, #12
 702              	.LVL58:
 703              	.L62:
 704 011c 00FB0251 		mla	r1, r0, r2, r5
 705 0120 CB80     		strh	r3, [r1, #6]	@ movhi
 779:Generated_Source\PSoC5/USBFS_std.c ****             
 706              		.loc 1 779 0
 707 0122 0989     		ldrh	r1, [r1, #8]
 708 0124 0132     		adds	r2, r2, #1
 709              	.LVL59:
 710 0126 0B44     		add	r3, r3, r1
 711              	.LVL60:
 776:Generated_Source\PSoC5/USBFS_std.c ****         {
 712              		.loc 1 776 0
 713 0128 092A     		cmp	r2, #9
 779:Generated_Source\PSoC5/USBFS_std.c ****             
 714              		.loc 1 779 0
 715 012a 9BB2     		uxth	r3, r3
 716              	.LVL61:
ARM GAS  C:\Users\rabbit\AppData\Local\Temp\cccb5bWv.s 			page 34


 776:Generated_Source\PSoC5/USBFS_std.c ****         {
 717              		.loc 1 776 0
 718 012c F6D1     		bne	.L62
 719              	.LBE11:
 720              	.LBE10:
 791:Generated_Source\PSoC5/USBFS_std.c **** 
 721              		.loc 1 791 0
 722 012e BDE8F84F 		pop	{r3, r4, r5, r6, r7, r8, r9, r10, fp, lr}
 723              		.cfi_remember_state
 724              		.cfi_restore 14
 725              		.cfi_restore 11
 726              		.cfi_restore 10
 727              		.cfi_restore 9
 728              		.cfi_restore 8
 729              		.cfi_restore 7
 730              		.cfi_restore 6
 731              		.cfi_restore 5
 732              		.cfi_restore 4
 733              		.cfi_restore 3
 734              		.cfi_def_cfa_offset 0
 735              	.LVL62:
 736              	.LBB13:
 737              	.LBB12:
 789:Generated_Source\PSoC5/USBFS_std.c ****     }
 738              		.loc 1 789 0
 739 0132 FFF7FEBF 		b	USBFS_ConfigReg
 740              	.LVL63:
 741              	.L44:
 742              		.cfi_restore_state
 743 0136 BDE8F88F 		pop	{r3, r4, r5, r6, r7, r8, r9, r10, fp, pc}
 744              	.L75:
 745 013a 00BF     		.align	2
 746              	.L74:
 747 013c 00000000 		.word	USBFS_EP
 748 0140 00000000 		.word	USBFS_interfaceSetting
 749 0144 00000000 		.word	USBFS_interfaceSettingLast
 750 0148 00000000 		.word	USBFS_configuration
 751 014c 00000000 		.word	USBFS_deviceStatus
 752 0150 00000000 		.word	USBFS_interfaceClass
 753              	.LBE12:
 754              	.LBE13:
 755              		.cfi_endproc
 756              	.LFE3:
 757              		.size	USBFS_Config, .-USBFS_Config
 758              		.section	.text.USBFS_TerminateEP,"ax",%progbits
 759              		.align	1
 760              		.global	USBFS_TerminateEP
 761              		.thumb
 762              		.thumb_func
 763              		.type	USBFS_TerminateEP, %function
 764              	USBFS_TerminateEP:
 765              	.LFB8:
1053:Generated_Source\PSoC5/USBFS_std.c **** 
1054:Generated_Source\PSoC5/USBFS_std.c **** 
1055:Generated_Source\PSoC5/USBFS_std.c **** /*******************************************************************************
1056:Generated_Source\PSoC5/USBFS_std.c **** * Function Name: USBFS_TerminateEP
1057:Generated_Source\PSoC5/USBFS_std.c **** ****************************************************************************//**
ARM GAS  C:\Users\rabbit\AppData\Local\Temp\cccb5bWv.s 			page 35


1058:Generated_Source\PSoC5/USBFS_std.c **** *
1059:Generated_Source\PSoC5/USBFS_std.c **** *  This function terminates the specified USBFS endpoint.
1060:Generated_Source\PSoC5/USBFS_std.c **** *  This function should be used before endpoint reconfiguration.
1061:Generated_Source\PSoC5/USBFS_std.c **** *
1062:Generated_Source\PSoC5/USBFS_std.c **** *  \param ep Contains the data endpoint number.
1063:Generated_Source\PSoC5/USBFS_std.c **** *
1064:Generated_Source\PSoC5/USBFS_std.c **** *  \reentrant
1065:Generated_Source\PSoC5/USBFS_std.c **** *  No.
1066:Generated_Source\PSoC5/USBFS_std.c **** *
1067:Generated_Source\PSoC5/USBFS_std.c **** * \sideeffect
1068:Generated_Source\PSoC5/USBFS_std.c **** * 
1069:Generated_Source\PSoC5/USBFS_std.c **** * The device responds with a NAK for any transactions on the selected endpoint.
1070:Generated_Source\PSoC5/USBFS_std.c **** *   
1071:Generated_Source\PSoC5/USBFS_std.c **** *******************************************************************************/
1072:Generated_Source\PSoC5/USBFS_std.c **** void USBFS_TerminateEP(uint8 epNumber) 
1073:Generated_Source\PSoC5/USBFS_std.c **** {
 766              		.loc 1 1073 0
 767              		.cfi_startproc
 768              		@ args = 0, pretend = 0, frame = 0
 769              		@ frame_needed = 0, uses_anonymous_args = 0
 770              		@ link register save eliminated.
 771              	.LVL64:
1074:Generated_Source\PSoC5/USBFS_std.c ****     /* Get endpoint number */
1075:Generated_Source\PSoC5/USBFS_std.c ****     epNumber &= USBFS_DIR_UNUSED;
 772              		.loc 1 1075 0
 773 0000 00F07F00 		and	r0, r0, #127
 774              	.LVL65:
1076:Generated_Source\PSoC5/USBFS_std.c **** 
1077:Generated_Source\PSoC5/USBFS_std.c ****     if ((epNumber > USBFS_EP0) && (epNumber < USBFS_MAX_EP))
 775              		.loc 1 1077 0
 776 0004 431E     		subs	r3, r0, #1
 777 0006 072B     		cmp	r3, #7
 778 0008 15D8     		bhi	.L76
1078:Generated_Source\PSoC5/USBFS_std.c ****     {
1079:Generated_Source\PSoC5/USBFS_std.c ****         /* Set the endpoint Halt */
1080:Generated_Source\PSoC5/USBFS_std.c ****         USBFS_EP[epNumber].hwEpState |= USBFS_ENDPOINT_STATUS_HALT;
 779              		.loc 1 1080 0
 780 000a 0B4B     		ldr	r3, .L79
 781 000c 0C21     		movs	r1, #12
 782 000e 01FB0033 		mla	r3, r1, r0, r3
 783 0012 9A78     		ldrb	r2, [r3, #2]	@ zero_extendqisi2
 784 0014 0001     		lsls	r0, r0, #4
 785              	.LVL66:
 786 0016 42F00102 		orr	r2, r2, #1
 787 001a 9A70     		strb	r2, [r3, #2]
1081:Generated_Source\PSoC5/USBFS_std.c **** 
1082:Generated_Source\PSoC5/USBFS_std.c ****         /* Clear the data toggle */
1083:Generated_Source\PSoC5/USBFS_std.c ****         USBFS_EP[epNumber].epToggle = 0u;
 788              		.loc 1 1083 0
 789 001c 0022     		movs	r2, #0
 790 001e DA70     		strb	r2, [r3, #3]
1084:Generated_Source\PSoC5/USBFS_std.c ****         USBFS_EP[epNumber].apiEpState = USBFS_NO_EVENT_ALLOWED;
 791              		.loc 1 1084 0
 792 0020 0222     		movs	r2, #2
 793 0022 5A70     		strb	r2, [r3, #1]
1085:Generated_Source\PSoC5/USBFS_std.c **** 
1086:Generated_Source\PSoC5/USBFS_std.c ****         if ((USBFS_EP[epNumber].addr & USBFS_DIR_IN) != 0u)
ARM GAS  C:\Users\rabbit\AppData\Local\Temp\cccb5bWv.s 			page 36


 794              		.loc 1 1086 0
 795 0024 1B79     		ldrb	r3, [r3, #4]	@ zero_extendqisi2
 796 0026 13F0800F 		tst	r3, #128
1087:Generated_Source\PSoC5/USBFS_std.c ****         {   
1088:Generated_Source\PSoC5/USBFS_std.c ****             /* IN Endpoint */
1089:Generated_Source\PSoC5/USBFS_std.c ****             USBFS_SIE_EP_BASE.sieEp[epNumber].epCr0 = USBFS_MODE_NAK_IN;
 797              		.loc 1 1089 0
 798 002a 044B     		ldr	r3, .L79+4
1086:Generated_Source\PSoC5/USBFS_std.c ****         {   
 799              		.loc 1 1086 0
 800 002c 01D0     		beq	.L78
 801              		.loc 1 1089 0
 802 002e 1954     		strb	r1, [r3, r0]
 803 0030 7047     		bx	lr
 804              	.L78:
1090:Generated_Source\PSoC5/USBFS_std.c ****         }
1091:Generated_Source\PSoC5/USBFS_std.c ****         else
1092:Generated_Source\PSoC5/USBFS_std.c ****         {
1093:Generated_Source\PSoC5/USBFS_std.c ****             /* OUT Endpoint */
1094:Generated_Source\PSoC5/USBFS_std.c ****             USBFS_SIE_EP_BASE.sieEp[epNumber].epCr0 = USBFS_MODE_NAK_OUT;
 805              		.loc 1 1094 0
 806 0032 0822     		movs	r2, #8
 807 0034 1A54     		strb	r2, [r3, r0]
 808              	.L76:
 809 0036 7047     		bx	lr
 810              	.L80:
 811              		.align	2
 812              	.L79:
 813 0038 00000000 		.word	USBFS_EP
 814 003c FE5F0040 		.word	1073766398
 815              		.cfi_endproc
 816              	.LFE8:
 817              		.size	USBFS_TerminateEP, .-USBFS_TerminateEP
 818              		.section	.text.USBFS_SetEndpointHalt,"ax",%progbits
 819              		.align	1
 820              		.global	USBFS_SetEndpointHalt
 821              		.thumb
 822              		.thumb_func
 823              		.type	USBFS_SetEndpointHalt, %function
 824              	USBFS_SetEndpointHalt:
 825              	.LFB9:
1095:Generated_Source\PSoC5/USBFS_std.c ****         }
1096:Generated_Source\PSoC5/USBFS_std.c ****     }
1097:Generated_Source\PSoC5/USBFS_std.c **** }
1098:Generated_Source\PSoC5/USBFS_std.c **** 
1099:Generated_Source\PSoC5/USBFS_std.c **** 
1100:Generated_Source\PSoC5/USBFS_std.c **** /*******************************************************************************
1101:Generated_Source\PSoC5/USBFS_std.c **** * Function Name: USBFS_SetEndpointHalt
1102:Generated_Source\PSoC5/USBFS_std.c **** ****************************************************************************//**
1103:Generated_Source\PSoC5/USBFS_std.c **** *
1104:Generated_Source\PSoC5/USBFS_std.c **** *  This routine handles set endpoint halt.
1105:Generated_Source\PSoC5/USBFS_std.c **** *
1106:Generated_Source\PSoC5/USBFS_std.c **** * \return
1107:Generated_Source\PSoC5/USBFS_std.c **** *  requestHandled.
1108:Generated_Source\PSoC5/USBFS_std.c **** *
1109:Generated_Source\PSoC5/USBFS_std.c **** * \reentrant
1110:Generated_Source\PSoC5/USBFS_std.c **** *  No.
ARM GAS  C:\Users\rabbit\AppData\Local\Temp\cccb5bWv.s 			page 37


1111:Generated_Source\PSoC5/USBFS_std.c **** *
1112:Generated_Source\PSoC5/USBFS_std.c **** *******************************************************************************/
1113:Generated_Source\PSoC5/USBFS_std.c **** uint8 USBFS_SetEndpointHalt(void) 
1114:Generated_Source\PSoC5/USBFS_std.c **** {
 826              		.loc 1 1114 0
 827              		.cfi_startproc
 828              		@ args = 0, pretend = 0, frame = 0
 829              		@ frame_needed = 0, uses_anonymous_args = 0
 830              		@ link register save eliminated.
 831              	.LVL67:
1115:Generated_Source\PSoC5/USBFS_std.c ****     uint8 requestHandled = USBFS_FALSE;
1116:Generated_Source\PSoC5/USBFS_std.c ****     uint8 ep;
1117:Generated_Source\PSoC5/USBFS_std.c ****     
1118:Generated_Source\PSoC5/USBFS_std.c ****     /* Set endpoint halt */
1119:Generated_Source\PSoC5/USBFS_std.c ****     ep = USBFS_wIndexLoReg & USBFS_DIR_UNUSED;
 832              		.loc 1 1119 0
 833 0000 114B     		ldr	r3, .L86
 834 0002 1B79     		ldrb	r3, [r3, #4]	@ zero_extendqisi2
 835 0004 03F07F03 		and	r3, r3, #127
 836              	.LVL68:
1120:Generated_Source\PSoC5/USBFS_std.c **** 
1121:Generated_Source\PSoC5/USBFS_std.c ****     if ((ep > USBFS_EP0) && (ep < USBFS_MAX_EP))
 837              		.loc 1 1121 0
 838 0008 5A1E     		subs	r2, r3, #1
 839 000a 072A     		cmp	r2, #7
 840 000c 19D8     		bhi	.L82
1122:Generated_Source\PSoC5/USBFS_std.c ****     {
1123:Generated_Source\PSoC5/USBFS_std.c ****         /* Set the endpoint Halt */
1124:Generated_Source\PSoC5/USBFS_std.c ****         USBFS_EP[ep].hwEpState |= (USBFS_ENDPOINT_STATUS_HALT);
 841              		.loc 1 1124 0
 842 000e 0F49     		ldr	r1, .L86+4
 843 0010 0C22     		movs	r2, #12
 844 0012 02FB0312 		mla	r2, r2, r3, r1
 845 0016 9178     		ldrb	r1, [r2, #2]	@ zero_extendqisi2
 846 0018 1B01     		lsls	r3, r3, #4
 847              	.LVL69:
 848 001a 41F00101 		orr	r1, r1, #1
 849 001e 9170     		strb	r1, [r2, #2]
1125:Generated_Source\PSoC5/USBFS_std.c **** 
1126:Generated_Source\PSoC5/USBFS_std.c ****         /* Clear the data toggle */
1127:Generated_Source\PSoC5/USBFS_std.c ****         USBFS_EP[ep].epToggle = 0u;
 850              		.loc 1 1127 0
 851 0020 0021     		movs	r1, #0
 852 0022 D170     		strb	r1, [r2, #3]
1128:Generated_Source\PSoC5/USBFS_std.c ****         USBFS_EP[ep].apiEpState |= USBFS_NO_EVENT_ALLOWED;
 853              		.loc 1 1128 0
 854 0024 5178     		ldrb	r1, [r2, #1]	@ zero_extendqisi2
 855 0026 41F00201 		orr	r1, r1, #2
 856 002a 5170     		strb	r1, [r2, #1]
1129:Generated_Source\PSoC5/USBFS_std.c **** 
1130:Generated_Source\PSoC5/USBFS_std.c ****         if ((USBFS_EP[ep].addr & USBFS_DIR_IN) != 0u)
 857              		.loc 1 1130 0
 858 002c 1279     		ldrb	r2, [r2, #4]	@ zero_extendqisi2
 859 002e 12F0800F 		tst	r2, #128
1131:Generated_Source\PSoC5/USBFS_std.c ****         {
1132:Generated_Source\PSoC5/USBFS_std.c ****             /* IN Endpoint */
1133:Generated_Source\PSoC5/USBFS_std.c ****             USBFS_SIE_EP_BASE.sieEp[ep].epCr0 = (USBFS_MODE_STALL_DATA_EP | 
ARM GAS  C:\Users\rabbit\AppData\Local\Temp\cccb5bWv.s 			page 38


 860              		.loc 1 1133 0
 861 0032 074A     		ldr	r2, .L86+8
 862 0034 1A44     		add	r2, r2, r3
 863 0036 14BF     		ite	ne
 864 0038 8D23     		movne	r3, #141
1134:Generated_Source\PSoC5/USBFS_std.c ****                                                             USBFS_MODE_ACK_IN);
1135:Generated_Source\PSoC5/USBFS_std.c ****         }
1136:Generated_Source\PSoC5/USBFS_std.c ****         else
1137:Generated_Source\PSoC5/USBFS_std.c ****         {
1138:Generated_Source\PSoC5/USBFS_std.c ****             /* OUT Endpoint */
1139:Generated_Source\PSoC5/USBFS_std.c ****             USBFS_SIE_EP_BASE.sieEp[ep].epCr0 = (USBFS_MODE_STALL_DATA_EP | 
 865              		.loc 1 1139 0
 866 003a 8923     		moveq	r3, #137
 867 003c 9370     		strb	r3, [r2, #2]
1140:Generated_Source\PSoC5/USBFS_std.c ****                                                             USBFS_MODE_ACK_OUT);
1141:Generated_Source\PSoC5/USBFS_std.c ****         }
1142:Generated_Source\PSoC5/USBFS_std.c ****         requestHandled = USBFS_InitNoDataControlTransfer();
 868              		.loc 1 1142 0
 869 003e FFF7FEBF 		b	USBFS_InitNoDataControlTransfer
 870              	.LVL70:
 871              	.L82:
1143:Generated_Source\PSoC5/USBFS_std.c ****     }
1144:Generated_Source\PSoC5/USBFS_std.c **** 
1145:Generated_Source\PSoC5/USBFS_std.c ****     return (requestHandled);
1146:Generated_Source\PSoC5/USBFS_std.c **** }
 872              		.loc 1 1146 0
 873 0042 0020     		movs	r0, #0
 874 0044 7047     		bx	lr
 875              	.L87:
 876 0046 00BF     		.align	2
 877              	.L86:
 878 0048 00600040 		.word	1073766400
 879 004c 00000000 		.word	USBFS_EP
 880 0050 FC5F0040 		.word	1073766396
 881              		.cfi_endproc
 882              	.LFE9:
 883              		.size	USBFS_SetEndpointHalt, .-USBFS_SetEndpointHalt
 884              		.section	.text.USBFS_ClearEndpointHalt,"ax",%progbits
 885              		.align	1
 886              		.global	USBFS_ClearEndpointHalt
 887              		.thumb
 888              		.thumb_func
 889              		.type	USBFS_ClearEndpointHalt, %function
 890              	USBFS_ClearEndpointHalt:
 891              	.LFB10:
1147:Generated_Source\PSoC5/USBFS_std.c **** 
1148:Generated_Source\PSoC5/USBFS_std.c **** 
1149:Generated_Source\PSoC5/USBFS_std.c **** /*******************************************************************************
1150:Generated_Source\PSoC5/USBFS_std.c **** * Function Name: USBFS_ClearEndpointHalt
1151:Generated_Source\PSoC5/USBFS_std.c **** ****************************************************************************//**
1152:Generated_Source\PSoC5/USBFS_std.c **** *
1153:Generated_Source\PSoC5/USBFS_std.c **** *  This routine handles clear endpoint halt.
1154:Generated_Source\PSoC5/USBFS_std.c **** *
1155:Generated_Source\PSoC5/USBFS_std.c **** * \return
1156:Generated_Source\PSoC5/USBFS_std.c **** *  requestHandled.
1157:Generated_Source\PSoC5/USBFS_std.c **** *
1158:Generated_Source\PSoC5/USBFS_std.c **** * \reentrant
ARM GAS  C:\Users\rabbit\AppData\Local\Temp\cccb5bWv.s 			page 39


1159:Generated_Source\PSoC5/USBFS_std.c **** *  No.
1160:Generated_Source\PSoC5/USBFS_std.c **** *
1161:Generated_Source\PSoC5/USBFS_std.c **** *******************************************************************************/
1162:Generated_Source\PSoC5/USBFS_std.c **** uint8 USBFS_ClearEndpointHalt(void) 
1163:Generated_Source\PSoC5/USBFS_std.c **** {
 892              		.loc 1 1163 0
 893              		.cfi_startproc
 894              		@ args = 0, pretend = 0, frame = 0
 895              		@ frame_needed = 0, uses_anonymous_args = 0
 896              		@ link register save eliminated.
 897              	.LVL71:
 898 0000 30B4     		push	{r4, r5}
 899              		.cfi_def_cfa_offset 8
 900              		.cfi_offset 4, -8
 901              		.cfi_offset 5, -4
1164:Generated_Source\PSoC5/USBFS_std.c ****     uint8 requestHandled = USBFS_FALSE;
1165:Generated_Source\PSoC5/USBFS_std.c ****     uint8 ep;
1166:Generated_Source\PSoC5/USBFS_std.c **** 
1167:Generated_Source\PSoC5/USBFS_std.c ****     /* Clear endpoint halt */
1168:Generated_Source\PSoC5/USBFS_std.c ****     ep = USBFS_wIndexLoReg & USBFS_DIR_UNUSED;
 902              		.loc 1 1168 0
 903 0002 194B     		ldr	r3, .L95
 904 0004 1A79     		ldrb	r2, [r3, #4]	@ zero_extendqisi2
 905 0006 02F07F02 		and	r2, r2, #127
 906              	.LVL72:
1169:Generated_Source\PSoC5/USBFS_std.c **** 
1170:Generated_Source\PSoC5/USBFS_std.c ****     if ((ep > USBFS_EP0) && (ep < USBFS_MAX_EP))
 907              		.loc 1 1170 0
 908 000a 531E     		subs	r3, r2, #1
 909 000c 072B     		cmp	r3, #7
 910 000e 27D8     		bhi	.L89
1171:Generated_Source\PSoC5/USBFS_std.c ****     {
1172:Generated_Source\PSoC5/USBFS_std.c ****         /* Clear the endpoint Halt */
1173:Generated_Source\PSoC5/USBFS_std.c ****         USBFS_EP[ep].hwEpState &= (uint8) ~USBFS_ENDPOINT_STATUS_HALT;
 911              		.loc 1 1173 0
 912 0010 164B     		ldr	r3, .L95+4
 913 0012 0C24     		movs	r4, #12
 914 0014 04FB0233 		mla	r3, r4, r2, r3
 915 0018 9978     		ldrb	r1, [r3, #2]	@ zero_extendqisi2
 916 001a 154D     		ldr	r5, .L95+8
 917 001c 01F0FE01 		and	r1, r1, #254
 918 0020 9970     		strb	r1, [r3, #2]
1174:Generated_Source\PSoC5/USBFS_std.c **** 
1175:Generated_Source\PSoC5/USBFS_std.c ****         /* Clear the data toggle */
1176:Generated_Source\PSoC5/USBFS_std.c ****         USBFS_EP[ep].epToggle = 0u;
 919              		.loc 1 1176 0
 920 0022 0021     		movs	r1, #0
 921 0024 D970     		strb	r1, [r3, #3]
 922 0026 2946     		mov	r1, r5
 923 0028 1201     		lsls	r2, r2, #4
 924              	.LVL73:
1177:Generated_Source\PSoC5/USBFS_std.c ****         
1178:Generated_Source\PSoC5/USBFS_std.c ****         /* Clear toggle bit for already armed packet */
1179:Generated_Source\PSoC5/USBFS_std.c ****         USBFS_SIE_EP_BASE.sieEp[ep].epCnt0 &= (uint8) ~(uint8)USBFS_EPX_CNT_DATA_TOGGLE;
 925              		.loc 1 1179 0
 926 002a 505D     		ldrb	r0, [r2, r5]	@ zero_extendqisi2
 927 002c 1144     		add	r1, r1, r2
ARM GAS  C:\Users\rabbit\AppData\Local\Temp\cccb5bWv.s 			page 40


 928 002e 00F07F00 		and	r0, r0, #127
 929 0032 5055     		strb	r0, [r2, r5]
1180:Generated_Source\PSoC5/USBFS_std.c ****         
1181:Generated_Source\PSoC5/USBFS_std.c ****         /* Return API State as it was defined before */
1182:Generated_Source\PSoC5/USBFS_std.c ****         USBFS_EP[ep].apiEpState &= (uint8) ~USBFS_NO_EVENT_ALLOWED;
 930              		.loc 1 1182 0
 931 0034 5A78     		ldrb	r2, [r3, #1]	@ zero_extendqisi2
 932 0036 02F0FD02 		and	r2, r2, #253
 933 003a 5A70     		strb	r2, [r3, #1]
1183:Generated_Source\PSoC5/USBFS_std.c **** 
1184:Generated_Source\PSoC5/USBFS_std.c ****         if ((USBFS_EP[ep].addr & USBFS_DIR_IN) != 0u)
 934              		.loc 1 1184 0
 935 003c 1A79     		ldrb	r2, [r3, #4]	@ zero_extendqisi2
1185:Generated_Source\PSoC5/USBFS_std.c ****         {
1186:Generated_Source\PSoC5/USBFS_std.c ****             /* IN Endpoint */
1187:Generated_Source\PSoC5/USBFS_std.c ****             if(USBFS_EP[ep].apiEpState == USBFS_IN_BUFFER_EMPTY)
 936              		.loc 1 1187 0
 937 003e 5B78     		ldrb	r3, [r3, #1]	@ zero_extendqisi2
1184:Generated_Source\PSoC5/USBFS_std.c ****         {
 938              		.loc 1 1184 0
 939 0040 1206     		lsls	r2, r2, #24
 940 0042 05D5     		bpl	.L90
 941              		.loc 1 1187 0
 942 0044 012B     		cmp	r3, #1
 943 0046 01D1     		bne	.L91
1188:Generated_Source\PSoC5/USBFS_std.c ****             {       
1189:Generated_Source\PSoC5/USBFS_std.c ****                 /* Wait for next packet from application */
1190:Generated_Source\PSoC5/USBFS_std.c ****                 USBFS_SIE_EP_BASE.sieEp[ep].epCr0 = USBFS_MODE_NAK_IN;
 944              		.loc 1 1190 0
 945 0048 8C70     		strb	r4, [r1, #2]
 946 004a 06E0     		b	.L92
 947              	.L91:
1191:Generated_Source\PSoC5/USBFS_std.c ****             }
1192:Generated_Source\PSoC5/USBFS_std.c ****             else    /* Continue armed transfer */
1193:Generated_Source\PSoC5/USBFS_std.c ****             {
1194:Generated_Source\PSoC5/USBFS_std.c ****                 USBFS_SIE_EP_BASE.sieEp[ep].epCr0 = USBFS_MODE_ACK_IN;
 948              		.loc 1 1194 0
 949 004c 0D23     		movs	r3, #13
 950 004e 03E0     		b	.L94
 951              	.L90:
1195:Generated_Source\PSoC5/USBFS_std.c ****             }
1196:Generated_Source\PSoC5/USBFS_std.c ****         }
1197:Generated_Source\PSoC5/USBFS_std.c ****         else
1198:Generated_Source\PSoC5/USBFS_std.c ****         {
1199:Generated_Source\PSoC5/USBFS_std.c ****             /* OUT Endpoint */
1200:Generated_Source\PSoC5/USBFS_std.c ****             if (USBFS_EP[ep].apiEpState == USBFS_OUT_BUFFER_FULL)
 952              		.loc 1 1200 0
 953 0050 012B     		cmp	r3, #1
1201:Generated_Source\PSoC5/USBFS_std.c ****             {       
1202:Generated_Source\PSoC5/USBFS_std.c ****                 /* Allow application to read full buffer */
1203:Generated_Source\PSoC5/USBFS_std.c ****                 USBFS_SIE_EP_BASE.sieEp[ep].epCr0 = USBFS_MODE_NAK_OUT;
 954              		.loc 1 1203 0
 955 0052 0CBF     		ite	eq
 956 0054 0823     		moveq	r3, #8
1204:Generated_Source\PSoC5/USBFS_std.c ****             }
1205:Generated_Source\PSoC5/USBFS_std.c ****             else    /* Mark endpoint as empty, so it will be reloaded */
1206:Generated_Source\PSoC5/USBFS_std.c ****             {
ARM GAS  C:\Users\rabbit\AppData\Local\Temp\cccb5bWv.s 			page 41


1207:Generated_Source\PSoC5/USBFS_std.c ****                 USBFS_SIE_EP_BASE.sieEp[ep].epCr0 = USBFS_MODE_ACK_OUT;
 957              		.loc 1 1207 0
 958 0056 0923     		movne	r3, #9
 959              	.L94:
 960 0058 8B70     		strb	r3, [r1, #2]
 961              	.L92:
1208:Generated_Source\PSoC5/USBFS_std.c ****             }
1209:Generated_Source\PSoC5/USBFS_std.c ****         }
1210:Generated_Source\PSoC5/USBFS_std.c ****         
1211:Generated_Source\PSoC5/USBFS_std.c ****         requestHandled = USBFS_InitNoDataControlTransfer();
1212:Generated_Source\PSoC5/USBFS_std.c ****     }
1213:Generated_Source\PSoC5/USBFS_std.c **** 
1214:Generated_Source\PSoC5/USBFS_std.c ****     return(requestHandled);
1215:Generated_Source\PSoC5/USBFS_std.c **** }
 962              		.loc 1 1215 0
 963 005a 30BC     		pop	{r4, r5}
 964              		.cfi_remember_state
 965              		.cfi_restore 5
 966              		.cfi_restore 4
 967              		.cfi_def_cfa_offset 0
1211:Generated_Source\PSoC5/USBFS_std.c ****     }
 968              		.loc 1 1211 0
 969 005c FFF7FEBF 		b	USBFS_InitNoDataControlTransfer
 970              	.LVL74:
 971              	.L89:
 972              		.cfi_restore_state
 973              		.loc 1 1215 0
 974 0060 0020     		movs	r0, #0
 975 0062 30BC     		pop	{r4, r5}
 976              		.cfi_restore 5
 977              		.cfi_restore 4
 978              		.cfi_def_cfa_offset 0
 979 0064 7047     		bx	lr
 980              	.L96:
 981 0066 00BF     		.align	2
 982              	.L95:
 983 0068 00600040 		.word	1073766400
 984 006c 00000000 		.word	USBFS_EP
 985 0070 FC5F0040 		.word	1073766396
 986              		.cfi_endproc
 987              	.LFE10:
 988              		.size	USBFS_ClearEndpointHalt, .-USBFS_ClearEndpointHalt
 989              		.section	.text.USBFS_ValidateAlternateSetting,"ax",%progbits
 990              		.align	1
 991              		.global	USBFS_ValidateAlternateSetting
 992              		.thumb
 993              		.thumb_func
 994              		.type	USBFS_ValidateAlternateSetting, %function
 995              	USBFS_ValidateAlternateSetting:
 996              	.LFB11:
1216:Generated_Source\PSoC5/USBFS_std.c **** 
1217:Generated_Source\PSoC5/USBFS_std.c **** 
1218:Generated_Source\PSoC5/USBFS_std.c **** /*******************************************************************************
1219:Generated_Source\PSoC5/USBFS_std.c **** * Function Name: USBFS_ValidateAlternateSetting
1220:Generated_Source\PSoC5/USBFS_std.c **** ****************************************************************************//**
1221:Generated_Source\PSoC5/USBFS_std.c **** *
1222:Generated_Source\PSoC5/USBFS_std.c **** *  Validates (and records) a SET INTERFACE request.
ARM GAS  C:\Users\rabbit\AppData\Local\Temp\cccb5bWv.s 			page 42


1223:Generated_Source\PSoC5/USBFS_std.c **** *
1224:Generated_Source\PSoC5/USBFS_std.c **** * \return
1225:Generated_Source\PSoC5/USBFS_std.c **** *  requestHandled.
1226:Generated_Source\PSoC5/USBFS_std.c **** *
1227:Generated_Source\PSoC5/USBFS_std.c **** * \reentrant
1228:Generated_Source\PSoC5/USBFS_std.c **** *  No.
1229:Generated_Source\PSoC5/USBFS_std.c **** *
1230:Generated_Source\PSoC5/USBFS_std.c **** *******************************************************************************/
1231:Generated_Source\PSoC5/USBFS_std.c **** uint8 USBFS_ValidateAlternateSetting(void) 
1232:Generated_Source\PSoC5/USBFS_std.c **** {
 997              		.loc 1 1232 0
 998              		.cfi_startproc
 999              		@ args = 0, pretend = 0, frame = 0
 1000              		@ frame_needed = 0, uses_anonymous_args = 0
 1001              	.LVL75:
 1002 0000 10B5     		push	{r4, lr}
 1003              		.cfi_def_cfa_offset 8
 1004              		.cfi_offset 4, -8
 1005              		.cfi_offset 14, -4
1233:Generated_Source\PSoC5/USBFS_std.c ****     uint8 requestHandled = USBFS_FALSE;
1234:Generated_Source\PSoC5/USBFS_std.c ****     
1235:Generated_Source\PSoC5/USBFS_std.c ****     uint8 interfaceNum;
1236:Generated_Source\PSoC5/USBFS_std.c ****     uint8 curInterfacesNum;
1237:Generated_Source\PSoC5/USBFS_std.c ****     const T_USBFS_LUT CYCODE *pTmp;
1238:Generated_Source\PSoC5/USBFS_std.c ****     
1239:Generated_Source\PSoC5/USBFS_std.c ****     /* Get interface number from the request. */
1240:Generated_Source\PSoC5/USBFS_std.c ****     interfaceNum = (uint8) USBFS_wIndexLoReg;
1241:Generated_Source\PSoC5/USBFS_std.c ****     
1242:Generated_Source\PSoC5/USBFS_std.c ****     /* Get number of interfaces for current configuration. */
1243:Generated_Source\PSoC5/USBFS_std.c ****     pTmp = USBFS_GetConfigTablePtr(USBFS_configuration - 1u);
 1006              		.loc 1 1243 0
 1007 0002 0D4B     		ldr	r3, .L101
1240:Generated_Source\PSoC5/USBFS_std.c ****     
 1008              		.loc 1 1240 0
 1009 0004 0D4C     		ldr	r4, .L101+4
 1010 0006 2179     		ldrb	r1, [r4, #4]	@ zero_extendqisi2
 1011              		.loc 1 1243 0
 1012 0008 1878     		ldrb	r0, [r3]	@ zero_extendqisi2
1240:Generated_Source\PSoC5/USBFS_std.c ****     
 1013              		.loc 1 1240 0
 1014 000a C9B2     		uxtb	r1, r1
 1015              	.LVL76:
 1016              		.loc 1 1243 0
 1017 000c 0138     		subs	r0, r0, #1
 1018 000e C0B2     		uxtb	r0, r0
 1019 0010 FFF7FEFF 		bl	USBFS_GetConfigTablePtr
 1020              	.LVL77:
1244:Generated_Source\PSoC5/USBFS_std.c ****     curInterfacesNum  = ((const uint8 *) pTmp->p_list)[USBFS_CONFIG_DESCR_NUM_INTERFACES];
 1021              		.loc 1 1244 0
 1022 0014 4368     		ldr	r3, [r0, #4]
1245:Generated_Source\PSoC5/USBFS_std.c **** 
1246:Generated_Source\PSoC5/USBFS_std.c ****     /* Validate that interface number is within range. */
1247:Generated_Source\PSoC5/USBFS_std.c ****     if ((interfaceNum <= curInterfacesNum) || (interfaceNum <= USBFS_MAX_INTERFACES_NUMBER))
 1023              		.loc 1 1247 0
 1024 0016 1B79     		ldrb	r3, [r3, #4]	@ zero_extendqisi2
 1025 0018 8B42     		cmp	r3, r1
 1026 001a 01D2     		bcs	.L98
ARM GAS  C:\Users\rabbit\AppData\Local\Temp\cccb5bWv.s 			page 43


 1027              		.loc 1 1247 0 is_stmt 0 discriminator 1
 1028 001c 0129     		cmp	r1, #1
 1029 001e 09D8     		bhi	.L100
 1030              	.L98:
1248:Generated_Source\PSoC5/USBFS_std.c ****     {
1249:Generated_Source\PSoC5/USBFS_std.c ****         /* Save current and new alternate settings (come with request) to make 
1250:Generated_Source\PSoC5/USBFS_std.c ****         * desicion about following endpoint re-configuration.
1251:Generated_Source\PSoC5/USBFS_std.c ****         */
1252:Generated_Source\PSoC5/USBFS_std.c ****         USBFS_interfaceSettingLast[interfaceNum] = USBFS_interfaceSetting[interfaceNum];
 1031              		.loc 1 1252 0 is_stmt 1
 1032 0020 074A     		ldr	r2, .L101+8
 1033 0022 0848     		ldr	r0, .L101+12
 1034              	.LVL78:
 1035 0024 535C     		ldrb	r3, [r2, r1]	@ zero_extendqisi2
 1036              	.LVL79:
 1037 0026 DBB2     		uxtb	r3, r3
 1038 0028 4354     		strb	r3, [r0, r1]
1253:Generated_Source\PSoC5/USBFS_std.c ****         USBFS_interfaceSetting[interfaceNum]     = (uint8) USBFS_wValueLoReg;
 1039              		.loc 1 1253 0
 1040 002a A378     		ldrb	r3, [r4, #2]	@ zero_extendqisi2
1254:Generated_Source\PSoC5/USBFS_std.c ****         
1255:Generated_Source\PSoC5/USBFS_std.c ****         requestHandled = USBFS_TRUE;
 1041              		.loc 1 1255 0
 1042 002c 0120     		movs	r0, #1
1253:Generated_Source\PSoC5/USBFS_std.c ****         USBFS_interfaceSetting[interfaceNum]     = (uint8) USBFS_wValueLoReg;
 1043              		.loc 1 1253 0
 1044 002e DBB2     		uxtb	r3, r3
 1045 0030 5354     		strb	r3, [r2, r1]
 1046              	.LVL80:
 1047 0032 10BD     		pop	{r4, pc}
 1048              	.LVL81:
 1049              	.L100:
1233:Generated_Source\PSoC5/USBFS_std.c ****     
 1050              		.loc 1 1233 0
 1051 0034 0020     		movs	r0, #0
 1052              	.LVL82:
1256:Generated_Source\PSoC5/USBFS_std.c ****     }
1257:Generated_Source\PSoC5/USBFS_std.c **** 
1258:Generated_Source\PSoC5/USBFS_std.c ****     return (requestHandled);
1259:Generated_Source\PSoC5/USBFS_std.c **** }
 1053              		.loc 1 1259 0
 1054 0036 10BD     		pop	{r4, pc}
 1055              	.L102:
 1056              		.align	2
 1057              	.L101:
 1058 0038 00000000 		.word	USBFS_configuration
 1059 003c 00600040 		.word	1073766400
 1060 0040 00000000 		.word	USBFS_interfaceSetting
 1061 0044 00000000 		.word	USBFS_interfaceSettingLast
 1062              		.cfi_endproc
 1063              	.LFE11:
 1064              		.size	USBFS_ValidateAlternateSetting, .-USBFS_ValidateAlternateSetting
 1065              		.section	.text.USBFS_HandleStandardRqst,"ax",%progbits
 1066              		.align	1
 1067              		.global	USBFS_HandleStandardRqst
 1068              		.thumb
 1069              		.thumb_func
ARM GAS  C:\Users\rabbit\AppData\Local\Temp\cccb5bWv.s 			page 44


 1070              		.type	USBFS_HandleStandardRqst, %function
 1071              	USBFS_HandleStandardRqst:
 1072              	.LFB0:
  85:Generated_Source\PSoC5/USBFS_std.c ****     uint8 requestHandled = USBFS_FALSE;
 1073              		.loc 1 85 0
 1074              		.cfi_startproc
 1075              		@ args = 0, pretend = 0, frame = 0
 1076              		@ frame_needed = 0, uses_anonymous_args = 0
 1077              	.LVL83:
 1078 0000 38B5     		push	{r3, r4, r5, lr}
 1079              		.cfi_def_cfa_offset 16
 1080              		.cfi_offset 3, -16
 1081              		.cfi_offset 4, -12
 1082              		.cfi_offset 5, -8
 1083              		.cfi_offset 14, -4
  89:Generated_Source\PSoC5/USBFS_std.c **** 
 1084              		.loc 1 89 0
 1085 0002 874A     		ldr	r2, .L159
 102:Generated_Source\PSoC5/USBFS_std.c **** 
 1086              		.loc 1 102 0
 1087 0004 8749     		ldr	r1, .L159+4
  89:Generated_Source\PSoC5/USBFS_std.c **** 
 1088              		.loc 1 89 0
 1089 0006 1378     		ldrb	r3, [r2]	@ zero_extendqisi2
 102:Generated_Source\PSoC5/USBFS_std.c **** 
 1090              		.loc 1 102 0
 1091 0008 0020     		movs	r0, #0
  89:Generated_Source\PSoC5/USBFS_std.c **** 
 1092              		.loc 1 89 0
 1093 000a DBB2     		uxtb	r3, r3
 1094              	.LVL84:
 102:Generated_Source\PSoC5/USBFS_std.c **** 
 1095              		.loc 1 102 0
 1096 000c 0880     		strh	r0, [r1]	@ movhi
 104:Generated_Source\PSoC5/USBFS_std.c ****     {
 1097              		.loc 1 104 0
 1098 000e 1806     		lsls	r0, r3, #24
 1099 0010 40F18780 		bpl	.L104
 107:Generated_Source\PSoC5/USBFS_std.c ****         {
 1100              		.loc 1 107 0
 1101 0014 5078     		ldrb	r0, [r2, #1]	@ zero_extendqisi2
 1102 0016 0A28     		cmp	r0, #10
 1103 0018 00F2FF80 		bhi	.L105
 1104 001c DFE810F0 		tbh	[pc, r0, lsl #1]
 1105              	.L107:
 1106 0020 5600     		.2byte	(.L106-.L107)/2
 1107 0022 FD00     		.2byte	(.L105-.L107)/2
 1108 0024 FD00     		.2byte	(.L105-.L107)/2
 1109 0026 FD00     		.2byte	(.L105-.L107)/2
 1110 0028 FD00     		.2byte	(.L105-.L107)/2
 1111 002a FD00     		.2byte	(.L105-.L107)/2
 1112 002c 0B00     		.2byte	(.L108-.L107)/2
 1113 002e FD00     		.2byte	(.L105-.L107)/2
 1114 0030 7700     		.2byte	(.L109-.L107)/2
 1115 0032 FD00     		.2byte	(.L105-.L107)/2
 1116 0034 7B00     		.2byte	(.L110-.L107)/2
 1117              		.p2align 1
ARM GAS  C:\Users\rabbit\AppData\Local\Temp\cccb5bWv.s 			page 45


 1118              	.L108:
 110:Generated_Source\PSoC5/USBFS_std.c ****                 {
 1119              		.loc 1 110 0
 1120 0036 D378     		ldrb	r3, [r2, #3]	@ zero_extendqisi2
 1121              	.LVL85:
 1122 0038 7948     		ldr	r0, .L159
 1123 003a 012B     		cmp	r3, #1
 1124 003c 09D1     		bne	.L111
 1125              	.LBB14:
 1126              	.LBB15:
1015:Generated_Source\PSoC5/USBFS_std.c **** }
 1127              		.loc 1 1015 0
 1128 003e 7A4B     		ldr	r3, .L159+8
 1129 0040 1A78     		ldrb	r2, [r3]	@ zero_extendqisi2
 1130 0042 7A4B     		ldr	r3, .L159+12
 1131 0044 03EBC203 		add	r3, r3, r2, lsl #3
 1132              	.LBE15:
 1133              	.LBE14:
 113:Generated_Source\PSoC5/USBFS_std.c ****                     USBFS_currentTD.count = USBFS_DEVICE_DESCR_LENGTH;
 1134              		.loc 1 113 0
 1135 0048 5B68     		ldr	r3, [r3, #4]
 1136 004a 5B68     		ldr	r3, [r3, #4]
 1137 004c 4B60     		str	r3, [r1, #4]
 114:Generated_Source\PSoC5/USBFS_std.c ****                     
 1138              		.loc 1 114 0
 1139 004e 1223     		movs	r3, #18
 1140 0050 10E0     		b	.L152
 1141              	.L111:
 118:Generated_Source\PSoC5/USBFS_std.c ****                 {
 1142              		.loc 1 118 0
 1143 0052 C378     		ldrb	r3, [r0, #3]	@ zero_extendqisi2
 1144 0054 022B     		cmp	r3, #2
 1145 0056 12D1     		bne	.L112
 120:Generated_Source\PSoC5/USBFS_std.c ****                     
 1146              		.loc 1 120 0
 1147 0058 8078     		ldrb	r0, [r0, #2]	@ zero_extendqisi2
 1148 005a FFF7FEFF 		bl	USBFS_GetConfigTablePtr
 1149              	.LVL86:
 123:Generated_Source\PSoC5/USBFS_std.c ****                     {
 1150              		.loc 1 123 0
 1151 005e 0028     		cmp	r0, #0
 1152 0060 00F0DB80 		beq	.L105
 125:Generated_Source\PSoC5/USBFS_std.c ****                         USBFS_currentTD.count = (uint16)((uint16)(USBFS_currentTD.pData)[USBFS_CONF
 1153              		.loc 1 125 0
 1154 0064 4368     		ldr	r3, [r0, #4]
 1155 0066 4B60     		str	r3, [r1, #4]
 126:Generated_Source\PSoC5/USBFS_std.c ****                                                                             (USBFS_currentTD.pData)
 1156              		.loc 1 126 0
 1157 0068 4B68     		ldr	r3, [r1, #4]
 1158 006a DA78     		ldrb	r2, [r3, #3]	@ zero_extendqisi2
 127:Generated_Source\PSoC5/USBFS_std.c ****                         requestHandled  = USBFS_InitControlRead();
 1159              		.loc 1 127 0
 1160 006c 4B68     		ldr	r3, [r1, #4]
 1161 006e 9B78     		ldrb	r3, [r3, #2]	@ zero_extendqisi2
 126:Generated_Source\PSoC5/USBFS_std.c ****                                                                             (USBFS_currentTD.pData)
 1162              		.loc 1 126 0
 1163 0070 43EA0223 		orr	r3, r3, r2, lsl #8
ARM GAS  C:\Users\rabbit\AppData\Local\Temp\cccb5bWv.s 			page 46


 1164              	.LVL87:
 1165              	.L152:
 1166 0074 0B80     		strh	r3, [r1]	@ movhi
 1167              	.LVL88:
 1168              	.L153:
 380:Generated_Source\PSoC5/USBFS_std.c **** 
 1169              		.loc 1 380 0
 1170 0076 BDE83840 		pop	{r3, r4, r5, lr}
 1171              		.cfi_remember_state
 1172              		.cfi_restore 14
 1173              		.cfi_restore 5
 1174              		.cfi_restore 4
 1175              		.cfi_restore 3
 1176              		.cfi_def_cfa_offset 0
 128:Generated_Source\PSoC5/USBFS_std.c ****                     }
 1177              		.loc 1 128 0
 1178 007a FFF7FEBF 		b	USBFS_InitControlRead
 1179              	.LVL89:
 1180              	.L112:
 1181              		.cfi_restore_state
 149:Generated_Source\PSoC5/USBFS_std.c ****                 {
 1182              		.loc 1 149 0
 1183 007e C378     		ldrb	r3, [r0, #3]	@ zero_extendqisi2
 1184 0080 032B     		cmp	r3, #3
 1185 0082 1FD1     		bne	.L114
 1186 0084 6A4B     		ldr	r3, .L159+16
 1187 0086 0022     		movs	r2, #0
 1188              	.LVL90:
 1189              	.L115:
 156:Generated_Source\PSoC5/USBFS_std.c ****                     {
 1190              		.loc 1 156 0
 1191 0088 8478     		ldrb	r4, [r0, #2]	@ zero_extendqisi2
 1192 008a D5B2     		uxtb	r5, r2
 1193 008c A542     		cmp	r5, r4
 1194 008e 0BD3     		bcc	.L116
 1195              	.LVL91:
 1196              	.L120:
 176:Generated_Source\PSoC5/USBFS_std.c ****                         (USBFS_wValueLoReg == USBFS_DEVICE0_DESCR[USBFS_DEVICE_DESCR_SN_SHIFT]))
 1197              		.loc 1 176 0
 1198 0090 634A     		ldr	r2, .L159
 1199 0092 9278     		ldrb	r2, [r2, #2]	@ zero_extendqisi2
 1200 0094 7AB1     		cbz	r2, .L118
 177:Generated_Source\PSoC5/USBFS_std.c ****                     {
 1201              		.loc 1 177 0 discriminator 1
 1202 0096 624A     		ldr	r2, .L159
 194:Generated_Source\PSoC5/USBFS_std.c ****                     #endif  /* (USBFS_ENABLE_IDSN_STRING) */
 1203              		.loc 1 194 0 discriminator 1
 1204 0098 664C     		ldr	r4, .L159+20
 177:Generated_Source\PSoC5/USBFS_std.c ****                     {
 1205              		.loc 1 177 0 discriminator 1
 1206 009a 9078     		ldrb	r0, [r2, #2]	@ zero_extendqisi2
 194:Generated_Source\PSoC5/USBFS_std.c ****                     #endif  /* (USBFS_ENABLE_IDSN_STRING) */
 1207              		.loc 1 194 0 discriminator 1
 1208 009c 247C     		ldrb	r4, [r4, #16]	@ zero_extendqisi2
 1209 009e 664A     		ldr	r2, .L159+24
 1210 00a0 8442     		cmp	r4, r0
 1211 00a2 08BF     		it	eq
ARM GAS  C:\Users\rabbit\AppData\Local\Temp\cccb5bWv.s 			page 47


 1212 00a4 1346     		moveq	r3, r2
 1213              	.LVL92:
 1214 00a6 06E0     		b	.L118
 1215              	.LVL93:
 1216              	.L116:
 156:Generated_Source\PSoC5/USBFS_std.c ****                     {
 1217              		.loc 1 156 0 discriminator 1
 1218 00a8 1C78     		ldrb	r4, [r3]	@ zero_extendqisi2
 1219 00aa 0132     		adds	r2, r2, #1
 1220              	.LVL94:
 1221 00ac 002C     		cmp	r4, #0
 1222 00ae EFD0     		beq	.L120
 159:Generated_Source\PSoC5/USBFS_std.c ****                         /* Move to next string descriptor */
 1223              		.loc 1 159 0
 1224 00b0 1C78     		ldrb	r4, [r3]	@ zero_extendqisi2
 1225              	.LVL95:
 161:Generated_Source\PSoC5/USBFS_std.c ****                         nStr++;
 1226              		.loc 1 161 0
 1227 00b2 2344     		add	r3, r3, r4
 1228              	.LVL96:
 1229 00b4 E8E7     		b	.L115
 1230              	.LVL97:
 1231              	.L118:
 199:Generated_Source\PSoC5/USBFS_std.c ****                     {
 1232              		.loc 1 199 0
 1233 00b6 1A78     		ldrb	r2, [r3]	@ zero_extendqisi2
 1234 00b8 002A     		cmp	r2, #0
 1235 00ba 00F0AE80 		beq	.L105
 201:Generated_Source\PSoC5/USBFS_std.c ****                         USBFS_currentTD.pData = pStr;
 1236              		.loc 1 201 0
 1237 00be 1A78     		ldrb	r2, [r3]	@ zero_extendqisi2
 1238 00c0 0A80     		strh	r2, [r1]	@ movhi
 1239 00c2 18E0     		b	.L156
 1240              	.LVL98:
 1241              	.L114:
 380:Generated_Source\PSoC5/USBFS_std.c **** 
 1242              		.loc 1 380 0
 1243 00c4 BDE83840 		pop	{r3, r4, r5, lr}
 1244              		.cfi_remember_state
 1245              		.cfi_restore 14
 1246              		.cfi_restore 5
 1247              		.cfi_restore 4
 1248              		.cfi_restore 3
 1249              		.cfi_def_cfa_offset 0
 209:Generated_Source\PSoC5/USBFS_std.c ****                 }
 1250              		.loc 1 209 0
 1251 00c8 FFF7FEBF 		b	USBFS_DispatchClassRqst
 1252              	.LVL99:
 1253              	.L106:
 1254              		.cfi_restore_state
 214:Generated_Source\PSoC5/USBFS_std.c ****                 {
 1255              		.loc 1 214 0
 1256 00cc 13F00303 		ands	r3, r3, #3
 1257              	.LVL100:
 1258 00d0 13D0     		beq	.L122
 1259 00d2 022B     		cmp	r3, #2
 1260 00d4 40F0A180 		bne	.L105
ARM GAS  C:\Users\rabbit\AppData\Local\Temp\cccb5bWv.s 			page 48


 217:Generated_Source\PSoC5/USBFS_std.c ****                         USBFS_tBuffer[0u]     = USBFS_EP[USBFS_wIndexLoReg & USBFS_DIR_UNUSED].hwEp
 1261              		.loc 1 217 0
 1262 00d8 0B80     		strh	r3, [r1]	@ movhi
 218:Generated_Source\PSoC5/USBFS_std.c ****                         USBFS_tBuffer[1u]     = 0u;
 1263              		.loc 1 218 0
 1264 00da 514B     		ldr	r3, .L159
 1265 00dc 0C20     		movs	r0, #12
 1266 00de 1B79     		ldrb	r3, [r3, #4]	@ zero_extendqisi2
 1267 00e0 03F07F02 		and	r2, r3, #127
 1268 00e4 554B     		ldr	r3, .L159+28
 1269 00e6 00FB0233 		mla	r3, r0, r2, r3
 1270 00ea 9A78     		ldrb	r2, [r3, #2]	@ zero_extendqisi2
 1271 00ec 544B     		ldr	r3, .L159+32
 1272 00ee D2B2     		uxtb	r2, r2
 1273 00f0 1A70     		strb	r2, [r3]
 219:Generated_Source\PSoC5/USBFS_std.c ****                         USBFS_currentTD.pData = &USBFS_tBuffer[0u];
 1274              		.loc 1 219 0
 1275 00f2 0022     		movs	r2, #0
 1276 00f4 5A70     		strb	r2, [r3, #1]
 1277              	.LVL101:
 1278              	.L156:
 220:Generated_Source\PSoC5/USBFS_std.c ****                         
 1279              		.loc 1 220 0
 1280 00f6 4B60     		str	r3, [r1, #4]
 1281 00f8 BDE7     		b	.L153
 1282              	.LVL102:
 1283              	.L122:
 225:Generated_Source\PSoC5/USBFS_std.c ****                         USBFS_tBuffer[0u]     = USBFS_deviceStatus;
 1284              		.loc 1 225 0
 1285 00fa 0222     		movs	r2, #2
 1286 00fc 0A80     		strh	r2, [r1]	@ movhi
 226:Generated_Source\PSoC5/USBFS_std.c ****                         USBFS_tBuffer[1u]     = 0u;
 1287              		.loc 1 226 0
 1288 00fe 514A     		ldr	r2, .L159+36
 1289 0100 1078     		ldrb	r0, [r2]	@ zero_extendqisi2
 1290 0102 4F4A     		ldr	r2, .L159+32
 1291 0104 C0B2     		uxtb	r0, r0
 1292 0106 1070     		strb	r0, [r2]
 227:Generated_Source\PSoC5/USBFS_std.c ****                         USBFS_currentTD.pData = &USBFS_tBuffer[0u];
 1293              		.loc 1 227 0
 1294 0108 5370     		strb	r3, [r2, #1]
 228:Generated_Source\PSoC5/USBFS_std.c ****                         
 1295              		.loc 1 228 0
 1296 010a 4A60     		str	r2, [r1, #4]
 1297 010c B3E7     		b	.L153
 1298              	.LVL103:
 1299              	.L109:
 238:Generated_Source\PSoC5/USBFS_std.c ****                 USBFS_currentTD.pData = (volatile uint8 *) &USBFS_configuration;
 1300              		.loc 1 238 0
 1301 010e 0123     		movs	r3, #1
 1302              	.LVL104:
 1303 0110 0B80     		strh	r3, [r1]	@ movhi
 239:Generated_Source\PSoC5/USBFS_std.c ****                 requestHandled  = USBFS_InitControlRead();
 1304              		.loc 1 239 0
 1305 0112 4D4B     		ldr	r3, .L159+40
 1306 0114 EFE7     		b	.L156
 1307              	.LVL105:
ARM GAS  C:\Users\rabbit\AppData\Local\Temp\cccb5bWv.s 			page 49


 1308              	.L110:
 244:Generated_Source\PSoC5/USBFS_std.c ****                 USBFS_currentTD.pData = (volatile uint8 *) &USBFS_interfaceSetting[USBFS_wIndexLoRe
 1309              		.loc 1 244 0
 1310 0116 0123     		movs	r3, #1
 1311              	.LVL106:
 1312 0118 0B80     		strh	r3, [r1]	@ movhi
 245:Generated_Source\PSoC5/USBFS_std.c ****                 requestHandled  = USBFS_InitControlRead();
 1313              		.loc 1 245 0
 1314 011a 1379     		ldrb	r3, [r2, #4]	@ zero_extendqisi2
 1315 011c 4B4A     		ldr	r2, .L159+44
 1316 011e 1344     		add	r3, r3, r2
 1317 0120 E9E7     		b	.L156
 1318              	.LVL107:
 1319              	.L104:
 256:Generated_Source\PSoC5/USBFS_std.c ****         {
 1320              		.loc 1 256 0
 1321 0122 5178     		ldrb	r1, [r2, #1]	@ zero_extendqisi2
 1322 0124 0139     		subs	r1, r1, #1
 1323 0126 0A29     		cmp	r1, #10
 1324 0128 77D8     		bhi	.L105
 1325 012a DFE801F0 		tbb	[pc, r1]
 1326              	.L125:
 1327 012e 37       		.byte	(.L124-.L125)/2
 1328 012f 76       		.byte	(.L105-.L125)/2
 1329 0130 4F       		.byte	(.L126-.L125)/2
 1330 0131 76       		.byte	(.L105-.L125)/2
 1331 0132 06       		.byte	(.L127-.L125)/2
 1332 0133 76       		.byte	(.L105-.L125)/2
 1333 0134 76       		.byte	(.L105-.L125)/2
 1334 0135 76       		.byte	(.L105-.L125)/2
 1335 0136 0A       		.byte	(.L128-.L125)/2
 1336 0137 76       		.byte	(.L105-.L125)/2
 1337 0138 20       		.byte	(.L129-.L125)/2
 1338 0139 00       		.p2align 1
 1339              	.L127:
 260:Generated_Source\PSoC5/USBFS_std.c ****                 requestHandled = USBFS_InitNoDataControlTransfer();
 1340              		.loc 1 260 0
 1341 013a 9378     		ldrb	r3, [r2, #2]	@ zero_extendqisi2
 1342              	.LVL108:
 1343 013c 444A     		ldr	r2, .L159+48
 1344 013e DBB2     		uxtb	r3, r3
 1345 0140 5AE0     		b	.L158
 1346              	.LVL109:
 1347              	.L128:
 265:Generated_Source\PSoC5/USBFS_std.c ****                 
 1348              		.loc 1 265 0
 1349 0142 9378     		ldrb	r3, [r2, #2]	@ zero_extendqisi2
 1350              	.LVL110:
 268:Generated_Source\PSoC5/USBFS_std.c ****                 {
 1351              		.loc 1 268 0
 1352 0144 03F0FF01 		and	r1, r3, #255
 1353 0148 53B9     		cbnz	r3, .L130
 1354              	.LVL111:
 1355              	.L133:
 277:Generated_Source\PSoC5/USBFS_std.c ****                     {
 1356              		.loc 1 277 0
 1357 014a 3F4B     		ldr	r3, .L159+40
ARM GAS  C:\Users\rabbit\AppData\Local\Temp\cccb5bWv.s 			page 50


 1358 014c 1A78     		ldrb	r2, [r3]	@ zero_extendqisi2
 1359 014e 9142     		cmp	r1, r2
 1360 0150 5FD0     		beq	.L154
 279:Generated_Source\PSoC5/USBFS_std.c ****                         USBFS_configurationChanged = USBFS_TRUE;
 1361              		.loc 1 279 0
 1362 0152 1970     		strb	r1, [r3]
 280:Generated_Source\PSoC5/USBFS_std.c ****                         USBFS_Config(USBFS_TRUE);
 1363              		.loc 1 280 0
 1364 0154 3F4B     		ldr	r3, .L159+52
 1365 0156 0120     		movs	r0, #1
 1366 0158 1870     		strb	r0, [r3]
 281:Generated_Source\PSoC5/USBFS_std.c ****                     }
 1367              		.loc 1 281 0
 1368 015a FFF7FEFF 		bl	USBFS_Config
 1369              	.LVL112:
 1370 015e 58E0     		b	.L154
 1371              	.LVL113:
 1372              	.L130:
 270:Generated_Source\PSoC5/USBFS_std.c ****                 }
 1373              		.loc 1 270 0
 1374 0160 481E     		subs	r0, r1, #1
 1375 0162 C0B2     		uxtb	r0, r0
 1376 0164 FFF7FEFF 		bl	USBFS_GetConfigTablePtr
 1377              	.LVL114:
 274:Generated_Source\PSoC5/USBFS_std.c ****                 {
 1378              		.loc 1 274 0
 1379 0168 0028     		cmp	r0, #0
 1380 016a EED1     		bne	.L133
 1381 016c 55E0     		b	.L105
 1382              	.LVL115:
 1383              	.L129:
 288:Generated_Source\PSoC5/USBFS_std.c ****                 {
 1384              		.loc 1 288 0
 1385 016e FFF7FEFF 		bl	USBFS_ValidateAlternateSetting
 1386              	.LVL116:
 1387 0172 0028     		cmp	r0, #0
 1388 0174 51D0     		beq	.L105
 291:Generated_Source\PSoC5/USBFS_std.c ****                     USBFS_interfaceNumber = (uint8) USBFS_wIndexLoReg;
 1389              		.loc 1 291 0
 1390 0176 2A4A     		ldr	r2, .L159
 292:Generated_Source\PSoC5/USBFS_std.c ****                      
 1391              		.loc 1 292 0
 1392 0178 3749     		ldr	r1, .L159+56
 291:Generated_Source\PSoC5/USBFS_std.c ****                     USBFS_interfaceNumber = (uint8) USBFS_wIndexLoReg;
 1393              		.loc 1 291 0
 1394 017a 1379     		ldrb	r3, [r2, #4]	@ zero_extendqisi2
 292:Generated_Source\PSoC5/USBFS_std.c ****                      
 1395              		.loc 1 292 0
 1396 017c 1279     		ldrb	r2, [r2, #4]	@ zero_extendqisi2
 291:Generated_Source\PSoC5/USBFS_std.c ****                     USBFS_interfaceNumber = (uint8) USBFS_wIndexLoReg;
 1397              		.loc 1 291 0
 1398 017e DBB2     		uxtb	r3, r3
 1399              	.LVL117:
 292:Generated_Source\PSoC5/USBFS_std.c ****                      
 1400              		.loc 1 292 0
 1401 0180 D2B2     		uxtb	r2, r2
 1402 0182 0A70     		strb	r2, [r1]
ARM GAS  C:\Users\rabbit\AppData\Local\Temp\cccb5bWv.s 			page 51


 295:Generated_Source\PSoC5/USBFS_std.c ****                     {
 1403              		.loc 1 295 0
 1404 0184 354A     		ldr	r2, .L159+60
 1405 0186 3149     		ldr	r1, .L159+44
 1406 0188 D25C     		ldrb	r2, [r2, r3]	@ zero_extendqisi2
 1407 018a CB5C     		ldrb	r3, [r1, r3]	@ zero_extendqisi2
 1408              	.LVL118:
 1409 018c 9A42     		cmp	r2, r3
 1410 018e 40D0     		beq	.L154
 297:Generated_Source\PSoC5/USBFS_std.c ****                     
 1411              		.loc 1 297 0
 1412 0190 304B     		ldr	r3, .L159+52
 1413 0192 0122     		movs	r2, #1
 1414 0194 1A70     		strb	r2, [r3]
 303:Generated_Source\PSoC5/USBFS_std.c ****                     #endif /* (USBFS_EP_MANAGEMENT_MANUAL && USBFS_EP_ALLOC_DYNAMIC) */
 1415              		.loc 1 303 0
 1416 0196 FFF7FEFF 		bl	USBFS_ConfigAltChanged
 1417              	.LVL119:
 1418 019a 3AE0     		b	.L154
 1419              	.LVL120:
 1420              	.L124:
 312:Generated_Source\PSoC5/USBFS_std.c ****                 {
 1421              		.loc 1 312 0
 1422 019c 03F00303 		and	r3, r3, #3
 1423              	.LVL121:
 1424 01a0 012B     		cmp	r3, #1
 1425 01a2 2BD0     		beq	.L138
 1426 01a4 09D3     		bcc	.L136
 1427 01a6 022B     		cmp	r3, #2
 1428 01a8 37D1     		bne	.L105
 315:Generated_Source\PSoC5/USBFS_std.c ****                         {
 1429              		.loc 1 315 0
 1430 01aa 1D4B     		ldr	r3, .L159
 1431 01ac 9B78     		ldrb	r3, [r3, #2]	@ zero_extendqisi2
 1432 01ae 002B     		cmp	r3, #0
 1433 01b0 33D1     		bne	.L105
 380:Generated_Source\PSoC5/USBFS_std.c **** 
 1434              		.loc 1 380 0
 1435 01b2 BDE83840 		pop	{r3, r4, r5, lr}
 1436              		.cfi_remember_state
 1437              		.cfi_restore 14
 1438              		.cfi_restore 5
 1439              		.cfi_restore 4
 1440              		.cfi_restore 3
 1441              		.cfi_def_cfa_offset 0
 317:Generated_Source\PSoC5/USBFS_std.c ****                         }
 1442              		.loc 1 317 0
 1443 01b6 FFF7FEBF 		b	USBFS_ClearEndpointHalt
 1444              	.LVL122:
 1445              	.L136:
 1446              		.cfi_restore_state
 322:Generated_Source\PSoC5/USBFS_std.c ****                         {
 1447              		.loc 1 322 0
 1448 01ba 194B     		ldr	r3, .L159
 1449 01bc 9B78     		ldrb	r3, [r3, #2]	@ zero_extendqisi2
 1450 01be 012B     		cmp	r3, #1
 1451 01c0 2BD1     		bne	.L105
ARM GAS  C:\Users\rabbit\AppData\Local\Temp\cccb5bWv.s 			page 52


 324:Generated_Source\PSoC5/USBFS_std.c ****                             requestHandled = USBFS_InitNoDataControlTransfer();
 1452              		.loc 1 324 0
 1453 01c2 204A     		ldr	r2, .L159+36
 1454 01c4 1378     		ldrb	r3, [r2]	@ zero_extendqisi2
 1455 01c6 03F0FD03 		and	r3, r3, #253
 1456 01ca 15E0     		b	.L158
 1457              	.LVL123:
 1458              	.L126:
 342:Generated_Source\PSoC5/USBFS_std.c ****                 {
 1459              		.loc 1 342 0
 1460 01cc 03F00303 		and	r3, r3, #3
 1461              	.LVL124:
 1462 01d0 012B     		cmp	r3, #1
 1463 01d2 13D0     		beq	.L138
 1464 01d4 08D3     		bcc	.L139
 1465 01d6 022B     		cmp	r3, #2
 1466 01d8 1FD1     		bne	.L105
 345:Generated_Source\PSoC5/USBFS_std.c ****                         {
 1467              		.loc 1 345 0
 1468 01da 114B     		ldr	r3, .L159
 1469 01dc 9B78     		ldrb	r3, [r3, #2]	@ zero_extendqisi2
 1470 01de E3B9     		cbnz	r3, .L105
 380:Generated_Source\PSoC5/USBFS_std.c **** 
 1471              		.loc 1 380 0
 1472 01e0 BDE83840 		pop	{r3, r4, r5, lr}
 1473              		.cfi_remember_state
 1474              		.cfi_restore 14
 1475              		.cfi_restore 5
 1476              		.cfi_restore 4
 1477              		.cfi_restore 3
 1478              		.cfi_def_cfa_offset 0
 347:Generated_Source\PSoC5/USBFS_std.c ****                         }
 1479              		.loc 1 347 0
 1480 01e4 FFF7FEBF 		b	USBFS_SetEndpointHalt
 1481              	.LVL125:
 1482              	.L139:
 1483              		.cfi_restore_state
 353:Generated_Source\PSoC5/USBFS_std.c ****                         {
 1484              		.loc 1 353 0
 1485 01e8 0D4B     		ldr	r3, .L159
 1486 01ea 9B78     		ldrb	r3, [r3, #2]	@ zero_extendqisi2
 1487 01ec 012B     		cmp	r3, #1
 1488 01ee 14D1     		bne	.L105
 355:Generated_Source\PSoC5/USBFS_std.c ****                             requestHandled = USBFS_InitNoDataControlTransfer();
 1489              		.loc 1 355 0
 1490 01f0 144A     		ldr	r2, .L159+36
 1491 01f2 1378     		ldrb	r3, [r2]	@ zero_extendqisi2
 1492 01f4 43F00203 		orr	r3, r3, #2
 1493              	.L158:
 1494 01f8 1370     		strb	r3, [r2]
 1495 01fa 0AE0     		b	.L154
 1496              	.L138:
 362:Generated_Source\PSoC5/USBFS_std.c ****                         {
 1497              		.loc 1 362 0
 1498 01fc 084B     		ldr	r3, .L159
 1499 01fe 1A79     		ldrb	r2, [r3, #4]	@ zero_extendqisi2
 1500 0200 5AB9     		cbnz	r2, .L105
ARM GAS  C:\Users\rabbit\AppData\Local\Temp\cccb5bWv.s 			page 53


 364:Generated_Source\PSoC5/USBFS_std.c ****                             requestHandled = USBFS_InitNoDataControlTransfer();
 1501              		.loc 1 364 0
 1502 0202 9878     		ldrb	r0, [r3, #2]	@ zero_extendqisi2
 1503 0204 1B79     		ldrb	r3, [r3, #4]	@ zero_extendqisi2
 1504 0206 1649     		ldr	r1, .L159+64
 1505 0208 DBB2     		uxtb	r3, r3
 1506 020a CA5C     		ldrb	r2, [r1, r3]	@ zero_extendqisi2
 1507 020c 22EA0002 		bic	r2, r2, r0
 1508 0210 CA54     		strb	r2, [r1, r3]
 1509              	.L154:
 380:Generated_Source\PSoC5/USBFS_std.c **** 
 1510              		.loc 1 380 0
 1511 0212 BDE83840 		pop	{r3, r4, r5, lr}
 1512              		.cfi_remember_state
 1513              		.cfi_restore 14
 1514              		.cfi_restore 5
 1515              		.cfi_restore 4
 1516              		.cfi_restore 3
 1517              		.cfi_def_cfa_offset 0
 365:Generated_Source\PSoC5/USBFS_std.c ****                         }
 1518              		.loc 1 365 0
 1519 0216 FFF7FEBF 		b	USBFS_InitNoDataControlTransfer
 1520              	.LVL126:
 1521              	.L105:
 1522              		.cfi_restore_state
 380:Generated_Source\PSoC5/USBFS_std.c **** 
 1523              		.loc 1 380 0
 1524 021a 0020     		movs	r0, #0
 1525 021c 38BD     		pop	{r3, r4, r5, pc}
 1526              	.L160:
 1527 021e 00BF     		.align	2
 1528              	.L159:
 1529 0220 00600040 		.word	1073766400
 1530 0224 00000000 		.word	USBFS_currentTD
 1531 0228 00000000 		.word	USBFS_device
 1532 022c 00000000 		.word	USBFS_TABLE
 1533 0230 00000000 		.word	USBFS_STRING_DESCRIPTORS
 1534 0234 00000000 		.word	USBFS_DEVICE0_DESCR
 1535 0238 00000000 		.word	USBFS_SN_STRING_DESCRIPTOR
 1536 023c 00000000 		.word	USBFS_EP
 1537 0240 00000000 		.word	.LANCHOR0
 1538 0244 00000000 		.word	USBFS_deviceStatus
 1539 0248 00000000 		.word	USBFS_configuration
 1540 024c 00000000 		.word	USBFS_interfaceSetting
 1541 0250 00000000 		.word	USBFS_deviceAddress
 1542 0254 00000000 		.word	USBFS_configurationChanged
 1543 0258 00000000 		.word	USBFS_interfaceNumber
 1544 025c 00000000 		.word	USBFS_interfaceSettingLast
 1545 0260 00000000 		.word	USBFS_interfaceStatus
 1546              		.cfi_endproc
 1547              	.LFE0:
 1548              		.size	USBFS_HandleStandardRqst, .-USBFS_HandleStandardRqst
 1549              		.bss
 1550              		.set	.LANCHOR0,. + 0
 1551              		.type	USBFS_tBuffer.5205, %object
 1552              		.size	USBFS_tBuffer.5205, 2
 1553              	USBFS_tBuffer.5205:
ARM GAS  C:\Users\rabbit\AppData\Local\Temp\cccb5bWv.s 			page 54


 1554 0000 0000     		.space	2
 1555              		.text
 1556              	.Letext0:
 1557              		.file 2 "Generated_Source\\PSoC5\\cytypes.h"
 1558              		.file 3 "Generated_Source\\PSoC5\\USBFS.h"
 1559              		.file 4 "Generated_Source\\PSoC5\\USBFS_pvt.h"