ARM GAS  C:\Users\RABBIT~1\AppData\Local\Temp\ccebg2O1.s 			page 1


   1              		.syntax unified
   2              		.cpu cortex-m3
   3              		.fpu softvfp
   4              		.eabi_attribute 20, 1
   5              		.eabi_attribute 21, 1
   6              		.eabi_attribute 23, 3
   7              		.eabi_attribute 24, 1
   8              		.eabi_attribute 25, 1
   9              		.eabi_attribute 26, 1
  10              		.eabi_attribute 30, 4
  11              		.eabi_attribute 34, 1
  12              		.eabi_attribute 18, 4
  13              		.thumb
  14              		.syntax unified
  15              		.file	"main.c"
  16              		.text
  17              	.Ltext0:
  18              		.cfi_sections	.debug_frame
  19              		.section	.text.startup.main,"ax",%progbits
  20              		.align	1
  21              		.global	main
  22              		.thumb
  23              		.thumb_func
  24              		.type	main, %function
  25              	main:
  26              	.LFB64:
  27              		.file 1 "main.c"
   1:main.c        **** //	Copyright (C) 2013 Michael McMaster <michael@codesrc.com>
   2:main.c        **** //
   3:main.c        **** 
   4:main.c        **** #include <project.h>
   5:main.c        **** 
   6:main.c        **** 
   7:main.c        **** static void resetSCSI()
   8:main.c        **** {
   9:main.c        **** 	// active low
  10:main.c        **** 	CyPins_SetPin(LED_0);
  11:main.c        **** }
  12:main.c        **** 
  13:main.c        **** int main()
  14:main.c        **** {
  28              		.loc 1 14 0
  29              		.cfi_startproc
  30              		@ args = 0, pretend = 0, frame = 0
  31              		@ frame_needed = 0, uses_anonymous_args = 0
  32 0000 38B5     		push	{r3, r4, r5, lr}
  33              		.cfi_def_cfa_offset 16
  34              		.cfi_offset 3, -16
  35              		.cfi_offset 4, -12
  36              		.cfi_offset 5, -8
  37              		.cfi_offset 14, -4
  38              	.LBB4:
  39              	.LBB5:
  10:main.c        **** }
  40              		.loc 1 10 0
  41 0002 0E4B     		ldr	r3, .L9
  42 0004 6425     		movs	r5, #100
ARM GAS  C:\Users\RABBIT~1\AppData\Local\Temp\ccebg2O1.s 			page 2


  43 0006 1C46     		mov	r4, r3
  44 0008 1A78     		ldrb	r2, [r3]	@ zero_extendqisi2
  45 000a 42F00102 		orr	r2, r2, #1
  46 000e 1A70     		strb	r2, [r3]
  47              	.LVL0:
  48              	.L2:
  49              	.LBE5:
  50              	.LBE4:
  15:main.c        ****     resetSCSI();
  16:main.c        **** 	
  17:main.c        **** 	// We need some delay before reading the BOOTLDR pin gives us the correct
  18:main.c        **** 	// answer. I don't know if it's due to the pullup enabled, or use of the 
  19:main.c        **** 	// 32k xtal pins as GPIO immediately after power on.
  20:main.c        **** 	// Try to startup as fast as possible in the normal case of no-bootloader-jumper
  21:main.c        **** 	int limit = 100;
  22:main.c        **** 	while (limit > 0 && BOOTLDR_Read() == 0) // active low
  51              		.loc 1 22 0 discriminator 1
  52 0010 FFF7FEFF 		bl	BOOTLDR_Read
  53              	.LVL1:
  54 0014 20B9     		cbnz	r0, .L6
  23:main.c        **** 	{
  24:main.c        **** 		CyDelayUs(100);
  55              		.loc 1 24 0
  56 0016 6420     		movs	r0, #100
  57 0018 FFF7FEFF 		bl	CyDelayUs
  58              	.LVL2:
  22:main.c        **** 	{
  59              		.loc 1 22 0
  60 001c 013D     		subs	r5, r5, #1
  61              	.LVL3:
  62 001e F7D1     		bne	.L2
  63              	.LVL4:
  64              	.L6:
  25:main.c        **** 		limit--;
  26:main.c        **** 	}
  27:main.c        **** 	
  28:main.c        **** 	if (BOOTLDR_Read() == 0)
  65              		.loc 1 28 0
  66 0020 FFF7FEFF 		bl	BOOTLDR_Read
  67              	.LVL5:
  68 0024 30B9     		cbnz	r0, .L4
  29:main.c        **** 	{
  30:main.c        **** 		CyPins_ClearPin(LED_0);
  69              		.loc 1 30 0
  70 0026 2378     		ldrb	r3, [r4]	@ zero_extendqisi2
  31:main.c        **** 		BL_SET_RUN_TYPE(BL_START_BTLDR);
  71              		.loc 1 31 0
  72 0028 4022     		movs	r2, #64
  30:main.c        **** 		BL_SET_RUN_TYPE(BL_START_BTLDR);
  73              		.loc 1 30 0
  74 002a 03F0FE03 		and	r3, r3, #254
  75 002e 2370     		strb	r3, [r4]
  76              		.loc 1 31 0
  77 0030 034B     		ldr	r3, .L9+4
  78 0032 1A70     		strb	r2, [r3]
  79              	.L4:
  32:main.c        **** 	}
ARM GAS  C:\Users\RABBIT~1\AppData\Local\Temp\ccebg2O1.s 			page 3


  33:main.c        **** 
  34:main.c        **** 	// The call to the bootloader should not return
  35:main.c        ****     BL_Start();
  80              		.loc 1 35 0
  81 0034 FFF7FEFF 		bl	BL_Start
  82              	.LVL6:
  36:main.c        **** 
  37:main.c        **** 	return 0;
  38:main.c        **** }
  83              		.loc 1 38 0
  84 0038 0020     		movs	r0, #0
  85 003a 38BD     		pop	{r3, r4, r5, pc}
  86              	.L10:
  87              		.align	2
  88              	.L9:
  89 003c 60500040 		.word	1073762400
  90 0040 FA460040 		.word	1073759994
  91              		.cfi_endproc
  92              	.LFE64:
  93              		.size	main, .-main
  94              		.text
  95              	.Letext0:
  96              		.file 2 "c:\\program files (x86)\\cypress\\psoc creator\\4.2\\psoc creator\\import\\gnu\\arm\\5.4.
  97              		.file 3 "c:\\program files (x86)\\cypress\\psoc creator\\4.2\\psoc creator\\import\\gnu\\arm\\5.4.
  98              		.file 4 "Generated_Source\\PSoC5/cytypes.h"
  99              		.file 5 "Generated_Source\\PSoC5/BOOTLDR.h"
 100              		.file 6 "Generated_Source\\PSoC5/CyLib.h"
 101              		.file 7 "Generated_Source\\PSoC5/BL.h"
 102              		.file 8 "Generated_Source\\PSoC5/core_cm3.h"