ARM GAS  C:\Users\RABBIT~1\AppData\Local\Temp\cc9K3pWs.s 			page 1


   1              		.syntax unified
   2              		.cpu cortex-m3
   3              		.fpu softvfp
   4              		.eabi_attribute 20, 1
   5              		.eabi_attribute 21, 1
   6              		.eabi_attribute 23, 3
   7              		.eabi_attribute 24, 1
   8              		.eabi_attribute 25, 1
   9              		.eabi_attribute 26, 1
  10              		.eabi_attribute 30, 4
  11              		.eabi_attribute 34, 1
  12              		.eabi_attribute 18, 4
  13              		.thumb
  14              		.syntax unified
  15              		.file	"security.c"
  16              		.text
  17              	.Ltext0:
  18              		.cfi_sections	.debug_frame
  19              		.section	.codesrc_secure,"ax",%progbits
  20              		.align	1
  21              		.global	codesrcDecrypt
  22              		.thumb
  23              		.thumb_func
  24              		.type	codesrcDecrypt, %function
  25              	codesrcDecrypt:
  26              	.LFB63:
  27              		.file 1 "security.c"
   1:security.c    **** //	Copyright (C) 2018 Michael McMaster <michael@codesrc.com>
   2:security.c    **** //
   3:security.c    **** // Compiled with -mpure-code
   4:security.c    **** // ... actually, not supported in gcc version :-(
   5:security.c    **** // So use -mslow-flash-data instead, which seems to do the job.
   6:security.c    **** // See custom linker script and flash protection settings.
   7:security.c    **** 
   8:security.c    **** #include <project.h>
   9:security.c    **** 
  10:security.c    **** #include "tiny-AES-c-master/aes.h"
  11:security.c    **** 
  12:security.c    **** // This method will be LOCKED down
  13:security.c    **** void  __attribute__((section(".codesrc_secure"))) codesrcDecrypt(
  14:security.c    **** 	const uint8_t* iv,
  15:security.c    **** 	uint8_t* buf,
  16:security.c    **** 	uint32_t count)
  17:security.c    **** {
  28              		.loc 1 17 0
  29              		.cfi_startproc
  30              		@ args = 0, pretend = 0, frame = 208
  31              		@ frame_needed = 0, uses_anonymous_args = 0
  32              	.LVL0:
  33 0000 F0B5     		push	{r4, r5, r6, r7, lr}
  34              		.cfi_def_cfa_offset 20
  35              		.cfi_offset 4, -20
  36              		.cfi_offset 5, -16
  37              		.cfi_offset 6, -12
  38              		.cfi_offset 7, -8
  39              		.cfi_offset 14, -4
  18:security.c    **** 	// Need to populate the key from constants stored in this protected section
ARM GAS  C:\Users\RABBIT~1\AppData\Local\Temp\cc9K3pWs.s 			page 2


  19:security.c    **** 	// of flash.
  20:security.c    **** 	uint8_t key[16];
  21:security.c    **** 	key[0] = 0x5b;
  40              		.loc 1 21 0
  41 0002 5B23     		movs	r3, #91
  17:security.c    **** 	// Need to populate the key from constants stored in this protected section
  42              		.loc 1 17 0
  43 0004 B5B0     		sub	sp, sp, #212
  44              		.cfi_def_cfa_offset 232
  45              		.loc 1 21 0
  46 0006 8DF80030 		strb	r3, [sp]
  22:security.c    **** 	key[1] = 0x02;
  47              		.loc 1 22 0
  48 000a 0223     		movs	r3, #2
  49 000c 8DF80130 		strb	r3, [sp, #1]
  23:security.c    **** 	key[2] = 0xfa;
  50              		.loc 1 23 0
  51 0010 FA23     		movs	r3, #250
  52 0012 8DF80230 		strb	r3, [sp, #2]
  24:security.c    **** 	key[3] = 0x4a;
  53              		.loc 1 24 0
  54 0016 4A23     		movs	r3, #74
  55 0018 8DF80330 		strb	r3, [sp, #3]
  25:security.c    **** 	key[4] = 0x00;
  26:security.c    **** 	key[5] = 0xbf;
  56              		.loc 1 26 0
  57 001c BF23     		movs	r3, #191
  58 001e 8DF80530 		strb	r3, [sp, #5]
  27:security.c    **** 	key[6] = 0x97;
  59              		.loc 1 27 0
  60 0022 9723     		movs	r3, #151
  61 0024 8DF80630 		strb	r3, [sp, #6]
  28:security.c    **** 	key[7] = 0xc1;
  62              		.loc 1 28 0
  63 0028 C123     		movs	r3, #193
  64 002a 8DF80730 		strb	r3, [sp, #7]
  29:security.c    **** 	key[8] = 0xb4;
  65              		.loc 1 29 0
  66 002e B423     		movs	r3, #180
  67 0030 8DF80830 		strb	r3, [sp, #8]
  30:security.c    **** 	key[9] = 0x62;
  68              		.loc 1 30 0
  69 0034 6223     		movs	r3, #98
  70 0036 8DF80930 		strb	r3, [sp, #9]
  31:security.c    **** 	key[10] = 0xb7;
  71              		.loc 1 31 0
  72 003a B723     		movs	r3, #183
  73 003c 8DF80A30 		strb	r3, [sp, #10]
  32:security.c    **** 	key[11] = 0x4b;
  74              		.loc 1 32 0
  75 0040 4B23     		movs	r3, #75
  76 0042 8DF80B30 		strb	r3, [sp, #11]
  33:security.c    **** 	key[12] = 0x3f;
  77              		.loc 1 33 0
  78 0046 3F23     		movs	r3, #63
  79 0048 8DF80C30 		strb	r3, [sp, #12]
  34:security.c    **** 	key[13] = 0x38;
ARM GAS  C:\Users\RABBIT~1\AppData\Local\Temp\cc9K3pWs.s 			page 3


  80              		.loc 1 34 0
  81 004c 3823     		movs	r3, #56
  82 004e 8DF80D30 		strb	r3, [sp, #13]
  35:security.c    **** 	key[14] = 0xaf;
  83              		.loc 1 35 0
  84 0052 AF23     		movs	r3, #175
  25:security.c    **** 	key[5] = 0xbf;
  85              		.loc 1 25 0
  86 0054 0024     		movs	r4, #0
  87              		.loc 1 35 0
  88 0056 8DF80E30 		strb	r3, [sp, #14]
  17:security.c    **** 	// Need to populate the key from constants stored in this protected section
  89              		.loc 1 17 0
  90 005a 0546     		mov	r5, r0
  36:security.c    **** 	key[15] = 0x25;
  91              		.loc 1 36 0
  92 005c 2523     		movs	r3, #37
  17:security.c    **** 	// Need to populate the key from constants stored in this protected section
  93              		.loc 1 17 0
  94 005e 0E46     		mov	r6, r1
  95 0060 1746     		mov	r7, r2
  37:security.c    **** 
  38:security.c    **** 	struct AES_ctx ctx;
  39:security.c    **** 	AES_init_ctx_iv(&ctx, key, iv);
  96              		.loc 1 39 0
  97 0062 6946     		mov	r1, sp
  98              	.LVL1:
  99 0064 0246     		mov	r2, r0
 100              	.LVL2:
 101 0066 04A8     		add	r0, sp, #16
 102              	.LVL3:
  36:security.c    **** 	key[15] = 0x25;
 103              		.loc 1 36 0
 104 0068 8DF80F30 		strb	r3, [sp, #15]
  25:security.c    **** 	key[5] = 0xbf;
 105              		.loc 1 25 0
 106 006c 8DF80440 		strb	r4, [sp, #4]
 107              		.loc 1 39 0
 108 0070 FFF7FEFF 		bl	AES_init_ctx_iv
 109              	.LVL4:
 110              	.LBB2:
  40:security.c    **** 	for (int i = 0; i < 16; ++i) key[i] = 0;
 111              		.loc 1 40 0
 112 0074 2346     		mov	r3, r4
 113 0076 2246     		mov	r2, r4
 114              	.LVL5:
 115              	.L2:
 116              		.loc 1 40 0 is_stmt 0 discriminator 3
 117 0078 0DF80320 		strb	r2, [sp, r3]
 118 007c 0133     		adds	r3, r3, #1
 119              	.LVL6:
 120 007e 102B     		cmp	r3, #16
 121 0080 FAD1     		bne	.L2
 122              	.LBE2:
  41:security.c    **** 	
  42:security.c    **** 	// Decrypt the given buffer
  43:security.c    **** 	// New scsi2sd calls proxy, passes it here.
ARM GAS  C:\Users\RABBIT~1\AppData\Local\Temp\cc9K3pWs.s 			page 4


  44:security.c    **** 	// and in this way, it can do a licence check
  45:security.c    **** 	AES_CBC_decrypt_buffer(&ctx, buf, count);
 123              		.loc 1 45 0 is_stmt 1
 124 0082 3A46     		mov	r2, r7
 125 0084 3146     		mov	r1, r6
 126 0086 04A8     		add	r0, sp, #16
 127 0088 FFF7FEFF 		bl	AES_CBC_decrypt_buffer
 128              	.LVL7:
  46:security.c    **** 	
  47:security.c    **** 	// A simple memset here gets optimised out. But we need to clear
  48:security.c    **** 	// out the key from the context.
  49:security.c    **** 	AES_init_ctx_iv(&ctx, key, iv);
 129              		.loc 1 49 0
 130 008c 2A46     		mov	r2, r5
 131 008e 6946     		mov	r1, sp
 132 0090 04A8     		add	r0, sp, #16
 133 0092 FFF7FEFF 		bl	AES_init_ctx_iv
 134              	.LVL8:
  50:security.c    **** }
 135              		.loc 1 50 0
 136 0096 35B0     		add	sp, sp, #212
 137              		.cfi_def_cfa_offset 20
 138              		@ sp needed
 139 0098 F0BD     		pop	{r4, r5, r6, r7, pc}
 140              		.cfi_endproc
 141              	.LFE63:
 142              		.size	codesrcDecrypt, .-codesrcDecrypt
 143              		.text
 144              	.Letext0:
 145              		.file 2 "c:\\program files (x86)\\cypress\\psoc creator\\4.2\\psoc creator\\import\\gnu\\arm\\5.4.
 146              		.file 3 "c:\\program files (x86)\\cypress\\psoc creator\\4.2\\psoc creator\\import\\gnu\\arm\\5.4.
 147              		.file 4 "tiny-AES-c-master/aes.h"
 148              		.file 5 "Generated_Source\\PSoC5/core_cm3.h"