ARM GAS  C:\Users\RABBIT~1\AppData\Local\Temp\ccSIh51e.s 			page 1


   1              		.syntax unified
   2              		.cpu cortex-m3
   3              		.fpu softvfp
   4              		.eabi_attribute 20, 1
   5              		.eabi_attribute 21, 1
   6              		.eabi_attribute 23, 3
   7              		.eabi_attribute 24, 1
   8              		.eabi_attribute 25, 1
   9              		.eabi_attribute 26, 1
  10              		.eabi_attribute 30, 4
  11              		.eabi_attribute 34, 1
  12              		.eabi_attribute 18, 4
  13              		.thumb
  14              		.syntax unified
  15              		.file	"USBFS_drv.c"
  16              		.text
  17              	.Ltext0:
  18              		.cfi_sections	.debug_frame
  19              		.section	.text.USBFS_LoadEP0,"ax",%progbits
  20              		.align	1
  21              		.global	USBFS_LoadEP0
  22              		.thumb
  23              		.thumb_func
  24              		.type	USBFS_LoadEP0, %function
  25              	USBFS_LoadEP0:
  26              	.LFB4:
  27              		.file 1 "Generated_Source\\PSoC5\\USBFS_drv.c"
   1:Generated_Source\PSoC5/USBFS_drv.c **** /***************************************************************************//**
   2:Generated_Source\PSoC5/USBFS_drv.c **** * \file USBFS_drv.c
   3:Generated_Source\PSoC5/USBFS_drv.c **** * \version 3.20
   4:Generated_Source\PSoC5/USBFS_drv.c **** *
   5:Generated_Source\PSoC5/USBFS_drv.c **** * \brief
   6:Generated_Source\PSoC5/USBFS_drv.c **** *  This file contains the Endpoint 0 Driver for the USBFS Component.  
   7:Generated_Source\PSoC5/USBFS_drv.c **** *
   8:Generated_Source\PSoC5/USBFS_drv.c **** ********************************************************************************
   9:Generated_Source\PSoC5/USBFS_drv.c **** * \copyright
  10:Generated_Source\PSoC5/USBFS_drv.c **** * Copyright 2008-2016, Cypress Semiconductor Corporation.  All rights reserved.
  11:Generated_Source\PSoC5/USBFS_drv.c **** * You may use this file only in accordance with the license, terms, conditions,
  12:Generated_Source\PSoC5/USBFS_drv.c **** * disclaimers, and limitations in the end user license agreement accompanying
  13:Generated_Source\PSoC5/USBFS_drv.c **** * the software package with which this file was provided.
  14:Generated_Source\PSoC5/USBFS_drv.c **** *******************************************************************************/
  15:Generated_Source\PSoC5/USBFS_drv.c **** 
  16:Generated_Source\PSoC5/USBFS_drv.c **** #include "USBFS_pvt.h"
  17:Generated_Source\PSoC5/USBFS_drv.c **** 
  18:Generated_Source\PSoC5/USBFS_drv.c **** 
  19:Generated_Source\PSoC5/USBFS_drv.c **** 
  20:Generated_Source\PSoC5/USBFS_drv.c **** /***************************************
  21:Generated_Source\PSoC5/USBFS_drv.c **** * Global data allocation
  22:Generated_Source\PSoC5/USBFS_drv.c **** ***************************************/
  23:Generated_Source\PSoC5/USBFS_drv.c **** 
  24:Generated_Source\PSoC5/USBFS_drv.c **** volatile T_USBFS_EP_CTL_BLOCK USBFS_EP[USBFS_MAX_EP];
  25:Generated_Source\PSoC5/USBFS_drv.c **** 
  26:Generated_Source\PSoC5/USBFS_drv.c **** /** Contains the current configuration number, which is set by the host using a 
  27:Generated_Source\PSoC5/USBFS_drv.c ****  * SET_CONFIGURATION request. This variable is initialized to zero in 
  28:Generated_Source\PSoC5/USBFS_drv.c ****  * USBFS_InitComponent() API and can be read by the USBFS_GetConfiguration() 
  29:Generated_Source\PSoC5/USBFS_drv.c ****  * API.*/
  30:Generated_Source\PSoC5/USBFS_drv.c **** volatile uint8 USBFS_configuration;
ARM GAS  C:\Users\RABBIT~1\AppData\Local\Temp\ccSIh51e.s 			page 2


  31:Generated_Source\PSoC5/USBFS_drv.c **** 
  32:Generated_Source\PSoC5/USBFS_drv.c **** /** Contains the current interface number.*/
  33:Generated_Source\PSoC5/USBFS_drv.c **** volatile uint8 USBFS_interfaceNumber;
  34:Generated_Source\PSoC5/USBFS_drv.c **** 
  35:Generated_Source\PSoC5/USBFS_drv.c **** /** This variable is set to one after SET_CONFIGURATION and SET_INTERFACE 
  36:Generated_Source\PSoC5/USBFS_drv.c ****  *requests. It can be read by the USBFS_IsConfigurationChanged() API */
  37:Generated_Source\PSoC5/USBFS_drv.c **** volatile uint8 USBFS_configurationChanged;
  38:Generated_Source\PSoC5/USBFS_drv.c **** 
  39:Generated_Source\PSoC5/USBFS_drv.c **** /** Contains the current device address.*/
  40:Generated_Source\PSoC5/USBFS_drv.c **** volatile uint8 USBFS_deviceAddress;
  41:Generated_Source\PSoC5/USBFS_drv.c **** 
  42:Generated_Source\PSoC5/USBFS_drv.c **** /** This is a two-bit variable that contains power status in the bit 0 
  43:Generated_Source\PSoC5/USBFS_drv.c ****  * (DEVICE_STATUS_BUS_POWERED or DEVICE_STATUS_SELF_POWERED) and remote wakeup 
  44:Generated_Source\PSoC5/USBFS_drv.c ****  * status (DEVICE_STATUS_REMOTE_WAKEUP) in the bit 1. This variable is 
  45:Generated_Source\PSoC5/USBFS_drv.c ****  * initialized to zero in USBFS_InitComponent() API, configured by the 
  46:Generated_Source\PSoC5/USBFS_drv.c ****  * USBFS_SetPowerStatus() API. The remote wakeup status cannot be set using the 
  47:Generated_Source\PSoC5/USBFS_drv.c ****  * API SetPowerStatus(). */
  48:Generated_Source\PSoC5/USBFS_drv.c **** volatile uint8 USBFS_deviceStatus;
  49:Generated_Source\PSoC5/USBFS_drv.c **** 
  50:Generated_Source\PSoC5/USBFS_drv.c **** volatile uint8 USBFS_interfaceSetting[USBFS_MAX_INTERFACES_NUMBER];
  51:Generated_Source\PSoC5/USBFS_drv.c **** volatile uint8 USBFS_interfaceSetting_last[USBFS_MAX_INTERFACES_NUMBER];
  52:Generated_Source\PSoC5/USBFS_drv.c **** volatile uint8 USBFS_interfaceStatus[USBFS_MAX_INTERFACES_NUMBER];
  53:Generated_Source\PSoC5/USBFS_drv.c **** 
  54:Generated_Source\PSoC5/USBFS_drv.c **** /** Contains the started device number. This variable is set by the 
  55:Generated_Source\PSoC5/USBFS_drv.c ****  * USBFS_Start() or USBFS_InitComponent() APIs.*/
  56:Generated_Source\PSoC5/USBFS_drv.c **** volatile uint8 USBFS_device;
  57:Generated_Source\PSoC5/USBFS_drv.c **** 
  58:Generated_Source\PSoC5/USBFS_drv.c **** /** Initialized class array for each interface. It is used for handling Class 
  59:Generated_Source\PSoC5/USBFS_drv.c ****  * specific requests depend on interface class. Different classes in multiple 
  60:Generated_Source\PSoC5/USBFS_drv.c ****  * alternate settings are not supported.*/
  61:Generated_Source\PSoC5/USBFS_drv.c **** const uint8 CYCODE *USBFS_interfaceClass;
  62:Generated_Source\PSoC5/USBFS_drv.c **** 
  63:Generated_Source\PSoC5/USBFS_drv.c **** 
  64:Generated_Source\PSoC5/USBFS_drv.c **** /***************************************
  65:Generated_Source\PSoC5/USBFS_drv.c **** * Local data allocation
  66:Generated_Source\PSoC5/USBFS_drv.c **** ***************************************/
  67:Generated_Source\PSoC5/USBFS_drv.c **** 
  68:Generated_Source\PSoC5/USBFS_drv.c **** volatile uint8  USBFS_ep0Toggle;
  69:Generated_Source\PSoC5/USBFS_drv.c **** volatile uint8  USBFS_lastPacketSize;
  70:Generated_Source\PSoC5/USBFS_drv.c **** 
  71:Generated_Source\PSoC5/USBFS_drv.c **** /** This variable is used by the communication functions to handle the current 
  72:Generated_Source\PSoC5/USBFS_drv.c **** * transfer state.
  73:Generated_Source\PSoC5/USBFS_drv.c **** * Initialized to TRANS_STATE_IDLE in the USBFS_InitComponent() API and after a 
  74:Generated_Source\PSoC5/USBFS_drv.c **** * complete transfer in the status stage.
  75:Generated_Source\PSoC5/USBFS_drv.c **** * Changed to the TRANS_STATE_CONTROL_READ or TRANS_STATE_CONTROL_WRITE in setup 
  76:Generated_Source\PSoC5/USBFS_drv.c **** * transaction depending on the request type.
  77:Generated_Source\PSoC5/USBFS_drv.c **** */
  78:Generated_Source\PSoC5/USBFS_drv.c **** volatile uint8  USBFS_transferState;
  79:Generated_Source\PSoC5/USBFS_drv.c **** volatile T_USBFS_TD USBFS_currentTD;
  80:Generated_Source\PSoC5/USBFS_drv.c **** volatile uint8  USBFS_ep0Mode;
  81:Generated_Source\PSoC5/USBFS_drv.c **** volatile uint8  USBFS_ep0Count;
  82:Generated_Source\PSoC5/USBFS_drv.c **** volatile uint16 USBFS_transferByteCount;
  83:Generated_Source\PSoC5/USBFS_drv.c **** 
  84:Generated_Source\PSoC5/USBFS_drv.c **** 
  85:Generated_Source\PSoC5/USBFS_drv.c **** /*******************************************************************************
  86:Generated_Source\PSoC5/USBFS_drv.c **** * Function Name: USBFS_ep_0_Interrupt
  87:Generated_Source\PSoC5/USBFS_drv.c **** ****************************************************************************//**
ARM GAS  C:\Users\RABBIT~1\AppData\Local\Temp\ccSIh51e.s 			page 3


  88:Generated_Source\PSoC5/USBFS_drv.c **** *
  89:Generated_Source\PSoC5/USBFS_drv.c **** *  This Interrupt Service Routine handles Endpoint 0 (Control Pipe) traffic.
  90:Generated_Source\PSoC5/USBFS_drv.c **** *  It dispatches setup requests and handles the data and status stages.
  91:Generated_Source\PSoC5/USBFS_drv.c **** *
  92:Generated_Source\PSoC5/USBFS_drv.c **** *
  93:Generated_Source\PSoC5/USBFS_drv.c **** *******************************************************************************/
  94:Generated_Source\PSoC5/USBFS_drv.c **** CY_ISR(USBFS_EP_0_ISR)
  95:Generated_Source\PSoC5/USBFS_drv.c **** {
  96:Generated_Source\PSoC5/USBFS_drv.c ****     uint8 tempReg;
  97:Generated_Source\PSoC5/USBFS_drv.c ****     uint8 modifyReg;
  98:Generated_Source\PSoC5/USBFS_drv.c **** 
  99:Generated_Source\PSoC5/USBFS_drv.c **** #ifdef USBFS_EP_0_ISR_ENTRY_CALLBACK
 100:Generated_Source\PSoC5/USBFS_drv.c ****     USBFS_EP_0_ISR_EntryCallback();
 101:Generated_Source\PSoC5/USBFS_drv.c **** #endif /* (USBFS_EP_0_ISR_ENTRY_CALLBACK) */
 102:Generated_Source\PSoC5/USBFS_drv.c ****     
 103:Generated_Source\PSoC5/USBFS_drv.c ****     tempReg = USBFS_EP0_CR_REG;
 104:Generated_Source\PSoC5/USBFS_drv.c ****     if ((tempReg & USBFS_MODE_ACKD) != 0u)
 105:Generated_Source\PSoC5/USBFS_drv.c ****     {
 106:Generated_Source\PSoC5/USBFS_drv.c ****         modifyReg = 1u;
 107:Generated_Source\PSoC5/USBFS_drv.c ****         if ((tempReg & USBFS_MODE_SETUP_RCVD) != 0u)
 108:Generated_Source\PSoC5/USBFS_drv.c ****         {
 109:Generated_Source\PSoC5/USBFS_drv.c ****             if ((tempReg & USBFS_MODE_MASK) != USBFS_MODE_NAK_IN_OUT)
 110:Generated_Source\PSoC5/USBFS_drv.c ****             {
 111:Generated_Source\PSoC5/USBFS_drv.c ****                 /* Mode not equal to NAK_IN_OUT: invalid setup */
 112:Generated_Source\PSoC5/USBFS_drv.c ****                 modifyReg = 0u;
 113:Generated_Source\PSoC5/USBFS_drv.c ****             }
 114:Generated_Source\PSoC5/USBFS_drv.c ****             else
 115:Generated_Source\PSoC5/USBFS_drv.c ****             {
 116:Generated_Source\PSoC5/USBFS_drv.c ****                 USBFS_HandleSetup();
 117:Generated_Source\PSoC5/USBFS_drv.c ****                 
 118:Generated_Source\PSoC5/USBFS_drv.c ****                 if ((USBFS_ep0Mode & USBFS_MODE_SETUP_RCVD) != 0u)
 119:Generated_Source\PSoC5/USBFS_drv.c ****                 {
 120:Generated_Source\PSoC5/USBFS_drv.c ****                     /* SETUP bit set: exit without mode modificaiton */
 121:Generated_Source\PSoC5/USBFS_drv.c ****                     modifyReg = 0u;
 122:Generated_Source\PSoC5/USBFS_drv.c ****                 }
 123:Generated_Source\PSoC5/USBFS_drv.c ****             }
 124:Generated_Source\PSoC5/USBFS_drv.c ****         }
 125:Generated_Source\PSoC5/USBFS_drv.c ****         else if ((tempReg & USBFS_MODE_IN_RCVD) != 0u)
 126:Generated_Source\PSoC5/USBFS_drv.c ****         {
 127:Generated_Source\PSoC5/USBFS_drv.c ****             USBFS_HandleIN();
 128:Generated_Source\PSoC5/USBFS_drv.c ****         }
 129:Generated_Source\PSoC5/USBFS_drv.c ****         else if ((tempReg & USBFS_MODE_OUT_RCVD) != 0u)
 130:Generated_Source\PSoC5/USBFS_drv.c ****         {
 131:Generated_Source\PSoC5/USBFS_drv.c ****             USBFS_HandleOUT();
 132:Generated_Source\PSoC5/USBFS_drv.c ****         }
 133:Generated_Source\PSoC5/USBFS_drv.c ****         else
 134:Generated_Source\PSoC5/USBFS_drv.c ****         {
 135:Generated_Source\PSoC5/USBFS_drv.c ****             modifyReg = 0u;
 136:Generated_Source\PSoC5/USBFS_drv.c ****         }
 137:Generated_Source\PSoC5/USBFS_drv.c ****         
 138:Generated_Source\PSoC5/USBFS_drv.c ****         /* Modify the EP0_CR register */
 139:Generated_Source\PSoC5/USBFS_drv.c ****         if (modifyReg != 0u)
 140:Generated_Source\PSoC5/USBFS_drv.c ****         {
 141:Generated_Source\PSoC5/USBFS_drv.c ****             
 142:Generated_Source\PSoC5/USBFS_drv.c ****             tempReg = USBFS_EP0_CR_REG;
 143:Generated_Source\PSoC5/USBFS_drv.c ****             
 144:Generated_Source\PSoC5/USBFS_drv.c ****             /* Make sure that SETUP bit is cleared before modification */
ARM GAS  C:\Users\RABBIT~1\AppData\Local\Temp\ccSIh51e.s 			page 4


 145:Generated_Source\PSoC5/USBFS_drv.c ****             if ((tempReg & USBFS_MODE_SETUP_RCVD) == 0u)
 146:Generated_Source\PSoC5/USBFS_drv.c ****             {
 147:Generated_Source\PSoC5/USBFS_drv.c ****                 /* Update count register */
 148:Generated_Source\PSoC5/USBFS_drv.c ****                 tempReg = (uint8) USBFS_ep0Toggle | USBFS_ep0Count;
 149:Generated_Source\PSoC5/USBFS_drv.c ****                 USBFS_EP0_CNT_REG = tempReg;
 150:Generated_Source\PSoC5/USBFS_drv.c ****                
 151:Generated_Source\PSoC5/USBFS_drv.c ****                 /* Make sure that previous write operaiton was successful */
 152:Generated_Source\PSoC5/USBFS_drv.c ****                 if (tempReg == USBFS_EP0_CNT_REG)
 153:Generated_Source\PSoC5/USBFS_drv.c ****                 {
 154:Generated_Source\PSoC5/USBFS_drv.c ****                     /* Repeat until next successful write operation */
 155:Generated_Source\PSoC5/USBFS_drv.c ****                     do
 156:Generated_Source\PSoC5/USBFS_drv.c ****                     {
 157:Generated_Source\PSoC5/USBFS_drv.c ****                         /* Init temporary variable */
 158:Generated_Source\PSoC5/USBFS_drv.c ****                         modifyReg = USBFS_ep0Mode;
 159:Generated_Source\PSoC5/USBFS_drv.c ****                         
 160:Generated_Source\PSoC5/USBFS_drv.c ****                         /* Unlock register */
 161:Generated_Source\PSoC5/USBFS_drv.c ****                         tempReg = (uint8) (USBFS_EP0_CR_REG & USBFS_MODE_SETUP_RCVD);
 162:Generated_Source\PSoC5/USBFS_drv.c ****                         
 163:Generated_Source\PSoC5/USBFS_drv.c ****                         /* Check if SETUP bit is not set */
 164:Generated_Source\PSoC5/USBFS_drv.c ****                         if (0u == tempReg)
 165:Generated_Source\PSoC5/USBFS_drv.c ****                         {
 166:Generated_Source\PSoC5/USBFS_drv.c ****                             /* Set the Mode Register  */
 167:Generated_Source\PSoC5/USBFS_drv.c ****                             USBFS_EP0_CR_REG = USBFS_ep0Mode;
 168:Generated_Source\PSoC5/USBFS_drv.c ****                             
 169:Generated_Source\PSoC5/USBFS_drv.c ****                             /* Writing check */
 170:Generated_Source\PSoC5/USBFS_drv.c ****                             modifyReg = USBFS_EP0_CR_REG & USBFS_MODE_MASK;
 171:Generated_Source\PSoC5/USBFS_drv.c ****                         }
 172:Generated_Source\PSoC5/USBFS_drv.c ****                     }
 173:Generated_Source\PSoC5/USBFS_drv.c ****                     while (modifyReg != USBFS_ep0Mode);
 174:Generated_Source\PSoC5/USBFS_drv.c ****                 }
 175:Generated_Source\PSoC5/USBFS_drv.c ****             }
 176:Generated_Source\PSoC5/USBFS_drv.c ****         }
 177:Generated_Source\PSoC5/USBFS_drv.c ****     }
 178:Generated_Source\PSoC5/USBFS_drv.c **** 
 179:Generated_Source\PSoC5/USBFS_drv.c ****     USBFS_ClearSieInterruptSource(USBFS_INTR_SIE_EP0_INTR);
 180:Generated_Source\PSoC5/USBFS_drv.c **** 	
 181:Generated_Source\PSoC5/USBFS_drv.c **** #ifdef USBFS_EP_0_ISR_EXIT_CALLBACK
 182:Generated_Source\PSoC5/USBFS_drv.c ****     USBFS_EP_0_ISR_ExitCallback();
 183:Generated_Source\PSoC5/USBFS_drv.c **** #endif /* (USBFS_EP_0_ISR_EXIT_CALLBACK) */
 184:Generated_Source\PSoC5/USBFS_drv.c **** }
 185:Generated_Source\PSoC5/USBFS_drv.c **** 
 186:Generated_Source\PSoC5/USBFS_drv.c **** 
 187:Generated_Source\PSoC5/USBFS_drv.c **** /*******************************************************************************
 188:Generated_Source\PSoC5/USBFS_drv.c **** * Function Name: USBFS_HandleSetup
 189:Generated_Source\PSoC5/USBFS_drv.c **** ****************************************************************************//**
 190:Generated_Source\PSoC5/USBFS_drv.c **** *
 191:Generated_Source\PSoC5/USBFS_drv.c **** *  This Routine dispatches requests for the four USB request types
 192:Generated_Source\PSoC5/USBFS_drv.c **** *
 193:Generated_Source\PSoC5/USBFS_drv.c **** *
 194:Generated_Source\PSoC5/USBFS_drv.c **** * \reentrant
 195:Generated_Source\PSoC5/USBFS_drv.c **** *  No.
 196:Generated_Source\PSoC5/USBFS_drv.c **** *
 197:Generated_Source\PSoC5/USBFS_drv.c **** *******************************************************************************/
 198:Generated_Source\PSoC5/USBFS_drv.c **** void USBFS_HandleSetup(void) 
 199:Generated_Source\PSoC5/USBFS_drv.c **** {
 200:Generated_Source\PSoC5/USBFS_drv.c ****     uint8 requestHandled;
 201:Generated_Source\PSoC5/USBFS_drv.c ****     
ARM GAS  C:\Users\RABBIT~1\AppData\Local\Temp\ccSIh51e.s 			page 5


 202:Generated_Source\PSoC5/USBFS_drv.c ****     /* Clear register lock by SIE (read register) and clear setup bit 
 203:Generated_Source\PSoC5/USBFS_drv.c ****     * (write any value in register).
 204:Generated_Source\PSoC5/USBFS_drv.c ****     */
 205:Generated_Source\PSoC5/USBFS_drv.c ****     requestHandled = (uint8) USBFS_EP0_CR_REG;
 206:Generated_Source\PSoC5/USBFS_drv.c ****     USBFS_EP0_CR_REG = (uint8) requestHandled;
 207:Generated_Source\PSoC5/USBFS_drv.c ****     requestHandled = (uint8) USBFS_EP0_CR_REG;
 208:Generated_Source\PSoC5/USBFS_drv.c **** 
 209:Generated_Source\PSoC5/USBFS_drv.c ****     if ((requestHandled & USBFS_MODE_SETUP_RCVD) != 0u)
 210:Generated_Source\PSoC5/USBFS_drv.c ****     {
 211:Generated_Source\PSoC5/USBFS_drv.c ****         /* SETUP bit is set: exit without mode modification. */
 212:Generated_Source\PSoC5/USBFS_drv.c ****         USBFS_ep0Mode = requestHandled;
 213:Generated_Source\PSoC5/USBFS_drv.c ****     }
 214:Generated_Source\PSoC5/USBFS_drv.c ****     else
 215:Generated_Source\PSoC5/USBFS_drv.c ****     {
 216:Generated_Source\PSoC5/USBFS_drv.c ****         /* In case the previous transfer did not complete, close it out */
 217:Generated_Source\PSoC5/USBFS_drv.c ****         USBFS_UpdateStatusBlock(USBFS_XFER_PREMATURE);
 218:Generated_Source\PSoC5/USBFS_drv.c **** 
 219:Generated_Source\PSoC5/USBFS_drv.c ****         /* Check request type. */
 220:Generated_Source\PSoC5/USBFS_drv.c ****         switch (USBFS_bmRequestTypeReg & USBFS_RQST_TYPE_MASK)
 221:Generated_Source\PSoC5/USBFS_drv.c ****         {
 222:Generated_Source\PSoC5/USBFS_drv.c ****             case USBFS_RQST_TYPE_STD:
 223:Generated_Source\PSoC5/USBFS_drv.c ****                 requestHandled = USBFS_HandleStandardRqst();
 224:Generated_Source\PSoC5/USBFS_drv.c ****                 break;
 225:Generated_Source\PSoC5/USBFS_drv.c ****                 
 226:Generated_Source\PSoC5/USBFS_drv.c ****             case USBFS_RQST_TYPE_CLS:
 227:Generated_Source\PSoC5/USBFS_drv.c ****                 requestHandled = USBFS_DispatchClassRqst();
 228:Generated_Source\PSoC5/USBFS_drv.c ****                 break;
 229:Generated_Source\PSoC5/USBFS_drv.c ****                 
 230:Generated_Source\PSoC5/USBFS_drv.c ****             case USBFS_RQST_TYPE_VND:
 231:Generated_Source\PSoC5/USBFS_drv.c ****                 requestHandled = USBFS_HandleVendorRqst();
 232:Generated_Source\PSoC5/USBFS_drv.c ****                 break;
 233:Generated_Source\PSoC5/USBFS_drv.c ****                 
 234:Generated_Source\PSoC5/USBFS_drv.c ****             default:
 235:Generated_Source\PSoC5/USBFS_drv.c ****                 requestHandled = USBFS_FALSE;
 236:Generated_Source\PSoC5/USBFS_drv.c ****                 break;
 237:Generated_Source\PSoC5/USBFS_drv.c ****         }
 238:Generated_Source\PSoC5/USBFS_drv.c ****         
 239:Generated_Source\PSoC5/USBFS_drv.c ****         /* If request is not recognized. Stall endpoint 0 IN and OUT. */
 240:Generated_Source\PSoC5/USBFS_drv.c ****         if (requestHandled == USBFS_FALSE)
 241:Generated_Source\PSoC5/USBFS_drv.c ****         {
 242:Generated_Source\PSoC5/USBFS_drv.c ****             USBFS_ep0Mode = USBFS_MODE_STALL_IN_OUT;
 243:Generated_Source\PSoC5/USBFS_drv.c ****         }
 244:Generated_Source\PSoC5/USBFS_drv.c ****     }
 245:Generated_Source\PSoC5/USBFS_drv.c **** }
 246:Generated_Source\PSoC5/USBFS_drv.c **** 
 247:Generated_Source\PSoC5/USBFS_drv.c **** 
 248:Generated_Source\PSoC5/USBFS_drv.c **** /*******************************************************************************
 249:Generated_Source\PSoC5/USBFS_drv.c **** * Function Name: USBFS_HandleIN
 250:Generated_Source\PSoC5/USBFS_drv.c **** ****************************************************************************//**
 251:Generated_Source\PSoC5/USBFS_drv.c **** *
 252:Generated_Source\PSoC5/USBFS_drv.c **** *  This routine handles EP0 IN transfers.
 253:Generated_Source\PSoC5/USBFS_drv.c **** *
 254:Generated_Source\PSoC5/USBFS_drv.c **** *
 255:Generated_Source\PSoC5/USBFS_drv.c **** * \reentrant
 256:Generated_Source\PSoC5/USBFS_drv.c **** *  No.
 257:Generated_Source\PSoC5/USBFS_drv.c **** *
 258:Generated_Source\PSoC5/USBFS_drv.c **** *******************************************************************************/
ARM GAS  C:\Users\RABBIT~1\AppData\Local\Temp\ccSIh51e.s 			page 6


 259:Generated_Source\PSoC5/USBFS_drv.c **** void USBFS_HandleIN(void) 
 260:Generated_Source\PSoC5/USBFS_drv.c **** {
 261:Generated_Source\PSoC5/USBFS_drv.c ****     switch (USBFS_transferState)
 262:Generated_Source\PSoC5/USBFS_drv.c ****     {
 263:Generated_Source\PSoC5/USBFS_drv.c ****         case USBFS_TRANS_STATE_IDLE:
 264:Generated_Source\PSoC5/USBFS_drv.c ****             break;
 265:Generated_Source\PSoC5/USBFS_drv.c ****         
 266:Generated_Source\PSoC5/USBFS_drv.c ****         case USBFS_TRANS_STATE_CONTROL_READ:
 267:Generated_Source\PSoC5/USBFS_drv.c ****             USBFS_ControlReadDataStage();
 268:Generated_Source\PSoC5/USBFS_drv.c ****             break;
 269:Generated_Source\PSoC5/USBFS_drv.c ****             
 270:Generated_Source\PSoC5/USBFS_drv.c ****         case USBFS_TRANS_STATE_CONTROL_WRITE:
 271:Generated_Source\PSoC5/USBFS_drv.c ****             USBFS_ControlWriteStatusStage();
 272:Generated_Source\PSoC5/USBFS_drv.c ****             break;
 273:Generated_Source\PSoC5/USBFS_drv.c ****             
 274:Generated_Source\PSoC5/USBFS_drv.c ****         case USBFS_TRANS_STATE_NO_DATA_CONTROL:
 275:Generated_Source\PSoC5/USBFS_drv.c ****             USBFS_NoDataControlStatusStage();
 276:Generated_Source\PSoC5/USBFS_drv.c ****             break;
 277:Generated_Source\PSoC5/USBFS_drv.c ****             
 278:Generated_Source\PSoC5/USBFS_drv.c ****         default:    /* there are no more states */
 279:Generated_Source\PSoC5/USBFS_drv.c ****             break;
 280:Generated_Source\PSoC5/USBFS_drv.c ****     }
 281:Generated_Source\PSoC5/USBFS_drv.c **** }
 282:Generated_Source\PSoC5/USBFS_drv.c **** 
 283:Generated_Source\PSoC5/USBFS_drv.c **** 
 284:Generated_Source\PSoC5/USBFS_drv.c **** /*******************************************************************************
 285:Generated_Source\PSoC5/USBFS_drv.c **** * Function Name: USBFS_HandleOUT
 286:Generated_Source\PSoC5/USBFS_drv.c **** ****************************************************************************//**
 287:Generated_Source\PSoC5/USBFS_drv.c **** *
 288:Generated_Source\PSoC5/USBFS_drv.c **** *  This routine handles EP0 OUT transfers.
 289:Generated_Source\PSoC5/USBFS_drv.c **** *
 290:Generated_Source\PSoC5/USBFS_drv.c **** *
 291:Generated_Source\PSoC5/USBFS_drv.c **** * \reentrant
 292:Generated_Source\PSoC5/USBFS_drv.c **** *  No.
 293:Generated_Source\PSoC5/USBFS_drv.c **** *
 294:Generated_Source\PSoC5/USBFS_drv.c **** *******************************************************************************/
 295:Generated_Source\PSoC5/USBFS_drv.c **** void USBFS_HandleOUT(void) 
 296:Generated_Source\PSoC5/USBFS_drv.c **** {
 297:Generated_Source\PSoC5/USBFS_drv.c ****     switch (USBFS_transferState)
 298:Generated_Source\PSoC5/USBFS_drv.c ****     {
 299:Generated_Source\PSoC5/USBFS_drv.c ****         case USBFS_TRANS_STATE_IDLE:
 300:Generated_Source\PSoC5/USBFS_drv.c ****             break;
 301:Generated_Source\PSoC5/USBFS_drv.c ****         
 302:Generated_Source\PSoC5/USBFS_drv.c ****         case USBFS_TRANS_STATE_CONTROL_READ:
 303:Generated_Source\PSoC5/USBFS_drv.c ****             USBFS_ControlReadStatusStage();
 304:Generated_Source\PSoC5/USBFS_drv.c ****             break;
 305:Generated_Source\PSoC5/USBFS_drv.c ****             
 306:Generated_Source\PSoC5/USBFS_drv.c ****         case USBFS_TRANS_STATE_CONTROL_WRITE:
 307:Generated_Source\PSoC5/USBFS_drv.c ****             USBFS_ControlWriteDataStage();
 308:Generated_Source\PSoC5/USBFS_drv.c ****             break;
 309:Generated_Source\PSoC5/USBFS_drv.c ****             
 310:Generated_Source\PSoC5/USBFS_drv.c ****         case USBFS_TRANS_STATE_NO_DATA_CONTROL:
 311:Generated_Source\PSoC5/USBFS_drv.c ****             /* Update the completion block */
 312:Generated_Source\PSoC5/USBFS_drv.c ****             USBFS_UpdateStatusBlock(USBFS_XFER_ERROR);
 313:Generated_Source\PSoC5/USBFS_drv.c ****             
 314:Generated_Source\PSoC5/USBFS_drv.c ****             /* We expect no more data, so stall INs and OUTs */
 315:Generated_Source\PSoC5/USBFS_drv.c ****             USBFS_ep0Mode = USBFS_MODE_STALL_IN_OUT;
ARM GAS  C:\Users\RABBIT~1\AppData\Local\Temp\ccSIh51e.s 			page 7


 316:Generated_Source\PSoC5/USBFS_drv.c ****             break;
 317:Generated_Source\PSoC5/USBFS_drv.c ****             
 318:Generated_Source\PSoC5/USBFS_drv.c ****         default:    
 319:Generated_Source\PSoC5/USBFS_drv.c ****             /* There are no more states */
 320:Generated_Source\PSoC5/USBFS_drv.c ****             break;
 321:Generated_Source\PSoC5/USBFS_drv.c ****     }
 322:Generated_Source\PSoC5/USBFS_drv.c **** }
 323:Generated_Source\PSoC5/USBFS_drv.c **** 
 324:Generated_Source\PSoC5/USBFS_drv.c **** 
 325:Generated_Source\PSoC5/USBFS_drv.c **** /*******************************************************************************
 326:Generated_Source\PSoC5/USBFS_drv.c **** * Function Name: USBFS_LoadEP0
 327:Generated_Source\PSoC5/USBFS_drv.c **** ****************************************************************************//**
 328:Generated_Source\PSoC5/USBFS_drv.c **** *
 329:Generated_Source\PSoC5/USBFS_drv.c **** *  This routine loads the EP0 data registers for OUT transfers. It uses the
 330:Generated_Source\PSoC5/USBFS_drv.c **** *  currentTD (previously initialized by the _InitControlWrite function and
 331:Generated_Source\PSoC5/USBFS_drv.c **** *  updated for each OUT transfer, and the bLastPacketSize) to determine how
 332:Generated_Source\PSoC5/USBFS_drv.c **** *  many uint8s to transfer on the current OUT.
 333:Generated_Source\PSoC5/USBFS_drv.c **** *
 334:Generated_Source\PSoC5/USBFS_drv.c **** *  If the number of uint8s remaining is zero and the last transfer was full,
 335:Generated_Source\PSoC5/USBFS_drv.c **** *  we need to send a zero length packet.  Otherwise we send the minimum
 336:Generated_Source\PSoC5/USBFS_drv.c **** *  of the control endpoint size (8) or remaining number of uint8s for the
 337:Generated_Source\PSoC5/USBFS_drv.c **** *  transaction.
 338:Generated_Source\PSoC5/USBFS_drv.c **** *
 339:Generated_Source\PSoC5/USBFS_drv.c **** *
 340:Generated_Source\PSoC5/USBFS_drv.c **** * \globalvars
 341:Generated_Source\PSoC5/USBFS_drv.c **** *  USBFS_transferByteCount - Update the transfer byte count from the
 342:Generated_Source\PSoC5/USBFS_drv.c **** *     last transaction.
 343:Generated_Source\PSoC5/USBFS_drv.c **** *  USBFS_ep0Count - counts the data loaded to the SIE memory in
 344:Generated_Source\PSoC5/USBFS_drv.c **** *     current packet.
 345:Generated_Source\PSoC5/USBFS_drv.c **** *  USBFS_lastPacketSize - remembers the USBFS_ep0Count value for the
 346:Generated_Source\PSoC5/USBFS_drv.c **** *     next packet.
 347:Generated_Source\PSoC5/USBFS_drv.c **** *  USBFS_transferByteCount - sum of the previous bytes transferred
 348:Generated_Source\PSoC5/USBFS_drv.c **** *     on previous packets(sum of USBFS_lastPacketSize)
 349:Generated_Source\PSoC5/USBFS_drv.c **** *  USBFS_ep0Toggle - inverted
 350:Generated_Source\PSoC5/USBFS_drv.c **** *  USBFS_ep0Mode  - prepare for mode register content.
 351:Generated_Source\PSoC5/USBFS_drv.c **** *  USBFS_transferState - set to TRANS_STATE_CONTROL_READ
 352:Generated_Source\PSoC5/USBFS_drv.c **** *
 353:Generated_Source\PSoC5/USBFS_drv.c **** * \reentrant
 354:Generated_Source\PSoC5/USBFS_drv.c **** *  No.
 355:Generated_Source\PSoC5/USBFS_drv.c **** *
 356:Generated_Source\PSoC5/USBFS_drv.c **** *******************************************************************************/
 357:Generated_Source\PSoC5/USBFS_drv.c **** void USBFS_LoadEP0(void) 
 358:Generated_Source\PSoC5/USBFS_drv.c **** {
  28              		.loc 1 358 0
  29              		.cfi_startproc
  30              		@ args = 0, pretend = 0, frame = 0
  31              		@ frame_needed = 0, uses_anonymous_args = 0
  32              	.LVL0:
  33 0000 30B5     		push	{r4, r5, lr}
  34              		.cfi_def_cfa_offset 12
  35              		.cfi_offset 4, -12
  36              		.cfi_offset 5, -8
  37              		.cfi_offset 14, -4
 359:Generated_Source\PSoC5/USBFS_drv.c ****     uint8 ep0Count = 0u;
 360:Generated_Source\PSoC5/USBFS_drv.c **** 
 361:Generated_Source\PSoC5/USBFS_drv.c ****     /* Update the transfer byte count from the last transaction */
 362:Generated_Source\PSoC5/USBFS_drv.c ****     USBFS_transferByteCount += USBFS_lastPacketSize;
ARM GAS  C:\Users\RABBIT~1\AppData\Local\Temp\ccSIh51e.s 			page 8


  38              		.loc 1 362 0
  39 0002 1A4A     		ldr	r2, .L17
  40 0004 1A49     		ldr	r1, .L17+4
 363:Generated_Source\PSoC5/USBFS_drv.c **** 
 364:Generated_Source\PSoC5/USBFS_drv.c ****     /* Now load the next transaction */
 365:Generated_Source\PSoC5/USBFS_drv.c ****     while ((USBFS_currentTD.count > 0u) && (ep0Count < 8u))
 366:Generated_Source\PSoC5/USBFS_drv.c ****     {
 367:Generated_Source\PSoC5/USBFS_drv.c ****         USBFS_EP0_DR_BASE.epData[ep0Count] = (uint8) *USBFS_currentTD.pData;
  41              		.loc 1 367 0
  42 0006 1B4D     		ldr	r5, .L17+8
 362:Generated_Source\PSoC5/USBFS_drv.c **** 
  43              		.loc 1 362 0
  44 0008 0878     		ldrb	r0, [r1]	@ zero_extendqisi2
  45 000a 1388     		ldrh	r3, [r2]
  46 000c 0344     		add	r3, r3, r0
  47 000e 9BB2     		uxth	r3, r3
  48 0010 1380     		strh	r3, [r2]	@ movhi
 365:Generated_Source\PSoC5/USBFS_drv.c ****     {
  49              		.loc 1 365 0
  50 0012 194A     		ldr	r2, .L17+12
  51 0014 0023     		movs	r3, #0
  52              	.LVL1:
  53              	.L2:
  54 0016 1488     		ldrh	r4, [r2]
  55 0018 D8B2     		uxtb	r0, r3
  56              	.LVL2:
  57 001a A4B2     		uxth	r4, r4
  58 001c 7CB1     		cbz	r4, .L3
 365:Generated_Source\PSoC5/USBFS_drv.c ****     {
  59              		.loc 1 365 0 is_stmt 0 discriminator 1
  60 001e 082B     		cmp	r3, #8
  61 0020 0CD0     		beq	.L16
  62              		.loc 1 367 0 is_stmt 1
  63 0022 5068     		ldr	r0, [r2, #4]
  64              	.LVL3:
  65 0024 0078     		ldrb	r0, [r0]	@ zero_extendqisi2
  66 0026 C0B2     		uxtb	r0, r0
  67 0028 E854     		strb	r0, [r5, r3]
 368:Generated_Source\PSoC5/USBFS_drv.c ****         USBFS_currentTD.pData = &USBFS_currentTD.pData[1u];
  68              		.loc 1 368 0
  69 002a 5068     		ldr	r0, [r2, #4]
  70 002c 0133     		adds	r3, r3, #1
  71              	.LVL4:
  72 002e 0130     		adds	r0, r0, #1
  73 0030 5060     		str	r0, [r2, #4]
 369:Generated_Source\PSoC5/USBFS_drv.c ****         ep0Count++;
 370:Generated_Source\PSoC5/USBFS_drv.c ****         USBFS_currentTD.count--;
  74              		.loc 1 370 0
  75 0032 1088     		ldrh	r0, [r2]
  76 0034 0138     		subs	r0, r0, #1
  77 0036 80B2     		uxth	r0, r0
  78 0038 1080     		strh	r0, [r2]	@ movhi
  79 003a ECE7     		b	.L2
  80              	.LVL5:
  81              	.L16:
  82 003c 1846     		mov	r0, r3
  83              	.LVL6:
ARM GAS  C:\Users\RABBIT~1\AppData\Local\Temp\ccSIh51e.s 			page 9


  84              	.L3:
 371:Generated_Source\PSoC5/USBFS_drv.c ****     }
 372:Generated_Source\PSoC5/USBFS_drv.c **** 
 373:Generated_Source\PSoC5/USBFS_drv.c ****     /* Support zero-length packet */
 374:Generated_Source\PSoC5/USBFS_drv.c ****     if ((USBFS_lastPacketSize == 8u) || (ep0Count > 0u))
  85              		.loc 1 374 0
  86 003e 0B78     		ldrb	r3, [r1]	@ zero_extendqisi2
  87              	.LVL7:
  88 0040 0E4C     		ldr	r4, .L17+16
  89 0042 082B     		cmp	r3, #8
  90 0044 0E4A     		ldr	r2, .L17+20
  91 0046 00D0     		beq	.L5
  92              		.loc 1 374 0 is_stmt 0 discriminator 1
  93 0048 40B1     		cbz	r0, .L6
  94              	.L5:
 375:Generated_Source\PSoC5/USBFS_drv.c ****     {
 376:Generated_Source\PSoC5/USBFS_drv.c ****         /* Update the data toggle */
 377:Generated_Source\PSoC5/USBFS_drv.c ****         USBFS_ep0Toggle ^= USBFS_EP0_CNT_DATA_TOGGLE;
  95              		.loc 1 377 0 is_stmt 1
  96 004a 0E4D     		ldr	r5, .L17+24
  97 004c 2B78     		ldrb	r3, [r5]	@ zero_extendqisi2
  98 004e 83F08003 		eor	r3, r3, #128
  99 0052 2B70     		strb	r3, [r5]
 378:Generated_Source\PSoC5/USBFS_drv.c ****         /* Set the Mode Register  */
 379:Generated_Source\PSoC5/USBFS_drv.c ****         USBFS_ep0Mode = USBFS_MODE_ACK_IN_STATUS_OUT;
 100              		.loc 1 379 0
 101 0054 0F23     		movs	r3, #15
 102 0056 2370     		strb	r3, [r4]
 380:Generated_Source\PSoC5/USBFS_drv.c ****         /* Update the state (or stay the same) */
 381:Generated_Source\PSoC5/USBFS_drv.c ****         USBFS_transferState = USBFS_TRANS_STATE_CONTROL_READ;
 103              		.loc 1 381 0
 104 0058 0223     		movs	r3, #2
 105 005a 01E0     		b	.L14
 106              	.L6:
 382:Generated_Source\PSoC5/USBFS_drv.c ****     }
 383:Generated_Source\PSoC5/USBFS_drv.c ****     else
 384:Generated_Source\PSoC5/USBFS_drv.c ****     {
 385:Generated_Source\PSoC5/USBFS_drv.c ****         /* Expect Status Stage Out */
 386:Generated_Source\PSoC5/USBFS_drv.c ****         USBFS_ep0Mode = USBFS_MODE_STATUS_OUT_ONLY;
 107              		.loc 1 386 0
 108 005c 0223     		movs	r3, #2
 109 005e 2370     		strb	r3, [r4]
 110              	.L14:
 387:Generated_Source\PSoC5/USBFS_drv.c ****         /* Update the state (or stay the same) */
 388:Generated_Source\PSoC5/USBFS_drv.c ****         USBFS_transferState = USBFS_TRANS_STATE_CONTROL_READ;
 111              		.loc 1 388 0
 112 0060 1370     		strb	r3, [r2]
 389:Generated_Source\PSoC5/USBFS_drv.c ****     }
 390:Generated_Source\PSoC5/USBFS_drv.c **** 
 391:Generated_Source\PSoC5/USBFS_drv.c ****     /* Save the packet size for next time */
 392:Generated_Source\PSoC5/USBFS_drv.c ****     USBFS_ep0Count =       (uint8) ep0Count;
 113              		.loc 1 392 0
 114 0062 094B     		ldr	r3, .L17+28
 115 0064 1870     		strb	r0, [r3]
 393:Generated_Source\PSoC5/USBFS_drv.c ****     USBFS_lastPacketSize = (uint8) ep0Count;
 116              		.loc 1 393 0
 117 0066 0870     		strb	r0, [r1]
ARM GAS  C:\Users\RABBIT~1\AppData\Local\Temp\ccSIh51e.s 			page 10


 118 0068 30BD     		pop	{r4, r5, pc}
 119              	.L18:
 120 006a 00BF     		.align	2
 121              	.L17:
 122 006c 00000000 		.word	USBFS_transferByteCount
 123 0070 00000000 		.word	USBFS_lastPacketSize
 124 0074 00600040 		.word	1073766400
 125 0078 00000000 		.word	USBFS_currentTD
 126 007c 00000000 		.word	USBFS_ep0Mode
 127 0080 00000000 		.word	USBFS_transferState
 128 0084 00000000 		.word	USBFS_ep0Toggle
 129 0088 00000000 		.word	USBFS_ep0Count
 130              		.cfi_endproc
 131              	.LFE4:
 132              		.size	USBFS_LoadEP0, .-USBFS_LoadEP0
 133              		.section	.text.USBFS_InitZeroLengthControlTransfer,"ax",%progbits
 134              		.align	1
 135              		.global	USBFS_InitZeroLengthControlTransfer
 136              		.thumb
 137              		.thumb_func
 138              		.type	USBFS_InitZeroLengthControlTransfer, %function
 139              	USBFS_InitZeroLengthControlTransfer:
 140              	.LFB6:
 394:Generated_Source\PSoC5/USBFS_drv.c **** }
 395:Generated_Source\PSoC5/USBFS_drv.c **** 
 396:Generated_Source\PSoC5/USBFS_drv.c **** 
 397:Generated_Source\PSoC5/USBFS_drv.c **** /*******************************************************************************
 398:Generated_Source\PSoC5/USBFS_drv.c **** * Function Name: USBFS_InitControlRead
 399:Generated_Source\PSoC5/USBFS_drv.c **** ****************************************************************************//**
 400:Generated_Source\PSoC5/USBFS_drv.c **** *
 401:Generated_Source\PSoC5/USBFS_drv.c **** *  Initialize a control read transaction. It is used to send data to the host.
 402:Generated_Source\PSoC5/USBFS_drv.c **** *  The following global variables should be initialized before this function
 403:Generated_Source\PSoC5/USBFS_drv.c **** *  called. To send zero length packet use InitZeroLengthControlTransfer
 404:Generated_Source\PSoC5/USBFS_drv.c **** *  function.
 405:Generated_Source\PSoC5/USBFS_drv.c **** *
 406:Generated_Source\PSoC5/USBFS_drv.c **** *
 407:Generated_Source\PSoC5/USBFS_drv.c **** * \return
 408:Generated_Source\PSoC5/USBFS_drv.c **** *  requestHandled state.
 409:Generated_Source\PSoC5/USBFS_drv.c **** *
 410:Generated_Source\PSoC5/USBFS_drv.c **** * \globalvars
 411:Generated_Source\PSoC5/USBFS_drv.c **** *  USBFS_currentTD.count - counts of data to be sent.
 412:Generated_Source\PSoC5/USBFS_drv.c **** *  USBFS_currentTD.pData - data pointer.
 413:Generated_Source\PSoC5/USBFS_drv.c **** *
 414:Generated_Source\PSoC5/USBFS_drv.c **** * \reentrant
 415:Generated_Source\PSoC5/USBFS_drv.c **** *  No.
 416:Generated_Source\PSoC5/USBFS_drv.c **** *
 417:Generated_Source\PSoC5/USBFS_drv.c **** *******************************************************************************/
 418:Generated_Source\PSoC5/USBFS_drv.c **** uint8 USBFS_InitControlRead(void) 
 419:Generated_Source\PSoC5/USBFS_drv.c **** {
 420:Generated_Source\PSoC5/USBFS_drv.c ****     uint16 xferCount;
 421:Generated_Source\PSoC5/USBFS_drv.c **** 
 422:Generated_Source\PSoC5/USBFS_drv.c ****     if (USBFS_currentTD.count == 0u)
 423:Generated_Source\PSoC5/USBFS_drv.c ****     {
 424:Generated_Source\PSoC5/USBFS_drv.c ****         (void) USBFS_InitZeroLengthControlTransfer();
 425:Generated_Source\PSoC5/USBFS_drv.c ****     }
 426:Generated_Source\PSoC5/USBFS_drv.c ****     else
 427:Generated_Source\PSoC5/USBFS_drv.c ****     {
ARM GAS  C:\Users\RABBIT~1\AppData\Local\Temp\ccSIh51e.s 			page 11


 428:Generated_Source\PSoC5/USBFS_drv.c ****         /* Set up the state machine */
 429:Generated_Source\PSoC5/USBFS_drv.c ****         USBFS_transferState = USBFS_TRANS_STATE_CONTROL_READ;
 430:Generated_Source\PSoC5/USBFS_drv.c ****         
 431:Generated_Source\PSoC5/USBFS_drv.c ****         /* Set the toggle, it gets updated in LoadEP */
 432:Generated_Source\PSoC5/USBFS_drv.c ****         USBFS_ep0Toggle = 0u;
 433:Generated_Source\PSoC5/USBFS_drv.c ****         
 434:Generated_Source\PSoC5/USBFS_drv.c ****         /* Initialize the Status Block */
 435:Generated_Source\PSoC5/USBFS_drv.c ****         USBFS_InitializeStatusBlock();
 436:Generated_Source\PSoC5/USBFS_drv.c ****         
 437:Generated_Source\PSoC5/USBFS_drv.c ****         xferCount = ((uint16)((uint16) USBFS_lengthHiReg << 8u) | ((uint16) USBFS_lengthLoReg));
 438:Generated_Source\PSoC5/USBFS_drv.c **** 
 439:Generated_Source\PSoC5/USBFS_drv.c ****         if (USBFS_currentTD.count > xferCount)
 440:Generated_Source\PSoC5/USBFS_drv.c ****         {
 441:Generated_Source\PSoC5/USBFS_drv.c ****             USBFS_currentTD.count = xferCount;
 442:Generated_Source\PSoC5/USBFS_drv.c ****         }
 443:Generated_Source\PSoC5/USBFS_drv.c ****         
 444:Generated_Source\PSoC5/USBFS_drv.c ****         USBFS_LoadEP0();
 445:Generated_Source\PSoC5/USBFS_drv.c ****     }
 446:Generated_Source\PSoC5/USBFS_drv.c **** 
 447:Generated_Source\PSoC5/USBFS_drv.c ****     return (USBFS_TRUE);
 448:Generated_Source\PSoC5/USBFS_drv.c **** }
 449:Generated_Source\PSoC5/USBFS_drv.c **** 
 450:Generated_Source\PSoC5/USBFS_drv.c **** 
 451:Generated_Source\PSoC5/USBFS_drv.c **** /*******************************************************************************
 452:Generated_Source\PSoC5/USBFS_drv.c **** * Function Name: USBFS_InitZeroLengthControlTransfer
 453:Generated_Source\PSoC5/USBFS_drv.c **** ****************************************************************************//**
 454:Generated_Source\PSoC5/USBFS_drv.c **** *
 455:Generated_Source\PSoC5/USBFS_drv.c **** *  Initialize a zero length data IN transfer.
 456:Generated_Source\PSoC5/USBFS_drv.c **** *
 457:Generated_Source\PSoC5/USBFS_drv.c **** * \return
 458:Generated_Source\PSoC5/USBFS_drv.c **** *  requestHandled state.
 459:Generated_Source\PSoC5/USBFS_drv.c **** *
 460:Generated_Source\PSoC5/USBFS_drv.c **** * \globalvars
 461:Generated_Source\PSoC5/USBFS_drv.c **** *  USBFS_ep0Toggle - set to EP0_CNT_DATA_TOGGLE
 462:Generated_Source\PSoC5/USBFS_drv.c **** *  USBFS_ep0Mode  - prepare for mode register content.
 463:Generated_Source\PSoC5/USBFS_drv.c **** *  USBFS_transferState - set to TRANS_STATE_CONTROL_READ
 464:Generated_Source\PSoC5/USBFS_drv.c **** *  USBFS_ep0Count - cleared, means the zero-length packet.
 465:Generated_Source\PSoC5/USBFS_drv.c **** *  USBFS_lastPacketSize - cleared.
 466:Generated_Source\PSoC5/USBFS_drv.c **** *
 467:Generated_Source\PSoC5/USBFS_drv.c **** * \reentrant
 468:Generated_Source\PSoC5/USBFS_drv.c **** *  No.
 469:Generated_Source\PSoC5/USBFS_drv.c **** *
 470:Generated_Source\PSoC5/USBFS_drv.c **** *******************************************************************************/
 471:Generated_Source\PSoC5/USBFS_drv.c **** uint8 USBFS_InitZeroLengthControlTransfer(void)
 472:Generated_Source\PSoC5/USBFS_drv.c ****                                                 
 473:Generated_Source\PSoC5/USBFS_drv.c **** {
 141              		.loc 1 473 0
 142              		.cfi_startproc
 143              		@ args = 0, pretend = 0, frame = 0
 144              		@ frame_needed = 0, uses_anonymous_args = 0
 145              		@ link register save eliminated.
 474:Generated_Source\PSoC5/USBFS_drv.c ****     /* Update the state */
 475:Generated_Source\PSoC5/USBFS_drv.c ****     USBFS_transferState = USBFS_TRANS_STATE_CONTROL_READ;
 146              		.loc 1 475 0
 147 0000 074B     		ldr	r3, .L20
 148 0002 0222     		movs	r2, #2
 149 0004 1A70     		strb	r2, [r3]
ARM GAS  C:\Users\RABBIT~1\AppData\Local\Temp\ccSIh51e.s 			page 12


 476:Generated_Source\PSoC5/USBFS_drv.c ****     
 477:Generated_Source\PSoC5/USBFS_drv.c ****     /* Set the data toggle */
 478:Generated_Source\PSoC5/USBFS_drv.c ****     USBFS_ep0Toggle = USBFS_EP0_CNT_DATA_TOGGLE;
 150              		.loc 1 478 0
 151 0006 074B     		ldr	r3, .L20+4
 152 0008 8022     		movs	r2, #128
 153 000a 1A70     		strb	r2, [r3]
 479:Generated_Source\PSoC5/USBFS_drv.c ****     
 480:Generated_Source\PSoC5/USBFS_drv.c ****     /* Set the Mode Register  */
 481:Generated_Source\PSoC5/USBFS_drv.c ****     USBFS_ep0Mode = USBFS_MODE_ACK_IN_STATUS_OUT;
 154              		.loc 1 481 0
 155 000c 064B     		ldr	r3, .L20+8
 156 000e 0F22     		movs	r2, #15
 157 0010 1A70     		strb	r2, [r3]
 482:Generated_Source\PSoC5/USBFS_drv.c ****     
 483:Generated_Source\PSoC5/USBFS_drv.c ****     /* Save the packet size for next time */
 484:Generated_Source\PSoC5/USBFS_drv.c ****     USBFS_lastPacketSize = 0u;
 158              		.loc 1 484 0
 159 0012 064A     		ldr	r2, .L20+12
 160 0014 0023     		movs	r3, #0
 161 0016 1370     		strb	r3, [r2]
 485:Generated_Source\PSoC5/USBFS_drv.c ****     
 486:Generated_Source\PSoC5/USBFS_drv.c ****     USBFS_ep0Count = 0u;
 162              		.loc 1 486 0
 163 0018 054A     		ldr	r2, .L20+16
 487:Generated_Source\PSoC5/USBFS_drv.c **** 
 488:Generated_Source\PSoC5/USBFS_drv.c ****     return (USBFS_TRUE);
 489:Generated_Source\PSoC5/USBFS_drv.c **** }
 164              		.loc 1 489 0
 165 001a 0120     		movs	r0, #1
 486:Generated_Source\PSoC5/USBFS_drv.c **** 
 166              		.loc 1 486 0
 167 001c 1370     		strb	r3, [r2]
 168              		.loc 1 489 0
 169 001e 7047     		bx	lr
 170              	.L21:
 171              		.align	2
 172              	.L20:
 173 0020 00000000 		.word	USBFS_transferState
 174 0024 00000000 		.word	USBFS_ep0Toggle
 175 0028 00000000 		.word	USBFS_ep0Mode
 176 002c 00000000 		.word	USBFS_lastPacketSize
 177 0030 00000000 		.word	USBFS_ep0Count
 178              		.cfi_endproc
 179              	.LFE6:
 180              		.size	USBFS_InitZeroLengthControlTransfer, .-USBFS_InitZeroLengthControlTransfer
 181              		.section	.text.USBFS_ControlReadDataStage,"ax",%progbits
 182              		.align	1
 183              		.global	USBFS_ControlReadDataStage
 184              		.thumb
 185              		.thumb_func
 186              		.type	USBFS_ControlReadDataStage, %function
 187              	USBFS_ControlReadDataStage:
 188              	.LFB7:
 490:Generated_Source\PSoC5/USBFS_drv.c **** 
 491:Generated_Source\PSoC5/USBFS_drv.c **** 
 492:Generated_Source\PSoC5/USBFS_drv.c **** /*******************************************************************************
ARM GAS  C:\Users\RABBIT~1\AppData\Local\Temp\ccSIh51e.s 			page 13


 493:Generated_Source\PSoC5/USBFS_drv.c **** * Function Name: USBFS_ControlReadDataStage
 494:Generated_Source\PSoC5/USBFS_drv.c **** ****************************************************************************//**
 495:Generated_Source\PSoC5/USBFS_drv.c **** *
 496:Generated_Source\PSoC5/USBFS_drv.c **** *  Handle the Data Stage of a control read transfer.
 497:Generated_Source\PSoC5/USBFS_drv.c **** *
 498:Generated_Source\PSoC5/USBFS_drv.c **** *
 499:Generated_Source\PSoC5/USBFS_drv.c **** * \reentrant
 500:Generated_Source\PSoC5/USBFS_drv.c **** *  No.
 501:Generated_Source\PSoC5/USBFS_drv.c **** *
 502:Generated_Source\PSoC5/USBFS_drv.c **** *******************************************************************************/
 503:Generated_Source\PSoC5/USBFS_drv.c **** void USBFS_ControlReadDataStage(void) 
 504:Generated_Source\PSoC5/USBFS_drv.c **** 
 505:Generated_Source\PSoC5/USBFS_drv.c **** {
 189              		.loc 1 505 0
 190              		.cfi_startproc
 191              		@ args = 0, pretend = 0, frame = 0
 192              		@ frame_needed = 0, uses_anonymous_args = 0
 193              		@ link register save eliminated.
 506:Generated_Source\PSoC5/USBFS_drv.c ****     USBFS_LoadEP0();
 194              		.loc 1 506 0
 195 0000 FFF7FEBF 		b	USBFS_LoadEP0
 196              	.LVL8:
 197              		.cfi_endproc
 198              	.LFE7:
 199              		.size	USBFS_ControlReadDataStage, .-USBFS_ControlReadDataStage
 200              		.section	.text.USBFS_ControlWriteDataStage,"ax",%progbits
 201              		.align	1
 202              		.global	USBFS_ControlWriteDataStage
 203              		.thumb
 204              		.thumb_func
 205              		.type	USBFS_ControlWriteDataStage, %function
 206              	USBFS_ControlWriteDataStage:
 207              	.LFB10:
 507:Generated_Source\PSoC5/USBFS_drv.c **** }
 508:Generated_Source\PSoC5/USBFS_drv.c **** 
 509:Generated_Source\PSoC5/USBFS_drv.c **** 
 510:Generated_Source\PSoC5/USBFS_drv.c **** /*******************************************************************************
 511:Generated_Source\PSoC5/USBFS_drv.c **** * Function Name: USBFS_ControlReadStatusStage
 512:Generated_Source\PSoC5/USBFS_drv.c **** ****************************************************************************//**
 513:Generated_Source\PSoC5/USBFS_drv.c **** *
 514:Generated_Source\PSoC5/USBFS_drv.c **** *  Handle the Status Stage of a control read transfer.
 515:Generated_Source\PSoC5/USBFS_drv.c **** *
 516:Generated_Source\PSoC5/USBFS_drv.c **** *
 517:Generated_Source\PSoC5/USBFS_drv.c **** * \globalvars
 518:Generated_Source\PSoC5/USBFS_drv.c **** *  USBFS_USBFS_transferByteCount - updated with last packet size.
 519:Generated_Source\PSoC5/USBFS_drv.c **** *  USBFS_transferState - set to TRANS_STATE_IDLE.
 520:Generated_Source\PSoC5/USBFS_drv.c **** *  USBFS_ep0Mode  - set to MODE_STALL_IN_OUT.
 521:Generated_Source\PSoC5/USBFS_drv.c **** *
 522:Generated_Source\PSoC5/USBFS_drv.c **** * \reentrant
 523:Generated_Source\PSoC5/USBFS_drv.c **** *  No.
 524:Generated_Source\PSoC5/USBFS_drv.c **** *
 525:Generated_Source\PSoC5/USBFS_drv.c **** *******************************************************************************/
 526:Generated_Source\PSoC5/USBFS_drv.c **** void USBFS_ControlReadStatusStage(void) 
 527:Generated_Source\PSoC5/USBFS_drv.c **** {
 528:Generated_Source\PSoC5/USBFS_drv.c ****     /* Update the transfer byte count */
 529:Generated_Source\PSoC5/USBFS_drv.c ****     USBFS_transferByteCount += USBFS_lastPacketSize;
 530:Generated_Source\PSoC5/USBFS_drv.c ****     
ARM GAS  C:\Users\RABBIT~1\AppData\Local\Temp\ccSIh51e.s 			page 14


 531:Generated_Source\PSoC5/USBFS_drv.c ****     /* Go Idle */
 532:Generated_Source\PSoC5/USBFS_drv.c ****     USBFS_transferState = USBFS_TRANS_STATE_IDLE;
 533:Generated_Source\PSoC5/USBFS_drv.c ****     
 534:Generated_Source\PSoC5/USBFS_drv.c ****     /* Update the completion block */
 535:Generated_Source\PSoC5/USBFS_drv.c ****     USBFS_UpdateStatusBlock(USBFS_XFER_STATUS_ACK);
 536:Generated_Source\PSoC5/USBFS_drv.c ****     
 537:Generated_Source\PSoC5/USBFS_drv.c ****     /* We expect no more data, so stall INs and OUTs */
 538:Generated_Source\PSoC5/USBFS_drv.c ****     USBFS_ep0Mode = USBFS_MODE_STALL_IN_OUT;
 539:Generated_Source\PSoC5/USBFS_drv.c **** }
 540:Generated_Source\PSoC5/USBFS_drv.c **** 
 541:Generated_Source\PSoC5/USBFS_drv.c **** 
 542:Generated_Source\PSoC5/USBFS_drv.c **** /*******************************************************************************
 543:Generated_Source\PSoC5/USBFS_drv.c **** * Function Name: USBFS_InitControlWrite
 544:Generated_Source\PSoC5/USBFS_drv.c **** ****************************************************************************//**
 545:Generated_Source\PSoC5/USBFS_drv.c **** *
 546:Generated_Source\PSoC5/USBFS_drv.c **** *  Initialize a control write transaction
 547:Generated_Source\PSoC5/USBFS_drv.c **** *
 548:Generated_Source\PSoC5/USBFS_drv.c **** * \return
 549:Generated_Source\PSoC5/USBFS_drv.c **** *  requestHandled state.
 550:Generated_Source\PSoC5/USBFS_drv.c **** *
 551:Generated_Source\PSoC5/USBFS_drv.c **** * \globalvars
 552:Generated_Source\PSoC5/USBFS_drv.c **** *  USBFS_USBFS_transferState - set to TRANS_STATE_CONTROL_WRITE
 553:Generated_Source\PSoC5/USBFS_drv.c **** *  USBFS_ep0Toggle - set to EP0_CNT_DATA_TOGGLE
 554:Generated_Source\PSoC5/USBFS_drv.c **** *  USBFS_ep0Mode  - set to MODE_ACK_OUT_STATUS_IN
 555:Generated_Source\PSoC5/USBFS_drv.c **** *
 556:Generated_Source\PSoC5/USBFS_drv.c **** * \reentrant
 557:Generated_Source\PSoC5/USBFS_drv.c **** *  No.
 558:Generated_Source\PSoC5/USBFS_drv.c **** *
 559:Generated_Source\PSoC5/USBFS_drv.c **** *******************************************************************************/
 560:Generated_Source\PSoC5/USBFS_drv.c **** uint8 USBFS_InitControlWrite(void) 
 561:Generated_Source\PSoC5/USBFS_drv.c **** {
 562:Generated_Source\PSoC5/USBFS_drv.c ****     uint16 xferCount;
 563:Generated_Source\PSoC5/USBFS_drv.c **** 
 564:Generated_Source\PSoC5/USBFS_drv.c ****     /* Set up the state machine */
 565:Generated_Source\PSoC5/USBFS_drv.c ****     USBFS_transferState = USBFS_TRANS_STATE_CONTROL_WRITE;
 566:Generated_Source\PSoC5/USBFS_drv.c ****     
 567:Generated_Source\PSoC5/USBFS_drv.c ****     /* This might not be necessary */
 568:Generated_Source\PSoC5/USBFS_drv.c ****     USBFS_ep0Toggle = USBFS_EP0_CNT_DATA_TOGGLE;
 569:Generated_Source\PSoC5/USBFS_drv.c ****     
 570:Generated_Source\PSoC5/USBFS_drv.c ****     /* Initialize the Status Block */
 571:Generated_Source\PSoC5/USBFS_drv.c ****     USBFS_InitializeStatusBlock();
 572:Generated_Source\PSoC5/USBFS_drv.c **** 
 573:Generated_Source\PSoC5/USBFS_drv.c ****     xferCount = ((uint16)((uint16) USBFS_lengthHiReg << 8u) | ((uint16) USBFS_lengthLoReg));
 574:Generated_Source\PSoC5/USBFS_drv.c **** 
 575:Generated_Source\PSoC5/USBFS_drv.c ****     if (USBFS_currentTD.count > xferCount)
 576:Generated_Source\PSoC5/USBFS_drv.c ****     {
 577:Generated_Source\PSoC5/USBFS_drv.c ****         USBFS_currentTD.count = xferCount;
 578:Generated_Source\PSoC5/USBFS_drv.c ****     }
 579:Generated_Source\PSoC5/USBFS_drv.c **** 
 580:Generated_Source\PSoC5/USBFS_drv.c ****     /* Expect Data or Status Stage */
 581:Generated_Source\PSoC5/USBFS_drv.c ****     USBFS_ep0Mode = USBFS_MODE_ACK_OUT_STATUS_IN;
 582:Generated_Source\PSoC5/USBFS_drv.c **** 
 583:Generated_Source\PSoC5/USBFS_drv.c ****     return(USBFS_TRUE);
 584:Generated_Source\PSoC5/USBFS_drv.c **** }
 585:Generated_Source\PSoC5/USBFS_drv.c **** 
 586:Generated_Source\PSoC5/USBFS_drv.c **** 
 587:Generated_Source\PSoC5/USBFS_drv.c **** /*******************************************************************************
ARM GAS  C:\Users\RABBIT~1\AppData\Local\Temp\ccSIh51e.s 			page 15


 588:Generated_Source\PSoC5/USBFS_drv.c **** * Function Name: USBFS_ControlWriteDataStage
 589:Generated_Source\PSoC5/USBFS_drv.c **** ****************************************************************************//**
 590:Generated_Source\PSoC5/USBFS_drv.c **** *
 591:Generated_Source\PSoC5/USBFS_drv.c **** *  Handle the Data Stage of a control write transfer
 592:Generated_Source\PSoC5/USBFS_drv.c **** *       1. Get the data (We assume the destination was validated previously)
 593:Generated_Source\PSoC5/USBFS_drv.c **** *       2. Update the count and data toggle
 594:Generated_Source\PSoC5/USBFS_drv.c **** *       3. Update the mode register for the next transaction
 595:Generated_Source\PSoC5/USBFS_drv.c **** *
 596:Generated_Source\PSoC5/USBFS_drv.c **** *
 597:Generated_Source\PSoC5/USBFS_drv.c **** * \globalvars
 598:Generated_Source\PSoC5/USBFS_drv.c **** *  USBFS_transferByteCount - Update the transfer byte count from the
 599:Generated_Source\PSoC5/USBFS_drv.c **** *    last transaction.
 600:Generated_Source\PSoC5/USBFS_drv.c **** *  USBFS_ep0Count - counts the data loaded from the SIE memory
 601:Generated_Source\PSoC5/USBFS_drv.c **** *    in current packet.
 602:Generated_Source\PSoC5/USBFS_drv.c **** *  USBFS_transferByteCount - sum of the previous bytes transferred
 603:Generated_Source\PSoC5/USBFS_drv.c **** *    on previous packets(sum of USBFS_lastPacketSize)
 604:Generated_Source\PSoC5/USBFS_drv.c **** *  USBFS_ep0Toggle - inverted
 605:Generated_Source\PSoC5/USBFS_drv.c **** *  USBFS_ep0Mode  - set to MODE_ACK_OUT_STATUS_IN.
 606:Generated_Source\PSoC5/USBFS_drv.c **** *
 607:Generated_Source\PSoC5/USBFS_drv.c **** * \reentrant
 608:Generated_Source\PSoC5/USBFS_drv.c **** *  No.
 609:Generated_Source\PSoC5/USBFS_drv.c **** *
 610:Generated_Source\PSoC5/USBFS_drv.c **** *******************************************************************************/
 611:Generated_Source\PSoC5/USBFS_drv.c **** void USBFS_ControlWriteDataStage(void) 
 612:Generated_Source\PSoC5/USBFS_drv.c **** {
 208              		.loc 1 612 0
 209              		.cfi_startproc
 210              		@ args = 0, pretend = 0, frame = 0
 211              		@ frame_needed = 0, uses_anonymous_args = 0
 212              	.LVL9:
 213 0000 30B5     		push	{r4, r5, lr}
 214              		.cfi_def_cfa_offset 12
 215              		.cfi_offset 4, -12
 216              		.cfi_offset 5, -8
 217              		.cfi_offset 14, -4
 613:Generated_Source\PSoC5/USBFS_drv.c ****     uint8 ep0Count;
 614:Generated_Source\PSoC5/USBFS_drv.c ****     uint8 regIndex = 0u;
 615:Generated_Source\PSoC5/USBFS_drv.c **** 
 616:Generated_Source\PSoC5/USBFS_drv.c ****     ep0Count = (USBFS_EP0_CNT_REG & USBFS_EPX_CNT0_MASK) - USBFS_EPX_CNTX_CRC_COUNT;
 218              		.loc 1 616 0
 219 0002 164B     		ldr	r3, .L30
 617:Generated_Source\PSoC5/USBFS_drv.c **** 
 618:Generated_Source\PSoC5/USBFS_drv.c ****     USBFS_transferByteCount += (uint8)ep0Count;
 220              		.loc 1 618 0
 221 0004 1649     		ldr	r1, .L30+4
 616:Generated_Source\PSoC5/USBFS_drv.c **** 
 222              		.loc 1 616 0
 223 0006 1B78     		ldrb	r3, [r3]	@ zero_extendqisi2
 224              		.loc 1 618 0
 225 0008 0A88     		ldrh	r2, [r1]
 616:Generated_Source\PSoC5/USBFS_drv.c **** 
 226              		.loc 1 616 0
 227 000a 03F00F03 		and	r3, r3, #15
 228 000e 023B     		subs	r3, r3, #2
 229 0010 DBB2     		uxtb	r3, r3
 230              	.LVL10:
 231              		.loc 1 618 0
ARM GAS  C:\Users\RABBIT~1\AppData\Local\Temp\ccSIh51e.s 			page 16


 232 0012 1A44     		add	r2, r2, r3
 233 0014 92B2     		uxth	r2, r2
 234 0016 0A80     		strh	r2, [r1]	@ movhi
 619:Generated_Source\PSoC5/USBFS_drv.c **** 
 620:Generated_Source\PSoC5/USBFS_drv.c ****     while ((USBFS_currentTD.count > 0u) && (ep0Count > 0u))
 621:Generated_Source\PSoC5/USBFS_drv.c ****     {
 622:Generated_Source\PSoC5/USBFS_drv.c ****         *USBFS_currentTD.pData = (uint8) USBFS_EP0_DR_BASE.epData[regIndex];
 235              		.loc 1 622 0
 236 0018 124C     		ldr	r4, .L30+8
 620:Generated_Source\PSoC5/USBFS_drv.c ****     {
 237              		.loc 1 620 0
 238 001a 134A     		ldr	r2, .L30+12
 239 001c 0020     		movs	r0, #0
 240              	.LVL11:
 241              	.L24:
 242 001e 1188     		ldrh	r1, [r2]
 243 0020 89B2     		uxth	r1, r1
 244 0022 79B1     		cbz	r1, .L25
 620:Generated_Source\PSoC5/USBFS_drv.c ****     {
 245              		.loc 1 620 0 is_stmt 0 discriminator 1
 246 0024 73B1     		cbz	r3, .L25
 247              		.loc 1 622 0 is_stmt 1
 248 0026 5568     		ldr	r5, [r2, #4]
 249 0028 215C     		ldrb	r1, [r4, r0]	@ zero_extendqisi2
 623:Generated_Source\PSoC5/USBFS_drv.c ****         USBFS_currentTD.pData = &USBFS_currentTD.pData[1u];
 624:Generated_Source\PSoC5/USBFS_drv.c ****         regIndex++;
 625:Generated_Source\PSoC5/USBFS_drv.c ****         ep0Count--;
 250              		.loc 1 625 0
 251 002a 013B     		subs	r3, r3, #1
 252              	.LVL12:
 622:Generated_Source\PSoC5/USBFS_drv.c ****         USBFS_currentTD.pData = &USBFS_currentTD.pData[1u];
 253              		.loc 1 622 0
 254 002c C9B2     		uxtb	r1, r1
 255 002e 2970     		strb	r1, [r5]
 623:Generated_Source\PSoC5/USBFS_drv.c ****         USBFS_currentTD.pData = &USBFS_currentTD.pData[1u];
 256              		.loc 1 623 0
 257 0030 5168     		ldr	r1, [r2, #4]
 258              		.loc 1 625 0
 259 0032 DBB2     		uxtb	r3, r3
 623:Generated_Source\PSoC5/USBFS_drv.c ****         USBFS_currentTD.pData = &USBFS_currentTD.pData[1u];
 260              		.loc 1 623 0
 261 0034 0131     		adds	r1, r1, #1
 262 0036 5160     		str	r1, [r2, #4]
 263              	.LVL13:
 626:Generated_Source\PSoC5/USBFS_drv.c ****         USBFS_currentTD.count--;
 264              		.loc 1 626 0
 265 0038 1188     		ldrh	r1, [r2]
 266 003a 0130     		adds	r0, r0, #1
 267              	.LVL14:
 268 003c 0139     		subs	r1, r1, #1
 269 003e 89B2     		uxth	r1, r1
 270 0040 1180     		strh	r1, [r2]	@ movhi
 271 0042 ECE7     		b	.L24
 272              	.LVL15:
 273              	.L25:
 627:Generated_Source\PSoC5/USBFS_drv.c ****     }
 628:Generated_Source\PSoC5/USBFS_drv.c ****     
ARM GAS  C:\Users\RABBIT~1\AppData\Local\Temp\ccSIh51e.s 			page 17


 629:Generated_Source\PSoC5/USBFS_drv.c ****     USBFS_ep0Count = (uint8)ep0Count;
 274              		.loc 1 629 0
 275 0044 094A     		ldr	r2, .L30+16
 276 0046 1370     		strb	r3, [r2]
 630:Generated_Source\PSoC5/USBFS_drv.c ****     
 631:Generated_Source\PSoC5/USBFS_drv.c ****     /* Update the data toggle */
 632:Generated_Source\PSoC5/USBFS_drv.c ****     USBFS_ep0Toggle ^= USBFS_EP0_CNT_DATA_TOGGLE;
 277              		.loc 1 632 0
 278 0048 094A     		ldr	r2, .L30+20
 279 004a 1378     		ldrb	r3, [r2]	@ zero_extendqisi2
 280              	.LVL16:
 281 004c 83F08003 		eor	r3, r3, #128
 282 0050 1370     		strb	r3, [r2]
 283              	.LVL17:
 633:Generated_Source\PSoC5/USBFS_drv.c ****     
 634:Generated_Source\PSoC5/USBFS_drv.c ****     /* Expect Data or Status Stage */
 635:Generated_Source\PSoC5/USBFS_drv.c ****     USBFS_ep0Mode = USBFS_MODE_ACK_OUT_STATUS_IN;
 284              		.loc 1 635 0
 285 0052 084B     		ldr	r3, .L30+24
 286 0054 0B22     		movs	r2, #11
 287 0056 1A70     		strb	r2, [r3]
 288 0058 30BD     		pop	{r4, r5, pc}
 289              	.L31:
 290 005a 00BF     		.align	2
 291              	.L30:
 292 005c 29600040 		.word	1073766441
 293 0060 00000000 		.word	USBFS_transferByteCount
 294 0064 00600040 		.word	1073766400
 295 0068 00000000 		.word	USBFS_currentTD
 296 006c 00000000 		.word	USBFS_ep0Count
 297 0070 00000000 		.word	USBFS_ep0Toggle
 298 0074 00000000 		.word	USBFS_ep0Mode
 299              		.cfi_endproc
 300              	.LFE10:
 301              		.size	USBFS_ControlWriteDataStage, .-USBFS_ControlWriteDataStage
 302              		.section	.text.USBFS_InitNoDataControlTransfer,"ax",%progbits
 303              		.align	1
 304              		.global	USBFS_InitNoDataControlTransfer
 305              		.thumb
 306              		.thumb_func
 307              		.type	USBFS_InitNoDataControlTransfer, %function
 308              	USBFS_InitNoDataControlTransfer:
 309              	.LFB12:
 636:Generated_Source\PSoC5/USBFS_drv.c **** }
 637:Generated_Source\PSoC5/USBFS_drv.c **** 
 638:Generated_Source\PSoC5/USBFS_drv.c **** 
 639:Generated_Source\PSoC5/USBFS_drv.c **** /*******************************************************************************
 640:Generated_Source\PSoC5/USBFS_drv.c **** * Function Name: USBFS_ControlWriteStatusStage
 641:Generated_Source\PSoC5/USBFS_drv.c **** ****************************************************************************//**
 642:Generated_Source\PSoC5/USBFS_drv.c **** *
 643:Generated_Source\PSoC5/USBFS_drv.c **** *  Handle the Status Stage of a control write transfer
 644:Generated_Source\PSoC5/USBFS_drv.c **** *
 645:Generated_Source\PSoC5/USBFS_drv.c **** * \globalvars
 646:Generated_Source\PSoC5/USBFS_drv.c **** *  USBFS_transferState - set to TRANS_STATE_IDLE.
 647:Generated_Source\PSoC5/USBFS_drv.c **** *  USBFS_USBFS_ep0Mode  - set to MODE_STALL_IN_OUT.
 648:Generated_Source\PSoC5/USBFS_drv.c **** *
 649:Generated_Source\PSoC5/USBFS_drv.c **** * \reentrant
ARM GAS  C:\Users\RABBIT~1\AppData\Local\Temp\ccSIh51e.s 			page 18


 650:Generated_Source\PSoC5/USBFS_drv.c **** *  No.
 651:Generated_Source\PSoC5/USBFS_drv.c **** *
 652:Generated_Source\PSoC5/USBFS_drv.c **** *******************************************************************************/
 653:Generated_Source\PSoC5/USBFS_drv.c **** void USBFS_ControlWriteStatusStage(void) 
 654:Generated_Source\PSoC5/USBFS_drv.c **** {
 655:Generated_Source\PSoC5/USBFS_drv.c ****     /* Go Idle */
 656:Generated_Source\PSoC5/USBFS_drv.c ****     USBFS_transferState = USBFS_TRANS_STATE_IDLE;
 657:Generated_Source\PSoC5/USBFS_drv.c ****     
 658:Generated_Source\PSoC5/USBFS_drv.c ****     /* Update the completion block */    
 659:Generated_Source\PSoC5/USBFS_drv.c ****     USBFS_UpdateStatusBlock(USBFS_XFER_STATUS_ACK);
 660:Generated_Source\PSoC5/USBFS_drv.c ****     
 661:Generated_Source\PSoC5/USBFS_drv.c ****     /* We expect no more data, so stall INs and OUTs */
 662:Generated_Source\PSoC5/USBFS_drv.c ****     USBFS_ep0Mode = USBFS_MODE_STALL_IN_OUT;
 663:Generated_Source\PSoC5/USBFS_drv.c **** }
 664:Generated_Source\PSoC5/USBFS_drv.c **** 
 665:Generated_Source\PSoC5/USBFS_drv.c **** 
 666:Generated_Source\PSoC5/USBFS_drv.c **** /*******************************************************************************
 667:Generated_Source\PSoC5/USBFS_drv.c **** * Function Name: USBFS_InitNoDataControlTransfer
 668:Generated_Source\PSoC5/USBFS_drv.c **** ****************************************************************************//**
 669:Generated_Source\PSoC5/USBFS_drv.c **** *
 670:Generated_Source\PSoC5/USBFS_drv.c **** *  Initialize a no data control transfer
 671:Generated_Source\PSoC5/USBFS_drv.c **** *
 672:Generated_Source\PSoC5/USBFS_drv.c **** * \return
 673:Generated_Source\PSoC5/USBFS_drv.c **** *  requestHandled state.
 674:Generated_Source\PSoC5/USBFS_drv.c **** *
 675:Generated_Source\PSoC5/USBFS_drv.c **** * \globalvars
 676:Generated_Source\PSoC5/USBFS_drv.c **** *  USBFS_transferState - set to TRANS_STATE_NO_DATA_CONTROL.
 677:Generated_Source\PSoC5/USBFS_drv.c **** *  USBFS_ep0Mode  - set to MODE_STATUS_IN_ONLY.
 678:Generated_Source\PSoC5/USBFS_drv.c **** *  USBFS_ep0Count - cleared.
 679:Generated_Source\PSoC5/USBFS_drv.c **** *  USBFS_ep0Toggle - set to EP0_CNT_DATA_TOGGLE
 680:Generated_Source\PSoC5/USBFS_drv.c **** *
 681:Generated_Source\PSoC5/USBFS_drv.c **** * \reentrant
 682:Generated_Source\PSoC5/USBFS_drv.c **** *  No.
 683:Generated_Source\PSoC5/USBFS_drv.c **** *
 684:Generated_Source\PSoC5/USBFS_drv.c **** *******************************************************************************/
 685:Generated_Source\PSoC5/USBFS_drv.c **** uint8 USBFS_InitNoDataControlTransfer(void) 
 686:Generated_Source\PSoC5/USBFS_drv.c **** {
 310              		.loc 1 686 0
 311              		.cfi_startproc
 312              		@ args = 0, pretend = 0, frame = 0
 313              		@ frame_needed = 0, uses_anonymous_args = 0
 314              		@ link register save eliminated.
 687:Generated_Source\PSoC5/USBFS_drv.c ****     USBFS_transferState = USBFS_TRANS_STATE_NO_DATA_CONTROL;
 315              		.loc 1 687 0
 316 0000 064A     		ldr	r2, .L33
 317 0002 0623     		movs	r3, #6
 318 0004 1370     		strb	r3, [r2]
 688:Generated_Source\PSoC5/USBFS_drv.c ****     USBFS_ep0Mode       = USBFS_MODE_STATUS_IN_ONLY;
 319              		.loc 1 688 0
 320 0006 064A     		ldr	r2, .L33+4
 689:Generated_Source\PSoC5/USBFS_drv.c ****     USBFS_ep0Toggle     = USBFS_EP0_CNT_DATA_TOGGLE;
 690:Generated_Source\PSoC5/USBFS_drv.c ****     USBFS_ep0Count      = 0u;
 691:Generated_Source\PSoC5/USBFS_drv.c **** 
 692:Generated_Source\PSoC5/USBFS_drv.c ****     return (USBFS_TRUE);
 693:Generated_Source\PSoC5/USBFS_drv.c **** }
 321              		.loc 1 693 0
 322 0008 0120     		movs	r0, #1
ARM GAS  C:\Users\RABBIT~1\AppData\Local\Temp\ccSIh51e.s 			page 19


 688:Generated_Source\PSoC5/USBFS_drv.c ****     USBFS_ep0Mode       = USBFS_MODE_STATUS_IN_ONLY;
 323              		.loc 1 688 0
 324 000a 1370     		strb	r3, [r2]
 689:Generated_Source\PSoC5/USBFS_drv.c ****     USBFS_ep0Toggle     = USBFS_EP0_CNT_DATA_TOGGLE;
 325              		.loc 1 689 0
 326 000c 054B     		ldr	r3, .L33+8
 327 000e 8022     		movs	r2, #128
 328 0010 1A70     		strb	r2, [r3]
 690:Generated_Source\PSoC5/USBFS_drv.c **** 
 329              		.loc 1 690 0
 330 0012 054B     		ldr	r3, .L33+12
 331 0014 0022     		movs	r2, #0
 332 0016 1A70     		strb	r2, [r3]
 333              		.loc 1 693 0
 334 0018 7047     		bx	lr
 335              	.L34:
 336 001a 00BF     		.align	2
 337              	.L33:
 338 001c 00000000 		.word	USBFS_transferState
 339 0020 00000000 		.word	USBFS_ep0Mode
 340 0024 00000000 		.word	USBFS_ep0Toggle
 341 0028 00000000 		.word	USBFS_ep0Count
 342              		.cfi_endproc
 343              	.LFE12:
 344              		.size	USBFS_InitNoDataControlTransfer, .-USBFS_InitNoDataControlTransfer
 345              		.section	.text.USBFS_UpdateStatusBlock,"ax",%progbits
 346              		.align	1
 347              		.global	USBFS_UpdateStatusBlock
 348              		.thumb
 349              		.thumb_func
 350              		.type	USBFS_UpdateStatusBlock, %function
 351              	USBFS_UpdateStatusBlock:
 352              	.LFB14:
 694:Generated_Source\PSoC5/USBFS_drv.c **** 
 695:Generated_Source\PSoC5/USBFS_drv.c **** 
 696:Generated_Source\PSoC5/USBFS_drv.c **** /*******************************************************************************
 697:Generated_Source\PSoC5/USBFS_drv.c **** * Function Name: USBFS_NoDataControlStatusStage
 698:Generated_Source\PSoC5/USBFS_drv.c **** ****************************************************************************//**
 699:Generated_Source\PSoC5/USBFS_drv.c **** *  Handle the Status Stage of a no data control transfer.
 700:Generated_Source\PSoC5/USBFS_drv.c **** *
 701:Generated_Source\PSoC5/USBFS_drv.c **** *  SET_ADDRESS is special, since we need to receive the status stage with
 702:Generated_Source\PSoC5/USBFS_drv.c **** *  the old address.
 703:Generated_Source\PSoC5/USBFS_drv.c **** *
 704:Generated_Source\PSoC5/USBFS_drv.c **** * \globalvars
 705:Generated_Source\PSoC5/USBFS_drv.c **** *  USBFS_transferState - set to TRANS_STATE_IDLE.
 706:Generated_Source\PSoC5/USBFS_drv.c **** *  USBFS_ep0Mode  - set to MODE_STALL_IN_OUT.
 707:Generated_Source\PSoC5/USBFS_drv.c **** *  USBFS_ep0Toggle - set to EP0_CNT_DATA_TOGGLE
 708:Generated_Source\PSoC5/USBFS_drv.c **** *  USBFS_deviceAddress - used to set new address and cleared
 709:Generated_Source\PSoC5/USBFS_drv.c **** *
 710:Generated_Source\PSoC5/USBFS_drv.c **** * \reentrant
 711:Generated_Source\PSoC5/USBFS_drv.c **** *  No.
 712:Generated_Source\PSoC5/USBFS_drv.c **** *
 713:Generated_Source\PSoC5/USBFS_drv.c **** *******************************************************************************/
 714:Generated_Source\PSoC5/USBFS_drv.c **** void USBFS_NoDataControlStatusStage(void) 
 715:Generated_Source\PSoC5/USBFS_drv.c **** {
 716:Generated_Source\PSoC5/USBFS_drv.c ****     if (0u != USBFS_deviceAddress)
 717:Generated_Source\PSoC5/USBFS_drv.c ****     {
ARM GAS  C:\Users\RABBIT~1\AppData\Local\Temp\ccSIh51e.s 			page 20


 718:Generated_Source\PSoC5/USBFS_drv.c ****         /* Update device address if we got new address. */
 719:Generated_Source\PSoC5/USBFS_drv.c ****         USBFS_CR0_REG = (uint8) USBFS_deviceAddress | USBFS_CR0_ENABLE;
 720:Generated_Source\PSoC5/USBFS_drv.c ****         USBFS_deviceAddress = 0u;
 721:Generated_Source\PSoC5/USBFS_drv.c ****     }
 722:Generated_Source\PSoC5/USBFS_drv.c **** 
 723:Generated_Source\PSoC5/USBFS_drv.c ****     USBFS_transferState = USBFS_TRANS_STATE_IDLE;
 724:Generated_Source\PSoC5/USBFS_drv.c ****     
 725:Generated_Source\PSoC5/USBFS_drv.c ****     /* Update the completion block. */
 726:Generated_Source\PSoC5/USBFS_drv.c ****     USBFS_UpdateStatusBlock(USBFS_XFER_STATUS_ACK);
 727:Generated_Source\PSoC5/USBFS_drv.c ****     
 728:Generated_Source\PSoC5/USBFS_drv.c ****     /* Stall IN and OUT, no more data is expected. */
 729:Generated_Source\PSoC5/USBFS_drv.c ****     USBFS_ep0Mode = USBFS_MODE_STALL_IN_OUT;
 730:Generated_Source\PSoC5/USBFS_drv.c **** }
 731:Generated_Source\PSoC5/USBFS_drv.c **** 
 732:Generated_Source\PSoC5/USBFS_drv.c **** 
 733:Generated_Source\PSoC5/USBFS_drv.c **** /*******************************************************************************
 734:Generated_Source\PSoC5/USBFS_drv.c **** * Function Name: USBFS_UpdateStatusBlock
 735:Generated_Source\PSoC5/USBFS_drv.c **** ****************************************************************************//**
 736:Generated_Source\PSoC5/USBFS_drv.c **** *
 737:Generated_Source\PSoC5/USBFS_drv.c **** *  Update the Completion Status Block for a Request.  The block is updated
 738:Generated_Source\PSoC5/USBFS_drv.c **** *  with the completion code the USBFS_transferByteCount.  The
 739:Generated_Source\PSoC5/USBFS_drv.c **** *  StatusBlock Pointer is set to NULL.
 740:Generated_Source\PSoC5/USBFS_drv.c **** *
 741:Generated_Source\PSoC5/USBFS_drv.c **** *  completionCode - status.
 742:Generated_Source\PSoC5/USBFS_drv.c **** *
 743:Generated_Source\PSoC5/USBFS_drv.c **** *
 744:Generated_Source\PSoC5/USBFS_drv.c **** * \globalvars
 745:Generated_Source\PSoC5/USBFS_drv.c **** *  USBFS_currentTD.pStatusBlock->status - updated by the
 746:Generated_Source\PSoC5/USBFS_drv.c **** *    completionCode parameter.
 747:Generated_Source\PSoC5/USBFS_drv.c **** *  USBFS_currentTD.pStatusBlock->length - updated.
 748:Generated_Source\PSoC5/USBFS_drv.c **** *  USBFS_currentTD.pStatusBlock - cleared.
 749:Generated_Source\PSoC5/USBFS_drv.c **** *
 750:Generated_Source\PSoC5/USBFS_drv.c **** * \reentrant
 751:Generated_Source\PSoC5/USBFS_drv.c **** *  No.
 752:Generated_Source\PSoC5/USBFS_drv.c **** *
 753:Generated_Source\PSoC5/USBFS_drv.c **** *******************************************************************************/
 754:Generated_Source\PSoC5/USBFS_drv.c **** void USBFS_UpdateStatusBlock(uint8 completionCode) 
 755:Generated_Source\PSoC5/USBFS_drv.c **** {
 353              		.loc 1 755 0
 354              		.cfi_startproc
 355              		@ args = 0, pretend = 0, frame = 0
 356              		@ frame_needed = 0, uses_anonymous_args = 0
 357              		@ link register save eliminated.
 358              	.LVL18:
 756:Generated_Source\PSoC5/USBFS_drv.c ****     if (USBFS_currentTD.pStatusBlock != NULL)
 359              		.loc 1 756 0
 360 0000 054B     		ldr	r3, .L40
 361 0002 9A68     		ldr	r2, [r3, #8]
 362 0004 3AB1     		cbz	r2, .L35
 757:Generated_Source\PSoC5/USBFS_drv.c ****     {
 758:Generated_Source\PSoC5/USBFS_drv.c ****         USBFS_currentTD.pStatusBlock->status = completionCode;
 363              		.loc 1 758 0
 364 0006 9A68     		ldr	r2, [r3, #8]
 759:Generated_Source\PSoC5/USBFS_drv.c ****         USBFS_currentTD.pStatusBlock->length = USBFS_transferByteCount;
 365              		.loc 1 759 0
 366 0008 0449     		ldr	r1, .L40+4
 758:Generated_Source\PSoC5/USBFS_drv.c ****         USBFS_currentTD.pStatusBlock->length = USBFS_transferByteCount;
ARM GAS  C:\Users\RABBIT~1\AppData\Local\Temp\ccSIh51e.s 			page 21


 367              		.loc 1 758 0
 368 000a 1070     		strb	r0, [r2]
 369              		.loc 1 759 0
 370 000c 9A68     		ldr	r2, [r3, #8]
 371 000e 0988     		ldrh	r1, [r1]
 372 0010 5180     		strh	r1, [r2, #2]	@ movhi
 760:Generated_Source\PSoC5/USBFS_drv.c ****         USBFS_currentTD.pStatusBlock = NULL;
 373              		.loc 1 760 0
 374 0012 0022     		movs	r2, #0
 375 0014 9A60     		str	r2, [r3, #8]
 376              	.L35:
 377 0016 7047     		bx	lr
 378              	.L41:
 379              		.align	2
 380              	.L40:
 381 0018 00000000 		.word	USBFS_currentTD
 382 001c 00000000 		.word	USBFS_transferByteCount
 383              		.cfi_endproc
 384              	.LFE14:
 385              		.size	USBFS_UpdateStatusBlock, .-USBFS_UpdateStatusBlock
 386              		.section	.text.USBFS_HandleSetup,"ax",%progbits
 387              		.align	1
 388              		.global	USBFS_HandleSetup
 389              		.thumb
 390              		.thumb_func
 391              		.type	USBFS_HandleSetup, %function
 392              	USBFS_HandleSetup:
 393              	.LFB1:
 199:Generated_Source\PSoC5/USBFS_drv.c ****     uint8 requestHandled;
 394              		.loc 1 199 0
 395              		.cfi_startproc
 396              		@ args = 0, pretend = 0, frame = 0
 397              		@ frame_needed = 0, uses_anonymous_args = 0
 398 0000 08B5     		push	{r3, lr}
 399              		.cfi_def_cfa_offset 8
 400              		.cfi_offset 3, -8
 401              		.cfi_offset 14, -4
 205:Generated_Source\PSoC5/USBFS_drv.c ****     USBFS_EP0_CR_REG = (uint8) requestHandled;
 402              		.loc 1 205 0
 403 0002 124B     		ldr	r3, .L50
 404 0004 1A78     		ldrb	r2, [r3]	@ zero_extendqisi2
 405 0006 D2B2     		uxtb	r2, r2
 406              	.LVL19:
 206:Generated_Source\PSoC5/USBFS_drv.c ****     requestHandled = (uint8) USBFS_EP0_CR_REG;
 407              		.loc 1 206 0
 408 0008 1A70     		strb	r2, [r3]
 207:Generated_Source\PSoC5/USBFS_drv.c **** 
 409              		.loc 1 207 0
 410 000a 1B78     		ldrb	r3, [r3]	@ zero_extendqisi2
 411 000c DBB2     		uxtb	r3, r3
 412              	.LVL20:
 209:Generated_Source\PSoC5/USBFS_drv.c ****     {
 413              		.loc 1 209 0
 414 000e 1A06     		lsls	r2, r3, #24
 415 0010 02D5     		bpl	.L43
 212:Generated_Source\PSoC5/USBFS_drv.c ****     }
 416              		.loc 1 212 0
ARM GAS  C:\Users\RABBIT~1\AppData\Local\Temp\ccSIh51e.s 			page 22


 417 0012 0F4A     		ldr	r2, .L50+4
 418 0014 1370     		strb	r3, [r2]
 419 0016 08BD     		pop	{r3, pc}
 420              	.LVL21:
 421              	.L43:
 422              	.LBB6:
 423              	.LBB7:
 217:Generated_Source\PSoC5/USBFS_drv.c **** 
 424              		.loc 1 217 0
 425 0018 0220     		movs	r0, #2
 426 001a FFF7FEFF 		bl	USBFS_UpdateStatusBlock
 427              	.LVL22:
 220:Generated_Source\PSoC5/USBFS_drv.c ****         {
 428              		.loc 1 220 0
 429 001e 0D4B     		ldr	r3, .L50+8
 430 0020 1B78     		ldrb	r3, [r3]	@ zero_extendqisi2
 431 0022 03F06003 		and	r3, r3, #96
 432 0026 202B     		cmp	r3, #32
 433 0028 05D0     		beq	.L46
 434 002a 402B     		cmp	r3, #64
 435 002c 06D0     		beq	.L47
 436 002e 43B9     		cbnz	r3, .L45
 223:Generated_Source\PSoC5/USBFS_drv.c ****                 break;
 437              		.loc 1 223 0
 438 0030 FFF7FEFF 		bl	USBFS_HandleStandardRqst
 439              	.LVL23:
 440 0034 04E0     		b	.L49
 441              	.LVL24:
 442              	.L46:
 227:Generated_Source\PSoC5/USBFS_drv.c ****                 break;
 443              		.loc 1 227 0
 444 0036 FFF7FEFF 		bl	USBFS_DispatchClassRqst
 445              	.LVL25:
 446 003a 01E0     		b	.L49
 447              	.LVL26:
 448              	.L47:
 231:Generated_Source\PSoC5/USBFS_drv.c ****                 break;
 449              		.loc 1 231 0
 450 003c FFF7FEFF 		bl	USBFS_HandleVendorRqst
 451              	.LVL27:
 452              	.L49:
 240:Generated_Source\PSoC5/USBFS_drv.c ****         {
 453              		.loc 1 240 0
 454 0040 10B9     		cbnz	r0, .L42
 455              	.LVL28:
 456              	.L45:
 242:Generated_Source\PSoC5/USBFS_drv.c ****         }
 457              		.loc 1 242 0
 458 0042 034B     		ldr	r3, .L50+4
 459 0044 0322     		movs	r2, #3
 460 0046 1A70     		strb	r2, [r3]
 461              	.L42:
 462 0048 08BD     		pop	{r3, pc}
 463              	.L51:
 464 004a 00BF     		.align	2
 465              	.L50:
 466 004c 28600040 		.word	1073766440
ARM GAS  C:\Users\RABBIT~1\AppData\Local\Temp\ccSIh51e.s 			page 23


 467 0050 00000000 		.word	USBFS_ep0Mode
 468 0054 00600040 		.word	1073766400
 469              	.LBE7:
 470              	.LBE6:
 471              		.cfi_endproc
 472              	.LFE1:
 473              		.size	USBFS_HandleSetup, .-USBFS_HandleSetup
 474              		.section	.text.USBFS_ControlReadStatusStage,"ax",%progbits
 475              		.align	1
 476              		.global	USBFS_ControlReadStatusStage
 477              		.thumb
 478              		.thumb_func
 479              		.type	USBFS_ControlReadStatusStage, %function
 480              	USBFS_ControlReadStatusStage:
 481              	.LFB8:
 527:Generated_Source\PSoC5/USBFS_drv.c ****     /* Update the transfer byte count */
 482              		.loc 1 527 0
 483              		.cfi_startproc
 484              		@ args = 0, pretend = 0, frame = 0
 485              		@ frame_needed = 0, uses_anonymous_args = 0
 486 0000 08B5     		push	{r3, lr}
 487              		.cfi_def_cfa_offset 8
 488              		.cfi_offset 3, -8
 489              		.cfi_offset 14, -4
 529:Generated_Source\PSoC5/USBFS_drv.c ****     
 490              		.loc 1 529 0
 491 0002 084A     		ldr	r2, .L53
 492 0004 084B     		ldr	r3, .L53+4
 535:Generated_Source\PSoC5/USBFS_drv.c ****     
 493              		.loc 1 535 0
 494 0006 0120     		movs	r0, #1
 529:Generated_Source\PSoC5/USBFS_drv.c ****     
 495              		.loc 1 529 0
 496 0008 1978     		ldrb	r1, [r3]	@ zero_extendqisi2
 497 000a 1388     		ldrh	r3, [r2]
 498 000c 0B44     		add	r3, r3, r1
 499 000e 9BB2     		uxth	r3, r3
 500 0010 1380     		strh	r3, [r2]	@ movhi
 532:Generated_Source\PSoC5/USBFS_drv.c ****     
 501              		.loc 1 532 0
 502 0012 064B     		ldr	r3, .L53+8
 503 0014 0022     		movs	r2, #0
 504 0016 1A70     		strb	r2, [r3]
 535:Generated_Source\PSoC5/USBFS_drv.c ****     
 505              		.loc 1 535 0
 506 0018 FFF7FEFF 		bl	USBFS_UpdateStatusBlock
 507              	.LVL29:
 538:Generated_Source\PSoC5/USBFS_drv.c **** }
 508              		.loc 1 538 0
 509 001c 044B     		ldr	r3, .L53+12
 510 001e 0322     		movs	r2, #3
 511 0020 1A70     		strb	r2, [r3]
 512 0022 08BD     		pop	{r3, pc}
 513              	.L54:
 514              		.align	2
 515              	.L53:
 516 0024 00000000 		.word	USBFS_transferByteCount
ARM GAS  C:\Users\RABBIT~1\AppData\Local\Temp\ccSIh51e.s 			page 24


 517 0028 00000000 		.word	USBFS_lastPacketSize
 518 002c 00000000 		.word	USBFS_transferState
 519 0030 00000000 		.word	USBFS_ep0Mode
 520              		.cfi_endproc
 521              	.LFE8:
 522              		.size	USBFS_ControlReadStatusStage, .-USBFS_ControlReadStatusStage
 523              		.section	.text.USBFS_HandleOUT,"ax",%progbits
 524              		.align	1
 525              		.global	USBFS_HandleOUT
 526              		.thumb
 527              		.thumb_func
 528              		.type	USBFS_HandleOUT, %function
 529              	USBFS_HandleOUT:
 530              	.LFB3:
 296:Generated_Source\PSoC5/USBFS_drv.c ****     switch (USBFS_transferState)
 531              		.loc 1 296 0
 532              		.cfi_startproc
 533              		@ args = 0, pretend = 0, frame = 0
 534              		@ frame_needed = 0, uses_anonymous_args = 0
 535 0000 08B5     		push	{r3, lr}
 536              		.cfi_def_cfa_offset 8
 537              		.cfi_offset 3, -8
 538              		.cfi_offset 14, -4
 297:Generated_Source\PSoC5/USBFS_drv.c ****     {
 539              		.loc 1 297 0
 540 0002 0C4B     		ldr	r3, .L60
 541 0004 1B78     		ldrb	r3, [r3]	@ zero_extendqisi2
 542 0006 DBB2     		uxtb	r3, r3
 543 0008 042B     		cmp	r3, #4
 544 000a 07D0     		beq	.L57
 545 000c 062B     		cmp	r3, #6
 546 000e 09D0     		beq	.L58
 547 0010 022B     		cmp	r3, #2
 548 0012 0DD1     		bne	.L55
 322:Generated_Source\PSoC5/USBFS_drv.c **** 
 549              		.loc 1 322 0
 550 0014 BDE80840 		pop	{r3, lr}
 551              		.cfi_remember_state
 552              		.cfi_restore 14
 553              		.cfi_restore 3
 554              		.cfi_def_cfa_offset 0
 303:Generated_Source\PSoC5/USBFS_drv.c ****             break;
 555              		.loc 1 303 0
 556 0018 FFF7FEBF 		b	USBFS_ControlReadStatusStage
 557              	.LVL30:
 558              	.L57:
 559              		.cfi_restore_state
 322:Generated_Source\PSoC5/USBFS_drv.c **** 
 560              		.loc 1 322 0
 561 001c BDE80840 		pop	{r3, lr}
 562              		.cfi_remember_state
 563              		.cfi_restore 14
 564              		.cfi_restore 3
 565              		.cfi_def_cfa_offset 0
 307:Generated_Source\PSoC5/USBFS_drv.c ****             break;
 566              		.loc 1 307 0
 567 0020 FFF7FEBF 		b	USBFS_ControlWriteDataStage
ARM GAS  C:\Users\RABBIT~1\AppData\Local\Temp\ccSIh51e.s 			page 25


 568              	.LVL31:
 569              	.L58:
 570              		.cfi_restore_state
 571              	.LBB10:
 572              	.LBB11:
 312:Generated_Source\PSoC5/USBFS_drv.c ****             
 573              		.loc 1 312 0
 574 0024 0320     		movs	r0, #3
 575 0026 FFF7FEFF 		bl	USBFS_UpdateStatusBlock
 576              	.LVL32:
 315:Generated_Source\PSoC5/USBFS_drv.c ****             break;
 577              		.loc 1 315 0
 578 002a 034B     		ldr	r3, .L60+4
 579 002c 0322     		movs	r2, #3
 580 002e 1A70     		strb	r2, [r3]
 581              	.L55:
 582 0030 08BD     		pop	{r3, pc}
 583              	.L61:
 584 0032 00BF     		.align	2
 585              	.L60:
 586 0034 00000000 		.word	USBFS_transferState
 587 0038 00000000 		.word	USBFS_ep0Mode
 588              	.LBE11:
 589              	.LBE10:
 590              		.cfi_endproc
 591              	.LFE3:
 592              		.size	USBFS_HandleOUT, .-USBFS_HandleOUT
 593              		.section	.text.USBFS_ControlWriteStatusStage,"ax",%progbits
 594              		.align	1
 595              		.global	USBFS_ControlWriteStatusStage
 596              		.thumb
 597              		.thumb_func
 598              		.type	USBFS_ControlWriteStatusStage, %function
 599              	USBFS_ControlWriteStatusStage:
 600              	.LFB11:
 654:Generated_Source\PSoC5/USBFS_drv.c ****     /* Go Idle */
 601              		.loc 1 654 0
 602              		.cfi_startproc
 603              		@ args = 0, pretend = 0, frame = 0
 604              		@ frame_needed = 0, uses_anonymous_args = 0
 605 0000 08B5     		push	{r3, lr}
 606              		.cfi_def_cfa_offset 8
 607              		.cfi_offset 3, -8
 608              		.cfi_offset 14, -4
 656:Generated_Source\PSoC5/USBFS_drv.c ****     
 609              		.loc 1 656 0
 610 0002 054B     		ldr	r3, .L63
 611 0004 0022     		movs	r2, #0
 659:Generated_Source\PSoC5/USBFS_drv.c ****     
 612              		.loc 1 659 0
 613 0006 0120     		movs	r0, #1
 656:Generated_Source\PSoC5/USBFS_drv.c ****     
 614              		.loc 1 656 0
 615 0008 1A70     		strb	r2, [r3]
 659:Generated_Source\PSoC5/USBFS_drv.c ****     
 616              		.loc 1 659 0
 617 000a FFF7FEFF 		bl	USBFS_UpdateStatusBlock
ARM GAS  C:\Users\RABBIT~1\AppData\Local\Temp\ccSIh51e.s 			page 26


 618              	.LVL33:
 662:Generated_Source\PSoC5/USBFS_drv.c **** }
 619              		.loc 1 662 0
 620 000e 034B     		ldr	r3, .L63+4
 621 0010 0322     		movs	r2, #3
 622 0012 1A70     		strb	r2, [r3]
 623 0014 08BD     		pop	{r3, pc}
 624              	.L64:
 625 0016 00BF     		.align	2
 626              	.L63:
 627 0018 00000000 		.word	USBFS_transferState
 628 001c 00000000 		.word	USBFS_ep0Mode
 629              		.cfi_endproc
 630              	.LFE11:
 631              		.size	USBFS_ControlWriteStatusStage, .-USBFS_ControlWriteStatusStage
 632              		.section	.text.USBFS_NoDataControlStatusStage,"ax",%progbits
 633              		.align	1
 634              		.global	USBFS_NoDataControlStatusStage
 635              		.thumb
 636              		.thumb_func
 637              		.type	USBFS_NoDataControlStatusStage, %function
 638              	USBFS_NoDataControlStatusStage:
 639              	.LFB13:
 715:Generated_Source\PSoC5/USBFS_drv.c ****     if (0u != USBFS_deviceAddress)
 640              		.loc 1 715 0
 641              		.cfi_startproc
 642              		@ args = 0, pretend = 0, frame = 0
 643              		@ frame_needed = 0, uses_anonymous_args = 0
 644 0000 08B5     		push	{r3, lr}
 645              		.cfi_def_cfa_offset 8
 646              		.cfi_offset 3, -8
 647              		.cfi_offset 14, -4
 716:Generated_Source\PSoC5/USBFS_drv.c ****     {
 648              		.loc 1 716 0
 649 0002 0A4B     		ldr	r3, .L70
 650 0004 1A78     		ldrb	r2, [r3]	@ zero_extendqisi2
 651 0006 32B1     		cbz	r2, .L66
 719:Generated_Source\PSoC5/USBFS_drv.c ****         USBFS_deviceAddress = 0u;
 652              		.loc 1 719 0
 653 0008 1A78     		ldrb	r2, [r3]	@ zero_extendqisi2
 654 000a 0949     		ldr	r1, .L70+4
 655 000c 42F08002 		orr	r2, r2, #128
 656 0010 0A70     		strb	r2, [r1]
 720:Generated_Source\PSoC5/USBFS_drv.c ****     }
 657              		.loc 1 720 0
 658 0012 0022     		movs	r2, #0
 659 0014 1A70     		strb	r2, [r3]
 660              	.L66:
 723:Generated_Source\PSoC5/USBFS_drv.c ****     
 661              		.loc 1 723 0
 662 0016 074B     		ldr	r3, .L70+8
 663 0018 0022     		movs	r2, #0
 726:Generated_Source\PSoC5/USBFS_drv.c ****     
 664              		.loc 1 726 0
 665 001a 0120     		movs	r0, #1
 723:Generated_Source\PSoC5/USBFS_drv.c ****     
 666              		.loc 1 723 0
ARM GAS  C:\Users\RABBIT~1\AppData\Local\Temp\ccSIh51e.s 			page 27


 667 001c 1A70     		strb	r2, [r3]
 726:Generated_Source\PSoC5/USBFS_drv.c ****     
 668              		.loc 1 726 0
 669 001e FFF7FEFF 		bl	USBFS_UpdateStatusBlock
 670              	.LVL34:
 729:Generated_Source\PSoC5/USBFS_drv.c **** }
 671              		.loc 1 729 0
 672 0022 054B     		ldr	r3, .L70+12
 673 0024 0322     		movs	r2, #3
 674 0026 1A70     		strb	r2, [r3]
 675 0028 08BD     		pop	{r3, pc}
 676              	.L71:
 677 002a 00BF     		.align	2
 678              	.L70:
 679 002c 00000000 		.word	USBFS_deviceAddress
 680 0030 08600040 		.word	1073766408
 681 0034 00000000 		.word	USBFS_transferState
 682 0038 00000000 		.word	USBFS_ep0Mode
 683              		.cfi_endproc
 684              	.LFE13:
 685              		.size	USBFS_NoDataControlStatusStage, .-USBFS_NoDataControlStatusStage
 686              		.section	.text.USBFS_HandleIN,"ax",%progbits
 687              		.align	1
 688              		.global	USBFS_HandleIN
 689              		.thumb
 690              		.thumb_func
 691              		.type	USBFS_HandleIN, %function
 692              	USBFS_HandleIN:
 693              	.LFB2:
 260:Generated_Source\PSoC5/USBFS_drv.c ****     switch (USBFS_transferState)
 694              		.loc 1 260 0
 695              		.cfi_startproc
 696              		@ args = 0, pretend = 0, frame = 0
 697              		@ frame_needed = 0, uses_anonymous_args = 0
 698              		@ link register save eliminated.
 261:Generated_Source\PSoC5/USBFS_drv.c ****     {
 699              		.loc 1 261 0
 700 0000 074B     		ldr	r3, .L78
 701 0002 1B78     		ldrb	r3, [r3]	@ zero_extendqisi2
 702 0004 DBB2     		uxtb	r3, r3
 703 0006 042B     		cmp	r3, #4
 704 0008 05D0     		beq	.L74
 705 000a 062B     		cmp	r3, #6
 706 000c 05D0     		beq	.L75
 707 000e 022B     		cmp	r3, #2
 708 0010 05D1     		bne	.L77
 709              	.LBB12:
 710              	.LBB13:
 506:Generated_Source\PSoC5/USBFS_drv.c **** }
 711              		.loc 1 506 0
 712 0012 FFF7FEBF 		b	USBFS_LoadEP0
 713              	.LVL35:
 714              	.L74:
 715              	.LBE13:
 716              	.LBE12:
 271:Generated_Source\PSoC5/USBFS_drv.c ****             break;
 717              		.loc 1 271 0
ARM GAS  C:\Users\RABBIT~1\AppData\Local\Temp\ccSIh51e.s 			page 28


 718 0016 FFF7FEBF 		b	USBFS_ControlWriteStatusStage
 719              	.LVL36:
 720              	.L75:
 275:Generated_Source\PSoC5/USBFS_drv.c ****             break;
 721              		.loc 1 275 0
 722 001a FFF7FEBF 		b	USBFS_NoDataControlStatusStage
 723              	.LVL37:
 724              	.L77:
 725 001e 7047     		bx	lr
 726              	.L79:
 727              		.align	2
 728              	.L78:
 729 0020 00000000 		.word	USBFS_transferState
 730              		.cfi_endproc
 731              	.LFE2:
 732              		.size	USBFS_HandleIN, .-USBFS_HandleIN
 733              		.section	.text.USBFS_EP_0_ISR,"ax",%progbits
 734              		.align	1
 735              		.global	USBFS_EP_0_ISR
 736              		.thumb
 737              		.thumb_func
 738              		.type	USBFS_EP_0_ISR, %function
 739              	USBFS_EP_0_ISR:
 740              	.LFB0:
  95:Generated_Source\PSoC5/USBFS_drv.c ****     uint8 tempReg;
 741              		.loc 1 95 0
 742              		.cfi_startproc
 743              		@ args = 0, pretend = 0, frame = 0
 744              		@ frame_needed = 0, uses_anonymous_args = 0
 745 0000 38B5     		push	{r3, r4, r5, lr}
 746              		.cfi_def_cfa_offset 16
 747              		.cfi_offset 3, -16
 748              		.cfi_offset 4, -12
 749              		.cfi_offset 5, -8
 750              		.cfi_offset 14, -4
 103:Generated_Source\PSoC5/USBFS_drv.c ****     if ((tempReg & USBFS_MODE_ACKD) != 0u)
 751              		.loc 1 103 0
 752 0002 1D4C     		ldr	r4, .L97
 753 0004 2378     		ldrb	r3, [r4]	@ zero_extendqisi2
 754 0006 DBB2     		uxtb	r3, r3
 755              	.LVL38:
 104:Generated_Source\PSoC5/USBFS_drv.c ****     {
 756              		.loc 1 104 0
 757 0008 DD06     		lsls	r5, r3, #27
 758 000a 34D5     		bpl	.L80
 759              	.LVL39:
 107:Generated_Source\PSoC5/USBFS_drv.c ****         {
 760              		.loc 1 107 0
 761 000c 1806     		lsls	r0, r3, #24
 762 000e 0AD5     		bpl	.L82
 109:Generated_Source\PSoC5/USBFS_drv.c ****             {
 763              		.loc 1 109 0
 764 0010 03F00F03 		and	r3, r3, #15
 765              	.LVL40:
 766 0014 012B     		cmp	r3, #1
 767 0016 2ED1     		bne	.L80
 116:Generated_Source\PSoC5/USBFS_drv.c ****                 
ARM GAS  C:\Users\RABBIT~1\AppData\Local\Temp\ccSIh51e.s 			page 29


 768              		.loc 1 116 0
 769 0018 FFF7FEFF 		bl	USBFS_HandleSetup
 770              	.LVL41:
 118:Generated_Source\PSoC5/USBFS_drv.c ****                 {
 771              		.loc 1 118 0
 772 001c 174B     		ldr	r3, .L97+4
 773 001e 1B78     		ldrb	r3, [r3]	@ zero_extendqisi2
 774 0020 1906     		lsls	r1, r3, #24
 775 0022 09D5     		bpl	.L84
 776 0024 38BD     		pop	{r3, r4, r5, pc}
 777              	.LVL42:
 778              	.L82:
 125:Generated_Source\PSoC5/USBFS_drv.c ****         {
 779              		.loc 1 125 0
 780 0026 5A06     		lsls	r2, r3, #25
 781 0028 02D5     		bpl	.L85
 127:Generated_Source\PSoC5/USBFS_drv.c ****         }
 782              		.loc 1 127 0
 783 002a FFF7FEFF 		bl	USBFS_HandleIN
 784              	.LVL43:
 785 002e 03E0     		b	.L84
 786              	.LVL44:
 787              	.L85:
 129:Generated_Source\PSoC5/USBFS_drv.c ****         {
 788              		.loc 1 129 0
 789 0030 9D06     		lsls	r5, r3, #26
 790 0032 20D5     		bpl	.L80
 131:Generated_Source\PSoC5/USBFS_drv.c ****         }
 791              		.loc 1 131 0
 792 0034 FFF7FEFF 		bl	USBFS_HandleOUT
 793              	.LVL45:
 794              	.L84:
 142:Generated_Source\PSoC5/USBFS_drv.c ****             
 795              		.loc 1 142 0
 796 0038 2378     		ldrb	r3, [r4]	@ zero_extendqisi2
 797              	.LVL46:
 145:Generated_Source\PSoC5/USBFS_drv.c ****             {
 798              		.loc 1 145 0
 799 003a 1B06     		lsls	r3, r3, #24
 800              	.LVL47:
 801 003c 1BD4     		bmi	.L80
 148:Generated_Source\PSoC5/USBFS_drv.c ****                 USBFS_EP0_CNT_REG = tempReg;
 802              		.loc 1 148 0
 803 003e 104B     		ldr	r3, .L97+8
 804 0040 1A78     		ldrb	r2, [r3]	@ zero_extendqisi2
 805 0042 104B     		ldr	r3, .L97+12
 806 0044 1B78     		ldrb	r3, [r3]	@ zero_extendqisi2
 807 0046 1343     		orrs	r3, r3, r2
 808              	.LVL48:
 149:Generated_Source\PSoC5/USBFS_drv.c ****                
 809              		.loc 1 149 0
 810 0048 0F4A     		ldr	r2, .L97+16
 811 004a 1370     		strb	r3, [r2]
 152:Generated_Source\PSoC5/USBFS_drv.c ****                 {
 812              		.loc 1 152 0
 813 004c 1278     		ldrb	r2, [r2]	@ zero_extendqisi2
 814 004e 9342     		cmp	r3, r2
ARM GAS  C:\Users\RABBIT~1\AppData\Local\Temp\ccSIh51e.s 			page 30


 815 0050 11D1     		bne	.L80
 158:Generated_Source\PSoC5/USBFS_drv.c ****                         
 816              		.loc 1 158 0
 817 0052 0A4A     		ldr	r2, .L97+4
 161:Generated_Source\PSoC5/USBFS_drv.c ****                         
 818              		.loc 1 161 0
 819 0054 0849     		ldr	r1, .L97
 820 0056 1546     		mov	r5, r2
 821              	.LVL49:
 822              	.L93:
 158:Generated_Source\PSoC5/USBFS_drv.c ****                         
 823              		.loc 1 158 0
 824 0058 1378     		ldrb	r3, [r2]	@ zero_extendqisi2
 161:Generated_Source\PSoC5/USBFS_drv.c ****                         
 825              		.loc 1 161 0
 826 005a 2078     		ldrb	r0, [r4]	@ zero_extendqisi2
 158:Generated_Source\PSoC5/USBFS_drv.c ****                         
 827              		.loc 1 158 0
 828 005c DBB2     		uxtb	r3, r3
 829              	.LVL50:
 164:Generated_Source\PSoC5/USBFS_drv.c ****                         {
 830              		.loc 1 164 0
 831 005e 0006     		lsls	r0, r0, #24
 832              	.LVL51:
 833 0060 05D4     		bmi	.L86
 167:Generated_Source\PSoC5/USBFS_drv.c ****                             
 834              		.loc 1 167 0
 835 0062 1378     		ldrb	r3, [r2]	@ zero_extendqisi2
 836              	.LVL52:
 837 0064 DBB2     		uxtb	r3, r3
 838 0066 0B70     		strb	r3, [r1]
 170:Generated_Source\PSoC5/USBFS_drv.c ****                         }
 839              		.loc 1 170 0
 840 0068 0B78     		ldrb	r3, [r1]	@ zero_extendqisi2
 841 006a 03F00F03 		and	r3, r3, #15
 842              	.LVL53:
 843              	.L86:
 173:Generated_Source\PSoC5/USBFS_drv.c ****                 }
 844              		.loc 1 173 0
 845 006e 2878     		ldrb	r0, [r5]	@ zero_extendqisi2
 846 0070 8342     		cmp	r3, r0
 847 0072 F1D1     		bne	.L93
 848 0074 38BD     		pop	{r3, r4, r5, pc}
 849              	.LVL54:
 850              	.L80:
 851 0076 38BD     		pop	{r3, r4, r5, pc}
 852              	.L98:
 853              		.align	2
 854              	.L97:
 855 0078 28600040 		.word	1073766440
 856 007c 00000000 		.word	USBFS_ep0Mode
 857 0080 00000000 		.word	USBFS_ep0Toggle
 858 0084 00000000 		.word	USBFS_ep0Count
 859 0088 29600040 		.word	1073766441
 860              		.cfi_endproc
 861              	.LFE0:
 862              		.size	USBFS_EP_0_ISR, .-USBFS_EP_0_ISR
ARM GAS  C:\Users\RABBIT~1\AppData\Local\Temp\ccSIh51e.s 			page 31


 863              		.section	.text.USBFS_InitializeStatusBlock,"ax",%progbits
 864              		.align	1
 865              		.global	USBFS_InitializeStatusBlock
 866              		.thumb
 867              		.thumb_func
 868              		.type	USBFS_InitializeStatusBlock, %function
 869              	USBFS_InitializeStatusBlock:
 870              	.LFB15:
 761:Generated_Source\PSoC5/USBFS_drv.c ****     }
 762:Generated_Source\PSoC5/USBFS_drv.c **** }
 763:Generated_Source\PSoC5/USBFS_drv.c **** 
 764:Generated_Source\PSoC5/USBFS_drv.c **** 
 765:Generated_Source\PSoC5/USBFS_drv.c **** /*******************************************************************************
 766:Generated_Source\PSoC5/USBFS_drv.c **** * Function Name: USBFS_InitializeStatusBlock
 767:Generated_Source\PSoC5/USBFS_drv.c **** ****************************************************************************//**
 768:Generated_Source\PSoC5/USBFS_drv.c **** *
 769:Generated_Source\PSoC5/USBFS_drv.c **** *  Initialize the Completion Status Block for a Request.  The completion
 770:Generated_Source\PSoC5/USBFS_drv.c **** *  code is set to USB_XFER_IDLE.
 771:Generated_Source\PSoC5/USBFS_drv.c **** *
 772:Generated_Source\PSoC5/USBFS_drv.c **** *  Also, initializes USBFS_transferByteCount.  Save some space,
 773:Generated_Source\PSoC5/USBFS_drv.c **** *  this is the only consumer.
 774:Generated_Source\PSoC5/USBFS_drv.c **** *
 775:Generated_Source\PSoC5/USBFS_drv.c **** * \globalvars
 776:Generated_Source\PSoC5/USBFS_drv.c **** *  USBFS_currentTD.pStatusBlock->status - set to XFER_IDLE.
 777:Generated_Source\PSoC5/USBFS_drv.c **** *  USBFS_currentTD.pStatusBlock->length - cleared.
 778:Generated_Source\PSoC5/USBFS_drv.c **** *  USBFS_transferByteCount - cleared.
 779:Generated_Source\PSoC5/USBFS_drv.c **** *
 780:Generated_Source\PSoC5/USBFS_drv.c **** * \reentrant
 781:Generated_Source\PSoC5/USBFS_drv.c **** *  No.
 782:Generated_Source\PSoC5/USBFS_drv.c **** *
 783:Generated_Source\PSoC5/USBFS_drv.c **** *******************************************************************************/
 784:Generated_Source\PSoC5/USBFS_drv.c **** void USBFS_InitializeStatusBlock(void) 
 785:Generated_Source\PSoC5/USBFS_drv.c **** {
 871              		.loc 1 785 0
 872              		.cfi_startproc
 873              		@ args = 0, pretend = 0, frame = 0
 874              		@ frame_needed = 0, uses_anonymous_args = 0
 875              		@ link register save eliminated.
 786:Generated_Source\PSoC5/USBFS_drv.c ****     USBFS_transferByteCount = 0u;
 876              		.loc 1 786 0
 877 0000 054A     		ldr	r2, .L104
 878 0002 0023     		movs	r3, #0
 879 0004 1380     		strh	r3, [r2]	@ movhi
 787:Generated_Source\PSoC5/USBFS_drv.c ****     
 788:Generated_Source\PSoC5/USBFS_drv.c ****     if (USBFS_currentTD.pStatusBlock != NULL)
 880              		.loc 1 788 0
 881 0006 054A     		ldr	r2, .L104+4
 882 0008 9168     		ldr	r1, [r2, #8]
 883 000a 19B1     		cbz	r1, .L99
 789:Generated_Source\PSoC5/USBFS_drv.c ****     {
 790:Generated_Source\PSoC5/USBFS_drv.c ****         USBFS_currentTD.pStatusBlock->status = USBFS_XFER_IDLE;
 884              		.loc 1 790 0
 885 000c 9168     		ldr	r1, [r2, #8]
 886 000e 0B70     		strb	r3, [r1]
 791:Generated_Source\PSoC5/USBFS_drv.c ****         USBFS_currentTD.pStatusBlock->length = 0u;
 887              		.loc 1 791 0
 888 0010 9268     		ldr	r2, [r2, #8]
ARM GAS  C:\Users\RABBIT~1\AppData\Local\Temp\ccSIh51e.s 			page 32


 889 0012 5380     		strh	r3, [r2, #2]	@ movhi
 890              	.L99:
 891 0014 7047     		bx	lr
 892              	.L105:
 893 0016 00BF     		.align	2
 894              	.L104:
 895 0018 00000000 		.word	USBFS_transferByteCount
 896 001c 00000000 		.word	USBFS_currentTD
 897              		.cfi_endproc
 898              	.LFE15:
 899              		.size	USBFS_InitializeStatusBlock, .-USBFS_InitializeStatusBlock
 900              		.section	.text.USBFS_InitControlRead,"ax",%progbits
 901              		.align	1
 902              		.global	USBFS_InitControlRead
 903              		.thumb
 904              		.thumb_func
 905              		.type	USBFS_InitControlRead, %function
 906              	USBFS_InitControlRead:
 907              	.LFB5:
 419:Generated_Source\PSoC5/USBFS_drv.c ****     uint16 xferCount;
 908              		.loc 1 419 0
 909              		.cfi_startproc
 910              		@ args = 0, pretend = 0, frame = 0
 911              		@ frame_needed = 0, uses_anonymous_args = 0
 422:Generated_Source\PSoC5/USBFS_drv.c ****     {
 912              		.loc 1 422 0
 913 0000 0E48     		ldr	r0, .L110
 419:Generated_Source\PSoC5/USBFS_drv.c ****     uint16 xferCount;
 914              		.loc 1 419 0
 915 0002 08B5     		push	{r3, lr}
 916              		.cfi_def_cfa_offset 8
 917              		.cfi_offset 3, -8
 918              		.cfi_offset 14, -4
 422:Generated_Source\PSoC5/USBFS_drv.c ****     {
 919              		.loc 1 422 0
 920 0004 0388     		ldrh	r3, [r0]
 921 0006 9BB2     		uxth	r3, r3
 922 0008 13B9     		cbnz	r3, .L107
 424:Generated_Source\PSoC5/USBFS_drv.c ****     }
 923              		.loc 1 424 0
 924 000a FFF7FEFF 		bl	USBFS_InitZeroLengthControlTransfer
 925              	.LVL55:
 926 000e 13E0     		b	.L108
 927              	.L107:
 429:Generated_Source\PSoC5/USBFS_drv.c ****         
 928              		.loc 1 429 0
 929 0010 0B4B     		ldr	r3, .L110+4
 930 0012 0222     		movs	r2, #2
 931 0014 1A70     		strb	r2, [r3]
 432:Generated_Source\PSoC5/USBFS_drv.c ****         
 932              		.loc 1 432 0
 933 0016 0B4B     		ldr	r3, .L110+8
 934 0018 0022     		movs	r2, #0
 935 001a 1A70     		strb	r2, [r3]
 435:Generated_Source\PSoC5/USBFS_drv.c ****         
 936              		.loc 1 435 0
 937 001c FFF7FEFF 		bl	USBFS_InitializeStatusBlock
ARM GAS  C:\Users\RABBIT~1\AppData\Local\Temp\ccSIh51e.s 			page 33


 938              	.LVL56:
 437:Generated_Source\PSoC5/USBFS_drv.c **** 
 939              		.loc 1 437 0
 940 0020 094A     		ldr	r2, .L110+12
 941 0022 D179     		ldrb	r1, [r2, #7]	@ zero_extendqisi2
 942 0024 9379     		ldrb	r3, [r2, #6]	@ zero_extendqisi2
 439:Generated_Source\PSoC5/USBFS_drv.c ****         {
 943              		.loc 1 439 0
 944 0026 0288     		ldrh	r2, [r0]
 437:Generated_Source\PSoC5/USBFS_drv.c **** 
 945              		.loc 1 437 0
 946 0028 43EA0123 		orr	r3, r3, r1, lsl #8
 947              	.LVL57:
 439:Generated_Source\PSoC5/USBFS_drv.c ****         {
 948              		.loc 1 439 0
 949 002c 92B2     		uxth	r2, r2
 950 002e 9342     		cmp	r3, r2
 441:Generated_Source\PSoC5/USBFS_drv.c ****         }
 951              		.loc 1 441 0
 952 0030 38BF     		it	cc
 953 0032 0380     		strhcc	r3, [r0]	@ movhi
 444:Generated_Source\PSoC5/USBFS_drv.c ****     }
 954              		.loc 1 444 0
 955 0034 FFF7FEFF 		bl	USBFS_LoadEP0
 956              	.LVL58:
 957              	.L108:
 448:Generated_Source\PSoC5/USBFS_drv.c **** 
 958              		.loc 1 448 0
 959 0038 0120     		movs	r0, #1
 960 003a 08BD     		pop	{r3, pc}
 961              	.L111:
 962              		.align	2
 963              	.L110:
 964 003c 00000000 		.word	USBFS_currentTD
 965 0040 00000000 		.word	USBFS_transferState
 966 0044 00000000 		.word	USBFS_ep0Toggle
 967 0048 00600040 		.word	1073766400
 968              		.cfi_endproc
 969              	.LFE5:
 970              		.size	USBFS_InitControlRead, .-USBFS_InitControlRead
 971              		.section	.text.USBFS_InitControlWrite,"ax",%progbits
 972              		.align	1
 973              		.global	USBFS_InitControlWrite
 974              		.thumb
 975              		.thumb_func
 976              		.type	USBFS_InitControlWrite, %function
 977              	USBFS_InitControlWrite:
 978              	.LFB9:
 561:Generated_Source\PSoC5/USBFS_drv.c ****     uint16 xferCount;
 979              		.loc 1 561 0
 980              		.cfi_startproc
 981              		@ args = 0, pretend = 0, frame = 0
 982              		@ frame_needed = 0, uses_anonymous_args = 0
 983 0000 08B5     		push	{r3, lr}
 984              		.cfi_def_cfa_offset 8
 985              		.cfi_offset 3, -8
 986              		.cfi_offset 14, -4
ARM GAS  C:\Users\RABBIT~1\AppData\Local\Temp\ccSIh51e.s 			page 34


 565:Generated_Source\PSoC5/USBFS_drv.c ****     
 987              		.loc 1 565 0
 988 0002 0C4B     		ldr	r3, .L114
 989 0004 0422     		movs	r2, #4
 990 0006 1A70     		strb	r2, [r3]
 568:Generated_Source\PSoC5/USBFS_drv.c ****     
 991              		.loc 1 568 0
 992 0008 0B4B     		ldr	r3, .L114+4
 993 000a 8022     		movs	r2, #128
 994 000c 1A70     		strb	r2, [r3]
 571:Generated_Source\PSoC5/USBFS_drv.c **** 
 995              		.loc 1 571 0
 996 000e FFF7FEFF 		bl	USBFS_InitializeStatusBlock
 997              	.LVL59:
 573:Generated_Source\PSoC5/USBFS_drv.c **** 
 998              		.loc 1 573 0
 999 0012 0A4A     		ldr	r2, .L114+8
 584:Generated_Source\PSoC5/USBFS_drv.c **** 
 1000              		.loc 1 584 0
 1001 0014 0120     		movs	r0, #1
 573:Generated_Source\PSoC5/USBFS_drv.c **** 
 1002              		.loc 1 573 0
 1003 0016 D179     		ldrb	r1, [r2, #7]	@ zero_extendqisi2
 1004 0018 9379     		ldrb	r3, [r2, #6]	@ zero_extendqisi2
 1005 001a 43EA0123 		orr	r3, r3, r1, lsl #8
 1006              	.LVL60:
 575:Generated_Source\PSoC5/USBFS_drv.c ****     {
 1007              		.loc 1 575 0
 1008 001e 0849     		ldr	r1, .L114+12
 1009 0020 0A88     		ldrh	r2, [r1]
 1010 0022 92B2     		uxth	r2, r2
 1011 0024 9342     		cmp	r3, r2
 577:Generated_Source\PSoC5/USBFS_drv.c ****     }
 1012              		.loc 1 577 0
 1013 0026 38BF     		it	cc
 1014 0028 0B80     		strhcc	r3, [r1]	@ movhi
 581:Generated_Source\PSoC5/USBFS_drv.c **** 
 1015              		.loc 1 581 0
 1016 002a 064B     		ldr	r3, .L114+16
 1017              	.LVL61:
 1018 002c 0B22     		movs	r2, #11
 1019 002e 1A70     		strb	r2, [r3]
 584:Generated_Source\PSoC5/USBFS_drv.c **** 
 1020              		.loc 1 584 0
 1021 0030 08BD     		pop	{r3, pc}
 1022              	.L115:
 1023 0032 00BF     		.align	2
 1024              	.L114:
 1025 0034 00000000 		.word	USBFS_transferState
 1026 0038 00000000 		.word	USBFS_ep0Toggle
 1027 003c 00600040 		.word	1073766400
 1028 0040 00000000 		.word	USBFS_currentTD
 1029 0044 00000000 		.word	USBFS_ep0Mode
 1030              		.cfi_endproc
 1031              	.LFE9:
 1032              		.size	USBFS_InitControlWrite, .-USBFS_InitControlWrite
 1033              		.comm	USBFS_transferByteCount,2,2
ARM GAS  C:\Users\RABBIT~1\AppData\Local\Temp\ccSIh51e.s 			page 35


 1034              		.comm	USBFS_ep0Count,1,1
 1035              		.comm	USBFS_ep0Mode,1,1
 1036              		.comm	USBFS_currentTD,12,4
 1037              		.comm	USBFS_transferState,1,1
 1038              		.comm	USBFS_lastPacketSize,1,1
 1039              		.comm	USBFS_ep0Toggle,1,1
 1040              		.comm	USBFS_interfaceClass,4,4
 1041              		.comm	USBFS_device,1,1
 1042              		.comm	USBFS_interfaceStatus,1,1
 1043              		.comm	USBFS_interfaceSettingLast,1,1
 1044              		.comm	USBFS_interfaceSetting,1,1
 1045              		.comm	USBFS_deviceStatus,1,1
 1046              		.comm	USBFS_deviceAddress,1,1
 1047              		.comm	USBFS_configurationChanged,1,1
 1048              		.comm	USBFS_interfaceNumber,1,1
 1049              		.comm	USBFS_configuration,1,1
 1050              		.comm	USBFS_EP,108,2
 1051              		.text
 1052              	.Letext0:
 1053              		.file 2 "Generated_Source\\PSoC5\\cytypes.h"
 1054              		.file 3 "Generated_Source\\PSoC5\\USBFS.h"
 1055              		.file 4 "Generated_Source\\PSoC5\\USBFS_pvt.h"