ARM GAS  C:\Users\RABBIT~1\AppData\Local\Temp\ccIAjdRL.s 			page 1


   1              		.syntax unified
   2              		.cpu cortex-m3
   3              		.fpu softvfp
   4              		.eabi_attribute 20, 1
   5              		.eabi_attribute 21, 1
   6              		.eabi_attribute 23, 3
   7              		.eabi_attribute 24, 1
   8              		.eabi_attribute 25, 1
   9              		.eabi_attribute 26, 1
  10              		.eabi_attribute 30, 4
  11              		.eabi_attribute 34, 1
  12              		.eabi_attribute 18, 4
  13              		.thumb
  14              		.syntax unified
  15              		.file	"USBFS_std.c"
  16              		.text
  17              	.Ltext0:
  18              		.cfi_sections	.debug_frame
  19              		.section	.text.USBFS_ReadDieID,"ax",%progbits
  20              		.align	1
  21              		.global	USBFS_ReadDieID
  22              		.thumb
  23              		.thumb_func
  24              		.type	USBFS_ReadDieID, %function
  25              	USBFS_ReadDieID:
  26              	.LFB1:
  27              		.file 1 "Generated_Source\\PSoC5\\USBFS_std.c"
   1:Generated_Source\PSoC5/USBFS_std.c **** /***************************************************************************//**
   2:Generated_Source\PSoC5/USBFS_std.c **** * \file USBFS_std.c
   3:Generated_Source\PSoC5/USBFS_std.c **** * \version 3.20
   4:Generated_Source\PSoC5/USBFS_std.c **** *
   5:Generated_Source\PSoC5/USBFS_std.c **** * \brief
   6:Generated_Source\PSoC5/USBFS_std.c **** *  This file contains the USB Standard request handler.
   7:Generated_Source\PSoC5/USBFS_std.c **** *
   8:Generated_Source\PSoC5/USBFS_std.c **** ********************************************************************************
   9:Generated_Source\PSoC5/USBFS_std.c **** * \copyright
  10:Generated_Source\PSoC5/USBFS_std.c **** * Copyright 2008-2016, Cypress Semiconductor Corporation.  All rights reserved.
  11:Generated_Source\PSoC5/USBFS_std.c **** * You may use this file only in accordance with the license, terms, conditions,
  12:Generated_Source\PSoC5/USBFS_std.c **** * disclaimers, and limitations in the end user license agreement accompanying
  13:Generated_Source\PSoC5/USBFS_std.c **** * the software package with which this file was provided.
  14:Generated_Source\PSoC5/USBFS_std.c **** *******************************************************************************/
  15:Generated_Source\PSoC5/USBFS_std.c **** 
  16:Generated_Source\PSoC5/USBFS_std.c **** #include "USBFS_pvt.h"
  17:Generated_Source\PSoC5/USBFS_std.c **** 
  18:Generated_Source\PSoC5/USBFS_std.c **** /***************************************
  19:Generated_Source\PSoC5/USBFS_std.c **** *   Static data allocation
  20:Generated_Source\PSoC5/USBFS_std.c **** ***************************************/
  21:Generated_Source\PSoC5/USBFS_std.c **** 
  22:Generated_Source\PSoC5/USBFS_std.c **** #if defined(USBFS_ENABLE_FWSN_STRING)
  23:Generated_Source\PSoC5/USBFS_std.c ****     static volatile uint8* USBFS_fwSerialNumberStringDescriptor;
  24:Generated_Source\PSoC5/USBFS_std.c ****     static volatile uint8  USBFS_snStringConfirm = USBFS_FALSE;
  25:Generated_Source\PSoC5/USBFS_std.c **** #endif  /* (USBFS_ENABLE_FWSN_STRING) */
  26:Generated_Source\PSoC5/USBFS_std.c **** 
  27:Generated_Source\PSoC5/USBFS_std.c **** #if defined(USBFS_ENABLE_FWSN_STRING)
  28:Generated_Source\PSoC5/USBFS_std.c ****     /***************************************************************************
  29:Generated_Source\PSoC5/USBFS_std.c ****     * Function Name: USBFS_SerialNumString
  30:Generated_Source\PSoC5/USBFS_std.c ****     ************************************************************************//**
ARM GAS  C:\Users\RABBIT~1\AppData\Local\Temp\ccIAjdRL.s 			page 2


  31:Generated_Source\PSoC5/USBFS_std.c ****     *
  32:Generated_Source\PSoC5/USBFS_std.c ****     *  This function is available only when the User Call Back option in the 
  33:Generated_Source\PSoC5/USBFS_std.c ****     *  Serial Number String descriptor properties is selected. Application 
  34:Generated_Source\PSoC5/USBFS_std.c ****     *  firmware can provide the source of the USB device serial number string 
  35:Generated_Source\PSoC5/USBFS_std.c ****     *  descriptor during run time. The default string is used if the application 
  36:Generated_Source\PSoC5/USBFS_std.c ****     *  firmware does not use this function or sets the wrong string descriptor.
  37:Generated_Source\PSoC5/USBFS_std.c ****     *
  38:Generated_Source\PSoC5/USBFS_std.c ****     *  \param snString:  Pointer to the user-defined string descriptor. The 
  39:Generated_Source\PSoC5/USBFS_std.c ****     *  string descriptor should meet the Universal Serial Bus Specification 
  40:Generated_Source\PSoC5/USBFS_std.c ****     *  revision 2.0 chapter 9.6.7
  41:Generated_Source\PSoC5/USBFS_std.c ****     *  Offset|Size|Value|Description
  42:Generated_Source\PSoC5/USBFS_std.c ****     *  ------|----|------|---------------------------------
  43:Generated_Source\PSoC5/USBFS_std.c ****     *  0     |1   |N     |Size of this descriptor in bytes
  44:Generated_Source\PSoC5/USBFS_std.c ****     *  1     |1   |0x03  |STRING Descriptor Type
  45:Generated_Source\PSoC5/USBFS_std.c ****     *  2     |N-2 |Number|UNICODE encoded string
  46:Generated_Source\PSoC5/USBFS_std.c ****     *  
  47:Generated_Source\PSoC5/USBFS_std.c ****     * *For example:* uint8 snString[16]={0x0E,0x03,'F',0,'W',0,'S',0,'N',0,'0',0,'1',0};
  48:Generated_Source\PSoC5/USBFS_std.c ****     *
  49:Generated_Source\PSoC5/USBFS_std.c ****     * \reentrant
  50:Generated_Source\PSoC5/USBFS_std.c ****     *  No.
  51:Generated_Source\PSoC5/USBFS_std.c ****     *
  52:Generated_Source\PSoC5/USBFS_std.c ****     ***************************************************************************/
  53:Generated_Source\PSoC5/USBFS_std.c ****     void  USBFS_SerialNumString(uint8 snString[]) 
  54:Generated_Source\PSoC5/USBFS_std.c ****     {
  55:Generated_Source\PSoC5/USBFS_std.c ****         USBFS_snStringConfirm = USBFS_FALSE;
  56:Generated_Source\PSoC5/USBFS_std.c ****         
  57:Generated_Source\PSoC5/USBFS_std.c ****         if (snString != NULL)
  58:Generated_Source\PSoC5/USBFS_std.c ****         {
  59:Generated_Source\PSoC5/USBFS_std.c ****             /* Check descriptor validation */
  60:Generated_Source\PSoC5/USBFS_std.c ****             if ((snString[0u] > 1u) && (snString[1u] == USBFS_DESCR_STRING))
  61:Generated_Source\PSoC5/USBFS_std.c ****             {
  62:Generated_Source\PSoC5/USBFS_std.c ****                 USBFS_fwSerialNumberStringDescriptor = snString;
  63:Generated_Source\PSoC5/USBFS_std.c ****                 USBFS_snStringConfirm = USBFS_TRUE;
  64:Generated_Source\PSoC5/USBFS_std.c ****             }
  65:Generated_Source\PSoC5/USBFS_std.c ****         }
  66:Generated_Source\PSoC5/USBFS_std.c ****     }
  67:Generated_Source\PSoC5/USBFS_std.c **** #endif  /* USBFS_ENABLE_FWSN_STRING */
  68:Generated_Source\PSoC5/USBFS_std.c **** 
  69:Generated_Source\PSoC5/USBFS_std.c **** 
  70:Generated_Source\PSoC5/USBFS_std.c **** /*******************************************************************************
  71:Generated_Source\PSoC5/USBFS_std.c **** * Function Name: USBFS_HandleStandardRqst
  72:Generated_Source\PSoC5/USBFS_std.c **** ****************************************************************************//**
  73:Generated_Source\PSoC5/USBFS_std.c **** *
  74:Generated_Source\PSoC5/USBFS_std.c **** *  This Routine dispatches standard requests
  75:Generated_Source\PSoC5/USBFS_std.c **** *
  76:Generated_Source\PSoC5/USBFS_std.c **** *
  77:Generated_Source\PSoC5/USBFS_std.c **** * \return
  78:Generated_Source\PSoC5/USBFS_std.c **** *  TRUE if request handled.
  79:Generated_Source\PSoC5/USBFS_std.c **** *
  80:Generated_Source\PSoC5/USBFS_std.c **** * \reentrant
  81:Generated_Source\PSoC5/USBFS_std.c **** *  No.
  82:Generated_Source\PSoC5/USBFS_std.c **** *
  83:Generated_Source\PSoC5/USBFS_std.c **** *******************************************************************************/
  84:Generated_Source\PSoC5/USBFS_std.c **** uint8 USBFS_HandleStandardRqst(void) 
  85:Generated_Source\PSoC5/USBFS_std.c **** {
  86:Generated_Source\PSoC5/USBFS_std.c ****     uint8 requestHandled = USBFS_FALSE;
  87:Generated_Source\PSoC5/USBFS_std.c ****     uint8 interfaceNumber;
ARM GAS  C:\Users\RABBIT~1\AppData\Local\Temp\ccIAjdRL.s 			page 3


  88:Generated_Source\PSoC5/USBFS_std.c ****     uint8 configurationN;
  89:Generated_Source\PSoC5/USBFS_std.c ****     uint8 bmRequestType = USBFS_bmRequestTypeReg;
  90:Generated_Source\PSoC5/USBFS_std.c **** 
  91:Generated_Source\PSoC5/USBFS_std.c **** #if defined(USBFS_ENABLE_STRINGS)
  92:Generated_Source\PSoC5/USBFS_std.c ****     volatile uint8 *pStr = 0u;
  93:Generated_Source\PSoC5/USBFS_std.c ****     #if defined(USBFS_ENABLE_DESCRIPTOR_STRINGS)
  94:Generated_Source\PSoC5/USBFS_std.c ****         uint8 nStr;
  95:Generated_Source\PSoC5/USBFS_std.c ****         uint8 descrLength;
  96:Generated_Source\PSoC5/USBFS_std.c ****     #endif /* (USBFS_ENABLE_DESCRIPTOR_STRINGS) */
  97:Generated_Source\PSoC5/USBFS_std.c **** #endif /* (USBFS_ENABLE_STRINGS) */
  98:Generated_Source\PSoC5/USBFS_std.c ****     
  99:Generated_Source\PSoC5/USBFS_std.c ****     static volatile uint8 USBFS_tBuffer[USBFS_STATUS_LENGTH_MAX];
 100:Generated_Source\PSoC5/USBFS_std.c ****     const T_USBFS_LUT CYCODE *pTmp;
 101:Generated_Source\PSoC5/USBFS_std.c **** 
 102:Generated_Source\PSoC5/USBFS_std.c ****     USBFS_currentTD.count = 0u;
 103:Generated_Source\PSoC5/USBFS_std.c **** 
 104:Generated_Source\PSoC5/USBFS_std.c ****     if (USBFS_RQST_DIR_D2H == (bmRequestType & USBFS_RQST_DIR_MASK))
 105:Generated_Source\PSoC5/USBFS_std.c ****     {
 106:Generated_Source\PSoC5/USBFS_std.c ****         /* Control Read */
 107:Generated_Source\PSoC5/USBFS_std.c ****         switch (USBFS_bRequestReg)
 108:Generated_Source\PSoC5/USBFS_std.c ****         {
 109:Generated_Source\PSoC5/USBFS_std.c ****             case USBFS_GET_DESCRIPTOR:
 110:Generated_Source\PSoC5/USBFS_std.c ****                 if (USBFS_DESCR_DEVICE ==USBFS_wValueHiReg)
 111:Generated_Source\PSoC5/USBFS_std.c ****                 {
 112:Generated_Source\PSoC5/USBFS_std.c ****                     pTmp = USBFS_GetDeviceTablePtr();
 113:Generated_Source\PSoC5/USBFS_std.c ****                     USBFS_currentTD.pData = (volatile uint8 *)pTmp->p_list;
 114:Generated_Source\PSoC5/USBFS_std.c ****                     USBFS_currentTD.count = USBFS_DEVICE_DESCR_LENGTH;
 115:Generated_Source\PSoC5/USBFS_std.c ****                     
 116:Generated_Source\PSoC5/USBFS_std.c ****                     requestHandled  = USBFS_InitControlRead();
 117:Generated_Source\PSoC5/USBFS_std.c ****                 }
 118:Generated_Source\PSoC5/USBFS_std.c ****                 else if (USBFS_DESCR_CONFIG == USBFS_wValueHiReg)
 119:Generated_Source\PSoC5/USBFS_std.c ****                 {
 120:Generated_Source\PSoC5/USBFS_std.c ****                     pTmp = USBFS_GetConfigTablePtr((uint8) USBFS_wValueLoReg);
 121:Generated_Source\PSoC5/USBFS_std.c ****                     
 122:Generated_Source\PSoC5/USBFS_std.c ****                     /* Verify that requested descriptor exists */
 123:Generated_Source\PSoC5/USBFS_std.c ****                     if (pTmp != NULL)
 124:Generated_Source\PSoC5/USBFS_std.c ****                     {
 125:Generated_Source\PSoC5/USBFS_std.c ****                         USBFS_currentTD.pData = (volatile uint8 *)pTmp->p_list;
 126:Generated_Source\PSoC5/USBFS_std.c ****                         USBFS_currentTD.count = (uint16)((uint16)(USBFS_currentTD.pData)[USBFS_CONF
 127:Generated_Source\PSoC5/USBFS_std.c ****                                                                             (USBFS_currentTD.pData)
 128:Generated_Source\PSoC5/USBFS_std.c ****                         requestHandled  = USBFS_InitControlRead();
 129:Generated_Source\PSoC5/USBFS_std.c ****                     }
 130:Generated_Source\PSoC5/USBFS_std.c ****                 }
 131:Generated_Source\PSoC5/USBFS_std.c ****                 
 132:Generated_Source\PSoC5/USBFS_std.c ****             #if(USBFS_BOS_ENABLE)
 133:Generated_Source\PSoC5/USBFS_std.c ****                 else if (USBFS_DESCR_BOS == USBFS_wValueHiReg)
 134:Generated_Source\PSoC5/USBFS_std.c ****                 {
 135:Generated_Source\PSoC5/USBFS_std.c ****                     pTmp = USBFS_GetBOSPtr();
 136:Generated_Source\PSoC5/USBFS_std.c ****                     
 137:Generated_Source\PSoC5/USBFS_std.c ****                     /* Verify that requested descriptor exists */
 138:Generated_Source\PSoC5/USBFS_std.c ****                     if (pTmp != NULL)
 139:Generated_Source\PSoC5/USBFS_std.c ****                     {
 140:Generated_Source\PSoC5/USBFS_std.c ****                         USBFS_currentTD.pData = (volatile uint8 *)pTmp;
 141:Generated_Source\PSoC5/USBFS_std.c ****                         USBFS_currentTD.count = ((uint16)((uint16)(USBFS_currentTD.pData)[USBFS_BOS
 142:Generated_Source\PSoC5/USBFS_std.c ****                                                                              (USBFS_currentTD.pData
 143:Generated_Source\PSoC5/USBFS_std.c ****                         requestHandled  = USBFS_InitControlRead();
 144:Generated_Source\PSoC5/USBFS_std.c ****                     }
ARM GAS  C:\Users\RABBIT~1\AppData\Local\Temp\ccIAjdRL.s 			page 4


 145:Generated_Source\PSoC5/USBFS_std.c ****                 }
 146:Generated_Source\PSoC5/USBFS_std.c ****             #endif /*(USBFS_BOS_ENABLE)*/
 147:Generated_Source\PSoC5/USBFS_std.c ****             
 148:Generated_Source\PSoC5/USBFS_std.c ****             #if defined(USBFS_ENABLE_STRINGS)
 149:Generated_Source\PSoC5/USBFS_std.c ****                 else if (USBFS_DESCR_STRING == USBFS_wValueHiReg)
 150:Generated_Source\PSoC5/USBFS_std.c ****                 {
 151:Generated_Source\PSoC5/USBFS_std.c ****                 /* Descriptor Strings */
 152:Generated_Source\PSoC5/USBFS_std.c ****                 #if defined(USBFS_ENABLE_DESCRIPTOR_STRINGS)
 153:Generated_Source\PSoC5/USBFS_std.c ****                     nStr = 0u;
 154:Generated_Source\PSoC5/USBFS_std.c ****                     pStr = (volatile uint8 *) &USBFS_STRING_DESCRIPTORS[0u];
 155:Generated_Source\PSoC5/USBFS_std.c ****                     
 156:Generated_Source\PSoC5/USBFS_std.c ****                     while ((USBFS_wValueLoReg > nStr) && (*pStr != 0u))
 157:Generated_Source\PSoC5/USBFS_std.c ****                     {
 158:Generated_Source\PSoC5/USBFS_std.c ****                         /* Read descriptor length from 1st byte */
 159:Generated_Source\PSoC5/USBFS_std.c ****                         descrLength = *pStr;
 160:Generated_Source\PSoC5/USBFS_std.c ****                         /* Move to next string descriptor */
 161:Generated_Source\PSoC5/USBFS_std.c ****                         pStr = &pStr[descrLength];
 162:Generated_Source\PSoC5/USBFS_std.c ****                         nStr++;
 163:Generated_Source\PSoC5/USBFS_std.c ****                     }
 164:Generated_Source\PSoC5/USBFS_std.c ****                 #endif /* (USBFS_ENABLE_DESCRIPTOR_STRINGS) */
 165:Generated_Source\PSoC5/USBFS_std.c ****                 
 166:Generated_Source\PSoC5/USBFS_std.c ****                 /* Microsoft OS String */
 167:Generated_Source\PSoC5/USBFS_std.c ****                 #if defined(USBFS_ENABLE_MSOS_STRING)
 168:Generated_Source\PSoC5/USBFS_std.c ****                     if (USBFS_STRING_MSOS == USBFS_wValueLoReg)
 169:Generated_Source\PSoC5/USBFS_std.c ****                     {
 170:Generated_Source\PSoC5/USBFS_std.c ****                         pStr = (volatile uint8 *)& USBFS_MSOS_DESCRIPTOR[0u];
 171:Generated_Source\PSoC5/USBFS_std.c ****                     }
 172:Generated_Source\PSoC5/USBFS_std.c ****                 #endif /* (USBFS_ENABLE_MSOS_STRING) */
 173:Generated_Source\PSoC5/USBFS_std.c ****                 
 174:Generated_Source\PSoC5/USBFS_std.c ****                 /* SN string */
 175:Generated_Source\PSoC5/USBFS_std.c ****                 #if defined(USBFS_ENABLE_SN_STRING)
 176:Generated_Source\PSoC5/USBFS_std.c ****                     if ((USBFS_wValueLoReg != 0u) && 
 177:Generated_Source\PSoC5/USBFS_std.c ****                         (USBFS_wValueLoReg == USBFS_DEVICE0_DESCR[USBFS_DEVICE_DESCR_SN_SHIFT]))
 178:Generated_Source\PSoC5/USBFS_std.c ****                     {
 179:Generated_Source\PSoC5/USBFS_std.c ****                     #if defined(USBFS_ENABLE_IDSN_STRING)
 180:Generated_Source\PSoC5/USBFS_std.c ****                         /* Read DIE ID and generate string descriptor in RAM */
 181:Generated_Source\PSoC5/USBFS_std.c ****                         USBFS_ReadDieID(USBFS_idSerialNumberStringDescriptor);
 182:Generated_Source\PSoC5/USBFS_std.c ****                         pStr = USBFS_idSerialNumberStringDescriptor;
 183:Generated_Source\PSoC5/USBFS_std.c ****                     #elif defined(USBFS_ENABLE_FWSN_STRING)
 184:Generated_Source\PSoC5/USBFS_std.c ****                         
 185:Generated_Source\PSoC5/USBFS_std.c ****                         if(USBFS_snStringConfirm != USBFS_FALSE)
 186:Generated_Source\PSoC5/USBFS_std.c ****                         {
 187:Generated_Source\PSoC5/USBFS_std.c ****                             pStr = USBFS_fwSerialNumberStringDescriptor;
 188:Generated_Source\PSoC5/USBFS_std.c ****                         }
 189:Generated_Source\PSoC5/USBFS_std.c ****                         else
 190:Generated_Source\PSoC5/USBFS_std.c ****                         {
 191:Generated_Source\PSoC5/USBFS_std.c ****                             pStr = (volatile uint8 *)&USBFS_SN_STRING_DESCRIPTOR[0u];
 192:Generated_Source\PSoC5/USBFS_std.c ****                         }
 193:Generated_Source\PSoC5/USBFS_std.c ****                     #else
 194:Generated_Source\PSoC5/USBFS_std.c ****                         pStr = (volatile uint8 *)&USBFS_SN_STRING_DESCRIPTOR[0u];
 195:Generated_Source\PSoC5/USBFS_std.c ****                     #endif  /* (USBFS_ENABLE_IDSN_STRING) */
 196:Generated_Source\PSoC5/USBFS_std.c ****                     }
 197:Generated_Source\PSoC5/USBFS_std.c ****                 #endif /* (USBFS_ENABLE_SN_STRING) */
 198:Generated_Source\PSoC5/USBFS_std.c ****                 
 199:Generated_Source\PSoC5/USBFS_std.c ****                     if (*pStr != 0u)
 200:Generated_Source\PSoC5/USBFS_std.c ****                     {
 201:Generated_Source\PSoC5/USBFS_std.c ****                         USBFS_currentTD.count = *pStr;
ARM GAS  C:\Users\RABBIT~1\AppData\Local\Temp\ccIAjdRL.s 			page 5


 202:Generated_Source\PSoC5/USBFS_std.c ****                         USBFS_currentTD.pData = pStr;
 203:Generated_Source\PSoC5/USBFS_std.c ****                         requestHandled  = USBFS_InitControlRead();
 204:Generated_Source\PSoC5/USBFS_std.c ****                     }
 205:Generated_Source\PSoC5/USBFS_std.c ****                 }
 206:Generated_Source\PSoC5/USBFS_std.c ****             #endif /*  USBFS_ENABLE_STRINGS */
 207:Generated_Source\PSoC5/USBFS_std.c ****                 else
 208:Generated_Source\PSoC5/USBFS_std.c ****                 {
 209:Generated_Source\PSoC5/USBFS_std.c ****                     requestHandled = USBFS_DispatchClassRqst();
 210:Generated_Source\PSoC5/USBFS_std.c ****                 }
 211:Generated_Source\PSoC5/USBFS_std.c ****                 break;
 212:Generated_Source\PSoC5/USBFS_std.c ****                 
 213:Generated_Source\PSoC5/USBFS_std.c ****             case USBFS_GET_STATUS:
 214:Generated_Source\PSoC5/USBFS_std.c ****                 switch (bmRequestType & USBFS_RQST_RCPT_MASK)
 215:Generated_Source\PSoC5/USBFS_std.c ****                 {
 216:Generated_Source\PSoC5/USBFS_std.c ****                     case USBFS_RQST_RCPT_EP:
 217:Generated_Source\PSoC5/USBFS_std.c ****                         USBFS_currentTD.count = USBFS_EP_STATUS_LENGTH;
 218:Generated_Source\PSoC5/USBFS_std.c ****                         USBFS_tBuffer[0u]     = USBFS_EP[USBFS_wIndexLoReg & USBFS_DIR_UNUSED].hwEp
 219:Generated_Source\PSoC5/USBFS_std.c ****                         USBFS_tBuffer[1u]     = 0u;
 220:Generated_Source\PSoC5/USBFS_std.c ****                         USBFS_currentTD.pData = &USBFS_tBuffer[0u];
 221:Generated_Source\PSoC5/USBFS_std.c ****                         
 222:Generated_Source\PSoC5/USBFS_std.c ****                         requestHandled  = USBFS_InitControlRead();
 223:Generated_Source\PSoC5/USBFS_std.c ****                         break;
 224:Generated_Source\PSoC5/USBFS_std.c ****                     case USBFS_RQST_RCPT_DEV:
 225:Generated_Source\PSoC5/USBFS_std.c ****                         USBFS_currentTD.count = USBFS_DEVICE_STATUS_LENGTH;
 226:Generated_Source\PSoC5/USBFS_std.c ****                         USBFS_tBuffer[0u]     = USBFS_deviceStatus;
 227:Generated_Source\PSoC5/USBFS_std.c ****                         USBFS_tBuffer[1u]     = 0u;
 228:Generated_Source\PSoC5/USBFS_std.c ****                         USBFS_currentTD.pData = &USBFS_tBuffer[0u];
 229:Generated_Source\PSoC5/USBFS_std.c ****                         
 230:Generated_Source\PSoC5/USBFS_std.c ****                         requestHandled  = USBFS_InitControlRead();
 231:Generated_Source\PSoC5/USBFS_std.c ****                         break;
 232:Generated_Source\PSoC5/USBFS_std.c ****                     default:    /* requestHandled is initialized as FALSE by default */
 233:Generated_Source\PSoC5/USBFS_std.c ****                         break;
 234:Generated_Source\PSoC5/USBFS_std.c ****                 }
 235:Generated_Source\PSoC5/USBFS_std.c ****                 break;
 236:Generated_Source\PSoC5/USBFS_std.c ****                 
 237:Generated_Source\PSoC5/USBFS_std.c ****             case USBFS_GET_CONFIGURATION:
 238:Generated_Source\PSoC5/USBFS_std.c ****                 USBFS_currentTD.count = 1u;
 239:Generated_Source\PSoC5/USBFS_std.c ****                 USBFS_currentTD.pData = (volatile uint8 *) &USBFS_configuration;
 240:Generated_Source\PSoC5/USBFS_std.c ****                 requestHandled  = USBFS_InitControlRead();
 241:Generated_Source\PSoC5/USBFS_std.c ****                 break;
 242:Generated_Source\PSoC5/USBFS_std.c ****                 
 243:Generated_Source\PSoC5/USBFS_std.c ****             case USBFS_GET_INTERFACE:
 244:Generated_Source\PSoC5/USBFS_std.c ****                 USBFS_currentTD.count = 1u;
 245:Generated_Source\PSoC5/USBFS_std.c ****                 USBFS_currentTD.pData = (volatile uint8 *) &USBFS_interfaceSetting[USBFS_wIndexLoRe
 246:Generated_Source\PSoC5/USBFS_std.c ****                 requestHandled  = USBFS_InitControlRead();
 247:Generated_Source\PSoC5/USBFS_std.c ****                 break;
 248:Generated_Source\PSoC5/USBFS_std.c ****                 
 249:Generated_Source\PSoC5/USBFS_std.c ****             default: /* requestHandled is initialized as FALSE by default */
 250:Generated_Source\PSoC5/USBFS_std.c ****                 break;
 251:Generated_Source\PSoC5/USBFS_std.c ****         }
 252:Generated_Source\PSoC5/USBFS_std.c ****     }
 253:Generated_Source\PSoC5/USBFS_std.c ****     else
 254:Generated_Source\PSoC5/USBFS_std.c ****     {
 255:Generated_Source\PSoC5/USBFS_std.c ****         /* Control Write */
 256:Generated_Source\PSoC5/USBFS_std.c ****         switch (USBFS_bRequestReg)
 257:Generated_Source\PSoC5/USBFS_std.c ****         {
 258:Generated_Source\PSoC5/USBFS_std.c ****             case USBFS_SET_ADDRESS:
ARM GAS  C:\Users\RABBIT~1\AppData\Local\Temp\ccIAjdRL.s 			page 6


 259:Generated_Source\PSoC5/USBFS_std.c ****                 /* Store address to be set in USBFS_NoDataControlStatusStage(). */
 260:Generated_Source\PSoC5/USBFS_std.c ****                 USBFS_deviceAddress = (uint8) USBFS_wValueLoReg;
 261:Generated_Source\PSoC5/USBFS_std.c ****                 requestHandled = USBFS_InitNoDataControlTransfer();
 262:Generated_Source\PSoC5/USBFS_std.c ****                 break;
 263:Generated_Source\PSoC5/USBFS_std.c ****                 
 264:Generated_Source\PSoC5/USBFS_std.c ****             case USBFS_SET_CONFIGURATION:
 265:Generated_Source\PSoC5/USBFS_std.c ****                 configurationN = USBFS_wValueLoReg;
 266:Generated_Source\PSoC5/USBFS_std.c ****                 
 267:Generated_Source\PSoC5/USBFS_std.c ****                 /* Verify that configuration descriptor exists */
 268:Generated_Source\PSoC5/USBFS_std.c ****                 if(configurationN > 0u)
 269:Generated_Source\PSoC5/USBFS_std.c ****                 {
 270:Generated_Source\PSoC5/USBFS_std.c ****                     pTmp = USBFS_GetConfigTablePtr((uint8) configurationN - 1u);
 271:Generated_Source\PSoC5/USBFS_std.c ****                 }
 272:Generated_Source\PSoC5/USBFS_std.c ****                 
 273:Generated_Source\PSoC5/USBFS_std.c ****                 /* Responds with a Request Error when configuration number is invalid */
 274:Generated_Source\PSoC5/USBFS_std.c ****                 if (((configurationN > 0u) && (pTmp != NULL)) || (configurationN == 0u))
 275:Generated_Source\PSoC5/USBFS_std.c ****                 {
 276:Generated_Source\PSoC5/USBFS_std.c ****                     /* Set new configuration if it has been changed */
 277:Generated_Source\PSoC5/USBFS_std.c ****                     if(configurationN != USBFS_configuration)
 278:Generated_Source\PSoC5/USBFS_std.c ****                     {
 279:Generated_Source\PSoC5/USBFS_std.c ****                         USBFS_configuration = (uint8) configurationN;
 280:Generated_Source\PSoC5/USBFS_std.c ****                         USBFS_configurationChanged = USBFS_TRUE;
 281:Generated_Source\PSoC5/USBFS_std.c ****                         USBFS_Config(USBFS_TRUE);
 282:Generated_Source\PSoC5/USBFS_std.c ****                     }
 283:Generated_Source\PSoC5/USBFS_std.c ****                     requestHandled = USBFS_InitNoDataControlTransfer();
 284:Generated_Source\PSoC5/USBFS_std.c ****                 }
 285:Generated_Source\PSoC5/USBFS_std.c ****                 break;
 286:Generated_Source\PSoC5/USBFS_std.c ****                 
 287:Generated_Source\PSoC5/USBFS_std.c ****             case USBFS_SET_INTERFACE:
 288:Generated_Source\PSoC5/USBFS_std.c ****                 if (0u != USBFS_ValidateAlternateSetting())
 289:Generated_Source\PSoC5/USBFS_std.c ****                 {
 290:Generated_Source\PSoC5/USBFS_std.c ****                     /* Get interface number from the request. */
 291:Generated_Source\PSoC5/USBFS_std.c ****                     interfaceNumber = USBFS_wIndexLoReg;
 292:Generated_Source\PSoC5/USBFS_std.c ****                     USBFS_interfaceNumber = (uint8) USBFS_wIndexLoReg;
 293:Generated_Source\PSoC5/USBFS_std.c ****                      
 294:Generated_Source\PSoC5/USBFS_std.c ****                     /* Check if alternate settings is changed for interface. */
 295:Generated_Source\PSoC5/USBFS_std.c ****                     if (USBFS_interfaceSettingLast[interfaceNumber] != USBFS_interfaceSetting[inter
 296:Generated_Source\PSoC5/USBFS_std.c ****                     {
 297:Generated_Source\PSoC5/USBFS_std.c ****                         USBFS_configurationChanged = USBFS_TRUE;
 298:Generated_Source\PSoC5/USBFS_std.c ****                     
 299:Generated_Source\PSoC5/USBFS_std.c ****                         /* Change alternate setting for the endpoints. */
 300:Generated_Source\PSoC5/USBFS_std.c ****                     #if (USBFS_EP_MANAGEMENT_MANUAL && USBFS_EP_ALLOC_DYNAMIC)
 301:Generated_Source\PSoC5/USBFS_std.c ****                         USBFS_Config(USBFS_FALSE);
 302:Generated_Source\PSoC5/USBFS_std.c ****                     #else
 303:Generated_Source\PSoC5/USBFS_std.c ****                         USBFS_ConfigAltChanged();
 304:Generated_Source\PSoC5/USBFS_std.c ****                     #endif /* (USBFS_EP_MANAGEMENT_MANUAL && USBFS_EP_ALLOC_DYNAMIC) */
 305:Generated_Source\PSoC5/USBFS_std.c ****                     }
 306:Generated_Source\PSoC5/USBFS_std.c ****                     
 307:Generated_Source\PSoC5/USBFS_std.c ****                     requestHandled = USBFS_InitNoDataControlTransfer();
 308:Generated_Source\PSoC5/USBFS_std.c ****                 }
 309:Generated_Source\PSoC5/USBFS_std.c ****                 break;
 310:Generated_Source\PSoC5/USBFS_std.c ****                 
 311:Generated_Source\PSoC5/USBFS_std.c ****             case USBFS_CLEAR_FEATURE:
 312:Generated_Source\PSoC5/USBFS_std.c ****                 switch (bmRequestType & USBFS_RQST_RCPT_MASK)
 313:Generated_Source\PSoC5/USBFS_std.c ****                 {
 314:Generated_Source\PSoC5/USBFS_std.c ****                     case USBFS_RQST_RCPT_EP:
 315:Generated_Source\PSoC5/USBFS_std.c ****                         if (USBFS_wValueLoReg == USBFS_ENDPOINT_HALT)
ARM GAS  C:\Users\RABBIT~1\AppData\Local\Temp\ccIAjdRL.s 			page 7


 316:Generated_Source\PSoC5/USBFS_std.c ****                         {
 317:Generated_Source\PSoC5/USBFS_std.c ****                             requestHandled = USBFS_ClearEndpointHalt();
 318:Generated_Source\PSoC5/USBFS_std.c ****                         }
 319:Generated_Source\PSoC5/USBFS_std.c ****                         break;
 320:Generated_Source\PSoC5/USBFS_std.c ****                     case USBFS_RQST_RCPT_DEV:
 321:Generated_Source\PSoC5/USBFS_std.c ****                         /* Clear device REMOTE_WAKEUP */
 322:Generated_Source\PSoC5/USBFS_std.c ****                         if (USBFS_wValueLoReg == USBFS_DEVICE_REMOTE_WAKEUP)
 323:Generated_Source\PSoC5/USBFS_std.c ****                         {
 324:Generated_Source\PSoC5/USBFS_std.c ****                             USBFS_deviceStatus &= (uint8)~USBFS_DEVICE_STATUS_REMOTE_WAKEUP;
 325:Generated_Source\PSoC5/USBFS_std.c ****                             requestHandled = USBFS_InitNoDataControlTransfer();
 326:Generated_Source\PSoC5/USBFS_std.c ****                         }
 327:Generated_Source\PSoC5/USBFS_std.c ****                         break;
 328:Generated_Source\PSoC5/USBFS_std.c ****                     case USBFS_RQST_RCPT_IFC:
 329:Generated_Source\PSoC5/USBFS_std.c ****                         /* Validate interfaceNumber */
 330:Generated_Source\PSoC5/USBFS_std.c ****                         if (USBFS_wIndexLoReg < USBFS_MAX_INTERFACES_NUMBER)
 331:Generated_Source\PSoC5/USBFS_std.c ****                         {
 332:Generated_Source\PSoC5/USBFS_std.c ****                             USBFS_interfaceStatus[USBFS_wIndexLoReg] &= (uint8) ~USBFS_wValueLoReg;
 333:Generated_Source\PSoC5/USBFS_std.c ****                             requestHandled = USBFS_InitNoDataControlTransfer();
 334:Generated_Source\PSoC5/USBFS_std.c ****                         }
 335:Generated_Source\PSoC5/USBFS_std.c ****                         break;
 336:Generated_Source\PSoC5/USBFS_std.c ****                     default:    /* requestHandled is initialized as FALSE by default */
 337:Generated_Source\PSoC5/USBFS_std.c ****                         break;
 338:Generated_Source\PSoC5/USBFS_std.c ****                 }
 339:Generated_Source\PSoC5/USBFS_std.c ****                 break;
 340:Generated_Source\PSoC5/USBFS_std.c ****                 
 341:Generated_Source\PSoC5/USBFS_std.c ****             case USBFS_SET_FEATURE:
 342:Generated_Source\PSoC5/USBFS_std.c ****                 switch (bmRequestType & USBFS_RQST_RCPT_MASK)
 343:Generated_Source\PSoC5/USBFS_std.c ****                 {
 344:Generated_Source\PSoC5/USBFS_std.c ****                     case USBFS_RQST_RCPT_EP:
 345:Generated_Source\PSoC5/USBFS_std.c ****                         if (USBFS_wValueLoReg == USBFS_ENDPOINT_HALT)
 346:Generated_Source\PSoC5/USBFS_std.c ****                         {
 347:Generated_Source\PSoC5/USBFS_std.c ****                             requestHandled = USBFS_SetEndpointHalt();
 348:Generated_Source\PSoC5/USBFS_std.c ****                         }
 349:Generated_Source\PSoC5/USBFS_std.c ****                         break;
 350:Generated_Source\PSoC5/USBFS_std.c ****                         
 351:Generated_Source\PSoC5/USBFS_std.c ****                     case USBFS_RQST_RCPT_DEV:
 352:Generated_Source\PSoC5/USBFS_std.c ****                         /* Set device REMOTE_WAKEUP */
 353:Generated_Source\PSoC5/USBFS_std.c ****                         if (USBFS_wValueLoReg == USBFS_DEVICE_REMOTE_WAKEUP)
 354:Generated_Source\PSoC5/USBFS_std.c ****                         {
 355:Generated_Source\PSoC5/USBFS_std.c ****                             USBFS_deviceStatus |= USBFS_DEVICE_STATUS_REMOTE_WAKEUP;
 356:Generated_Source\PSoC5/USBFS_std.c ****                             requestHandled = USBFS_InitNoDataControlTransfer();
 357:Generated_Source\PSoC5/USBFS_std.c ****                         }
 358:Generated_Source\PSoC5/USBFS_std.c ****                         break;
 359:Generated_Source\PSoC5/USBFS_std.c ****                         
 360:Generated_Source\PSoC5/USBFS_std.c ****                     case USBFS_RQST_RCPT_IFC:
 361:Generated_Source\PSoC5/USBFS_std.c ****                         /* Validate interfaceNumber */
 362:Generated_Source\PSoC5/USBFS_std.c ****                         if (USBFS_wIndexLoReg < USBFS_MAX_INTERFACES_NUMBER)
 363:Generated_Source\PSoC5/USBFS_std.c ****                         {
 364:Generated_Source\PSoC5/USBFS_std.c ****                             USBFS_interfaceStatus[USBFS_wIndexLoReg] &= (uint8) ~USBFS_wValueLoReg;
 365:Generated_Source\PSoC5/USBFS_std.c ****                             requestHandled = USBFS_InitNoDataControlTransfer();
 366:Generated_Source\PSoC5/USBFS_std.c ****                         }
 367:Generated_Source\PSoC5/USBFS_std.c ****                         break;
 368:Generated_Source\PSoC5/USBFS_std.c ****                     
 369:Generated_Source\PSoC5/USBFS_std.c ****                     default:    /* requestHandled is initialized as FALSE by default */
 370:Generated_Source\PSoC5/USBFS_std.c ****                         break;
 371:Generated_Source\PSoC5/USBFS_std.c ****                 }
 372:Generated_Source\PSoC5/USBFS_std.c ****                 break;
ARM GAS  C:\Users\RABBIT~1\AppData\Local\Temp\ccIAjdRL.s 			page 8


 373:Generated_Source\PSoC5/USBFS_std.c ****                 
 374:Generated_Source\PSoC5/USBFS_std.c ****             default:    /* requestHandled is initialized as FALSE by default */
 375:Generated_Source\PSoC5/USBFS_std.c ****                 break;
 376:Generated_Source\PSoC5/USBFS_std.c ****         }
 377:Generated_Source\PSoC5/USBFS_std.c ****     }
 378:Generated_Source\PSoC5/USBFS_std.c ****     
 379:Generated_Source\PSoC5/USBFS_std.c ****     return (requestHandled);
 380:Generated_Source\PSoC5/USBFS_std.c **** }
 381:Generated_Source\PSoC5/USBFS_std.c **** 
 382:Generated_Source\PSoC5/USBFS_std.c **** 
 383:Generated_Source\PSoC5/USBFS_std.c **** #if defined(USBFS_ENABLE_IDSN_STRING)
 384:Generated_Source\PSoC5/USBFS_std.c ****     /***************************************************************************
 385:Generated_Source\PSoC5/USBFS_std.c ****     * Function Name: USBFS_ReadDieID
 386:Generated_Source\PSoC5/USBFS_std.c ****     ************************************************************************//**
 387:Generated_Source\PSoC5/USBFS_std.c ****     *
 388:Generated_Source\PSoC5/USBFS_std.c ****     *  This routine read Die ID and generate Serial Number string descriptor.
 389:Generated_Source\PSoC5/USBFS_std.c ****     *
 390:Generated_Source\PSoC5/USBFS_std.c ****     *  \param descr:  pointer on string descriptor. This string size has to be equal or
 391:Generated_Source\PSoC5/USBFS_std.c ****     *          greater than USBFS_IDSN_DESCR_LENGTH.
 392:Generated_Source\PSoC5/USBFS_std.c ****     *
 393:Generated_Source\PSoC5/USBFS_std.c ****     *
 394:Generated_Source\PSoC5/USBFS_std.c ****     * \reentrant
 395:Generated_Source\PSoC5/USBFS_std.c ****     *  No.
 396:Generated_Source\PSoC5/USBFS_std.c ****     *
 397:Generated_Source\PSoC5/USBFS_std.c ****     ***************************************************************************/
 398:Generated_Source\PSoC5/USBFS_std.c ****     void USBFS_ReadDieID(uint8 descr[]) 
 399:Generated_Source\PSoC5/USBFS_std.c ****     {
  28              		.loc 1 399 0
  29              		.cfi_startproc
  30              		@ args = 0, pretend = 0, frame = 32
  31              		@ frame_needed = 0, uses_anonymous_args = 0
  32              	.LVL0:
  33 0000 70B5     		push	{r4, r5, r6, lr}
  34              		.cfi_def_cfa_offset 16
  35              		.cfi_offset 4, -16
  36              		.cfi_offset 5, -12
  37              		.cfi_offset 6, -8
  38              		.cfi_offset 14, -4
  39 0002 0446     		mov	r4, r0
 400:Generated_Source\PSoC5/USBFS_std.c ****         const char8 CYCODE hex[] = "0123456789ABCDEF";
  40              		.loc 1 400 0
  41 0004 184B     		ldr	r3, .L9
 399:Generated_Source\PSoC5/USBFS_std.c ****         const char8 CYCODE hex[] = "0123456789ABCDEF";
  42              		.loc 1 399 0
  43 0006 88B0     		sub	sp, sp, #32
  44              		.cfi_def_cfa_offset 48
  45              		.loc 1 400 0
  46 0008 03AA     		add	r2, sp, #12
  47 000a 03F11006 		add	r6, r3, #16
  48              	.LVL1:
  49              	.L2:
  50 000e 1546     		mov	r5, r2
  51 0010 1868     		ldr	r0, [r3]	@ unaligned
  52 0012 5968     		ldr	r1, [r3, #4]	@ unaligned
  53 0014 0833     		adds	r3, r3, #8
  54 0016 03C5     		stmia	r5!, {r0, r1}
  55 0018 B342     		cmp	r3, r6
ARM GAS  C:\Users\RABBIT~1\AppData\Local\Temp\ccIAjdRL.s 			page 9


  56 001a 2A46     		mov	r2, r5
  57 001c F7D1     		bne	.L2
  58 001e 1B78     		ldrb	r3, [r3]	@ zero_extendqisi2
  59 0020 2B70     		strb	r3, [r5]
  60              	.LVL2:
 401:Generated_Source\PSoC5/USBFS_std.c ****         uint8 i;
 402:Generated_Source\PSoC5/USBFS_std.c ****         uint8 j = 0u;
 403:Generated_Source\PSoC5/USBFS_std.c ****         uint8 uniqueId[8u];
 404:Generated_Source\PSoC5/USBFS_std.c **** 
 405:Generated_Source\PSoC5/USBFS_std.c ****         if (NULL != descr)
  61              		.loc 1 405 0
  62 0022 FCB1     		cbz	r4, .L1
 406:Generated_Source\PSoC5/USBFS_std.c ****         {
 407:Generated_Source\PSoC5/USBFS_std.c ****             /* Initialize descriptor header. */
 408:Generated_Source\PSoC5/USBFS_std.c ****             descr[0u] = USBFS_IDSN_DESCR_LENGTH;
  63              		.loc 1 408 0
  64 0024 2223     		movs	r3, #34
  65 0026 2370     		strb	r3, [r4]
 409:Generated_Source\PSoC5/USBFS_std.c ****             descr[1u] = USBFS_DESCR_STRING;
 410:Generated_Source\PSoC5/USBFS_std.c ****             
 411:Generated_Source\PSoC5/USBFS_std.c ****             /* Unique ID size is 8 bytes. */
 412:Generated_Source\PSoC5/USBFS_std.c ****             CyGetUniqueId((uint32 *) uniqueId);
  66              		.loc 1 412 0
  67 0028 01AD     		add	r5, sp, #4
 409:Generated_Source\PSoC5/USBFS_std.c ****             descr[1u] = USBFS_DESCR_STRING;
  68              		.loc 1 409 0
  69 002a 0323     		movs	r3, #3
  70              		.loc 1 412 0
  71 002c 2846     		mov	r0, r5
 409:Generated_Source\PSoC5/USBFS_std.c ****             descr[1u] = USBFS_DESCR_STRING;
  72              		.loc 1 409 0
  73 002e 6370     		strb	r3, [r4, #1]
  74              		.loc 1 412 0
  75 0030 FFF7FEFF 		bl	CyGetUniqueId
  76              	.LVL3:
  77 0034 0022     		movs	r2, #0
  78 0036 2046     		mov	r0, r4
 413:Generated_Source\PSoC5/USBFS_std.c **** 
 414:Generated_Source\PSoC5/USBFS_std.c ****             /* Fill descriptor with unique device ID. */
 415:Generated_Source\PSoC5/USBFS_std.c ****             for (i = 2u; i < USBFS_IDSN_DESCR_LENGTH; i += 4u)
 416:Generated_Source\PSoC5/USBFS_std.c ****             {
 417:Generated_Source\PSoC5/USBFS_std.c ****                 descr[i]      = (uint8) hex[(uniqueId[j] >> 4u)];
 418:Generated_Source\PSoC5/USBFS_std.c ****                 descr[i + 1u] = 0u;
  79              		.loc 1 418 0
  80 0038 1146     		mov	r1, r2
  81              	.LVL4:
  82              	.L4:
 417:Generated_Source\PSoC5/USBFS_std.c ****                 descr[i + 1u] = 0u;
  83              		.loc 1 417 0 discriminator 3
  84 003a AB5C     		ldrb	r3, [r5, r2]	@ zero_extendqisi2
  85 003c 08AC     		add	r4, sp, #32
  86 003e 04EB1314 		add	r4, r4, r3, lsr #4
  87 0042 14F8144C 		ldrb	r4, [r4, #-20]	@ zero_extendqisi2
 419:Generated_Source\PSoC5/USBFS_std.c ****                 descr[i + 2u] = (uint8) hex[(uniqueId[j] & 0x0Fu)];
  88              		.loc 1 419 0 discriminator 3
  89 0046 03F00F03 		and	r3, r3, #15
 417:Generated_Source\PSoC5/USBFS_std.c ****                 descr[i + 1u] = 0u;
ARM GAS  C:\Users\RABBIT~1\AppData\Local\Temp\ccIAjdRL.s 			page 10


  90              		.loc 1 417 0 discriminator 3
  91 004a 8470     		strb	r4, [r0, #2]
  92              		.loc 1 419 0 discriminator 3
  93 004c 08AC     		add	r4, sp, #32
  94 004e 2344     		add	r3, r3, r4
  95 0050 13F8143C 		ldrb	r3, [r3, #-20]	@ zero_extendqisi2
  96 0054 0132     		adds	r2, r2, #1
  97              	.LVL5:
 415:Generated_Source\PSoC5/USBFS_std.c ****             {
  98              		.loc 1 415 0 discriminator 3
  99 0056 082A     		cmp	r2, #8
 418:Generated_Source\PSoC5/USBFS_std.c ****                 descr[i + 2u] = (uint8) hex[(uniqueId[j] & 0x0Fu)];
 100              		.loc 1 418 0 discriminator 3
 101 0058 C170     		strb	r1, [r0, #3]
 102              		.loc 1 419 0 discriminator 3
 103 005a 0371     		strb	r3, [r0, #4]
 420:Generated_Source\PSoC5/USBFS_std.c ****                 descr[i + 3u] = 0u;
 104              		.loc 1 420 0 discriminator 3
 105 005c 4171     		strb	r1, [r0, #5]
 106              	.LVL6:
 107 005e 00F10400 		add	r0, r0, #4
 108              	.LVL7:
 415:Generated_Source\PSoC5/USBFS_std.c ****             {
 109              		.loc 1 415 0 discriminator 3
 110 0062 EAD1     		bne	.L4
 111              	.L1:
 421:Generated_Source\PSoC5/USBFS_std.c ****                 ++j;
 422:Generated_Source\PSoC5/USBFS_std.c ****             }
 423:Generated_Source\PSoC5/USBFS_std.c ****         }
 424:Generated_Source\PSoC5/USBFS_std.c ****     }
 112              		.loc 1 424 0
 113 0064 08B0     		add	sp, sp, #32
 114              		.cfi_def_cfa_offset 16
 115              		@ sp needed
 116 0066 70BD     		pop	{r4, r5, r6, pc}
 117              	.L10:
 118              		.align	2
 119              	.L9:
 120 0068 00000000 		.word	.LC0
 121              		.cfi_endproc
 122              	.LFE1:
 123              		.size	USBFS_ReadDieID, .-USBFS_ReadDieID
 124              		.section	.text.USBFS_ConfigReg,"ax",%progbits
 125              		.align	1
 126              		.global	USBFS_ConfigReg
 127              		.thumb
 128              		.thumb_func
 129              		.type	USBFS_ConfigReg, %function
 130              	USBFS_ConfigReg:
 131              	.LFB2:
 425:Generated_Source\PSoC5/USBFS_std.c **** #endif /* (USBFS_ENABLE_IDSN_STRING) */
 426:Generated_Source\PSoC5/USBFS_std.c **** 
 427:Generated_Source\PSoC5/USBFS_std.c **** 
 428:Generated_Source\PSoC5/USBFS_std.c **** /*******************************************************************************
 429:Generated_Source\PSoC5/USBFS_std.c **** * Function Name: USBFS_ConfigReg
 430:Generated_Source\PSoC5/USBFS_std.c **** ****************************************************************************//**
 431:Generated_Source\PSoC5/USBFS_std.c **** *
ARM GAS  C:\Users\RABBIT~1\AppData\Local\Temp\ccIAjdRL.s 			page 11


 432:Generated_Source\PSoC5/USBFS_std.c **** *  This routine configures hardware registers from the variables.
 433:Generated_Source\PSoC5/USBFS_std.c **** *  It is called from USBFS_Config() function and from RestoreConfig
 434:Generated_Source\PSoC5/USBFS_std.c **** *  after Wakeup.
 435:Generated_Source\PSoC5/USBFS_std.c **** *
 436:Generated_Source\PSoC5/USBFS_std.c **** *******************************************************************************/
 437:Generated_Source\PSoC5/USBFS_std.c **** void USBFS_ConfigReg(void) 
 438:Generated_Source\PSoC5/USBFS_std.c **** {
 132              		.loc 1 438 0
 133              		.cfi_startproc
 134              		@ args = 0, pretend = 0, frame = 0
 135              		@ frame_needed = 0, uses_anonymous_args = 0
 136              	.LVL8:
 137 0000 2DE9F041 		push	{r4, r5, r6, r7, r8, lr}
 138              		.cfi_def_cfa_offset 24
 139              		.cfi_offset 4, -24
 140              		.cfi_offset 5, -20
 141              		.cfi_offset 6, -16
 142              		.cfi_offset 7, -12
 143              		.cfi_offset 8, -8
 144              		.cfi_offset 14, -4
 439:Generated_Source\PSoC5/USBFS_std.c ****     uint8 ep;
 440:Generated_Source\PSoC5/USBFS_std.c **** 
 441:Generated_Source\PSoC5/USBFS_std.c **** #if (USBFS_EP_MANAGEMENT_DMA_AUTO)
 442:Generated_Source\PSoC5/USBFS_std.c ****     uint8 epType = 0u;
 443:Generated_Source\PSoC5/USBFS_std.c **** #endif /* (USBFS_EP_MANAGEMENT_DMA_AUTO) */
 444:Generated_Source\PSoC5/USBFS_std.c **** 
 445:Generated_Source\PSoC5/USBFS_std.c ****     /* Go thought all endpoints and set hardware configuration */
 446:Generated_Source\PSoC5/USBFS_std.c ****     for (ep = USBFS_EP1; ep < USBFS_MAX_EP; ++ep)
 447:Generated_Source\PSoC5/USBFS_std.c ****     {
 448:Generated_Source\PSoC5/USBFS_std.c ****         USBFS_ARB_EP_BASE.arbEp[ep].epCfg = USBFS_ARB_EPX_CFG_DEFAULT;
 449:Generated_Source\PSoC5/USBFS_std.c ****         
 450:Generated_Source\PSoC5/USBFS_std.c ****     #if (USBFS_EP_MANAGEMENT_DMA)
 451:Generated_Source\PSoC5/USBFS_std.c ****         /* Enable arbiter endpoint interrupt sources */
 452:Generated_Source\PSoC5/USBFS_std.c ****         USBFS_ARB_EP_BASE.arbEp[ep].epIntEn = USBFS_ARB_EPX_INT_MASK;
 453:Generated_Source\PSoC5/USBFS_std.c ****     #endif /* (USBFS_EP_MANAGEMENT_DMA) */
 454:Generated_Source\PSoC5/USBFS_std.c ****     
 455:Generated_Source\PSoC5/USBFS_std.c ****         if (USBFS_EP[ep].epMode != USBFS_MODE_DISABLE)
 145              		.loc 1 455 0
 146 0004 1A4D     		ldr	r5, .L17
 438:Generated_Source\PSoC5/USBFS_std.c ****     uint8 ep;
 147              		.loc 1 438 0
 148 0006 0122     		movs	r2, #1
 149 0008 2E46     		mov	r6, r5
 448:Generated_Source\PSoC5/USBFS_std.c ****         
 150              		.loc 1 448 0
 151 000a 0C20     		movs	r0, #12
 456:Generated_Source\PSoC5/USBFS_std.c ****         {
 457:Generated_Source\PSoC5/USBFS_std.c ****             if (0u != (USBFS_EP[ep].addr & USBFS_DIR_IN))
 458:Generated_Source\PSoC5/USBFS_std.c ****             {
 459:Generated_Source\PSoC5/USBFS_std.c ****                 USBFS_SIE_EP_BASE.sieEp[ep].epCr0 = USBFS_MODE_NAK_IN;
 460:Generated_Source\PSoC5/USBFS_std.c ****                 
 461:Generated_Source\PSoC5/USBFS_std.c ****             #if (USBFS_EP_MANAGEMENT_DMA_AUTO && CY_PSOC4)
 462:Generated_Source\PSoC5/USBFS_std.c ****                 /* Clear DMA_TERMIN for IN endpoint. */
 463:Generated_Source\PSoC5/USBFS_std.c ****                 USBFS_ARB_EP_BASE.arbEp[ep].epIntEn &= (uint32) ~USBFS_ARB_EPX_INT_DMA_TERMIN;
 464:Generated_Source\PSoC5/USBFS_std.c ****             #endif /* (USBFS_EP_MANAGEMENT_DMA_AUTO && CY_PSOC4) */
 465:Generated_Source\PSoC5/USBFS_std.c ****             }
 466:Generated_Source\PSoC5/USBFS_std.c ****             else
ARM GAS  C:\Users\RABBIT~1\AppData\Local\Temp\ccIAjdRL.s 			page 12


 467:Generated_Source\PSoC5/USBFS_std.c ****             {
 468:Generated_Source\PSoC5/USBFS_std.c ****                 USBFS_SIE_EP_BASE.sieEp[ep].epCr0 = USBFS_MODE_NAK_OUT;
 469:Generated_Source\PSoC5/USBFS_std.c **** 
 470:Generated_Source\PSoC5/USBFS_std.c ****             #if (USBFS_EP_MANAGEMENT_DMA_AUTO)
 471:Generated_Source\PSoC5/USBFS_std.c ****                 /* (CY_PSOC4): DMA_TERMIN for OUT endpoint is set above. */
 472:Generated_Source\PSoC5/USBFS_std.c ****                 
 473:Generated_Source\PSoC5/USBFS_std.c ****                 /* Prepare endpoint type mask. */
 474:Generated_Source\PSoC5/USBFS_std.c ****                 epType |= (uint8) (0x01u << (ep - USBFS_EP1));
 475:Generated_Source\PSoC5/USBFS_std.c ****             #endif /* (USBFS_EP_MANAGEMENT_DMA_AUTO) */
 476:Generated_Source\PSoC5/USBFS_std.c ****             }
 477:Generated_Source\PSoC5/USBFS_std.c ****         }
 478:Generated_Source\PSoC5/USBFS_std.c ****         else
 479:Generated_Source\PSoC5/USBFS_std.c ****         {
 480:Generated_Source\PSoC5/USBFS_std.c ****             USBFS_SIE_EP_BASE.sieEp[ep].epCr0 = USBFS_MODE_STALL_DATA_EP;
 152              		.loc 1 480 0
 153 000c 8027     		movs	r7, #128
 468:Generated_Source\PSoC5/USBFS_std.c **** 
 154              		.loc 1 468 0
 155 000e 4FF0080E 		mov	lr, #8
 156              	.LVL9:
 157              	.L15:
 158 0012 184B     		ldr	r3, .L17+4
 455:Generated_Source\PSoC5/USBFS_std.c ****         {
 159              		.loc 1 455 0
 160 0014 00FB025C 		mla	ip, r0, r2, r5
 161 0018 1401     		lsls	r4, r2, #4
 162 001a 2344     		add	r3, r3, r4
 448:Generated_Source\PSoC5/USBFS_std.c ****         
 163              		.loc 1 448 0
 164 001c 1870     		strb	r0, [r3]
 165 001e 1649     		ldr	r1, .L17+8
 455:Generated_Source\PSoC5/USBFS_std.c ****         {
 166              		.loc 1 455 0
 167 0020 9CF80580 		ldrb	r8, [ip, #5]	@ zero_extendqisi2
 168 0024 2144     		add	r1, r1, r4
 169 0026 B8F1000F 		cmp	r8, #0
 170 002a 07D0     		beq	.L12
 457:Generated_Source\PSoC5/USBFS_std.c ****             {
 171              		.loc 1 457 0
 172 002c 9CF80440 		ldrb	r4, [ip, #4]	@ zero_extendqisi2
 173 0030 2406     		lsls	r4, r4, #24
 459:Generated_Source\PSoC5/USBFS_std.c ****                 
 174              		.loc 1 459 0
 175 0032 4CBF     		ite	mi
 176 0034 8870     		strbmi	r0, [r1, #2]
 468:Generated_Source\PSoC5/USBFS_std.c **** 
 177              		.loc 1 468 0
 178 0036 81F802E0 		strbpl	lr, [r1, #2]
 179 003a 00E0     		b	.L14
 180              	.L12:
 181              		.loc 1 480 0
 182 003c 8F70     		strb	r7, [r1, #2]
 183              	.L14:
 481:Generated_Source\PSoC5/USBFS_std.c ****         }
 482:Generated_Source\PSoC5/USBFS_std.c ****         
 483:Generated_Source\PSoC5/USBFS_std.c ****     #if (!USBFS_EP_MANAGEMENT_DMA_AUTO)
 484:Generated_Source\PSoC5/USBFS_std.c ****         #if (CY_PSOC4)
ARM GAS  C:\Users\RABBIT~1\AppData\Local\Temp\ccIAjdRL.s 			page 13


 485:Generated_Source\PSoC5/USBFS_std.c ****             USBFS_ARB_EP16_BASE.arbEp[ep].rwRa16  = (uint32) USBFS_EP[ep].buffOffset;
 486:Generated_Source\PSoC5/USBFS_std.c ****             USBFS_ARB_EP16_BASE.arbEp[ep].rwWa16  = (uint32) USBFS_EP[ep].buffOffset;
 487:Generated_Source\PSoC5/USBFS_std.c ****         #else
 488:Generated_Source\PSoC5/USBFS_std.c ****             USBFS_ARB_EP_BASE.arbEp[ep].rwRa    = LO8(USBFS_EP[ep].buffOffset);
 184              		.loc 1 488 0 discriminator 2
 185 003e 00FB0261 		mla	r1, r0, r2, r6
 186 0042 CC88     		ldrh	r4, [r1, #6]
 187 0044 0132     		adds	r2, r2, #1
 188              	.LVL10:
 189 0046 E4B2     		uxtb	r4, r4
 190 0048 9C71     		strb	r4, [r3, #6]
 489:Generated_Source\PSoC5/USBFS_std.c ****             USBFS_ARB_EP_BASE.arbEp[ep].rwRaMsb = HI8(USBFS_EP[ep].buffOffset);
 191              		.loc 1 489 0 discriminator 2
 192 004a CC88     		ldrh	r4, [r1, #6]
 446:Generated_Source\PSoC5/USBFS_std.c ****     {
 193              		.loc 1 446 0 discriminator 2
 194 004c 092A     		cmp	r2, #9
 195              		.loc 1 489 0 discriminator 2
 196 004e C4F30724 		ubfx	r4, r4, #8, #8
 197 0052 DC71     		strb	r4, [r3, #7]
 490:Generated_Source\PSoC5/USBFS_std.c ****             USBFS_ARB_EP_BASE.arbEp[ep].rwWa    = LO8(USBFS_EP[ep].buffOffset);
 198              		.loc 1 490 0 discriminator 2
 199 0054 CC88     		ldrh	r4, [r1, #6]
 200 0056 E4B2     		uxtb	r4, r4
 201 0058 1C71     		strb	r4, [r3, #4]
 491:Generated_Source\PSoC5/USBFS_std.c ****             USBFS_ARB_EP_BASE.arbEp[ep].rwWaMsb = HI8(USBFS_EP[ep].buffOffset);
 202              		.loc 1 491 0 discriminator 2
 203 005a C988     		ldrh	r1, [r1, #6]
 204 005c C1F30721 		ubfx	r1, r1, #8, #8
 205 0060 5971     		strb	r1, [r3, #5]
 446:Generated_Source\PSoC5/USBFS_std.c ****     {
 206              		.loc 1 446 0 discriminator 2
 207 0062 D6D1     		bne	.L15
 492:Generated_Source\PSoC5/USBFS_std.c ****         #endif /* (CY_PSOC4) */
 493:Generated_Source\PSoC5/USBFS_std.c ****     #endif /* (!USBFS_EP_MANAGEMENT_DMA_AUTO) */
 494:Generated_Source\PSoC5/USBFS_std.c ****     }
 495:Generated_Source\PSoC5/USBFS_std.c **** 
 496:Generated_Source\PSoC5/USBFS_std.c **** #if (USBFS_EP_MANAGEMENT_DMA_AUTO)
 497:Generated_Source\PSoC5/USBFS_std.c ****      /* BUF_SIZE depend on DMA_THRESS value:0x55-32 bytes  0x44-16 bytes 0x33-8 bytes 0x22-4 bytes 
 498:Generated_Source\PSoC5/USBFS_std.c ****     USBFS_BUF_SIZE_REG = USBFS_DMA_BUF_SIZE;
 499:Generated_Source\PSoC5/USBFS_std.c **** 
 500:Generated_Source\PSoC5/USBFS_std.c ****     /* Configure DMA burst threshold */
 501:Generated_Source\PSoC5/USBFS_std.c **** #if (CY_PSOC4)
 502:Generated_Source\PSoC5/USBFS_std.c ****     USBFS_DMA_THRES16_REG   = USBFS_DMA_BYTES_PER_BURST;
 503:Generated_Source\PSoC5/USBFS_std.c **** #else
 504:Generated_Source\PSoC5/USBFS_std.c ****     USBFS_DMA_THRES_REG     = USBFS_DMA_BYTES_PER_BURST;
 505:Generated_Source\PSoC5/USBFS_std.c ****     USBFS_DMA_THRES_MSB_REG = 0u;
 506:Generated_Source\PSoC5/USBFS_std.c **** #endif /* (CY_PSOC4) */
 507:Generated_Source\PSoC5/USBFS_std.c ****     USBFS_EP_ACTIVE_REG = USBFS_DEFAULT_ARB_INT_EN;
 508:Generated_Source\PSoC5/USBFS_std.c ****     USBFS_EP_TYPE_REG   = epType;
 509:Generated_Source\PSoC5/USBFS_std.c ****     
 510:Generated_Source\PSoC5/USBFS_std.c ****     /* Cfg_cmp bit set to 1 once configuration is complete. */
 511:Generated_Source\PSoC5/USBFS_std.c ****     /* Lock arbiter configtuation */
 512:Generated_Source\PSoC5/USBFS_std.c ****     USBFS_ARB_CFG_REG |= (uint8)  USBFS_ARB_CFG_CFG_CMP;
 513:Generated_Source\PSoC5/USBFS_std.c ****     /* Cfg_cmp bit set to 0 during configuration of PFSUSB Registers. */
 514:Generated_Source\PSoC5/USBFS_std.c ****     USBFS_ARB_CFG_REG &= (uint8) ~USBFS_ARB_CFG_CFG_CMP;
 515:Generated_Source\PSoC5/USBFS_std.c **** 
ARM GAS  C:\Users\RABBIT~1\AppData\Local\Temp\ccIAjdRL.s 			page 14


 516:Generated_Source\PSoC5/USBFS_std.c **** #endif /* (USBFS_EP_MANAGEMENT_DMA_AUTO) */
 517:Generated_Source\PSoC5/USBFS_std.c **** 
 518:Generated_Source\PSoC5/USBFS_std.c ****     /* Enable interrupt SIE interurpt source from EP0-EP1 */
 519:Generated_Source\PSoC5/USBFS_std.c ****     USBFS_SIE_EP_INT_EN_REG = (uint8) USBFS_DEFAULT_SIE_EP_INT_EN;
 208              		.loc 1 519 0
 209 0064 054B     		ldr	r3, .L17+12
 210 0066 FF22     		movs	r2, #255
 211 0068 1A70     		strb	r2, [r3]
 212 006a BDE8F081 		pop	{r4, r5, r6, r7, r8, pc}
 213              	.L18:
 214 006e 00BF     		.align	2
 215              	.L17:
 216 0070 00000000 		.word	USBFS_EP
 217 0074 70600040 		.word	1073766512
 218 0078 FC5F0040 		.word	1073766396
 219 007c 0A600040 		.word	1073766410
 220              		.cfi_endproc
 221              	.LFE2:
 222              		.size	USBFS_ConfigReg, .-USBFS_ConfigReg
 223              		.section	.text.USBFS_EpStateInit,"ax",%progbits
 224              		.align	1
 225              		.global	USBFS_EpStateInit
 226              		.thumb
 227              		.thumb_func
 228              		.type	USBFS_EpStateInit, %function
 229              	USBFS_EpStateInit:
 230              	.LFB3:
 520:Generated_Source\PSoC5/USBFS_std.c **** }
 521:Generated_Source\PSoC5/USBFS_std.c **** 
 522:Generated_Source\PSoC5/USBFS_std.c **** 
 523:Generated_Source\PSoC5/USBFS_std.c **** /*******************************************************************************
 524:Generated_Source\PSoC5/USBFS_std.c **** * Function Name: USBFS_EpStateInit
 525:Generated_Source\PSoC5/USBFS_std.c **** ****************************************************************************//**
 526:Generated_Source\PSoC5/USBFS_std.c **** *
 527:Generated_Source\PSoC5/USBFS_std.c **** *  This routine initialize state of Data end points based of its type: 
 528:Generated_Source\PSoC5/USBFS_std.c **** *   IN  - USBFS_IN_BUFFER_EMPTY (USBFS_EVENT_PENDING)
 529:Generated_Source\PSoC5/USBFS_std.c **** *   OUT - USBFS_OUT_BUFFER_EMPTY (USBFS_NO_EVENT_PENDING)
 530:Generated_Source\PSoC5/USBFS_std.c **** *
 531:Generated_Source\PSoC5/USBFS_std.c **** *******************************************************************************/
 532:Generated_Source\PSoC5/USBFS_std.c **** void USBFS_EpStateInit(void) 
 533:Generated_Source\PSoC5/USBFS_std.c **** {
 231              		.loc 1 533 0
 232              		.cfi_startproc
 233              		@ args = 0, pretend = 0, frame = 0
 234              		@ frame_needed = 0, uses_anonymous_args = 0
 235              	.LVL11:
 236 0000 0123     		movs	r3, #1
 237 0002 70B5     		push	{r4, r5, r6, lr}
 238              		.cfi_def_cfa_offset 16
 239              		.cfi_offset 4, -16
 240              		.cfi_offset 5, -12
 241              		.cfi_offset 6, -8
 242              		.cfi_offset 14, -4
 534:Generated_Source\PSoC5/USBFS_std.c ****     uint8 i;
 535:Generated_Source\PSoC5/USBFS_std.c **** 
 536:Generated_Source\PSoC5/USBFS_std.c ****     for (i = USBFS_EP1; i < USBFS_MAX_EP; i++)
 537:Generated_Source\PSoC5/USBFS_std.c ****     { 
ARM GAS  C:\Users\RABBIT~1\AppData\Local\Temp\ccIAjdRL.s 			page 15


 538:Generated_Source\PSoC5/USBFS_std.c ****         if (0u != (USBFS_EP[i].addr & USBFS_DIR_IN))
 539:Generated_Source\PSoC5/USBFS_std.c ****         {
 540:Generated_Source\PSoC5/USBFS_std.c ****             /* IN Endpoint */
 541:Generated_Source\PSoC5/USBFS_std.c ****             USBFS_EP[i].apiEpState = USBFS_EVENT_PENDING;
 243              		.loc 1 541 0
 244 0004 1D46     		mov	r5, r3
 538:Generated_Source\PSoC5/USBFS_std.c ****         {
 245              		.loc 1 538 0
 246 0006 0749     		ldr	r1, .L24
 247 0008 0C20     		movs	r0, #12
 542:Generated_Source\PSoC5/USBFS_std.c ****         }
 543:Generated_Source\PSoC5/USBFS_std.c ****         else
 544:Generated_Source\PSoC5/USBFS_std.c ****         {
 545:Generated_Source\PSoC5/USBFS_std.c ****             /* OUT Endpoint */
 546:Generated_Source\PSoC5/USBFS_std.c ****             USBFS_EP[i].apiEpState = USBFS_NO_EVENT_PENDING;
 248              		.loc 1 546 0
 249 000a 0024     		movs	r4, #0
 250              	.LVL12:
 251              	.L22:
 538:Generated_Source\PSoC5/USBFS_std.c ****         {
 252              		.loc 1 538 0
 253 000c 00FB0312 		mla	r2, r0, r3, r1
 254 0010 1679     		ldrb	r6, [r2, #4]	@ zero_extendqisi2
 255 0012 0133     		adds	r3, r3, #1
 256              	.LVL13:
 257 0014 3606     		lsls	r6, r6, #24
 541:Generated_Source\PSoC5/USBFS_std.c ****         }
 258              		.loc 1 541 0
 259 0016 4CBF     		ite	mi
 260 0018 5570     		strbmi	r5, [r2, #1]
 261              		.loc 1 546 0
 262 001a 5470     		strbpl	r4, [r2, #1]
 536:Generated_Source\PSoC5/USBFS_std.c ****     { 
 263              		.loc 1 536 0
 264 001c 092B     		cmp	r3, #9
 265 001e F5D1     		bne	.L22
 547:Generated_Source\PSoC5/USBFS_std.c ****         }
 548:Generated_Source\PSoC5/USBFS_std.c ****     }
 549:Generated_Source\PSoC5/USBFS_std.c ****                     
 550:Generated_Source\PSoC5/USBFS_std.c **** }
 266              		.loc 1 550 0
 267 0020 70BD     		pop	{r4, r5, r6, pc}
 268              	.L25:
 269 0022 00BF     		.align	2
 270              	.L24:
 271 0024 00000000 		.word	USBFS_EP
 272              		.cfi_endproc
 273              	.LFE3:
 274              		.size	USBFS_EpStateInit, .-USBFS_EpStateInit
 275              		.section	.text.USBFS_GetConfigTablePtr,"ax",%progbits
 276              		.align	1
 277              		.global	USBFS_GetConfigTablePtr
 278              		.thumb
 279              		.thumb_func
 280              		.type	USBFS_GetConfigTablePtr, %function
 281              	USBFS_GetConfigTablePtr:
 282              	.LFB6:
ARM GAS  C:\Users\RABBIT~1\AppData\Local\Temp\ccIAjdRL.s 			page 16


 551:Generated_Source\PSoC5/USBFS_std.c **** 
 552:Generated_Source\PSoC5/USBFS_std.c **** 
 553:Generated_Source\PSoC5/USBFS_std.c **** /*******************************************************************************
 554:Generated_Source\PSoC5/USBFS_std.c **** * Function Name: USBFS_Config
 555:Generated_Source\PSoC5/USBFS_std.c **** ****************************************************************************//**
 556:Generated_Source\PSoC5/USBFS_std.c **** *
 557:Generated_Source\PSoC5/USBFS_std.c **** *  This routine configures endpoints for the entire configuration by scanning
 558:Generated_Source\PSoC5/USBFS_std.c **** *  the configuration descriptor.
 559:Generated_Source\PSoC5/USBFS_std.c **** *
 560:Generated_Source\PSoC5/USBFS_std.c **** *  \param clearAltSetting: It configures the bAlternateSetting 0 for each interface.
 561:Generated_Source\PSoC5/USBFS_std.c **** *
 562:Generated_Source\PSoC5/USBFS_std.c **** * USBFS_interfaceClass - Initialized class array for each interface.
 563:Generated_Source\PSoC5/USBFS_std.c **** *   It is used for handling Class specific requests depend on interface class.
 564:Generated_Source\PSoC5/USBFS_std.c **** *   Different classes in multiple Alternate settings does not supported.
 565:Generated_Source\PSoC5/USBFS_std.c **** *
 566:Generated_Source\PSoC5/USBFS_std.c **** * \reentrant
 567:Generated_Source\PSoC5/USBFS_std.c **** *  No.
 568:Generated_Source\PSoC5/USBFS_std.c **** *
 569:Generated_Source\PSoC5/USBFS_std.c **** *******************************************************************************/
 570:Generated_Source\PSoC5/USBFS_std.c **** void USBFS_Config(uint8 clearAltSetting) 
 571:Generated_Source\PSoC5/USBFS_std.c **** {
 572:Generated_Source\PSoC5/USBFS_std.c ****     uint8 ep;
 573:Generated_Source\PSoC5/USBFS_std.c ****     uint8 curEp;
 574:Generated_Source\PSoC5/USBFS_std.c ****     uint8 i;
 575:Generated_Source\PSoC5/USBFS_std.c ****     uint8 epType;
 576:Generated_Source\PSoC5/USBFS_std.c ****     const uint8 *pDescr;
 577:Generated_Source\PSoC5/USBFS_std.c ****     
 578:Generated_Source\PSoC5/USBFS_std.c ****     #if (!USBFS_EP_MANAGEMENT_DMA_AUTO)
 579:Generated_Source\PSoC5/USBFS_std.c ****         uint16 buffCount = 0u;
 580:Generated_Source\PSoC5/USBFS_std.c ****     #endif /* (!USBFS_EP_MANAGEMENT_DMA_AUTO) */
 581:Generated_Source\PSoC5/USBFS_std.c **** 
 582:Generated_Source\PSoC5/USBFS_std.c ****     const T_USBFS_LUT CYCODE *pTmp;
 583:Generated_Source\PSoC5/USBFS_std.c ****     const T_USBFS_EP_SETTINGS_BLOCK CYCODE *pEP;
 584:Generated_Source\PSoC5/USBFS_std.c **** 
 585:Generated_Source\PSoC5/USBFS_std.c ****     /* Clear endpoints settings */
 586:Generated_Source\PSoC5/USBFS_std.c ****     for (ep = 0u; ep < USBFS_MAX_EP; ++ep)
 587:Generated_Source\PSoC5/USBFS_std.c ****     {
 588:Generated_Source\PSoC5/USBFS_std.c ****         USBFS_EP[ep].attrib     = 0u;
 589:Generated_Source\PSoC5/USBFS_std.c ****         USBFS_EP[ep].hwEpState  = 0u;
 590:Generated_Source\PSoC5/USBFS_std.c ****         USBFS_EP[ep].epToggle   = 0u;
 591:Generated_Source\PSoC5/USBFS_std.c ****         USBFS_EP[ep].bufferSize = 0u;
 592:Generated_Source\PSoC5/USBFS_std.c ****         USBFS_EP[ep].interface  = 0u;
 593:Generated_Source\PSoC5/USBFS_std.c ****         USBFS_EP[ep].apiEpState = USBFS_NO_EVENT_PENDING;
 594:Generated_Source\PSoC5/USBFS_std.c ****         USBFS_EP[ep].epMode     = USBFS_MODE_DISABLE;   
 595:Generated_Source\PSoC5/USBFS_std.c ****     }
 596:Generated_Source\PSoC5/USBFS_std.c **** 
 597:Generated_Source\PSoC5/USBFS_std.c ****     /* Clear Alternate settings for all interfaces. */
 598:Generated_Source\PSoC5/USBFS_std.c ****     if (0u != clearAltSetting)
 599:Generated_Source\PSoC5/USBFS_std.c ****     {
 600:Generated_Source\PSoC5/USBFS_std.c ****         for (i = 0u; i < USBFS_MAX_INTERFACES_NUMBER; ++i)
 601:Generated_Source\PSoC5/USBFS_std.c ****         {
 602:Generated_Source\PSoC5/USBFS_std.c ****             USBFS_interfaceSetting[i]     = 0u;
 603:Generated_Source\PSoC5/USBFS_std.c ****             USBFS_interfaceSettingLast[i] = 0u;
 604:Generated_Source\PSoC5/USBFS_std.c ****         }
 605:Generated_Source\PSoC5/USBFS_std.c ****     }
 606:Generated_Source\PSoC5/USBFS_std.c **** 
 607:Generated_Source\PSoC5/USBFS_std.c ****     /* Init Endpoints and Device Status if configured */
ARM GAS  C:\Users\RABBIT~1\AppData\Local\Temp\ccIAjdRL.s 			page 17


 608:Generated_Source\PSoC5/USBFS_std.c ****     if (USBFS_configuration > 0u)
 609:Generated_Source\PSoC5/USBFS_std.c ****     {
 610:Generated_Source\PSoC5/USBFS_std.c ****         #if defined(USBFS_ENABLE_CDC_CLASS)
 611:Generated_Source\PSoC5/USBFS_std.c ****             uint8 cdcComNums = 0u;
 612:Generated_Source\PSoC5/USBFS_std.c ****         #endif  /* (USBFS_ENABLE_CDC_CLASS) */  
 613:Generated_Source\PSoC5/USBFS_std.c **** 
 614:Generated_Source\PSoC5/USBFS_std.c ****         pTmp = USBFS_GetConfigTablePtr(USBFS_configuration - 1u);
 615:Generated_Source\PSoC5/USBFS_std.c ****         
 616:Generated_Source\PSoC5/USBFS_std.c ****         /* Set Power status for current configuration */
 617:Generated_Source\PSoC5/USBFS_std.c ****         pDescr = (const uint8 *)pTmp->p_list;
 618:Generated_Source\PSoC5/USBFS_std.c ****         if ((pDescr[USBFS_CONFIG_DESCR_ATTRIB] & USBFS_CONFIG_DESCR_ATTRIB_SELF_POWERED) != 0u)
 619:Generated_Source\PSoC5/USBFS_std.c ****         {
 620:Generated_Source\PSoC5/USBFS_std.c ****             USBFS_deviceStatus |= (uint8)  USBFS_DEVICE_STATUS_SELF_POWERED;
 621:Generated_Source\PSoC5/USBFS_std.c ****         }
 622:Generated_Source\PSoC5/USBFS_std.c ****         else
 623:Generated_Source\PSoC5/USBFS_std.c ****         {
 624:Generated_Source\PSoC5/USBFS_std.c ****             USBFS_deviceStatus &= (uint8) ~USBFS_DEVICE_STATUS_SELF_POWERED;
 625:Generated_Source\PSoC5/USBFS_std.c ****         }
 626:Generated_Source\PSoC5/USBFS_std.c ****         
 627:Generated_Source\PSoC5/USBFS_std.c ****         /* Move to next element */
 628:Generated_Source\PSoC5/USBFS_std.c ****         pTmp = &pTmp[1u];
 629:Generated_Source\PSoC5/USBFS_std.c ****         ep = pTmp->c;  /* For this table, c is the number of endpoints configurations  */
 630:Generated_Source\PSoC5/USBFS_std.c **** 
 631:Generated_Source\PSoC5/USBFS_std.c ****         #if (USBFS_EP_MANAGEMENT_MANUAL && USBFS_EP_ALLOC_DYNAMIC)
 632:Generated_Source\PSoC5/USBFS_std.c ****             /* Configure for dynamic EP memory allocation */
 633:Generated_Source\PSoC5/USBFS_std.c ****             /* p_list points the endpoint setting table. */
 634:Generated_Source\PSoC5/USBFS_std.c ****             pEP = (T_USBFS_EP_SETTINGS_BLOCK *) pTmp->p_list;
 635:Generated_Source\PSoC5/USBFS_std.c ****             
 636:Generated_Source\PSoC5/USBFS_std.c ****             for (i = 0u; i < ep; i++)
 637:Generated_Source\PSoC5/USBFS_std.c ****             {     
 638:Generated_Source\PSoC5/USBFS_std.c ****                 /* Compare current Alternate setting with EP Alt */
 639:Generated_Source\PSoC5/USBFS_std.c ****                 if (USBFS_interfaceSetting[pEP->interface] == pEP->altSetting)
 640:Generated_Source\PSoC5/USBFS_std.c ****                 {                                                          
 641:Generated_Source\PSoC5/USBFS_std.c ****                     curEp  = pEP->addr & USBFS_DIR_UNUSED;
 642:Generated_Source\PSoC5/USBFS_std.c ****                     epType = pEP->attributes & USBFS_EP_TYPE_MASK;
 643:Generated_Source\PSoC5/USBFS_std.c ****                     
 644:Generated_Source\PSoC5/USBFS_std.c ****                     USBFS_EP[curEp].addr       = pEP->addr;
 645:Generated_Source\PSoC5/USBFS_std.c ****                     USBFS_EP[curEp].attrib     = pEP->attributes;
 646:Generated_Source\PSoC5/USBFS_std.c ****                     USBFS_EP[curEp].bufferSize = pEP->bufferSize;
 647:Generated_Source\PSoC5/USBFS_std.c **** 
 648:Generated_Source\PSoC5/USBFS_std.c ****                     if (0u != (pEP->addr & USBFS_DIR_IN))
 649:Generated_Source\PSoC5/USBFS_std.c ****                     {
 650:Generated_Source\PSoC5/USBFS_std.c ****                         /* IN Endpoint */
 651:Generated_Source\PSoC5/USBFS_std.c ****                         USBFS_EP[curEp].epMode     = USBFS_GET_ACTIVE_IN_EP_CR0_MODE(epType);
 652:Generated_Source\PSoC5/USBFS_std.c ****                         USBFS_EP[curEp].apiEpState = USBFS_EVENT_PENDING;
 653:Generated_Source\PSoC5/USBFS_std.c ****                     
 654:Generated_Source\PSoC5/USBFS_std.c ****                     #if (defined(USBFS_ENABLE_MIDI_STREAMING) && (USBFS_MIDI_IN_BUFF_SIZE > 0))
 655:Generated_Source\PSoC5/USBFS_std.c ****                         if ((pEP->bMisc == USBFS_CLASS_AUDIO) && (epType == USBFS_EP_TYPE_BULK))
 656:Generated_Source\PSoC5/USBFS_std.c ****                         {
 657:Generated_Source\PSoC5/USBFS_std.c ****                             USBFS_midi_in_ep = curEp;
 658:Generated_Source\PSoC5/USBFS_std.c ****                         }
 659:Generated_Source\PSoC5/USBFS_std.c ****                     #endif  /* (USBFS_ENABLE_MIDI_STREAMING) */
 660:Generated_Source\PSoC5/USBFS_std.c ****                     }
 661:Generated_Source\PSoC5/USBFS_std.c ****                     else
 662:Generated_Source\PSoC5/USBFS_std.c ****                     {
 663:Generated_Source\PSoC5/USBFS_std.c ****                         /* OUT Endpoint */
 664:Generated_Source\PSoC5/USBFS_std.c ****                         USBFS_EP[curEp].epMode     = USBFS_GET_ACTIVE_OUT_EP_CR0_MODE(epType);
ARM GAS  C:\Users\RABBIT~1\AppData\Local\Temp\ccIAjdRL.s 			page 18


 665:Generated_Source\PSoC5/USBFS_std.c ****                         USBFS_EP[curEp].apiEpState = USBFS_NO_EVENT_PENDING;
 666:Generated_Source\PSoC5/USBFS_std.c ****                         
 667:Generated_Source\PSoC5/USBFS_std.c ****                     #if (defined(USBFS_ENABLE_MIDI_STREAMING) && (USBFS_MIDI_OUT_BUFF_SIZE > 0))
 668:Generated_Source\PSoC5/USBFS_std.c ****                         if ((pEP->bMisc == USBFS_CLASS_AUDIO) && (epType == USBFS_EP_TYPE_BULK))
 669:Generated_Source\PSoC5/USBFS_std.c ****                         {
 670:Generated_Source\PSoC5/USBFS_std.c ****                             USBFS_midi_out_ep = curEp;
 671:Generated_Source\PSoC5/USBFS_std.c ****                         }
 672:Generated_Source\PSoC5/USBFS_std.c ****                     #endif  /* (USBFS_ENABLE_MIDI_STREAMING) */
 673:Generated_Source\PSoC5/USBFS_std.c ****                     }
 674:Generated_Source\PSoC5/USBFS_std.c **** 
 675:Generated_Source\PSoC5/USBFS_std.c ****                 #if(defined (USBFS_ENABLE_CDC_CLASS))
 676:Generated_Source\PSoC5/USBFS_std.c ****                     if((pEP->bMisc == USBFS_CLASS_CDC_DATA) ||(pEP->bMisc == USBFS_CLASS_CDC))
 677:Generated_Source\PSoC5/USBFS_std.c ****                     {
 678:Generated_Source\PSoC5/USBFS_std.c ****                         cdcComNums = USBFS_Cdc_EpInit(pEP, curEp, cdcComNums);
 679:Generated_Source\PSoC5/USBFS_std.c ****                     }
 680:Generated_Source\PSoC5/USBFS_std.c ****                 #endif  /* (USBFS_ENABLE_CDC_CLASS) */
 681:Generated_Source\PSoC5/USBFS_std.c ****                 }
 682:Generated_Source\PSoC5/USBFS_std.c ****                 
 683:Generated_Source\PSoC5/USBFS_std.c ****                 pEP = &pEP[1u];
 684:Generated_Source\PSoC5/USBFS_std.c ****             }
 685:Generated_Source\PSoC5/USBFS_std.c ****             
 686:Generated_Source\PSoC5/USBFS_std.c ****         #else
 687:Generated_Source\PSoC5/USBFS_std.c ****             for (i = USBFS_EP1; i < USBFS_MAX_EP; ++i)
 688:Generated_Source\PSoC5/USBFS_std.c ****             {
 689:Generated_Source\PSoC5/USBFS_std.c ****                 /* p_list points the endpoint setting table. */
 690:Generated_Source\PSoC5/USBFS_std.c ****                 pEP = (const T_USBFS_EP_SETTINGS_BLOCK CYCODE *) pTmp->p_list;
 691:Generated_Source\PSoC5/USBFS_std.c ****                 /* Find max length for each EP and select it (length could be different in differen
 692:Generated_Source\PSoC5/USBFS_std.c ****                 /* but other settings should be correct with regards to Interface alt Setting */
 693:Generated_Source\PSoC5/USBFS_std.c ****                 
 694:Generated_Source\PSoC5/USBFS_std.c ****                 for (curEp = 0u; curEp < ep; ++curEp)
 695:Generated_Source\PSoC5/USBFS_std.c ****                 {
 696:Generated_Source\PSoC5/USBFS_std.c ****                     if (i == (pEP->addr & USBFS_DIR_UNUSED))
 697:Generated_Source\PSoC5/USBFS_std.c ****                     {
 698:Generated_Source\PSoC5/USBFS_std.c ****                         /* Compare endpoint buffers size with current size to find greater. */
 699:Generated_Source\PSoC5/USBFS_std.c ****                         if (USBFS_EP[i].bufferSize < pEP->bufferSize)
 700:Generated_Source\PSoC5/USBFS_std.c ****                         {
 701:Generated_Source\PSoC5/USBFS_std.c ****                             USBFS_EP[i].bufferSize = pEP->bufferSize;
 702:Generated_Source\PSoC5/USBFS_std.c ****                         }
 703:Generated_Source\PSoC5/USBFS_std.c ****                         
 704:Generated_Source\PSoC5/USBFS_std.c ****                         /* Compare current Alternate setting with EP Alt */
 705:Generated_Source\PSoC5/USBFS_std.c ****                         if (USBFS_interfaceSetting[pEP->interface] == pEP->altSetting)
 706:Generated_Source\PSoC5/USBFS_std.c ****                         {                            
 707:Generated_Source\PSoC5/USBFS_std.c ****                             USBFS_EP[i].addr = pEP->addr;
 708:Generated_Source\PSoC5/USBFS_std.c ****                             USBFS_EP[i].attrib = pEP->attributes;
 709:Generated_Source\PSoC5/USBFS_std.c ****                             
 710:Generated_Source\PSoC5/USBFS_std.c ****                             epType = pEP->attributes & USBFS_EP_TYPE_MASK;
 711:Generated_Source\PSoC5/USBFS_std.c ****                             
 712:Generated_Source\PSoC5/USBFS_std.c ****                             if (0u != (pEP->addr & USBFS_DIR_IN))
 713:Generated_Source\PSoC5/USBFS_std.c ****                             {
 714:Generated_Source\PSoC5/USBFS_std.c ****                                 /* IN Endpoint */
 715:Generated_Source\PSoC5/USBFS_std.c ****                                 USBFS_EP[i].epMode     = USBFS_GET_ACTIVE_IN_EP_CR0_MODE(epType);
 716:Generated_Source\PSoC5/USBFS_std.c ****                                 USBFS_EP[i].apiEpState = USBFS_EVENT_PENDING;
 717:Generated_Source\PSoC5/USBFS_std.c ****                                 
 718:Generated_Source\PSoC5/USBFS_std.c ****                             #if (defined(USBFS_ENABLE_MIDI_STREAMING) && (USBFS_MIDI_IN_BUFF_SIZE >
 719:Generated_Source\PSoC5/USBFS_std.c ****                                 if ((pEP->bMisc == USBFS_CLASS_AUDIO) && (epType == USBFS_EP_TYPE_B
 720:Generated_Source\PSoC5/USBFS_std.c ****                                 {
 721:Generated_Source\PSoC5/USBFS_std.c ****                                     USBFS_midi_in_ep = i;
ARM GAS  C:\Users\RABBIT~1\AppData\Local\Temp\ccIAjdRL.s 			page 19


 722:Generated_Source\PSoC5/USBFS_std.c ****                                 }
 723:Generated_Source\PSoC5/USBFS_std.c ****                             #endif  /* (USBFS_ENABLE_MIDI_STREAMING) */
 724:Generated_Source\PSoC5/USBFS_std.c ****                             }
 725:Generated_Source\PSoC5/USBFS_std.c ****                             else
 726:Generated_Source\PSoC5/USBFS_std.c ****                             {
 727:Generated_Source\PSoC5/USBFS_std.c ****                                 /* OUT Endpoint */
 728:Generated_Source\PSoC5/USBFS_std.c ****                                 USBFS_EP[i].epMode     = USBFS_GET_ACTIVE_OUT_EP_CR0_MODE(epType);
 729:Generated_Source\PSoC5/USBFS_std.c ****                                 USBFS_EP[i].apiEpState = USBFS_NO_EVENT_PENDING;
 730:Generated_Source\PSoC5/USBFS_std.c ****                                 
 731:Generated_Source\PSoC5/USBFS_std.c ****                             #if (defined(USBFS_ENABLE_MIDI_STREAMING) && (USBFS_MIDI_OUT_BUFF_SIZE 
 732:Generated_Source\PSoC5/USBFS_std.c ****                                 if ((pEP->bMisc == USBFS_CLASS_AUDIO) && (epType == USBFS_EP_TYPE_B
 733:Generated_Source\PSoC5/USBFS_std.c ****                                 {
 734:Generated_Source\PSoC5/USBFS_std.c ****                                     USBFS_midi_out_ep = i;
 735:Generated_Source\PSoC5/USBFS_std.c ****                                 }
 736:Generated_Source\PSoC5/USBFS_std.c ****                             #endif  /* (USBFS_ENABLE_MIDI_STREAMING) */
 737:Generated_Source\PSoC5/USBFS_std.c ****                             }
 738:Generated_Source\PSoC5/USBFS_std.c **** 
 739:Generated_Source\PSoC5/USBFS_std.c ****                         #if (defined(USBFS_ENABLE_CDC_CLASS))
 740:Generated_Source\PSoC5/USBFS_std.c ****                             if((pEP->bMisc == USBFS_CLASS_CDC_DATA) ||(pEP->bMisc == USBFS_CLASS_CD
 741:Generated_Source\PSoC5/USBFS_std.c ****                             {
 742:Generated_Source\PSoC5/USBFS_std.c ****                                 cdcComNums = USBFS_Cdc_EpInit(pEP, i, cdcComNums);
 743:Generated_Source\PSoC5/USBFS_std.c ****                             }
 744:Generated_Source\PSoC5/USBFS_std.c ****                         #endif  /* (USBFS_ENABLE_CDC_CLASS) */
 745:Generated_Source\PSoC5/USBFS_std.c **** 
 746:Generated_Source\PSoC5/USBFS_std.c ****                             #if (USBFS_EP_MANAGEMENT_DMA_AUTO)
 747:Generated_Source\PSoC5/USBFS_std.c ****                                 break;  /* Use first EP setting in Auto memory management */
 748:Generated_Source\PSoC5/USBFS_std.c ****                             #endif /* (USBFS_EP_MANAGEMENT_DMA_AUTO) */
 749:Generated_Source\PSoC5/USBFS_std.c ****                         }
 750:Generated_Source\PSoC5/USBFS_std.c ****                     }
 751:Generated_Source\PSoC5/USBFS_std.c ****                     
 752:Generated_Source\PSoC5/USBFS_std.c ****                     pEP = &pEP[1u];
 753:Generated_Source\PSoC5/USBFS_std.c ****                 }
 754:Generated_Source\PSoC5/USBFS_std.c ****             }
 755:Generated_Source\PSoC5/USBFS_std.c ****         #endif /*  (USBFS_EP_MANAGEMENT_MANUAL && USBFS_EP_ALLOC_DYNAMIC) */
 756:Generated_Source\PSoC5/USBFS_std.c **** 
 757:Generated_Source\PSoC5/USBFS_std.c ****         /* Init class array for each interface and interface number for each EP.
 758:Generated_Source\PSoC5/USBFS_std.c ****         *  It is used for handling Class specific requests directed to either an
 759:Generated_Source\PSoC5/USBFS_std.c ****         *  interface or the endpoint.
 760:Generated_Source\PSoC5/USBFS_std.c ****         */
 761:Generated_Source\PSoC5/USBFS_std.c ****         /* p_list points the endpoint setting table. */
 762:Generated_Source\PSoC5/USBFS_std.c ****         pEP = (const T_USBFS_EP_SETTINGS_BLOCK CYCODE *) pTmp->p_list;
 763:Generated_Source\PSoC5/USBFS_std.c ****         for (i = 0u; i < ep; i++)
 764:Generated_Source\PSoC5/USBFS_std.c ****         {
 765:Generated_Source\PSoC5/USBFS_std.c ****             /* Configure interface number for each EP */
 766:Generated_Source\PSoC5/USBFS_std.c ****             USBFS_EP[pEP->addr & USBFS_DIR_UNUSED].interface = pEP->interface;
 767:Generated_Source\PSoC5/USBFS_std.c ****             pEP = &pEP[1u];
 768:Generated_Source\PSoC5/USBFS_std.c ****         }
 769:Generated_Source\PSoC5/USBFS_std.c ****         
 770:Generated_Source\PSoC5/USBFS_std.c ****         /* Init pointer on interface class table */
 771:Generated_Source\PSoC5/USBFS_std.c ****         USBFS_interfaceClass = USBFS_GetInterfaceClassTablePtr();
 772:Generated_Source\PSoC5/USBFS_std.c ****         
 773:Generated_Source\PSoC5/USBFS_std.c ****     /* Set the endpoint buffer addresses */
 774:Generated_Source\PSoC5/USBFS_std.c ****     #if (!USBFS_EP_MANAGEMENT_DMA_AUTO)
 775:Generated_Source\PSoC5/USBFS_std.c ****         buffCount = 0u;
 776:Generated_Source\PSoC5/USBFS_std.c ****         for (ep = USBFS_EP1; ep < USBFS_MAX_EP; ++ep)
 777:Generated_Source\PSoC5/USBFS_std.c ****         {
 778:Generated_Source\PSoC5/USBFS_std.c ****             USBFS_EP[ep].buffOffset = buffCount;        
ARM GAS  C:\Users\RABBIT~1\AppData\Local\Temp\ccIAjdRL.s 			page 20


 779:Generated_Source\PSoC5/USBFS_std.c ****             buffCount += USBFS_EP[ep].bufferSize;
 780:Generated_Source\PSoC5/USBFS_std.c ****             
 781:Generated_Source\PSoC5/USBFS_std.c ****         #if (USBFS_GEN_16BITS_EP_ACCESS)
 782:Generated_Source\PSoC5/USBFS_std.c ****             /* Align EP buffers to be event size to access 16-bits DR register. */
 783:Generated_Source\PSoC5/USBFS_std.c ****             buffCount += (0u != (buffCount & 0x01u)) ? 1u : 0u;
 784:Generated_Source\PSoC5/USBFS_std.c ****         #endif /* (USBFS_GEN_16BITS_EP_ACCESS) */            
 785:Generated_Source\PSoC5/USBFS_std.c ****         }
 786:Generated_Source\PSoC5/USBFS_std.c ****     #endif /* (!USBFS_EP_MANAGEMENT_DMA_AUTO) */
 787:Generated_Source\PSoC5/USBFS_std.c **** 
 788:Generated_Source\PSoC5/USBFS_std.c ****         /* Configure hardware registers */
 789:Generated_Source\PSoC5/USBFS_std.c ****         USBFS_ConfigReg();
 790:Generated_Source\PSoC5/USBFS_std.c ****     }
 791:Generated_Source\PSoC5/USBFS_std.c **** }
 792:Generated_Source\PSoC5/USBFS_std.c **** 
 793:Generated_Source\PSoC5/USBFS_std.c **** 
 794:Generated_Source\PSoC5/USBFS_std.c **** /*******************************************************************************
 795:Generated_Source\PSoC5/USBFS_std.c **** * Function Name: USBFS_ConfigAltChanged
 796:Generated_Source\PSoC5/USBFS_std.c **** ****************************************************************************//**
 797:Generated_Source\PSoC5/USBFS_std.c **** *
 798:Generated_Source\PSoC5/USBFS_std.c **** *  This routine update configuration for the required endpoints only.
 799:Generated_Source\PSoC5/USBFS_std.c **** *  It is called after SET_INTERFACE request when Static memory allocation used.
 800:Generated_Source\PSoC5/USBFS_std.c **** *
 801:Generated_Source\PSoC5/USBFS_std.c **** * \reentrant
 802:Generated_Source\PSoC5/USBFS_std.c **** *  No.
 803:Generated_Source\PSoC5/USBFS_std.c **** *
 804:Generated_Source\PSoC5/USBFS_std.c **** *******************************************************************************/
 805:Generated_Source\PSoC5/USBFS_std.c **** void USBFS_ConfigAltChanged(void) 
 806:Generated_Source\PSoC5/USBFS_std.c **** {
 807:Generated_Source\PSoC5/USBFS_std.c ****     uint8 ep;
 808:Generated_Source\PSoC5/USBFS_std.c ****     uint8 curEp;
 809:Generated_Source\PSoC5/USBFS_std.c ****     uint8 epType;
 810:Generated_Source\PSoC5/USBFS_std.c ****     uint8 i;
 811:Generated_Source\PSoC5/USBFS_std.c ****     uint8 interfaceNum;
 812:Generated_Source\PSoC5/USBFS_std.c **** 
 813:Generated_Source\PSoC5/USBFS_std.c ****     const T_USBFS_LUT CYCODE *pTmp;
 814:Generated_Source\PSoC5/USBFS_std.c ****     const T_USBFS_EP_SETTINGS_BLOCK CYCODE *pEP;
 815:Generated_Source\PSoC5/USBFS_std.c **** 
 816:Generated_Source\PSoC5/USBFS_std.c ****     /* Init Endpoints and Device Status if configured */
 817:Generated_Source\PSoC5/USBFS_std.c ****     if (USBFS_configuration > 0u)
 818:Generated_Source\PSoC5/USBFS_std.c ****     {
 819:Generated_Source\PSoC5/USBFS_std.c ****         /* Get number of endpoints configurations (ep). */
 820:Generated_Source\PSoC5/USBFS_std.c ****         pTmp = USBFS_GetConfigTablePtr(USBFS_configuration - 1u);
 821:Generated_Source\PSoC5/USBFS_std.c ****         pTmp = &pTmp[1u];
 822:Generated_Source\PSoC5/USBFS_std.c ****         ep = pTmp->c;
 823:Generated_Source\PSoC5/USBFS_std.c **** 
 824:Generated_Source\PSoC5/USBFS_std.c ****         /* Get pointer to endpoints setting table (pEP). */
 825:Generated_Source\PSoC5/USBFS_std.c ****         pEP = (const T_USBFS_EP_SETTINGS_BLOCK CYCODE *) pTmp->p_list;
 826:Generated_Source\PSoC5/USBFS_std.c ****         
 827:Generated_Source\PSoC5/USBFS_std.c ****         /* Look through all possible endpoint configurations. Find endpoints 
 828:Generated_Source\PSoC5/USBFS_std.c ****         * which belong to current interface and alternate settings for 
 829:Generated_Source\PSoC5/USBFS_std.c ****         * re-configuration.
 830:Generated_Source\PSoC5/USBFS_std.c ****         */
 831:Generated_Source\PSoC5/USBFS_std.c ****         interfaceNum = USBFS_interfaceNumber;
 832:Generated_Source\PSoC5/USBFS_std.c ****         for (i = 0u; i < ep; i++)
 833:Generated_Source\PSoC5/USBFS_std.c ****         {
 834:Generated_Source\PSoC5/USBFS_std.c ****             /* Find endpoints which belong to current interface and alternate settings. */
 835:Generated_Source\PSoC5/USBFS_std.c ****             if ((interfaceNum == pEP->interface) && 
ARM GAS  C:\Users\RABBIT~1\AppData\Local\Temp\ccIAjdRL.s 			page 21


 836:Generated_Source\PSoC5/USBFS_std.c ****                 (USBFS_interfaceSetting[interfaceNum] == pEP->altSetting))
 837:Generated_Source\PSoC5/USBFS_std.c ****             {
 838:Generated_Source\PSoC5/USBFS_std.c ****                 curEp  = ((uint8) pEP->addr & USBFS_DIR_UNUSED);
 839:Generated_Source\PSoC5/USBFS_std.c ****                 epType = ((uint8) pEP->attributes & USBFS_EP_TYPE_MASK);
 840:Generated_Source\PSoC5/USBFS_std.c ****                 
 841:Generated_Source\PSoC5/USBFS_std.c ****                 /* Change the SIE mode for the selected EP to NAK ALL */
 842:Generated_Source\PSoC5/USBFS_std.c ****                 USBFS_EP[curEp].epToggle   = 0u;
 843:Generated_Source\PSoC5/USBFS_std.c ****                 USBFS_EP[curEp].addr       = pEP->addr;
 844:Generated_Source\PSoC5/USBFS_std.c ****                 USBFS_EP[curEp].attrib     = pEP->attributes;
 845:Generated_Source\PSoC5/USBFS_std.c ****                 USBFS_EP[curEp].bufferSize = pEP->bufferSize;
 846:Generated_Source\PSoC5/USBFS_std.c **** 
 847:Generated_Source\PSoC5/USBFS_std.c ****                 if (0u != (pEP->addr & USBFS_DIR_IN))
 848:Generated_Source\PSoC5/USBFS_std.c ****                 {
 849:Generated_Source\PSoC5/USBFS_std.c ****                     /* IN Endpoint */
 850:Generated_Source\PSoC5/USBFS_std.c ****                     USBFS_EP[curEp].epMode     = USBFS_GET_ACTIVE_IN_EP_CR0_MODE(epType);
 851:Generated_Source\PSoC5/USBFS_std.c ****                     USBFS_EP[curEp].apiEpState = USBFS_EVENT_PENDING;
 852:Generated_Source\PSoC5/USBFS_std.c ****                 }
 853:Generated_Source\PSoC5/USBFS_std.c ****                 else
 854:Generated_Source\PSoC5/USBFS_std.c ****                 {
 855:Generated_Source\PSoC5/USBFS_std.c ****                     /* OUT Endpoint */
 856:Generated_Source\PSoC5/USBFS_std.c ****                     USBFS_EP[curEp].epMode     = USBFS_GET_ACTIVE_OUT_EP_CR0_MODE(epType);
 857:Generated_Source\PSoC5/USBFS_std.c ****                     USBFS_EP[curEp].apiEpState = USBFS_NO_EVENT_PENDING;
 858:Generated_Source\PSoC5/USBFS_std.c ****                 }
 859:Generated_Source\PSoC5/USBFS_std.c ****                 
 860:Generated_Source\PSoC5/USBFS_std.c ****                 /* Make SIE to NAK any endpoint requests */
 861:Generated_Source\PSoC5/USBFS_std.c ****                 USBFS_SIE_EP_BASE.sieEp[curEp].epCr0 = USBFS_MODE_NAK_IN_OUT;
 862:Generated_Source\PSoC5/USBFS_std.c **** 
 863:Generated_Source\PSoC5/USBFS_std.c ****             #if (USBFS_EP_MANAGEMENT_DMA_AUTO)
 864:Generated_Source\PSoC5/USBFS_std.c ****                 /* Clear IN data ready. */
 865:Generated_Source\PSoC5/USBFS_std.c ****                 USBFS_ARB_EP_BASE.arbEp[curEp].epCfg &= (uint8) ~USBFS_ARB_EPX_CFG_IN_DATA_RDY;
 866:Generated_Source\PSoC5/USBFS_std.c **** 
 867:Generated_Source\PSoC5/USBFS_std.c ****                 /* Select endpoint number of reconfiguration */
 868:Generated_Source\PSoC5/USBFS_std.c ****                 USBFS_DYN_RECONFIG_REG = (uint8) ((curEp - 1u) << USBFS_DYN_RECONFIG_EP_SHIFT);
 869:Generated_Source\PSoC5/USBFS_std.c ****                 
 870:Generated_Source\PSoC5/USBFS_std.c ****                 /* Request for dynamic re-configuration of endpoint. */
 871:Generated_Source\PSoC5/USBFS_std.c ****                 USBFS_DYN_RECONFIG_REG |= USBFS_DYN_RECONFIG_ENABLE;
 872:Generated_Source\PSoC5/USBFS_std.c ****                 
 873:Generated_Source\PSoC5/USBFS_std.c ****                 /* Wait until block is ready for re-configuration */
 874:Generated_Source\PSoC5/USBFS_std.c ****                 while (0u == (USBFS_DYN_RECONFIG_REG & USBFS_DYN_RECONFIG_RDY_STS))
 875:Generated_Source\PSoC5/USBFS_std.c ****                 {
 876:Generated_Source\PSoC5/USBFS_std.c ****                 }
 877:Generated_Source\PSoC5/USBFS_std.c ****                 
 878:Generated_Source\PSoC5/USBFS_std.c ****                 /* Once DYN_RECONFIG_RDY_STS bit is set, FW can change the EP configuration. */
 879:Generated_Source\PSoC5/USBFS_std.c ****                 /* Change EP Type with new direction */
 880:Generated_Source\PSoC5/USBFS_std.c ****                 if (0u != (pEP->addr & USBFS_DIR_IN))
 881:Generated_Source\PSoC5/USBFS_std.c ****                 {
 882:Generated_Source\PSoC5/USBFS_std.c ****                     /* Set endpoint type: 0 - IN and 1 - OUT. */
 883:Generated_Source\PSoC5/USBFS_std.c ****                     USBFS_EP_TYPE_REG &= (uint8) ~(uint8)((uint8) 0x01u << (curEp - 1u));
 884:Generated_Source\PSoC5/USBFS_std.c ****                     
 885:Generated_Source\PSoC5/USBFS_std.c ****                 #if (CY_PSOC4)
 886:Generated_Source\PSoC5/USBFS_std.c ****                     /* Clear DMA_TERMIN for IN endpoint */
 887:Generated_Source\PSoC5/USBFS_std.c ****                     USBFS_ARB_EP_BASE.arbEp[curEp].epIntEn &= (uint32) ~USBFS_ARB_EPX_INT_DMA_TERMI
 888:Generated_Source\PSoC5/USBFS_std.c ****                 #endif /* (CY_PSOC4) */
 889:Generated_Source\PSoC5/USBFS_std.c ****                 }
 890:Generated_Source\PSoC5/USBFS_std.c ****                 else
 891:Generated_Source\PSoC5/USBFS_std.c ****                 {
 892:Generated_Source\PSoC5/USBFS_std.c ****                     /* Set endpoint type: 0 - IN and 1- OUT. */
ARM GAS  C:\Users\RABBIT~1\AppData\Local\Temp\ccIAjdRL.s 			page 22


 893:Generated_Source\PSoC5/USBFS_std.c ****                     USBFS_EP_TYPE_REG |= (uint8) ((uint8) 0x01u << (curEp - 1u));
 894:Generated_Source\PSoC5/USBFS_std.c ****                     
 895:Generated_Source\PSoC5/USBFS_std.c ****                 #if (CY_PSOC4)
 896:Generated_Source\PSoC5/USBFS_std.c ****                     /* Set DMA_TERMIN for OUT endpoint */
 897:Generated_Source\PSoC5/USBFS_std.c ****                     USBFS_ARB_EP_BASE.arbEp[curEp].epIntEn |= (uint32) USBFS_ARB_EPX_INT_DMA_TERMIN
 898:Generated_Source\PSoC5/USBFS_std.c ****                 #endif /* (CY_PSOC4) */
 899:Generated_Source\PSoC5/USBFS_std.c ****                 }
 900:Generated_Source\PSoC5/USBFS_std.c ****                 
 901:Generated_Source\PSoC5/USBFS_std.c ****                 /* Complete dynamic re-configuration: all endpoint related status and signals 
 902:Generated_Source\PSoC5/USBFS_std.c ****                 * are set into the default state.
 903:Generated_Source\PSoC5/USBFS_std.c ****                 */
 904:Generated_Source\PSoC5/USBFS_std.c ****                 USBFS_DYN_RECONFIG_REG &= (uint8) ~USBFS_DYN_RECONFIG_ENABLE;
 905:Generated_Source\PSoC5/USBFS_std.c **** 
 906:Generated_Source\PSoC5/USBFS_std.c ****             #else
 907:Generated_Source\PSoC5/USBFS_std.c ****                 USBFS_SIE_EP_BASE.sieEp[curEp].epCnt0 = HI8(USBFS_EP[curEp].bufferSize);
 908:Generated_Source\PSoC5/USBFS_std.c ****                 USBFS_SIE_EP_BASE.sieEp[curEp].epCnt1 = LO8(USBFS_EP[curEp].bufferSize);
 909:Generated_Source\PSoC5/USBFS_std.c ****                 
 910:Generated_Source\PSoC5/USBFS_std.c ****                 #if (CY_PSOC4)
 911:Generated_Source\PSoC5/USBFS_std.c ****                     USBFS_ARB_EP16_BASE.arbEp[curEp].rwRa16  = (uint32) USBFS_EP[curEp].buffOffset;
 912:Generated_Source\PSoC5/USBFS_std.c ****                     USBFS_ARB_EP16_BASE.arbEp[curEp].rwWa16  = (uint32) USBFS_EP[curEp].buffOffset;
 913:Generated_Source\PSoC5/USBFS_std.c ****                 #else
 914:Generated_Source\PSoC5/USBFS_std.c ****                     USBFS_ARB_EP_BASE.arbEp[curEp].rwRa    = LO8(USBFS_EP[curEp].buffOffset);
 915:Generated_Source\PSoC5/USBFS_std.c ****                     USBFS_ARB_EP_BASE.arbEp[curEp].rwRaMsb = HI8(USBFS_EP[curEp].buffOffset);
 916:Generated_Source\PSoC5/USBFS_std.c ****                     USBFS_ARB_EP_BASE.arbEp[curEp].rwWa    = LO8(USBFS_EP[curEp].buffOffset);
 917:Generated_Source\PSoC5/USBFS_std.c ****                     USBFS_ARB_EP_BASE.arbEp[curEp].rwWaMsb = HI8(USBFS_EP[curEp].buffOffset);
 918:Generated_Source\PSoC5/USBFS_std.c ****                 #endif /* (CY_PSOC4) */                
 919:Generated_Source\PSoC5/USBFS_std.c ****             #endif /* (USBFS_EP_MANAGEMENT_DMA_AUTO) */
 920:Generated_Source\PSoC5/USBFS_std.c ****             }
 921:Generated_Source\PSoC5/USBFS_std.c ****             
 922:Generated_Source\PSoC5/USBFS_std.c ****             pEP = &pEP[1u]; /* Get next EP element */
 923:Generated_Source\PSoC5/USBFS_std.c ****         }
 924:Generated_Source\PSoC5/USBFS_std.c ****         
 925:Generated_Source\PSoC5/USBFS_std.c ****         /* The main loop has to re-enable DMA and OUT endpoint */
 926:Generated_Source\PSoC5/USBFS_std.c ****     }
 927:Generated_Source\PSoC5/USBFS_std.c **** }
 928:Generated_Source\PSoC5/USBFS_std.c **** 
 929:Generated_Source\PSoC5/USBFS_std.c **** 
 930:Generated_Source\PSoC5/USBFS_std.c **** /*******************************************************************************
 931:Generated_Source\PSoC5/USBFS_std.c **** * Function Name: USBFS_GetConfigTablePtr
 932:Generated_Source\PSoC5/USBFS_std.c **** ****************************************************************************//**
 933:Generated_Source\PSoC5/USBFS_std.c **** *
 934:Generated_Source\PSoC5/USBFS_std.c **** *  This routine returns a pointer a configuration table entry
 935:Generated_Source\PSoC5/USBFS_std.c **** *
 936:Generated_Source\PSoC5/USBFS_std.c **** *  \param confIndex:  Configuration Index
 937:Generated_Source\PSoC5/USBFS_std.c **** *
 938:Generated_Source\PSoC5/USBFS_std.c **** * \return
 939:Generated_Source\PSoC5/USBFS_std.c **** *  Device Descriptor pointer or NULL when descriptor does not exist.
 940:Generated_Source\PSoC5/USBFS_std.c **** *
 941:Generated_Source\PSoC5/USBFS_std.c **** *******************************************************************************/
 942:Generated_Source\PSoC5/USBFS_std.c **** const T_USBFS_LUT CYCODE *USBFS_GetConfigTablePtr(uint8 confIndex)
 943:Generated_Source\PSoC5/USBFS_std.c ****                                                         
 944:Generated_Source\PSoC5/USBFS_std.c **** {
 283              		.loc 1 944 0
 284              		.cfi_startproc
 285              		@ args = 0, pretend = 0, frame = 0
 286              		@ frame_needed = 0, uses_anonymous_args = 0
 287              		@ link register save eliminated.
ARM GAS  C:\Users\RABBIT~1\AppData\Local\Temp\ccIAjdRL.s 			page 23


 288              	.LVL14:
 945:Generated_Source\PSoC5/USBFS_std.c ****     /* Device Table */
 946:Generated_Source\PSoC5/USBFS_std.c ****     const T_USBFS_LUT CYCODE *pTmp;
 947:Generated_Source\PSoC5/USBFS_std.c **** 
 948:Generated_Source\PSoC5/USBFS_std.c ****     pTmp = (const T_USBFS_LUT CYCODE *) USBFS_TABLE[USBFS_device].p_list;
 289              		.loc 1 948 0
 290 0000 064B     		ldr	r3, .L29
 291 0002 074A     		ldr	r2, .L29+4
 292 0004 1B78     		ldrb	r3, [r3]	@ zero_extendqisi2
 293 0006 02EBC302 		add	r2, r2, r3, lsl #3
 294 000a 5368     		ldr	r3, [r2, #4]
 295              	.LVL15:
 949:Generated_Source\PSoC5/USBFS_std.c **** 
 950:Generated_Source\PSoC5/USBFS_std.c ****     /* The first entry points to the Device Descriptor,
 951:Generated_Source\PSoC5/USBFS_std.c ****     *  the second entry point to the BOS Descriptor
 952:Generated_Source\PSoC5/USBFS_std.c ****     *  the rest configuration entries.
 953:Generated_Source\PSoC5/USBFS_std.c ****     *  Set pointer to the first Configuration Descriptor
 954:Generated_Source\PSoC5/USBFS_std.c ****     */
 955:Generated_Source\PSoC5/USBFS_std.c ****     pTmp = &pTmp[2u];
 956:Generated_Source\PSoC5/USBFS_std.c ****     /* For this table, c is the number of configuration descriptors  */
 957:Generated_Source\PSoC5/USBFS_std.c ****     if(confIndex >= pTmp->c)   /* Verify that required configuration descriptor exists */
 296              		.loc 1 957 0
 297 000c 1A7C     		ldrb	r2, [r3, #16]	@ zero_extendqisi2
 298 000e 8242     		cmp	r2, r0
 958:Generated_Source\PSoC5/USBFS_std.c ****     {
 959:Generated_Source\PSoC5/USBFS_std.c ****         pTmp = (const T_USBFS_LUT CYCODE *) NULL;
 960:Generated_Source\PSoC5/USBFS_std.c ****     }
 961:Generated_Source\PSoC5/USBFS_std.c ****     else
 962:Generated_Source\PSoC5/USBFS_std.c ****     {
 963:Generated_Source\PSoC5/USBFS_std.c ****         pTmp = (const T_USBFS_LUT CYCODE *) pTmp[confIndex].p_list;
 299              		.loc 1 963 0
 300 0010 86BF     		itte	hi
 301 0012 03EBC003 		addhi	r3, r3, r0, lsl #3
 302              	.LVL16:
 303 0016 5869     		ldrhi	r0, [r3, #20]
 304              	.LVL17:
 959:Generated_Source\PSoC5/USBFS_std.c ****     }
 305              		.loc 1 959 0
 306 0018 0020     		movls	r0, #0
 307              	.LVL18:
 964:Generated_Source\PSoC5/USBFS_std.c ****     }
 965:Generated_Source\PSoC5/USBFS_std.c **** 
 966:Generated_Source\PSoC5/USBFS_std.c ****     return (pTmp);
 967:Generated_Source\PSoC5/USBFS_std.c **** }
 308              		.loc 1 967 0
 309 001a 7047     		bx	lr
 310              	.L30:
 311              		.align	2
 312              	.L29:
 313 001c 00000000 		.word	USBFS_device
 314 0020 00000000 		.word	USBFS_TABLE
 315              		.cfi_endproc
 316              	.LFE6:
 317              		.size	USBFS_GetConfigTablePtr, .-USBFS_GetConfigTablePtr
 318              		.section	.text.USBFS_ConfigAltChanged,"ax",%progbits
 319              		.align	1
 320              		.global	USBFS_ConfigAltChanged
ARM GAS  C:\Users\RABBIT~1\AppData\Local\Temp\ccIAjdRL.s 			page 24


 321              		.thumb
 322              		.thumb_func
 323              		.type	USBFS_ConfigAltChanged, %function
 324              	USBFS_ConfigAltChanged:
 325              	.LFB5:
 806:Generated_Source\PSoC5/USBFS_std.c ****     uint8 ep;
 326              		.loc 1 806 0
 327              		.cfi_startproc
 328              		@ args = 0, pretend = 0, frame = 0
 329              		@ frame_needed = 0, uses_anonymous_args = 0
 330 0000 2DE9F84F 		push	{r3, r4, r5, r6, r7, r8, r9, r10, fp, lr}
 331              		.cfi_def_cfa_offset 40
 332              		.cfi_offset 3, -40
 333              		.cfi_offset 4, -36
 334              		.cfi_offset 5, -32
 335              		.cfi_offset 6, -28
 336              		.cfi_offset 7, -24
 337              		.cfi_offset 8, -20
 338              		.cfi_offset 9, -16
 339              		.cfi_offset 10, -12
 340              		.cfi_offset 11, -8
 341              		.cfi_offset 14, -4
 817:Generated_Source\PSoC5/USBFS_std.c ****     {
 342              		.loc 1 817 0
 343 0004 424B     		ldr	r3, .L43
 344 0006 1A78     		ldrb	r2, [r3]	@ zero_extendqisi2
 345 0008 002A     		cmp	r2, #0
 346 000a 7ED0     		beq	.L31
 347              	.LBB6:
 348              	.LBB7:
 820:Generated_Source\PSoC5/USBFS_std.c ****         pTmp = &pTmp[1u];
 349              		.loc 1 820 0
 350 000c 1878     		ldrb	r0, [r3]	@ zero_extendqisi2
 842:Generated_Source\PSoC5/USBFS_std.c ****                 USBFS_EP[curEp].addr       = pEP->addr;
 351              		.loc 1 842 0
 352 000e 414D     		ldr	r5, .L43+4
 820:Generated_Source\PSoC5/USBFS_std.c ****         pTmp = &pTmp[1u];
 353              		.loc 1 820 0
 354 0010 0138     		subs	r0, r0, #1
 355 0012 C0B2     		uxtb	r0, r0
 356 0014 FFF7FEFF 		bl	USBFS_GetConfigTablePtr
 357              	.LVL19:
 358 0018 A846     		mov	r8, r5
 831:Generated_Source\PSoC5/USBFS_std.c ****         for (i = 0u; i < ep; i++)
 359              		.loc 1 831 0
 360 001a 3F4A     		ldr	r2, .L43+8
 825:Generated_Source\PSoC5/USBFS_std.c ****         
 361              		.loc 1 825 0
 362 001c C368     		ldr	r3, [r0, #12]
 363              	.LVL20:
 831:Generated_Source\PSoC5/USBFS_std.c ****         for (i = 0u; i < ep; i++)
 364              		.loc 1 831 0
 365 001e 1478     		ldrb	r4, [r2]	@ zero_extendqisi2
 366 0020 007A     		ldrb	r0, [r0, #8]	@ zero_extendqisi2
 367              	.LVL21:
 836:Generated_Source\PSoC5/USBFS_std.c ****             {
 368              		.loc 1 836 0
ARM GAS  C:\Users\RABBIT~1\AppData\Local\Temp\ccIAjdRL.s 			page 25


 369 0022 DFF800C1 		ldr	ip, .L43+20
 831:Generated_Source\PSoC5/USBFS_std.c ****         for (i = 0u; i < ep; i++)
 370              		.loc 1 831 0
 371 0026 E4B2     		uxtb	r4, r4
 372              	.LVL22:
 373 0028 03EBC000 		add	r0, r3, r0, lsl #3
 374              	.LVL23:
 842:Generated_Source\PSoC5/USBFS_std.c ****                 USBFS_EP[curEp].addr       = pEP->addr;
 375              		.loc 1 842 0
 376 002c 0C26     		movs	r6, #12
 377 002e 0027     		movs	r7, #0
 861:Generated_Source\PSoC5/USBFS_std.c **** 
 378              		.loc 1 861 0
 379 0030 4FF0010E 		mov	lr, #1
 380              	.LVL24:
 381              	.L33:
 832:Generated_Source\PSoC5/USBFS_std.c ****         {
 382              		.loc 1 832 0
 383 0034 8342     		cmp	r3, r0
 384 0036 68D0     		beq	.L31
 835:Generated_Source\PSoC5/USBFS_std.c ****                 (USBFS_interfaceSetting[interfaceNum] == pEP->altSetting))
 385              		.loc 1 835 0
 386 0038 1A78     		ldrb	r2, [r3]	@ zero_extendqisi2
 387 003a A242     		cmp	r2, r4
 388 003c 63D1     		bne	.L34
 836:Generated_Source\PSoC5/USBFS_std.c ****             {
 389              		.loc 1 836 0
 390 003e 1CF80420 		ldrb	r2, [ip, r4]	@ zero_extendqisi2
 835:Generated_Source\PSoC5/USBFS_std.c ****                 (USBFS_interfaceSetting[interfaceNum] == pEP->altSetting))
 391              		.loc 1 835 0
 392 0042 5978     		ldrb	r1, [r3, #1]	@ zero_extendqisi2
 393 0044 9142     		cmp	r1, r2
 394 0046 5ED1     		bne	.L34
 838:Generated_Source\PSoC5/USBFS_std.c ****                 epType = ((uint8) pEP->attributes & USBFS_EP_TYPE_MASK);
 395              		.loc 1 838 0
 396 0048 9A78     		ldrb	r2, [r3, #2]	@ zero_extendqisi2
 839:Generated_Source\PSoC5/USBFS_std.c ****                 
 397              		.loc 1 839 0
 398 004a 93F80390 		ldrb	r9, [r3, #3]	@ zero_extendqisi2
 838:Generated_Source\PSoC5/USBFS_std.c ****                 epType = ((uint8) pEP->attributes & USBFS_EP_TYPE_MASK);
 399              		.loc 1 838 0
 400 004e 02F07F02 		and	r2, r2, #127
 401              	.LVL25:
 842:Generated_Source\PSoC5/USBFS_std.c ****                 USBFS_EP[curEp].addr       = pEP->addr;
 402              		.loc 1 842 0
 403 0052 06FB02FA 		mul	r10, r6, r2
 404 0056 05EB0A01 		add	r1, r5, r10
 405 005a CF70     		strb	r7, [r1, #3]
 843:Generated_Source\PSoC5/USBFS_std.c ****                 USBFS_EP[curEp].attrib     = pEP->attributes;
 406              		.loc 1 843 0
 407 005c 93F802B0 		ldrb	fp, [r3, #2]	@ zero_extendqisi2
 839:Generated_Source\PSoC5/USBFS_std.c ****                 
 408              		.loc 1 839 0
 409 0060 09F00309 		and	r9, r9, #3
 410              	.LVL26:
 843:Generated_Source\PSoC5/USBFS_std.c ****                 USBFS_EP[curEp].attrib     = pEP->attributes;
 411              		.loc 1 843 0
ARM GAS  C:\Users\RABBIT~1\AppData\Local\Temp\ccIAjdRL.s 			page 26


 412 0064 81F804B0 		strb	fp, [r1, #4]
 844:Generated_Source\PSoC5/USBFS_std.c ****                 USBFS_EP[curEp].bufferSize = pEP->bufferSize;
 413              		.loc 1 844 0
 414 0068 93F803B0 		ldrb	fp, [r3, #3]	@ zero_extendqisi2
 415 006c 05F80AB0 		strb	fp, [r5, r10]
 845:Generated_Source\PSoC5/USBFS_std.c **** 
 416              		.loc 1 845 0
 417 0070 B3F804A0 		ldrh	r10, [r3, #4]
 418 0074 A1F808A0 		strh	r10, [r1, #8]	@ movhi
 847:Generated_Source\PSoC5/USBFS_std.c ****                 {
 419              		.loc 1 847 0
 420 0078 93F902A0 		ldrsb	r10, [r3, #2]
 421 007c BAF1000F 		cmp	r10, #0
 422 0080 0BDA     		bge	.L35
 850:Generated_Source\PSoC5/USBFS_std.c ****                     USBFS_EP[curEp].apiEpState = USBFS_EVENT_PENDING;
 423              		.loc 1 850 0
 424 0082 B9F1010F 		cmp	r9, #1
 425 0086 0CBF     		ite	eq
 426 0088 4FF00709 		moveq	r9, #7
 427              	.LVL27:
 428 008c 4FF00D09 		movne	r9, #13
 429 0090 81F80590 		strb	r9, [r1, #5]
 851:Generated_Source\PSoC5/USBFS_std.c ****                 }
 430              		.loc 1 851 0
 431 0094 81F801E0 		strb	lr, [r1, #1]
 432 0098 09E0     		b	.L37
 433              	.LVL28:
 434              	.L35:
 856:Generated_Source\PSoC5/USBFS_std.c ****                     USBFS_EP[curEp].apiEpState = USBFS_NO_EVENT_PENDING;
 435              		.loc 1 856 0
 436 009a B9F1010F 		cmp	r9, #1
 437 009e 0CBF     		ite	eq
 438 00a0 4FF00509 		moveq	r9, #5
 439              	.LVL29:
 440 00a4 4FF00909 		movne	r9, #9
 441 00a8 81F80590 		strb	r9, [r1, #5]
 857:Generated_Source\PSoC5/USBFS_std.c ****                 }
 442              		.loc 1 857 0
 443 00ac 4F70     		strb	r7, [r1, #1]
 444              	.L37:
 445 00ae 4FEA0219 		lsl	r9, r2, #4
 446 00b2 1A49     		ldr	r1, .L43+12
 907:Generated_Source\PSoC5/USBFS_std.c ****                 USBFS_SIE_EP_BASE.sieEp[curEp].epCnt1 = LO8(USBFS_EP[curEp].bufferSize);
 447              		.loc 1 907 0
 448 00b4 06FB0282 		mla	r2, r6, r2, r8
 449              	.LVL30:
 450 00b8 4944     		add	r1, r1, r9
 861:Generated_Source\PSoC5/USBFS_std.c **** 
 451              		.loc 1 861 0
 452 00ba 81F802E0 		strb	lr, [r1, #2]
 907:Generated_Source\PSoC5/USBFS_std.c ****                 USBFS_SIE_EP_BASE.sieEp[curEp].epCnt1 = LO8(USBFS_EP[curEp].bufferSize);
 453              		.loc 1 907 0
 454 00be B2F808A0 		ldrh	r10, [r2, #8]
 455 00c2 CAF3072A 		ubfx	r10, r10, #8, #8
 456 00c6 81F800A0 		strb	r10, [r1]
 908:Generated_Source\PSoC5/USBFS_std.c ****                 
 457              		.loc 1 908 0
ARM GAS  C:\Users\RABBIT~1\AppData\Local\Temp\ccIAjdRL.s 			page 27


 458 00ca B2F808A0 		ldrh	r10, [r2, #8]
 459 00ce 5FFA8AFA 		uxtb	r10, r10
 460 00d2 81F801A0 		strb	r10, [r1, #1]
 914:Generated_Source\PSoC5/USBFS_std.c ****                     USBFS_ARB_EP_BASE.arbEp[curEp].rwRaMsb = HI8(USBFS_EP[curEp].buffOffset);
 461              		.loc 1 914 0
 462 00d6 B2F806A0 		ldrh	r10, [r2, #6]
 463 00da 1149     		ldr	r1, .L43+16
 464 00dc 5FFA8AFA 		uxtb	r10, r10
 465 00e0 4944     		add	r1, r1, r9
 466 00e2 81F806A0 		strb	r10, [r1, #6]
 915:Generated_Source\PSoC5/USBFS_std.c ****                     USBFS_ARB_EP_BASE.arbEp[curEp].rwWa    = LO8(USBFS_EP[curEp].buffOffset);
 467              		.loc 1 915 0
 468 00e6 B2F80690 		ldrh	r9, [r2, #6]
 469 00ea C9F30729 		ubfx	r9, r9, #8, #8
 470 00ee 81F80790 		strb	r9, [r1, #7]
 916:Generated_Source\PSoC5/USBFS_std.c ****                     USBFS_ARB_EP_BASE.arbEp[curEp].rwWaMsb = HI8(USBFS_EP[curEp].buffOffset);
 471              		.loc 1 916 0
 472 00f2 B2F80690 		ldrh	r9, [r2, #6]
 473 00f6 5FFA89F9 		uxtb	r9, r9
 474 00fa 81F80490 		strb	r9, [r1, #4]
 917:Generated_Source\PSoC5/USBFS_std.c ****                 #endif /* (CY_PSOC4) */                
 475              		.loc 1 917 0
 476 00fe D288     		ldrh	r2, [r2, #6]
 477 0100 C2F30722 		ubfx	r2, r2, #8, #8
 478 0104 4A71     		strb	r2, [r1, #5]
 479              	.L34:
 922:Generated_Source\PSoC5/USBFS_std.c ****         }
 480              		.loc 1 922 0
 481 0106 0833     		adds	r3, r3, #8
 482              	.LVL31:
 483 0108 94E7     		b	.L33
 484              	.LVL32:
 485              	.L31:
 486 010a BDE8F88F 		pop	{r3, r4, r5, r6, r7, r8, r9, r10, fp, pc}
 487              	.L44:
 488 010e 00BF     		.align	2
 489              	.L43:
 490 0110 00000000 		.word	USBFS_configuration
 491 0114 00000000 		.word	USBFS_EP
 492 0118 00000000 		.word	USBFS_interfaceNumber
 493 011c FC5F0040 		.word	1073766396
 494 0120 70600040 		.word	1073766512
 495 0124 00000000 		.word	USBFS_interfaceSetting
 496              	.LBE7:
 497              	.LBE6:
 498              		.cfi_endproc
 499              	.LFE5:
 500              		.size	USBFS_ConfigAltChanged, .-USBFS_ConfigAltChanged
 501              		.section	.text.USBFS_GetDeviceTablePtr,"ax",%progbits
 502              		.align	1
 503              		.global	USBFS_GetDeviceTablePtr
 504              		.thumb
 505              		.thumb_func
 506              		.type	USBFS_GetDeviceTablePtr, %function
 507              	USBFS_GetDeviceTablePtr:
 508              	.LFB7:
 968:Generated_Source\PSoC5/USBFS_std.c **** 
ARM GAS  C:\Users\RABBIT~1\AppData\Local\Temp\ccIAjdRL.s 			page 28


 969:Generated_Source\PSoC5/USBFS_std.c **** 
 970:Generated_Source\PSoC5/USBFS_std.c **** #if (USBFS_BOS_ENABLE)
 971:Generated_Source\PSoC5/USBFS_std.c ****     /*******************************************************************************
 972:Generated_Source\PSoC5/USBFS_std.c ****     * Function Name: USBFS_GetBOSPtr
 973:Generated_Source\PSoC5/USBFS_std.c ****     ****************************************************************************//**
 974:Generated_Source\PSoC5/USBFS_std.c ****     *
 975:Generated_Source\PSoC5/USBFS_std.c ****     *  This routine returns a pointer a BOS table entry
 976:Generated_Source\PSoC5/USBFS_std.c ****     *
 977:Generated_Source\PSoC5/USBFS_std.c ****     *  
 978:Generated_Source\PSoC5/USBFS_std.c ****     *
 979:Generated_Source\PSoC5/USBFS_std.c ****     * \return
 980:Generated_Source\PSoC5/USBFS_std.c ****     *  BOS Descriptor pointer or NULL when descriptor does not exist.
 981:Generated_Source\PSoC5/USBFS_std.c ****     *
 982:Generated_Source\PSoC5/USBFS_std.c ****     *******************************************************************************/
 983:Generated_Source\PSoC5/USBFS_std.c ****     const T_USBFS_LUT CYCODE *USBFS_GetBOSPtr(void)
 984:Generated_Source\PSoC5/USBFS_std.c ****                                                             
 985:Generated_Source\PSoC5/USBFS_std.c ****     {
 986:Generated_Source\PSoC5/USBFS_std.c ****         /* Device Table */
 987:Generated_Source\PSoC5/USBFS_std.c ****         const T_USBFS_LUT CYCODE *pTmp;
 988:Generated_Source\PSoC5/USBFS_std.c **** 
 989:Generated_Source\PSoC5/USBFS_std.c ****         pTmp = (const T_USBFS_LUT CYCODE *) USBFS_TABLE[USBFS_device].p_list;
 990:Generated_Source\PSoC5/USBFS_std.c **** 
 991:Generated_Source\PSoC5/USBFS_std.c ****         /* The first entry points to the Device Descriptor,
 992:Generated_Source\PSoC5/USBFS_std.c ****         *  the second entry points to the BOS Descriptor
 993:Generated_Source\PSoC5/USBFS_std.c ****         */
 994:Generated_Source\PSoC5/USBFS_std.c ****         pTmp = &pTmp[1u];
 995:Generated_Source\PSoC5/USBFS_std.c ****         pTmp = (const T_USBFS_LUT CYCODE *) pTmp->p_list;
 996:Generated_Source\PSoC5/USBFS_std.c ****         return (pTmp);
 997:Generated_Source\PSoC5/USBFS_std.c ****     }
 998:Generated_Source\PSoC5/USBFS_std.c **** #endif /* (USBFS_BOS_ENABLE) */
 999:Generated_Source\PSoC5/USBFS_std.c **** 
1000:Generated_Source\PSoC5/USBFS_std.c **** 
1001:Generated_Source\PSoC5/USBFS_std.c **** /*******************************************************************************
1002:Generated_Source\PSoC5/USBFS_std.c **** * Function Name: USBFS_GetDeviceTablePtr
1003:Generated_Source\PSoC5/USBFS_std.c **** ****************************************************************************//**
1004:Generated_Source\PSoC5/USBFS_std.c **** *
1005:Generated_Source\PSoC5/USBFS_std.c **** *  This routine returns a pointer to the Device table
1006:Generated_Source\PSoC5/USBFS_std.c **** *
1007:Generated_Source\PSoC5/USBFS_std.c **** * \return
1008:Generated_Source\PSoC5/USBFS_std.c **** *  Device Table pointer
1009:Generated_Source\PSoC5/USBFS_std.c **** *
1010:Generated_Source\PSoC5/USBFS_std.c **** *******************************************************************************/
1011:Generated_Source\PSoC5/USBFS_std.c **** const T_USBFS_LUT CYCODE *USBFS_GetDeviceTablePtr(void)
1012:Generated_Source\PSoC5/USBFS_std.c ****                                                             
1013:Generated_Source\PSoC5/USBFS_std.c **** {
 509              		.loc 1 1013 0
 510              		.cfi_startproc
 511              		@ args = 0, pretend = 0, frame = 0
 512              		@ frame_needed = 0, uses_anonymous_args = 0
 513              		@ link register save eliminated.
1014:Generated_Source\PSoC5/USBFS_std.c ****     /* Device Table */
1015:Generated_Source\PSoC5/USBFS_std.c ****     return( (const T_USBFS_LUT CYCODE *) USBFS_TABLE[USBFS_device].p_list );
 514              		.loc 1 1015 0
 515 0000 034B     		ldr	r3, .L46
 516 0002 1A78     		ldrb	r2, [r3]	@ zero_extendqisi2
 517 0004 034B     		ldr	r3, .L46+4
 518 0006 03EBC203 		add	r3, r3, r2, lsl #3
ARM GAS  C:\Users\RABBIT~1\AppData\Local\Temp\ccIAjdRL.s 			page 29


1016:Generated_Source\PSoC5/USBFS_std.c **** }
 519              		.loc 1 1016 0
 520 000a 5868     		ldr	r0, [r3, #4]
 521 000c 7047     		bx	lr
 522              	.L47:
 523 000e 00BF     		.align	2
 524              	.L46:
 525 0010 00000000 		.word	USBFS_device
 526 0014 00000000 		.word	USBFS_TABLE
 527              		.cfi_endproc
 528              	.LFE7:
 529              		.size	USBFS_GetDeviceTablePtr, .-USBFS_GetDeviceTablePtr
 530              		.section	.text.USBFS_GetInterfaceClassTablePtr,"ax",%progbits
 531              		.align	1
 532              		.global	USBFS_GetInterfaceClassTablePtr
 533              		.thumb
 534              		.thumb_func
 535              		.type	USBFS_GetInterfaceClassTablePtr, %function
 536              	USBFS_GetInterfaceClassTablePtr:
 537              	.LFB8:
1017:Generated_Source\PSoC5/USBFS_std.c **** 
1018:Generated_Source\PSoC5/USBFS_std.c **** 
1019:Generated_Source\PSoC5/USBFS_std.c **** /*******************************************************************************
1020:Generated_Source\PSoC5/USBFS_std.c **** * Function Name: USB_GetInterfaceClassTablePtr
1021:Generated_Source\PSoC5/USBFS_std.c **** ****************************************************************************//**
1022:Generated_Source\PSoC5/USBFS_std.c **** *
1023:Generated_Source\PSoC5/USBFS_std.c **** *  This routine returns Interface Class table pointer, which contains
1024:Generated_Source\PSoC5/USBFS_std.c **** *  the relation between interface number and interface class.
1025:Generated_Source\PSoC5/USBFS_std.c **** *
1026:Generated_Source\PSoC5/USBFS_std.c **** * \return
1027:Generated_Source\PSoC5/USBFS_std.c **** *  Interface Class table pointer.
1028:Generated_Source\PSoC5/USBFS_std.c **** *
1029:Generated_Source\PSoC5/USBFS_std.c **** *******************************************************************************/
1030:Generated_Source\PSoC5/USBFS_std.c **** const uint8 CYCODE *USBFS_GetInterfaceClassTablePtr(void)
1031:Generated_Source\PSoC5/USBFS_std.c ****                                                         
1032:Generated_Source\PSoC5/USBFS_std.c **** {
 538              		.loc 1 1032 0
 539              		.cfi_startproc
 540              		@ args = 0, pretend = 0, frame = 0
 541              		@ frame_needed = 0, uses_anonymous_args = 0
 542 0000 08B5     		push	{r3, lr}
 543              		.cfi_def_cfa_offset 8
 544              		.cfi_offset 3, -8
 545              		.cfi_offset 14, -4
1033:Generated_Source\PSoC5/USBFS_std.c ****     const T_USBFS_LUT CYCODE *pTmp;
1034:Generated_Source\PSoC5/USBFS_std.c ****     const uint8 CYCODE *pInterfaceClass;
1035:Generated_Source\PSoC5/USBFS_std.c ****     uint8 currentInterfacesNum;
1036:Generated_Source\PSoC5/USBFS_std.c **** 
1037:Generated_Source\PSoC5/USBFS_std.c ****     pTmp = USBFS_GetConfigTablePtr(USBFS_configuration - 1u);
 546              		.loc 1 1037 0
 547 0002 064B     		ldr	r3, .L51
 548 0004 1878     		ldrb	r0, [r3]	@ zero_extendqisi2
 549 0006 0138     		subs	r0, r0, #1
 550 0008 C0B2     		uxtb	r0, r0
 551 000a FFF7FEFF 		bl	USBFS_GetConfigTablePtr
 552              	.LVL33:
1038:Generated_Source\PSoC5/USBFS_std.c ****     if (pTmp != NULL)
ARM GAS  C:\Users\RABBIT~1\AppData\Local\Temp\ccIAjdRL.s 			page 30


 553              		.loc 1 1038 0
 554 000e 20B1     		cbz	r0, .L49
 555              	.LVL34:
1039:Generated_Source\PSoC5/USBFS_std.c ****     {
1040:Generated_Source\PSoC5/USBFS_std.c ****         currentInterfacesNum  = ((const uint8 *) pTmp->p_list)[USBFS_CONFIG_DESCR_NUM_INTERFACES];
 556              		.loc 1 1040 0
 557 0010 4368     		ldr	r3, [r0, #4]
1041:Generated_Source\PSoC5/USBFS_std.c ****         /* Third entry in the LUT starts the Interface Table pointers */
1042:Generated_Source\PSoC5/USBFS_std.c ****         /* The INTERFACE_CLASS table is located after all interfaces */
1043:Generated_Source\PSoC5/USBFS_std.c ****         pTmp = &pTmp[currentInterfacesNum + 2u];
 558              		.loc 1 1043 0
 559 0012 1B79     		ldrb	r3, [r3, #4]	@ zero_extendqisi2
 560              	.LVL35:
1044:Generated_Source\PSoC5/USBFS_std.c ****         pInterfaceClass = (const uint8 CYCODE *) pTmp->p_list;
 561              		.loc 1 1044 0
 562 0014 00EBC300 		add	r0, r0, r3, lsl #3
 563              	.LVL36:
 564 0018 4069     		ldr	r0, [r0, #20]
 565              	.LVL37:
 566              	.L49:
1045:Generated_Source\PSoC5/USBFS_std.c ****     }
1046:Generated_Source\PSoC5/USBFS_std.c ****     else
1047:Generated_Source\PSoC5/USBFS_std.c ****     {
1048:Generated_Source\PSoC5/USBFS_std.c ****         pInterfaceClass = (const uint8 CYCODE *) NULL;
1049:Generated_Source\PSoC5/USBFS_std.c ****     }
1050:Generated_Source\PSoC5/USBFS_std.c **** 
1051:Generated_Source\PSoC5/USBFS_std.c ****     return (pInterfaceClass);
1052:Generated_Source\PSoC5/USBFS_std.c **** }
 567              		.loc 1 1052 0
 568 001a 08BD     		pop	{r3, pc}
 569              	.L52:
 570              		.align	2
 571              	.L51:
 572 001c 00000000 		.word	USBFS_configuration
 573              		.cfi_endproc
 574              	.LFE8:
 575              		.size	USBFS_GetInterfaceClassTablePtr, .-USBFS_GetInterfaceClassTablePtr
 576              		.section	.text.USBFS_Config,"ax",%progbits
 577              		.align	1
 578              		.global	USBFS_Config
 579              		.thumb
 580              		.thumb_func
 581              		.type	USBFS_Config, %function
 582              	USBFS_Config:
 583              	.LFB4:
 571:Generated_Source\PSoC5/USBFS_std.c ****     uint8 ep;
 584              		.loc 1 571 0
 585              		.cfi_startproc
 586              		@ args = 0, pretend = 0, frame = 0
 587              		@ frame_needed = 0, uses_anonymous_args = 0
 588              	.LVL38:
 589 0000 0021     		movs	r1, #0
 590 0002 2DE9F84F 		push	{r3, r4, r5, r6, r7, r8, r9, r10, fp, lr}
 591              		.cfi_def_cfa_offset 40
 592              		.cfi_offset 3, -40
 593              		.cfi_offset 4, -36
 594              		.cfi_offset 5, -32
ARM GAS  C:\Users\RABBIT~1\AppData\Local\Temp\ccIAjdRL.s 			page 31


 595              		.cfi_offset 6, -28
 596              		.cfi_offset 7, -24
 597              		.cfi_offset 8, -20
 598              		.cfi_offset 9, -16
 599              		.cfi_offset 10, -12
 600              		.cfi_offset 11, -8
 601              		.cfi_offset 14, -4
 588:Generated_Source\PSoC5/USBFS_std.c ****         USBFS_EP[ep].hwEpState  = 0u;
 602              		.loc 1 588 0
 603 0006 0B46     		mov	r3, r1
 604 0008 4C4E     		ldr	r6, .L83
 605 000a 0C27     		movs	r7, #12
 606              	.LVL39:
 607              	.L54:
 588:Generated_Source\PSoC5/USBFS_std.c ****         USBFS_EP[ep].hwEpState  = 0u;
 608              		.loc 1 588 0 is_stmt 0 discriminator 3
 609 000c 07FB01F5 		mul	r5, r7, r1
 610 0010 0131     		adds	r1, r1, #1
 611              	.LVL40:
 612 0012 7219     		adds	r2, r6, r5
 586:Generated_Source\PSoC5/USBFS_std.c ****     {
 613              		.loc 1 586 0 is_stmt 1 discriminator 3
 614 0014 0929     		cmp	r1, #9
 588:Generated_Source\PSoC5/USBFS_std.c ****         USBFS_EP[ep].hwEpState  = 0u;
 615              		.loc 1 588 0 discriminator 3
 616 0016 7355     		strb	r3, [r6, r5]
 617 0018 4FF00004 		mov	r4, #0
 589:Generated_Source\PSoC5/USBFS_std.c ****         USBFS_EP[ep].epToggle   = 0u;
 618              		.loc 1 589 0 discriminator 3
 619 001c 9370     		strb	r3, [r2, #2]
 620 001e 474D     		ldr	r5, .L83
 590:Generated_Source\PSoC5/USBFS_std.c ****         USBFS_EP[ep].bufferSize = 0u;
 621              		.loc 1 590 0 discriminator 3
 622 0020 D370     		strb	r3, [r2, #3]
 591:Generated_Source\PSoC5/USBFS_std.c ****         USBFS_EP[ep].interface  = 0u;
 623              		.loc 1 591 0 discriminator 3
 624 0022 1381     		strh	r3, [r2, #8]	@ movhi
 592:Generated_Source\PSoC5/USBFS_std.c ****         USBFS_EP[ep].apiEpState = USBFS_NO_EVENT_PENDING;
 625              		.loc 1 592 0 discriminator 3
 626 0024 9372     		strb	r3, [r2, #10]
 593:Generated_Source\PSoC5/USBFS_std.c ****         USBFS_EP[ep].epMode     = USBFS_MODE_DISABLE;   
 627              		.loc 1 593 0 discriminator 3
 628 0026 5370     		strb	r3, [r2, #1]
 594:Generated_Source\PSoC5/USBFS_std.c ****     }
 629              		.loc 1 594 0 discriminator 3
 630 0028 5371     		strb	r3, [r2, #5]
 586:Generated_Source\PSoC5/USBFS_std.c ****     {
 631              		.loc 1 586 0 discriminator 3
 632 002a EFD1     		bne	.L54
 598:Generated_Source\PSoC5/USBFS_std.c ****     {
 633              		.loc 1 598 0
 634 002c 18B1     		cbz	r0, .L55
 635              	.LVL41:
 602:Generated_Source\PSoC5/USBFS_std.c ****             USBFS_interfaceSettingLast[i] = 0u;
 636              		.loc 1 602 0 discriminator 3
 637 002e 444B     		ldr	r3, .L83+4
 638 0030 1C70     		strb	r4, [r3]
ARM GAS  C:\Users\RABBIT~1\AppData\Local\Temp\ccIAjdRL.s 			page 32


 603:Generated_Source\PSoC5/USBFS_std.c ****         }
 639              		.loc 1 603 0 discriminator 3
 640 0032 444B     		ldr	r3, .L83+8
 641 0034 1C70     		strb	r4, [r3]
 642              	.LVL42:
 643              	.L55:
 608:Generated_Source\PSoC5/USBFS_std.c ****     {
 644              		.loc 1 608 0
 645 0036 444B     		ldr	r3, .L83+12
 646 0038 1A78     		ldrb	r2, [r3]	@ zero_extendqisi2
 647 003a 002A     		cmp	r2, #0
 648 003c 7BD0     		beq	.L53
 649              	.LVL43:
 650              	.LBB10:
 651              	.LBB11:
 614:Generated_Source\PSoC5/USBFS_std.c ****         
 652              		.loc 1 614 0
 653 003e 1878     		ldrb	r0, [r3]	@ zero_extendqisi2
 654              	.LVL44:
 629:Generated_Source\PSoC5/USBFS_std.c **** 
 655              		.loc 1 629 0
 656 0040 0124     		movs	r4, #1
 614:Generated_Source\PSoC5/USBFS_std.c ****         
 657              		.loc 1 614 0
 658 0042 0138     		subs	r0, r0, #1
 659 0044 C0B2     		uxtb	r0, r0
 660 0046 FFF7FEFF 		bl	USBFS_GetConfigTablePtr
 661              	.LVL45:
 716:Generated_Source\PSoC5/USBFS_std.c ****                                 
 662              		.loc 1 716 0
 663 004a A046     		mov	r8, r4
 618:Generated_Source\PSoC5/USBFS_std.c ****         {
 664              		.loc 1 618 0
 665 004c 4368     		ldr	r3, [r0, #4]
 705:Generated_Source\PSoC5/USBFS_std.c ****                         {                            
 666              		.loc 1 705 0
 667 004e DFF8F0E0 		ldr	lr, .L83+4
 618:Generated_Source\PSoC5/USBFS_std.c ****         {
 668              		.loc 1 618 0
 669 0052 DB79     		ldrb	r3, [r3, #7]	@ zero_extendqisi2
 699:Generated_Source\PSoC5/USBFS_std.c ****                         {
 670              		.loc 1 699 0
 671 0054 0C27     		movs	r7, #12
 618:Generated_Source\PSoC5/USBFS_std.c ****         {
 672              		.loc 1 618 0
 673 0056 13F0400F 		tst	r3, #64
 674 005a 3C4B     		ldr	r3, .L83+16
 729:Generated_Source\PSoC5/USBFS_std.c ****                                 
 675              		.loc 1 729 0
 676 005c 4FF0000C 		mov	ip, #0
 620:Generated_Source\PSoC5/USBFS_std.c ****         }
 677              		.loc 1 620 0
 678 0060 1A78     		ldrb	r2, [r3]	@ zero_extendqisi2
 679 0062 14BF     		ite	ne
 680 0064 42F00102 		orrne	r2, r2, #1
 624:Generated_Source\PSoC5/USBFS_std.c ****         }
 681              		.loc 1 624 0
ARM GAS  C:\Users\RABBIT~1\AppData\Local\Temp\ccIAjdRL.s 			page 33


 682 0068 02F0FE02 		andeq	r2, r2, #254
 683 006c 1A70     		strb	r2, [r3]
 684              	.LVL46:
 685 006e 027A     		ldrb	r2, [r0, #8]	@ zero_extendqisi2
 686 0070 D200     		lsls	r2, r2, #3
 687              	.LVL47:
 688              	.L68:
 699:Generated_Source\PSoC5/USBFS_std.c ****                         {
 689              		.loc 1 699 0
 690 0072 07FB0451 		mla	r1, r7, r4, r5
 690:Generated_Source\PSoC5/USBFS_std.c ****                 /* Find max length for each EP and select it (length could be different in differen
 691              		.loc 1 690 0
 692 0076 C368     		ldr	r3, [r0, #12]
 693              	.LVL48:
 694 0078 03EB0209 		add	r9, r3, r2
 695              	.LVL49:
 696              	.L59:
 694:Generated_Source\PSoC5/USBFS_std.c ****                 {
 697              		.loc 1 694 0
 698 007c 4B45     		cmp	r3, r9
 699 007e 31D0     		beq	.L81
 696:Generated_Source\PSoC5/USBFS_std.c ****                     {
 700              		.loc 1 696 0
 701 0080 93F802A0 		ldrb	r10, [r3, #2]	@ zero_extendqisi2
 702 0084 0AF07F06 		and	r6, r10, #127
 703 0088 A642     		cmp	r6, r4
 704 008a 29D1     		bne	.L61
 699:Generated_Source\PSoC5/USBFS_std.c ****                         {
 705              		.loc 1 699 0
 706 008c 0E89     		ldrh	r6, [r1, #8]
 707 008e B3F804B0 		ldrh	fp, [r3, #4]
 708 0092 B6B2     		uxth	r6, r6
 709 0094 5E45     		cmp	r6, fp
 701:Generated_Source\PSoC5/USBFS_std.c ****                         }
 710              		.loc 1 701 0
 711 0096 38BF     		it	cc
 712 0098 A1F808B0 		strhcc	fp, [r1, #8]	@ movhi
 705:Generated_Source\PSoC5/USBFS_std.c ****                         {                            
 713              		.loc 1 705 0
 714 009c 1E78     		ldrb	r6, [r3]	@ zero_extendqisi2
 715 009e 93F801B0 		ldrb	fp, [r3, #1]	@ zero_extendqisi2
 716 00a2 1EF80660 		ldrb	r6, [lr, r6]	@ zero_extendqisi2
 717 00a6 B345     		cmp	fp, r6
 718 00a8 1AD1     		bne	.L61
 707:Generated_Source\PSoC5/USBFS_std.c ****                             USBFS_EP[i].attrib = pEP->attributes;
 719              		.loc 1 707 0
 720 00aa 81F804A0 		strb	r10, [r1, #4]
 708:Generated_Source\PSoC5/USBFS_std.c ****                             
 721              		.loc 1 708 0
 722 00ae DE78     		ldrb	r6, [r3, #3]	@ zero_extendqisi2
 723 00b0 0E70     		strb	r6, [r1]
 712:Generated_Source\PSoC5/USBFS_std.c ****                             {
 724              		.loc 1 712 0
 725 00b2 93F902A0 		ldrsb	r10, [r3, #2]
 710:Generated_Source\PSoC5/USBFS_std.c ****                             
 726              		.loc 1 710 0
 727 00b6 DE78     		ldrb	r6, [r3, #3]	@ zero_extendqisi2
ARM GAS  C:\Users\RABBIT~1\AppData\Local\Temp\ccIAjdRL.s 			page 34


 712:Generated_Source\PSoC5/USBFS_std.c ****                             {
 728              		.loc 1 712 0
 729 00b8 BAF1000F 		cmp	r10, #0
 710:Generated_Source\PSoC5/USBFS_std.c ****                             
 730              		.loc 1 710 0
 731 00bc 06F00306 		and	r6, r6, #3
 732              	.LVL50:
 712:Generated_Source\PSoC5/USBFS_std.c ****                             {
 733              		.loc 1 712 0
 734 00c0 07DA     		bge	.L64
 715:Generated_Source\PSoC5/USBFS_std.c ****                                 USBFS_EP[i].apiEpState = USBFS_EVENT_PENDING;
 735              		.loc 1 715 0
 736 00c2 012E     		cmp	r6, #1
 737 00c4 0CBF     		ite	eq
 738 00c6 0726     		moveq	r6, #7
 739              	.LVL51:
 740 00c8 0D26     		movne	r6, #13
 741 00ca 4E71     		strb	r6, [r1, #5]
 742              	.LVL52:
 716:Generated_Source\PSoC5/USBFS_std.c ****                                 
 743              		.loc 1 716 0
 744 00cc 81F80180 		strb	r8, [r1, #1]
 745 00d0 06E0     		b	.L61
 746              	.LVL53:
 747              	.L64:
 728:Generated_Source\PSoC5/USBFS_std.c ****                                 USBFS_EP[i].apiEpState = USBFS_NO_EVENT_PENDING;
 748              		.loc 1 728 0
 749 00d2 012E     		cmp	r6, #1
 750 00d4 0CBF     		ite	eq
 751 00d6 0526     		moveq	r6, #5
 752              	.LVL54:
 753 00d8 0926     		movne	r6, #9
 754 00da 4E71     		strb	r6, [r1, #5]
 755              	.LVL55:
 729:Generated_Source\PSoC5/USBFS_std.c ****                                 
 756              		.loc 1 729 0
 757 00dc 81F801C0 		strb	ip, [r1, #1]
 758              	.L61:
 752:Generated_Source\PSoC5/USBFS_std.c ****                 }
 759              		.loc 1 752 0
 760 00e0 0833     		adds	r3, r3, #8
 761              	.LVL56:
 762 00e2 CBE7     		b	.L59
 763              	.L81:
 764              	.LVL57:
 765 00e4 0134     		adds	r4, r4, #1
 766              	.LVL58:
 687:Generated_Source\PSoC5/USBFS_std.c ****             {
 767              		.loc 1 687 0
 768 00e6 092C     		cmp	r4, #9
 769 00e8 C3D1     		bne	.L68
 762:Generated_Source\PSoC5/USBFS_std.c ****         for (i = 0u; i < ep; i++)
 770              		.loc 1 762 0
 771 00ea C168     		ldr	r1, [r0, #12]
 772              	.LVL59:
 773 00ec 0A32     		adds	r2, r2, #10
 774 00ee 8B1C     		adds	r3, r1, #2
ARM GAS  C:\Users\RABBIT~1\AppData\Local\Temp\ccIAjdRL.s 			page 35


 775 00f0 0A44     		add	r2, r2, r1
 766:Generated_Source\PSoC5/USBFS_std.c ****             pEP = &pEP[1u];
 776              		.loc 1 766 0
 777 00f2 0C20     		movs	r0, #12
 778              	.LVL60:
 779              	.L69:
 780 00f4 0833     		adds	r3, r3, #8
 781              	.LVL61:
 763:Generated_Source\PSoC5/USBFS_std.c ****         {
 782              		.loc 1 763 0
 783 00f6 9342     		cmp	r3, r2
 784 00f8 09D0     		beq	.L82
 766:Generated_Source\PSoC5/USBFS_std.c ****             pEP = &pEP[1u];
 785              		.loc 1 766 0
 786 00fa 13F8081C 		ldrb	r1, [r3, #-8]	@ zero_extendqisi2
 787 00fe 13F80A4C 		ldrb	r4, [r3, #-10]	@ zero_extendqisi2
 788 0102 01F07F01 		and	r1, r1, #127
 789 0106 00FB0151 		mla	r1, r0, r1, r5
 790 010a 8C72     		strb	r4, [r1, #10]
 791              	.LVL62:
 792 010c F2E7     		b	.L69
 793              	.LVL63:
 794              	.L82:
 771:Generated_Source\PSoC5/USBFS_std.c ****         
 795              		.loc 1 771 0
 796 010e FFF7FEFF 		bl	USBFS_GetInterfaceClassTablePtr
 797              	.LVL64:
 798 0112 0F4B     		ldr	r3, .L83+20
 799 0114 0122     		movs	r2, #1
 800 0116 1860     		str	r0, [r3]
 801              	.LVL65:
 775:Generated_Source\PSoC5/USBFS_std.c ****         for (ep = USBFS_EP1; ep < USBFS_MAX_EP; ++ep)
 802              		.loc 1 775 0
 803 0118 0023     		movs	r3, #0
 778:Generated_Source\PSoC5/USBFS_std.c ****             buffCount += USBFS_EP[ep].bufferSize;
 804              		.loc 1 778 0
 805 011a 0C20     		movs	r0, #12
 806              	.LVL66:
 807              	.L71:
 808 011c 00FB0251 		mla	r1, r0, r2, r5
 809 0120 CB80     		strh	r3, [r1, #6]	@ movhi
 779:Generated_Source\PSoC5/USBFS_std.c ****             
 810              		.loc 1 779 0
 811 0122 0989     		ldrh	r1, [r1, #8]
 812 0124 0132     		adds	r2, r2, #1
 813              	.LVL67:
 814 0126 0B44     		add	r3, r3, r1
 815              	.LVL68:
 776:Generated_Source\PSoC5/USBFS_std.c ****         {
 816              		.loc 1 776 0
 817 0128 092A     		cmp	r2, #9
 779:Generated_Source\PSoC5/USBFS_std.c ****             
 818              		.loc 1 779 0
 819 012a 9BB2     		uxth	r3, r3
 820              	.LVL69:
 776:Generated_Source\PSoC5/USBFS_std.c ****         {
 821              		.loc 1 776 0
ARM GAS  C:\Users\RABBIT~1\AppData\Local\Temp\ccIAjdRL.s 			page 36


 822 012c F6D1     		bne	.L71
 823              	.LBE11:
 824              	.LBE10:
 791:Generated_Source\PSoC5/USBFS_std.c **** 
 825              		.loc 1 791 0
 826 012e BDE8F84F 		pop	{r3, r4, r5, r6, r7, r8, r9, r10, fp, lr}
 827              		.cfi_remember_state
 828              		.cfi_restore 14
 829              		.cfi_restore 11
 830              		.cfi_restore 10
 831              		.cfi_restore 9
 832              		.cfi_restore 8
 833              		.cfi_restore 7
 834              		.cfi_restore 6
 835              		.cfi_restore 5
 836              		.cfi_restore 4
 837              		.cfi_restore 3
 838              		.cfi_def_cfa_offset 0
 839              	.LVL70:
 840              	.LBB13:
 841              	.LBB12:
 789:Generated_Source\PSoC5/USBFS_std.c ****     }
 842              		.loc 1 789 0
 843 0132 FFF7FEBF 		b	USBFS_ConfigReg
 844              	.LVL71:
 845              	.L53:
 846              		.cfi_restore_state
 847 0136 BDE8F88F 		pop	{r3, r4, r5, r6, r7, r8, r9, r10, fp, pc}
 848              	.L84:
 849 013a 00BF     		.align	2
 850              	.L83:
 851 013c 00000000 		.word	USBFS_EP
 852 0140 00000000 		.word	USBFS_interfaceSetting
 853 0144 00000000 		.word	USBFS_interfaceSettingLast
 854 0148 00000000 		.word	USBFS_configuration
 855 014c 00000000 		.word	USBFS_deviceStatus
 856 0150 00000000 		.word	USBFS_interfaceClass
 857              	.LBE12:
 858              	.LBE13:
 859              		.cfi_endproc
 860              	.LFE4:
 861              		.size	USBFS_Config, .-USBFS_Config
 862              		.section	.text.USBFS_TerminateEP,"ax",%progbits
 863              		.align	1
 864              		.global	USBFS_TerminateEP
 865              		.thumb
 866              		.thumb_func
 867              		.type	USBFS_TerminateEP, %function
 868              	USBFS_TerminateEP:
 869              	.LFB9:
1053:Generated_Source\PSoC5/USBFS_std.c **** 
1054:Generated_Source\PSoC5/USBFS_std.c **** 
1055:Generated_Source\PSoC5/USBFS_std.c **** /*******************************************************************************
1056:Generated_Source\PSoC5/USBFS_std.c **** * Function Name: USBFS_TerminateEP
1057:Generated_Source\PSoC5/USBFS_std.c **** ****************************************************************************//**
1058:Generated_Source\PSoC5/USBFS_std.c **** *
1059:Generated_Source\PSoC5/USBFS_std.c **** *  This function terminates the specified USBFS endpoint.
ARM GAS  C:\Users\RABBIT~1\AppData\Local\Temp\ccIAjdRL.s 			page 37


1060:Generated_Source\PSoC5/USBFS_std.c **** *  This function should be used before endpoint reconfiguration.
1061:Generated_Source\PSoC5/USBFS_std.c **** *
1062:Generated_Source\PSoC5/USBFS_std.c **** *  \param ep Contains the data endpoint number.
1063:Generated_Source\PSoC5/USBFS_std.c **** *
1064:Generated_Source\PSoC5/USBFS_std.c **** *  \reentrant
1065:Generated_Source\PSoC5/USBFS_std.c **** *  No.
1066:Generated_Source\PSoC5/USBFS_std.c **** *
1067:Generated_Source\PSoC5/USBFS_std.c **** * \sideeffect
1068:Generated_Source\PSoC5/USBFS_std.c **** * 
1069:Generated_Source\PSoC5/USBFS_std.c **** * The device responds with a NAK for any transactions on the selected endpoint.
1070:Generated_Source\PSoC5/USBFS_std.c **** *   
1071:Generated_Source\PSoC5/USBFS_std.c **** *******************************************************************************/
1072:Generated_Source\PSoC5/USBFS_std.c **** void USBFS_TerminateEP(uint8 epNumber) 
1073:Generated_Source\PSoC5/USBFS_std.c **** {
 870              		.loc 1 1073 0
 871              		.cfi_startproc
 872              		@ args = 0, pretend = 0, frame = 0
 873              		@ frame_needed = 0, uses_anonymous_args = 0
 874              		@ link register save eliminated.
 875              	.LVL72:
1074:Generated_Source\PSoC5/USBFS_std.c ****     /* Get endpoint number */
1075:Generated_Source\PSoC5/USBFS_std.c ****     epNumber &= USBFS_DIR_UNUSED;
 876              		.loc 1 1075 0
 877 0000 00F07F00 		and	r0, r0, #127
 878              	.LVL73:
1076:Generated_Source\PSoC5/USBFS_std.c **** 
1077:Generated_Source\PSoC5/USBFS_std.c ****     if ((epNumber > USBFS_EP0) && (epNumber < USBFS_MAX_EP))
 879              		.loc 1 1077 0
 880 0004 431E     		subs	r3, r0, #1
 881 0006 072B     		cmp	r3, #7
 882 0008 15D8     		bhi	.L85
1078:Generated_Source\PSoC5/USBFS_std.c ****     {
1079:Generated_Source\PSoC5/USBFS_std.c ****         /* Set the endpoint Halt */
1080:Generated_Source\PSoC5/USBFS_std.c ****         USBFS_EP[epNumber].hwEpState |= USBFS_ENDPOINT_STATUS_HALT;
 883              		.loc 1 1080 0
 884 000a 0B4B     		ldr	r3, .L88
 885 000c 0C21     		movs	r1, #12
 886 000e 01FB0033 		mla	r3, r1, r0, r3
 887 0012 9A78     		ldrb	r2, [r3, #2]	@ zero_extendqisi2
 888 0014 0001     		lsls	r0, r0, #4
 889              	.LVL74:
 890 0016 42F00102 		orr	r2, r2, #1
 891 001a 9A70     		strb	r2, [r3, #2]
1081:Generated_Source\PSoC5/USBFS_std.c **** 
1082:Generated_Source\PSoC5/USBFS_std.c ****         /* Clear the data toggle */
1083:Generated_Source\PSoC5/USBFS_std.c ****         USBFS_EP[epNumber].epToggle = 0u;
 892              		.loc 1 1083 0
 893 001c 0022     		movs	r2, #0
 894 001e DA70     		strb	r2, [r3, #3]
1084:Generated_Source\PSoC5/USBFS_std.c ****         USBFS_EP[epNumber].apiEpState = USBFS_NO_EVENT_ALLOWED;
 895              		.loc 1 1084 0
 896 0020 0222     		movs	r2, #2
 897 0022 5A70     		strb	r2, [r3, #1]
1085:Generated_Source\PSoC5/USBFS_std.c **** 
1086:Generated_Source\PSoC5/USBFS_std.c ****         if ((USBFS_EP[epNumber].addr & USBFS_DIR_IN) != 0u)
 898              		.loc 1 1086 0
 899 0024 1B79     		ldrb	r3, [r3, #4]	@ zero_extendqisi2
ARM GAS  C:\Users\RABBIT~1\AppData\Local\Temp\ccIAjdRL.s 			page 38


 900 0026 13F0800F 		tst	r3, #128
1087:Generated_Source\PSoC5/USBFS_std.c ****         {   
1088:Generated_Source\PSoC5/USBFS_std.c ****             /* IN Endpoint */
1089:Generated_Source\PSoC5/USBFS_std.c ****             USBFS_SIE_EP_BASE.sieEp[epNumber].epCr0 = USBFS_MODE_NAK_IN;
 901              		.loc 1 1089 0
 902 002a 044B     		ldr	r3, .L88+4
1086:Generated_Source\PSoC5/USBFS_std.c ****         {   
 903              		.loc 1 1086 0
 904 002c 01D0     		beq	.L87
 905              		.loc 1 1089 0
 906 002e 1954     		strb	r1, [r3, r0]
 907 0030 7047     		bx	lr
 908              	.L87:
1090:Generated_Source\PSoC5/USBFS_std.c ****         }
1091:Generated_Source\PSoC5/USBFS_std.c ****         else
1092:Generated_Source\PSoC5/USBFS_std.c ****         {
1093:Generated_Source\PSoC5/USBFS_std.c ****             /* OUT Endpoint */
1094:Generated_Source\PSoC5/USBFS_std.c ****             USBFS_SIE_EP_BASE.sieEp[epNumber].epCr0 = USBFS_MODE_NAK_OUT;
 909              		.loc 1 1094 0
 910 0032 0822     		movs	r2, #8
 911 0034 1A54     		strb	r2, [r3, r0]
 912              	.L85:
 913 0036 7047     		bx	lr
 914              	.L89:
 915              		.align	2
 916              	.L88:
 917 0038 00000000 		.word	USBFS_EP
 918 003c FE5F0040 		.word	1073766398
 919              		.cfi_endproc
 920              	.LFE9:
 921              		.size	USBFS_TerminateEP, .-USBFS_TerminateEP
 922              		.section	.text.USBFS_SetEndpointHalt,"ax",%progbits
 923              		.align	1
 924              		.global	USBFS_SetEndpointHalt
 925              		.thumb
 926              		.thumb_func
 927              		.type	USBFS_SetEndpointHalt, %function
 928              	USBFS_SetEndpointHalt:
 929              	.LFB10:
1095:Generated_Source\PSoC5/USBFS_std.c ****         }
1096:Generated_Source\PSoC5/USBFS_std.c ****     }
1097:Generated_Source\PSoC5/USBFS_std.c **** }
1098:Generated_Source\PSoC5/USBFS_std.c **** 
1099:Generated_Source\PSoC5/USBFS_std.c **** 
1100:Generated_Source\PSoC5/USBFS_std.c **** /*******************************************************************************
1101:Generated_Source\PSoC5/USBFS_std.c **** * Function Name: USBFS_SetEndpointHalt
1102:Generated_Source\PSoC5/USBFS_std.c **** ****************************************************************************//**
1103:Generated_Source\PSoC5/USBFS_std.c **** *
1104:Generated_Source\PSoC5/USBFS_std.c **** *  This routine handles set endpoint halt.
1105:Generated_Source\PSoC5/USBFS_std.c **** *
1106:Generated_Source\PSoC5/USBFS_std.c **** * \return
1107:Generated_Source\PSoC5/USBFS_std.c **** *  requestHandled.
1108:Generated_Source\PSoC5/USBFS_std.c **** *
1109:Generated_Source\PSoC5/USBFS_std.c **** * \reentrant
1110:Generated_Source\PSoC5/USBFS_std.c **** *  No.
1111:Generated_Source\PSoC5/USBFS_std.c **** *
1112:Generated_Source\PSoC5/USBFS_std.c **** *******************************************************************************/
ARM GAS  C:\Users\RABBIT~1\AppData\Local\Temp\ccIAjdRL.s 			page 39


1113:Generated_Source\PSoC5/USBFS_std.c **** uint8 USBFS_SetEndpointHalt(void) 
1114:Generated_Source\PSoC5/USBFS_std.c **** {
 930              		.loc 1 1114 0
 931              		.cfi_startproc
 932              		@ args = 0, pretend = 0, frame = 0
 933              		@ frame_needed = 0, uses_anonymous_args = 0
 934              		@ link register save eliminated.
 935              	.LVL75:
1115:Generated_Source\PSoC5/USBFS_std.c ****     uint8 requestHandled = USBFS_FALSE;
1116:Generated_Source\PSoC5/USBFS_std.c ****     uint8 ep;
1117:Generated_Source\PSoC5/USBFS_std.c ****     
1118:Generated_Source\PSoC5/USBFS_std.c ****     /* Set endpoint halt */
1119:Generated_Source\PSoC5/USBFS_std.c ****     ep = USBFS_wIndexLoReg & USBFS_DIR_UNUSED;
 936              		.loc 1 1119 0
 937 0000 114B     		ldr	r3, .L95
 938 0002 1B79     		ldrb	r3, [r3, #4]	@ zero_extendqisi2
 939 0004 03F07F03 		and	r3, r3, #127
 940              	.LVL76:
1120:Generated_Source\PSoC5/USBFS_std.c **** 
1121:Generated_Source\PSoC5/USBFS_std.c ****     if ((ep > USBFS_EP0) && (ep < USBFS_MAX_EP))
 941              		.loc 1 1121 0
 942 0008 5A1E     		subs	r2, r3, #1
 943 000a 072A     		cmp	r2, #7
 944 000c 19D8     		bhi	.L91
1122:Generated_Source\PSoC5/USBFS_std.c ****     {
1123:Generated_Source\PSoC5/USBFS_std.c ****         /* Set the endpoint Halt */
1124:Generated_Source\PSoC5/USBFS_std.c ****         USBFS_EP[ep].hwEpState |= (USBFS_ENDPOINT_STATUS_HALT);
 945              		.loc 1 1124 0
 946 000e 0F49     		ldr	r1, .L95+4
 947 0010 0C22     		movs	r2, #12
 948 0012 02FB0312 		mla	r2, r2, r3, r1
 949 0016 9178     		ldrb	r1, [r2, #2]	@ zero_extendqisi2
 950 0018 1B01     		lsls	r3, r3, #4
 951              	.LVL77:
 952 001a 41F00101 		orr	r1, r1, #1
 953 001e 9170     		strb	r1, [r2, #2]
1125:Generated_Source\PSoC5/USBFS_std.c **** 
1126:Generated_Source\PSoC5/USBFS_std.c ****         /* Clear the data toggle */
1127:Generated_Source\PSoC5/USBFS_std.c ****         USBFS_EP[ep].epToggle = 0u;
 954              		.loc 1 1127 0
 955 0020 0021     		movs	r1, #0
 956 0022 D170     		strb	r1, [r2, #3]
1128:Generated_Source\PSoC5/USBFS_std.c ****         USBFS_EP[ep].apiEpState |= USBFS_NO_EVENT_ALLOWED;
 957              		.loc 1 1128 0
 958 0024 5178     		ldrb	r1, [r2, #1]	@ zero_extendqisi2
 959 0026 41F00201 		orr	r1, r1, #2
 960 002a 5170     		strb	r1, [r2, #1]
1129:Generated_Source\PSoC5/USBFS_std.c **** 
1130:Generated_Source\PSoC5/USBFS_std.c ****         if ((USBFS_EP[ep].addr & USBFS_DIR_IN) != 0u)
 961              		.loc 1 1130 0
 962 002c 1279     		ldrb	r2, [r2, #4]	@ zero_extendqisi2
 963 002e 12F0800F 		tst	r2, #128
1131:Generated_Source\PSoC5/USBFS_std.c ****         {
1132:Generated_Source\PSoC5/USBFS_std.c ****             /* IN Endpoint */
1133:Generated_Source\PSoC5/USBFS_std.c ****             USBFS_SIE_EP_BASE.sieEp[ep].epCr0 = (USBFS_MODE_STALL_DATA_EP | 
 964              		.loc 1 1133 0
 965 0032 074A     		ldr	r2, .L95+8
ARM GAS  C:\Users\RABBIT~1\AppData\Local\Temp\ccIAjdRL.s 			page 40


 966 0034 1A44     		add	r2, r2, r3
 967 0036 14BF     		ite	ne
 968 0038 8D23     		movne	r3, #141
1134:Generated_Source\PSoC5/USBFS_std.c ****                                                             USBFS_MODE_ACK_IN);
1135:Generated_Source\PSoC5/USBFS_std.c ****         }
1136:Generated_Source\PSoC5/USBFS_std.c ****         else
1137:Generated_Source\PSoC5/USBFS_std.c ****         {
1138:Generated_Source\PSoC5/USBFS_std.c ****             /* OUT Endpoint */
1139:Generated_Source\PSoC5/USBFS_std.c ****             USBFS_SIE_EP_BASE.sieEp[ep].epCr0 = (USBFS_MODE_STALL_DATA_EP | 
 969              		.loc 1 1139 0
 970 003a 8923     		moveq	r3, #137
 971 003c 9370     		strb	r3, [r2, #2]
1140:Generated_Source\PSoC5/USBFS_std.c ****                                                             USBFS_MODE_ACK_OUT);
1141:Generated_Source\PSoC5/USBFS_std.c ****         }
1142:Generated_Source\PSoC5/USBFS_std.c ****         requestHandled = USBFS_InitNoDataControlTransfer();
 972              		.loc 1 1142 0
 973 003e FFF7FEBF 		b	USBFS_InitNoDataControlTransfer
 974              	.LVL78:
 975              	.L91:
1143:Generated_Source\PSoC5/USBFS_std.c ****     }
1144:Generated_Source\PSoC5/USBFS_std.c **** 
1145:Generated_Source\PSoC5/USBFS_std.c ****     return (requestHandled);
1146:Generated_Source\PSoC5/USBFS_std.c **** }
 976              		.loc 1 1146 0
 977 0042 0020     		movs	r0, #0
 978 0044 7047     		bx	lr
 979              	.L96:
 980 0046 00BF     		.align	2
 981              	.L95:
 982 0048 00600040 		.word	1073766400
 983 004c 00000000 		.word	USBFS_EP
 984 0050 FC5F0040 		.word	1073766396
 985              		.cfi_endproc
 986              	.LFE10:
 987              		.size	USBFS_SetEndpointHalt, .-USBFS_SetEndpointHalt
 988              		.section	.text.USBFS_ClearEndpointHalt,"ax",%progbits
 989              		.align	1
 990              		.global	USBFS_ClearEndpointHalt
 991              		.thumb
 992              		.thumb_func
 993              		.type	USBFS_ClearEndpointHalt, %function
 994              	USBFS_ClearEndpointHalt:
 995              	.LFB11:
1147:Generated_Source\PSoC5/USBFS_std.c **** 
1148:Generated_Source\PSoC5/USBFS_std.c **** 
1149:Generated_Source\PSoC5/USBFS_std.c **** /*******************************************************************************
1150:Generated_Source\PSoC5/USBFS_std.c **** * Function Name: USBFS_ClearEndpointHalt
1151:Generated_Source\PSoC5/USBFS_std.c **** ****************************************************************************//**
1152:Generated_Source\PSoC5/USBFS_std.c **** *
1153:Generated_Source\PSoC5/USBFS_std.c **** *  This routine handles clear endpoint halt.
1154:Generated_Source\PSoC5/USBFS_std.c **** *
1155:Generated_Source\PSoC5/USBFS_std.c **** * \return
1156:Generated_Source\PSoC5/USBFS_std.c **** *  requestHandled.
1157:Generated_Source\PSoC5/USBFS_std.c **** *
1158:Generated_Source\PSoC5/USBFS_std.c **** * \reentrant
1159:Generated_Source\PSoC5/USBFS_std.c **** *  No.
1160:Generated_Source\PSoC5/USBFS_std.c **** *
ARM GAS  C:\Users\RABBIT~1\AppData\Local\Temp\ccIAjdRL.s 			page 41


1161:Generated_Source\PSoC5/USBFS_std.c **** *******************************************************************************/
1162:Generated_Source\PSoC5/USBFS_std.c **** uint8 USBFS_ClearEndpointHalt(void) 
1163:Generated_Source\PSoC5/USBFS_std.c **** {
 996              		.loc 1 1163 0
 997              		.cfi_startproc
 998              		@ args = 0, pretend = 0, frame = 0
 999              		@ frame_needed = 0, uses_anonymous_args = 0
 1000              		@ link register save eliminated.
 1001              	.LVL79:
 1002 0000 30B4     		push	{r4, r5}
 1003              		.cfi_def_cfa_offset 8
 1004              		.cfi_offset 4, -8
 1005              		.cfi_offset 5, -4
1164:Generated_Source\PSoC5/USBFS_std.c ****     uint8 requestHandled = USBFS_FALSE;
1165:Generated_Source\PSoC5/USBFS_std.c ****     uint8 ep;
1166:Generated_Source\PSoC5/USBFS_std.c **** 
1167:Generated_Source\PSoC5/USBFS_std.c ****     /* Clear endpoint halt */
1168:Generated_Source\PSoC5/USBFS_std.c ****     ep = USBFS_wIndexLoReg & USBFS_DIR_UNUSED;
 1006              		.loc 1 1168 0
 1007 0002 194B     		ldr	r3, .L104
 1008 0004 1A79     		ldrb	r2, [r3, #4]	@ zero_extendqisi2
 1009 0006 02F07F02 		and	r2, r2, #127
 1010              	.LVL80:
1169:Generated_Source\PSoC5/USBFS_std.c **** 
1170:Generated_Source\PSoC5/USBFS_std.c ****     if ((ep > USBFS_EP0) && (ep < USBFS_MAX_EP))
 1011              		.loc 1 1170 0
 1012 000a 531E     		subs	r3, r2, #1
 1013 000c 072B     		cmp	r3, #7
 1014 000e 27D8     		bhi	.L98
1171:Generated_Source\PSoC5/USBFS_std.c ****     {
1172:Generated_Source\PSoC5/USBFS_std.c ****         /* Clear the endpoint Halt */
1173:Generated_Source\PSoC5/USBFS_std.c ****         USBFS_EP[ep].hwEpState &= (uint8) ~USBFS_ENDPOINT_STATUS_HALT;
 1015              		.loc 1 1173 0
 1016 0010 164B     		ldr	r3, .L104+4
 1017 0012 0C24     		movs	r4, #12
 1018 0014 04FB0233 		mla	r3, r4, r2, r3
 1019 0018 9978     		ldrb	r1, [r3, #2]	@ zero_extendqisi2
 1020 001a 154D     		ldr	r5, .L104+8
 1021 001c 01F0FE01 		and	r1, r1, #254
 1022 0020 9970     		strb	r1, [r3, #2]
1174:Generated_Source\PSoC5/USBFS_std.c **** 
1175:Generated_Source\PSoC5/USBFS_std.c ****         /* Clear the data toggle */
1176:Generated_Source\PSoC5/USBFS_std.c ****         USBFS_EP[ep].epToggle = 0u;
 1023              		.loc 1 1176 0
 1024 0022 0021     		movs	r1, #0
 1025 0024 D970     		strb	r1, [r3, #3]
 1026 0026 2946     		mov	r1, r5
 1027 0028 1201     		lsls	r2, r2, #4
 1028              	.LVL81:
1177:Generated_Source\PSoC5/USBFS_std.c ****         
1178:Generated_Source\PSoC5/USBFS_std.c ****         /* Clear toggle bit for already armed packet */
1179:Generated_Source\PSoC5/USBFS_std.c ****         USBFS_SIE_EP_BASE.sieEp[ep].epCnt0 &= (uint8) ~(uint8)USBFS_EPX_CNT_DATA_TOGGLE;
 1029              		.loc 1 1179 0
 1030 002a 505D     		ldrb	r0, [r2, r5]	@ zero_extendqisi2
 1031 002c 1144     		add	r1, r1, r2
 1032 002e 00F07F00 		and	r0, r0, #127
 1033 0032 5055     		strb	r0, [r2, r5]
ARM GAS  C:\Users\RABBIT~1\AppData\Local\Temp\ccIAjdRL.s 			page 42


1180:Generated_Source\PSoC5/USBFS_std.c ****         
1181:Generated_Source\PSoC5/USBFS_std.c ****         /* Return API State as it was defined before */
1182:Generated_Source\PSoC5/USBFS_std.c ****         USBFS_EP[ep].apiEpState &= (uint8) ~USBFS_NO_EVENT_ALLOWED;
 1034              		.loc 1 1182 0
 1035 0034 5A78     		ldrb	r2, [r3, #1]	@ zero_extendqisi2
 1036 0036 02F0FD02 		and	r2, r2, #253
 1037 003a 5A70     		strb	r2, [r3, #1]
1183:Generated_Source\PSoC5/USBFS_std.c **** 
1184:Generated_Source\PSoC5/USBFS_std.c ****         if ((USBFS_EP[ep].addr & USBFS_DIR_IN) != 0u)
 1038              		.loc 1 1184 0
 1039 003c 1A79     		ldrb	r2, [r3, #4]	@ zero_extendqisi2
1185:Generated_Source\PSoC5/USBFS_std.c ****         {
1186:Generated_Source\PSoC5/USBFS_std.c ****             /* IN Endpoint */
1187:Generated_Source\PSoC5/USBFS_std.c ****             if(USBFS_EP[ep].apiEpState == USBFS_IN_BUFFER_EMPTY)
 1040              		.loc 1 1187 0
 1041 003e 5B78     		ldrb	r3, [r3, #1]	@ zero_extendqisi2
1184:Generated_Source\PSoC5/USBFS_std.c ****         {
 1042              		.loc 1 1184 0
 1043 0040 1206     		lsls	r2, r2, #24
 1044 0042 05D5     		bpl	.L99
 1045              		.loc 1 1187 0
 1046 0044 012B     		cmp	r3, #1
 1047 0046 01D1     		bne	.L100
1188:Generated_Source\PSoC5/USBFS_std.c ****             {       
1189:Generated_Source\PSoC5/USBFS_std.c ****                 /* Wait for next packet from application */
1190:Generated_Source\PSoC5/USBFS_std.c ****                 USBFS_SIE_EP_BASE.sieEp[ep].epCr0 = USBFS_MODE_NAK_IN;
 1048              		.loc 1 1190 0
 1049 0048 8C70     		strb	r4, [r1, #2]
 1050 004a 06E0     		b	.L101
 1051              	.L100:
1191:Generated_Source\PSoC5/USBFS_std.c ****             }
1192:Generated_Source\PSoC5/USBFS_std.c ****             else    /* Continue armed transfer */
1193:Generated_Source\PSoC5/USBFS_std.c ****             {
1194:Generated_Source\PSoC5/USBFS_std.c ****                 USBFS_SIE_EP_BASE.sieEp[ep].epCr0 = USBFS_MODE_ACK_IN;
 1052              		.loc 1 1194 0
 1053 004c 0D23     		movs	r3, #13
 1054 004e 03E0     		b	.L103
 1055              	.L99:
1195:Generated_Source\PSoC5/USBFS_std.c ****             }
1196:Generated_Source\PSoC5/USBFS_std.c ****         }
1197:Generated_Source\PSoC5/USBFS_std.c ****         else
1198:Generated_Source\PSoC5/USBFS_std.c ****         {
1199:Generated_Source\PSoC5/USBFS_std.c ****             /* OUT Endpoint */
1200:Generated_Source\PSoC5/USBFS_std.c ****             if (USBFS_EP[ep].apiEpState == USBFS_OUT_BUFFER_FULL)
 1056              		.loc 1 1200 0
 1057 0050 012B     		cmp	r3, #1
1201:Generated_Source\PSoC5/USBFS_std.c ****             {       
1202:Generated_Source\PSoC5/USBFS_std.c ****                 /* Allow application to read full buffer */
1203:Generated_Source\PSoC5/USBFS_std.c ****                 USBFS_SIE_EP_BASE.sieEp[ep].epCr0 = USBFS_MODE_NAK_OUT;
 1058              		.loc 1 1203 0
 1059 0052 0CBF     		ite	eq
 1060 0054 0823     		moveq	r3, #8
1204:Generated_Source\PSoC5/USBFS_std.c ****             }
1205:Generated_Source\PSoC5/USBFS_std.c ****             else    /* Mark endpoint as empty, so it will be reloaded */
1206:Generated_Source\PSoC5/USBFS_std.c ****             {
1207:Generated_Source\PSoC5/USBFS_std.c ****                 USBFS_SIE_EP_BASE.sieEp[ep].epCr0 = USBFS_MODE_ACK_OUT;
 1061              		.loc 1 1207 0
ARM GAS  C:\Users\RABBIT~1\AppData\Local\Temp\ccIAjdRL.s 			page 43


 1062 0056 0923     		movne	r3, #9
 1063              	.L103:
 1064 0058 8B70     		strb	r3, [r1, #2]
 1065              	.L101:
1208:Generated_Source\PSoC5/USBFS_std.c ****             }
1209:Generated_Source\PSoC5/USBFS_std.c ****         }
1210:Generated_Source\PSoC5/USBFS_std.c ****         
1211:Generated_Source\PSoC5/USBFS_std.c ****         requestHandled = USBFS_InitNoDataControlTransfer();
1212:Generated_Source\PSoC5/USBFS_std.c ****     }
1213:Generated_Source\PSoC5/USBFS_std.c **** 
1214:Generated_Source\PSoC5/USBFS_std.c ****     return(requestHandled);
1215:Generated_Source\PSoC5/USBFS_std.c **** }
 1066              		.loc 1 1215 0
 1067 005a 30BC     		pop	{r4, r5}
 1068              		.cfi_remember_state
 1069              		.cfi_restore 5
 1070              		.cfi_restore 4
 1071              		.cfi_def_cfa_offset 0
1211:Generated_Source\PSoC5/USBFS_std.c ****     }
 1072              		.loc 1 1211 0
 1073 005c FFF7FEBF 		b	USBFS_InitNoDataControlTransfer
 1074              	.LVL82:
 1075              	.L98:
 1076              		.cfi_restore_state
 1077              		.loc 1 1215 0
 1078 0060 0020     		movs	r0, #0
 1079 0062 30BC     		pop	{r4, r5}
 1080              		.cfi_restore 5
 1081              		.cfi_restore 4
 1082              		.cfi_def_cfa_offset 0
 1083 0064 7047     		bx	lr
 1084              	.L105:
 1085 0066 00BF     		.align	2
 1086              	.L104:
 1087 0068 00600040 		.word	1073766400
 1088 006c 00000000 		.word	USBFS_EP
 1089 0070 FC5F0040 		.word	1073766396
 1090              		.cfi_endproc
 1091              	.LFE11:
 1092              		.size	USBFS_ClearEndpointHalt, .-USBFS_ClearEndpointHalt
 1093              		.section	.text.USBFS_ValidateAlternateSetting,"ax",%progbits
 1094              		.align	1
 1095              		.global	USBFS_ValidateAlternateSetting
 1096              		.thumb
 1097              		.thumb_func
 1098              		.type	USBFS_ValidateAlternateSetting, %function
 1099              	USBFS_ValidateAlternateSetting:
 1100              	.LFB12:
1216:Generated_Source\PSoC5/USBFS_std.c **** 
1217:Generated_Source\PSoC5/USBFS_std.c **** 
1218:Generated_Source\PSoC5/USBFS_std.c **** /*******************************************************************************
1219:Generated_Source\PSoC5/USBFS_std.c **** * Function Name: USBFS_ValidateAlternateSetting
1220:Generated_Source\PSoC5/USBFS_std.c **** ****************************************************************************//**
1221:Generated_Source\PSoC5/USBFS_std.c **** *
1222:Generated_Source\PSoC5/USBFS_std.c **** *  Validates (and records) a SET INTERFACE request.
1223:Generated_Source\PSoC5/USBFS_std.c **** *
1224:Generated_Source\PSoC5/USBFS_std.c **** * \return
ARM GAS  C:\Users\RABBIT~1\AppData\Local\Temp\ccIAjdRL.s 			page 44


1225:Generated_Source\PSoC5/USBFS_std.c **** *  requestHandled.
1226:Generated_Source\PSoC5/USBFS_std.c **** *
1227:Generated_Source\PSoC5/USBFS_std.c **** * \reentrant
1228:Generated_Source\PSoC5/USBFS_std.c **** *  No.
1229:Generated_Source\PSoC5/USBFS_std.c **** *
1230:Generated_Source\PSoC5/USBFS_std.c **** *******************************************************************************/
1231:Generated_Source\PSoC5/USBFS_std.c **** uint8 USBFS_ValidateAlternateSetting(void) 
1232:Generated_Source\PSoC5/USBFS_std.c **** {
 1101              		.loc 1 1232 0
 1102              		.cfi_startproc
 1103              		@ args = 0, pretend = 0, frame = 0
 1104              		@ frame_needed = 0, uses_anonymous_args = 0
 1105              	.LVL83:
 1106 0000 10B5     		push	{r4, lr}
 1107              		.cfi_def_cfa_offset 8
 1108              		.cfi_offset 4, -8
 1109              		.cfi_offset 14, -4
1233:Generated_Source\PSoC5/USBFS_std.c ****     uint8 requestHandled = USBFS_FALSE;
1234:Generated_Source\PSoC5/USBFS_std.c ****     
1235:Generated_Source\PSoC5/USBFS_std.c ****     uint8 interfaceNum;
1236:Generated_Source\PSoC5/USBFS_std.c ****     uint8 curInterfacesNum;
1237:Generated_Source\PSoC5/USBFS_std.c ****     const T_USBFS_LUT CYCODE *pTmp;
1238:Generated_Source\PSoC5/USBFS_std.c ****     
1239:Generated_Source\PSoC5/USBFS_std.c ****     /* Get interface number from the request. */
1240:Generated_Source\PSoC5/USBFS_std.c ****     interfaceNum = (uint8) USBFS_wIndexLoReg;
1241:Generated_Source\PSoC5/USBFS_std.c ****     
1242:Generated_Source\PSoC5/USBFS_std.c ****     /* Get number of interfaces for current configuration. */
1243:Generated_Source\PSoC5/USBFS_std.c ****     pTmp = USBFS_GetConfigTablePtr(USBFS_configuration - 1u);
 1110              		.loc 1 1243 0
 1111 0002 0D4B     		ldr	r3, .L110
1240:Generated_Source\PSoC5/USBFS_std.c ****     
 1112              		.loc 1 1240 0
 1113 0004 0D4C     		ldr	r4, .L110+4
 1114 0006 2179     		ldrb	r1, [r4, #4]	@ zero_extendqisi2
 1115              		.loc 1 1243 0
 1116 0008 1878     		ldrb	r0, [r3]	@ zero_extendqisi2
1240:Generated_Source\PSoC5/USBFS_std.c ****     
 1117              		.loc 1 1240 0
 1118 000a C9B2     		uxtb	r1, r1
 1119              	.LVL84:
 1120              		.loc 1 1243 0
 1121 000c 0138     		subs	r0, r0, #1
 1122 000e C0B2     		uxtb	r0, r0
 1123 0010 FFF7FEFF 		bl	USBFS_GetConfigTablePtr
 1124              	.LVL85:
1244:Generated_Source\PSoC5/USBFS_std.c ****     curInterfacesNum  = ((const uint8 *) pTmp->p_list)[USBFS_CONFIG_DESCR_NUM_INTERFACES];
 1125              		.loc 1 1244 0
 1126 0014 4368     		ldr	r3, [r0, #4]
1245:Generated_Source\PSoC5/USBFS_std.c **** 
1246:Generated_Source\PSoC5/USBFS_std.c ****     /* Validate that interface number is within range. */
1247:Generated_Source\PSoC5/USBFS_std.c ****     if ((interfaceNum <= curInterfacesNum) || (interfaceNum <= USBFS_MAX_INTERFACES_NUMBER))
 1127              		.loc 1 1247 0
 1128 0016 1B79     		ldrb	r3, [r3, #4]	@ zero_extendqisi2
 1129 0018 8B42     		cmp	r3, r1
 1130 001a 01D2     		bcs	.L107
 1131              		.loc 1 1247 0 is_stmt 0 discriminator 1
 1132 001c 0129     		cmp	r1, #1
ARM GAS  C:\Users\RABBIT~1\AppData\Local\Temp\ccIAjdRL.s 			page 45


 1133 001e 09D8     		bhi	.L109
 1134              	.L107:
1248:Generated_Source\PSoC5/USBFS_std.c ****     {
1249:Generated_Source\PSoC5/USBFS_std.c ****         /* Save current and new alternate settings (come with request) to make 
1250:Generated_Source\PSoC5/USBFS_std.c ****         * desicion about following endpoint re-configuration.
1251:Generated_Source\PSoC5/USBFS_std.c ****         */
1252:Generated_Source\PSoC5/USBFS_std.c ****         USBFS_interfaceSettingLast[interfaceNum] = USBFS_interfaceSetting[interfaceNum];
 1135              		.loc 1 1252 0 is_stmt 1
 1136 0020 074A     		ldr	r2, .L110+8
 1137 0022 0848     		ldr	r0, .L110+12
 1138              	.LVL86:
 1139 0024 535C     		ldrb	r3, [r2, r1]	@ zero_extendqisi2
 1140              	.LVL87:
 1141 0026 DBB2     		uxtb	r3, r3
 1142 0028 4354     		strb	r3, [r0, r1]
1253:Generated_Source\PSoC5/USBFS_std.c ****         USBFS_interfaceSetting[interfaceNum]     = (uint8) USBFS_wValueLoReg;
 1143              		.loc 1 1253 0
 1144 002a A378     		ldrb	r3, [r4, #2]	@ zero_extendqisi2
1254:Generated_Source\PSoC5/USBFS_std.c ****         
1255:Generated_Source\PSoC5/USBFS_std.c ****         requestHandled = USBFS_TRUE;
 1145              		.loc 1 1255 0
 1146 002c 0120     		movs	r0, #1
1253:Generated_Source\PSoC5/USBFS_std.c ****         USBFS_interfaceSetting[interfaceNum]     = (uint8) USBFS_wValueLoReg;
 1147              		.loc 1 1253 0
 1148 002e DBB2     		uxtb	r3, r3
 1149 0030 5354     		strb	r3, [r2, r1]
 1150              	.LVL88:
 1151 0032 10BD     		pop	{r4, pc}
 1152              	.LVL89:
 1153              	.L109:
1233:Generated_Source\PSoC5/USBFS_std.c ****     
 1154              		.loc 1 1233 0
 1155 0034 0020     		movs	r0, #0
 1156              	.LVL90:
1256:Generated_Source\PSoC5/USBFS_std.c ****     }
1257:Generated_Source\PSoC5/USBFS_std.c **** 
1258:Generated_Source\PSoC5/USBFS_std.c ****     return (requestHandled);
1259:Generated_Source\PSoC5/USBFS_std.c **** }
 1157              		.loc 1 1259 0
 1158 0036 10BD     		pop	{r4, pc}
 1159              	.L111:
 1160              		.align	2
 1161              	.L110:
 1162 0038 00000000 		.word	USBFS_configuration
 1163 003c 00600040 		.word	1073766400
 1164 0040 00000000 		.word	USBFS_interfaceSetting
 1165 0044 00000000 		.word	USBFS_interfaceSettingLast
 1166              		.cfi_endproc
 1167              	.LFE12:
 1168              		.size	USBFS_ValidateAlternateSetting, .-USBFS_ValidateAlternateSetting
 1169              		.section	.text.USBFS_HandleStandardRqst,"ax",%progbits
 1170              		.align	1
 1171              		.global	USBFS_HandleStandardRqst
 1172              		.thumb
 1173              		.thumb_func
 1174              		.type	USBFS_HandleStandardRqst, %function
 1175              	USBFS_HandleStandardRqst:
ARM GAS  C:\Users\RABBIT~1\AppData\Local\Temp\ccIAjdRL.s 			page 46


 1176              	.LFB0:
  85:Generated_Source\PSoC5/USBFS_std.c ****     uint8 requestHandled = USBFS_FALSE;
 1177              		.loc 1 85 0
 1178              		.cfi_startproc
 1179              		@ args = 0, pretend = 0, frame = 0
 1180              		@ frame_needed = 0, uses_anonymous_args = 0
 1181              	.LVL91:
 1182 0000 38B5     		push	{r3, r4, r5, lr}
 1183              		.cfi_def_cfa_offset 16
 1184              		.cfi_offset 3, -16
 1185              		.cfi_offset 4, -12
 1186              		.cfi_offset 5, -8
 1187              		.cfi_offset 14, -4
  89:Generated_Source\PSoC5/USBFS_std.c **** 
 1188              		.loc 1 89 0
 1189 0002 874A     		ldr	r2, .L168
 102:Generated_Source\PSoC5/USBFS_std.c **** 
 1190              		.loc 1 102 0
 1191 0004 874C     		ldr	r4, .L168+4
  89:Generated_Source\PSoC5/USBFS_std.c **** 
 1192              		.loc 1 89 0
 1193 0006 1378     		ldrb	r3, [r2]	@ zero_extendqisi2
 102:Generated_Source\PSoC5/USBFS_std.c **** 
 1194              		.loc 1 102 0
 1195 0008 0021     		movs	r1, #0
  89:Generated_Source\PSoC5/USBFS_std.c **** 
 1196              		.loc 1 89 0
 1197 000a DBB2     		uxtb	r3, r3
 1198              	.LVL92:
 102:Generated_Source\PSoC5/USBFS_std.c **** 
 1199              		.loc 1 102 0
 1200 000c 2180     		strh	r1, [r4]	@ movhi
 104:Generated_Source\PSoC5/USBFS_std.c ****     {
 1201              		.loc 1 104 0
 1202 000e 1806     		lsls	r0, r3, #24
 107:Generated_Source\PSoC5/USBFS_std.c ****         {
 1203              		.loc 1 107 0
 1204 0010 5178     		ldrb	r1, [r2, #1]	@ zero_extendqisi2
 104:Generated_Source\PSoC5/USBFS_std.c ****     {
 1205              		.loc 1 104 0
 1206 0012 40F18880 		bpl	.L113
 107:Generated_Source\PSoC5/USBFS_std.c ****         {
 1207              		.loc 1 107 0
 1208 0016 0A29     		cmp	r1, #10
 1209 0018 00F20081 		bhi	.L114
 1210 001c DFE811F0 		tbh	[pc, r1, lsl #1]
 1211              	.L116:
 1212 0020 5800     		.2byte	(.L115-.L116)/2
 1213 0022 FE00     		.2byte	(.L114-.L116)/2
 1214 0024 FE00     		.2byte	(.L114-.L116)/2
 1215 0026 FE00     		.2byte	(.L114-.L116)/2
 1216 0028 FE00     		.2byte	(.L114-.L116)/2
 1217 002a FE00     		.2byte	(.L114-.L116)/2
 1218 002c 0B00     		.2byte	(.L117-.L116)/2
 1219 002e FE00     		.2byte	(.L114-.L116)/2
 1220 0030 7900     		.2byte	(.L118-.L116)/2
 1221 0032 FE00     		.2byte	(.L114-.L116)/2
ARM GAS  C:\Users\RABBIT~1\AppData\Local\Temp\ccIAjdRL.s 			page 47


 1222 0034 7D00     		.2byte	(.L119-.L116)/2
 1223              		.p2align 1
 1224              	.L117:
 110:Generated_Source\PSoC5/USBFS_std.c ****                 {
 1225              		.loc 1 110 0
 1226 0036 D378     		ldrb	r3, [r2, #3]	@ zero_extendqisi2
 1227              	.LVL93:
 1228 0038 7949     		ldr	r1, .L168
 1229 003a 012B     		cmp	r3, #1
 1230 003c 09D1     		bne	.L120
 1231              	.LBB14:
 1232              	.LBB15:
1015:Generated_Source\PSoC5/USBFS_std.c **** }
 1233              		.loc 1 1015 0
 1234 003e 7A4B     		ldr	r3, .L168+8
 1235 0040 1A78     		ldrb	r2, [r3]	@ zero_extendqisi2
 1236 0042 7A4B     		ldr	r3, .L168+12
 1237 0044 03EBC203 		add	r3, r3, r2, lsl #3
 1238              	.LBE15:
 1239              	.LBE14:
 113:Generated_Source\PSoC5/USBFS_std.c ****                     USBFS_currentTD.count = USBFS_DEVICE_DESCR_LENGTH;
 1240              		.loc 1 113 0
 1241 0048 5B68     		ldr	r3, [r3, #4]
 1242 004a 5B68     		ldr	r3, [r3, #4]
 1243 004c 6360     		str	r3, [r4, #4]
 114:Generated_Source\PSoC5/USBFS_std.c ****                     
 1244              		.loc 1 114 0
 1245 004e 1223     		movs	r3, #18
 1246 0050 10E0     		b	.L161
 1247              	.L120:
 118:Generated_Source\PSoC5/USBFS_std.c ****                 {
 1248              		.loc 1 118 0
 1249 0052 CB78     		ldrb	r3, [r1, #3]	@ zero_extendqisi2
 1250 0054 022B     		cmp	r3, #2
 1251 0056 12D1     		bne	.L121
 120:Generated_Source\PSoC5/USBFS_std.c ****                     
 1252              		.loc 1 120 0
 1253 0058 8878     		ldrb	r0, [r1, #2]	@ zero_extendqisi2
 1254 005a FFF7FEFF 		bl	USBFS_GetConfigTablePtr
 1255              	.LVL94:
 123:Generated_Source\PSoC5/USBFS_std.c ****                     {
 1256              		.loc 1 123 0
 1257 005e 0028     		cmp	r0, #0
 1258 0060 00F0DC80 		beq	.L114
 125:Generated_Source\PSoC5/USBFS_std.c ****                         USBFS_currentTD.count = (uint16)((uint16)(USBFS_currentTD.pData)[USBFS_CONF
 1259              		.loc 1 125 0
 1260 0064 4368     		ldr	r3, [r0, #4]
 1261 0066 6360     		str	r3, [r4, #4]
 126:Generated_Source\PSoC5/USBFS_std.c ****                                                                             (USBFS_currentTD.pData)
 1262              		.loc 1 126 0
 1263 0068 6368     		ldr	r3, [r4, #4]
 1264 006a DA78     		ldrb	r2, [r3, #3]	@ zero_extendqisi2
 127:Generated_Source\PSoC5/USBFS_std.c ****                         requestHandled  = USBFS_InitControlRead();
 1265              		.loc 1 127 0
 1266 006c 6368     		ldr	r3, [r4, #4]
 1267 006e 9B78     		ldrb	r3, [r3, #2]	@ zero_extendqisi2
 126:Generated_Source\PSoC5/USBFS_std.c ****                                                                             (USBFS_currentTD.pData)
ARM GAS  C:\Users\RABBIT~1\AppData\Local\Temp\ccIAjdRL.s 			page 48


 1268              		.loc 1 126 0
 1269 0070 43EA0223 		orr	r3, r3, r2, lsl #8
 1270              	.LVL95:
 1271              	.L161:
 1272 0074 2380     		strh	r3, [r4]	@ movhi
 1273              	.LVL96:
 1274              	.L162:
 380:Generated_Source\PSoC5/USBFS_std.c **** 
 1275              		.loc 1 380 0
 1276 0076 BDE83840 		pop	{r3, r4, r5, lr}
 1277              		.cfi_remember_state
 1278              		.cfi_restore 14
 1279              		.cfi_restore 5
 1280              		.cfi_restore 4
 1281              		.cfi_restore 3
 1282              		.cfi_def_cfa_offset 0
 128:Generated_Source\PSoC5/USBFS_std.c ****                     }
 1283              		.loc 1 128 0
 1284 007a FFF7FEBF 		b	USBFS_InitControlRead
 1285              	.LVL97:
 1286              	.L121:
 1287              		.cfi_restore_state
 149:Generated_Source\PSoC5/USBFS_std.c ****                 {
 1288              		.loc 1 149 0
 1289 007e CB78     		ldrb	r3, [r1, #3]	@ zero_extendqisi2
 1290 0080 032B     		cmp	r3, #3
 1291 0082 21D1     		bne	.L123
 1292 0084 6A4B     		ldr	r3, .L168+16
 1293 0086 0022     		movs	r2, #0
 1294              	.LVL98:
 1295              	.L124:
 156:Generated_Source\PSoC5/USBFS_std.c ****                     {
 1296              		.loc 1 156 0
 1297 0088 8878     		ldrb	r0, [r1, #2]	@ zero_extendqisi2
 1298 008a D5B2     		uxtb	r5, r2
 1299 008c 8542     		cmp	r5, r0
 1300 008e 03D3     		bcc	.L125
 1301              	.LVL99:
 1302              	.L129:
 176:Generated_Source\PSoC5/USBFS_std.c ****                         (USBFS_wValueLoReg == USBFS_DEVICE0_DESCR[USBFS_DEVICE_DESCR_SN_SHIFT]))
 1303              		.loc 1 176 0
 1304 0090 634A     		ldr	r2, .L168
 1305 0092 9278     		ldrb	r2, [r2, #2]	@ zero_extendqisi2
 1306 0094 3AB9     		cbnz	r2, .L126
 1307 0096 10E0     		b	.L127
 1308              	.LVL100:
 1309              	.L125:
 156:Generated_Source\PSoC5/USBFS_std.c ****                     {
 1310              		.loc 1 156 0 discriminator 1
 1311 0098 1878     		ldrb	r0, [r3]	@ zero_extendqisi2
 1312 009a 0132     		adds	r2, r2, #1
 1313              	.LVL101:
 1314 009c 0028     		cmp	r0, #0
 1315 009e F7D0     		beq	.L129
 159:Generated_Source\PSoC5/USBFS_std.c ****                         /* Move to next string descriptor */
 1316              		.loc 1 159 0
 1317 00a0 1878     		ldrb	r0, [r3]	@ zero_extendqisi2
ARM GAS  C:\Users\RABBIT~1\AppData\Local\Temp\ccIAjdRL.s 			page 49


 1318              	.LVL102:
 161:Generated_Source\PSoC5/USBFS_std.c ****                         nStr++;
 1319              		.loc 1 161 0
 1320 00a2 0344     		add	r3, r3, r0
 1321              	.LVL103:
 1322 00a4 F0E7     		b	.L124
 1323              	.LVL104:
 1324              	.L126:
 177:Generated_Source\PSoC5/USBFS_std.c ****                     {
 1325              		.loc 1 177 0 discriminator 1
 1326 00a6 5E4A     		ldr	r2, .L168
 1327 00a8 6249     		ldr	r1, .L168+20
 1328 00aa 9278     		ldrb	r2, [r2, #2]	@ zero_extendqisi2
 176:Generated_Source\PSoC5/USBFS_std.c ****                         (USBFS_wValueLoReg == USBFS_DEVICE0_DESCR[USBFS_DEVICE_DESCR_SN_SHIFT]))
 1329              		.loc 1 176 0 discriminator 1
 1330 00ac 097C     		ldrb	r1, [r1, #16]	@ zero_extendqisi2
 1331 00ae 9142     		cmp	r1, r2
 1332 00b0 03D1     		bne	.L127
 181:Generated_Source\PSoC5/USBFS_std.c ****                         pStr = USBFS_idSerialNumberStringDescriptor;
 1333              		.loc 1 181 0
 1334 00b2 6148     		ldr	r0, .L168+24
 1335 00b4 FFF7FEFF 		bl	USBFS_ReadDieID
 1336              	.LVL105:
 182:Generated_Source\PSoC5/USBFS_std.c ****                     #elif defined(USBFS_ENABLE_FWSN_STRING)
 1337              		.loc 1 182 0
 1338 00b8 5F4B     		ldr	r3, .L168+24
 1339              	.LVL106:
 1340              	.L127:
 199:Generated_Source\PSoC5/USBFS_std.c ****                     {
 1341              		.loc 1 199 0
 1342 00ba 1A78     		ldrb	r2, [r3]	@ zero_extendqisi2
 1343 00bc 002A     		cmp	r2, #0
 1344 00be 00F0AD80 		beq	.L114
 201:Generated_Source\PSoC5/USBFS_std.c ****                         USBFS_currentTD.pData = pStr;
 1345              		.loc 1 201 0
 1346 00c2 1A78     		ldrb	r2, [r3]	@ zero_extendqisi2
 1347 00c4 2280     		strh	r2, [r4]	@ movhi
 1348 00c6 18E0     		b	.L165
 1349              	.LVL107:
 1350              	.L123:
 380:Generated_Source\PSoC5/USBFS_std.c **** 
 1351              		.loc 1 380 0
 1352 00c8 BDE83840 		pop	{r3, r4, r5, lr}
 1353              		.cfi_remember_state
 1354              		.cfi_restore 14
 1355              		.cfi_restore 5
 1356              		.cfi_restore 4
 1357              		.cfi_restore 3
 1358              		.cfi_def_cfa_offset 0
 209:Generated_Source\PSoC5/USBFS_std.c ****                 }
 1359              		.loc 1 209 0
 1360 00cc FFF7FEBF 		b	USBFS_DispatchClassRqst
 1361              	.LVL108:
 1362              	.L115:
 1363              		.cfi_restore_state
 214:Generated_Source\PSoC5/USBFS_std.c ****                 {
 1364              		.loc 1 214 0
ARM GAS  C:\Users\RABBIT~1\AppData\Local\Temp\ccIAjdRL.s 			page 50


 1365 00d0 13F00303 		ands	r3, r3, #3
 1366              	.LVL109:
 1367 00d4 13D0     		beq	.L131
 1368 00d6 022B     		cmp	r3, #2
 1369 00d8 40F0A080 		bne	.L114
 217:Generated_Source\PSoC5/USBFS_std.c ****                         USBFS_tBuffer[0u]     = USBFS_EP[USBFS_wIndexLoReg & USBFS_DIR_UNUSED].hwEp
 1370              		.loc 1 217 0
 1371 00dc 2380     		strh	r3, [r4]	@ movhi
 218:Generated_Source\PSoC5/USBFS_std.c ****                         USBFS_tBuffer[1u]     = 0u;
 1372              		.loc 1 218 0
 1373 00de 504B     		ldr	r3, .L168
 1374 00e0 0C21     		movs	r1, #12
 1375 00e2 1B79     		ldrb	r3, [r3, #4]	@ zero_extendqisi2
 1376 00e4 03F07F02 		and	r2, r3, #127
 1377 00e8 544B     		ldr	r3, .L168+28
 1378 00ea 01FB0233 		mla	r3, r1, r2, r3
 1379 00ee 9A78     		ldrb	r2, [r3, #2]	@ zero_extendqisi2
 1380 00f0 534B     		ldr	r3, .L168+32
 1381 00f2 D2B2     		uxtb	r2, r2
 1382 00f4 1A70     		strb	r2, [r3]
 219:Generated_Source\PSoC5/USBFS_std.c ****                         USBFS_currentTD.pData = &USBFS_tBuffer[0u];
 1383              		.loc 1 219 0
 1384 00f6 0022     		movs	r2, #0
 1385 00f8 5A70     		strb	r2, [r3, #1]
 1386              	.LVL110:
 1387              	.L165:
 220:Generated_Source\PSoC5/USBFS_std.c ****                         
 1388              		.loc 1 220 0
 1389 00fa 6360     		str	r3, [r4, #4]
 1390 00fc BBE7     		b	.L162
 1391              	.LVL111:
 1392              	.L131:
 225:Generated_Source\PSoC5/USBFS_std.c ****                         USBFS_tBuffer[0u]     = USBFS_deviceStatus;
 1393              		.loc 1 225 0
 1394 00fe 0222     		movs	r2, #2
 1395 0100 2280     		strh	r2, [r4]	@ movhi
 226:Generated_Source\PSoC5/USBFS_std.c ****                         USBFS_tBuffer[1u]     = 0u;
 1396              		.loc 1 226 0
 1397 0102 504A     		ldr	r2, .L168+36
 1398 0104 1178     		ldrb	r1, [r2]	@ zero_extendqisi2
 1399 0106 4E4A     		ldr	r2, .L168+32
 1400 0108 C9B2     		uxtb	r1, r1
 1401 010a 1170     		strb	r1, [r2]
 227:Generated_Source\PSoC5/USBFS_std.c ****                         USBFS_currentTD.pData = &USBFS_tBuffer[0u];
 1402              		.loc 1 227 0
 1403 010c 5370     		strb	r3, [r2, #1]
 228:Generated_Source\PSoC5/USBFS_std.c ****                         
 1404              		.loc 1 228 0
 1405 010e 6260     		str	r2, [r4, #4]
 1406 0110 B1E7     		b	.L162
 1407              	.LVL112:
 1408              	.L118:
 238:Generated_Source\PSoC5/USBFS_std.c ****                 USBFS_currentTD.pData = (volatile uint8 *) &USBFS_configuration;
 1409              		.loc 1 238 0
 1410 0112 0123     		movs	r3, #1
 1411              	.LVL113:
 1412 0114 2380     		strh	r3, [r4]	@ movhi
ARM GAS  C:\Users\RABBIT~1\AppData\Local\Temp\ccIAjdRL.s 			page 51


 239:Generated_Source\PSoC5/USBFS_std.c ****                 requestHandled  = USBFS_InitControlRead();
 1413              		.loc 1 239 0
 1414 0116 4C4B     		ldr	r3, .L168+40
 1415 0118 EFE7     		b	.L165
 1416              	.LVL114:
 1417              	.L119:
 244:Generated_Source\PSoC5/USBFS_std.c ****                 USBFS_currentTD.pData = (volatile uint8 *) &USBFS_interfaceSetting[USBFS_wIndexLoRe
 1418              		.loc 1 244 0
 1419 011a 0123     		movs	r3, #1
 1420              	.LVL115:
 1421 011c 2380     		strh	r3, [r4]	@ movhi
 245:Generated_Source\PSoC5/USBFS_std.c ****                 requestHandled  = USBFS_InitControlRead();
 1422              		.loc 1 245 0
 1423 011e 1379     		ldrb	r3, [r2, #4]	@ zero_extendqisi2
 1424 0120 4A4A     		ldr	r2, .L168+44
 1425 0122 1344     		add	r3, r3, r2
 1426 0124 E9E7     		b	.L165
 1427              	.LVL116:
 1428              	.L113:
 256:Generated_Source\PSoC5/USBFS_std.c ****         {
 1429              		.loc 1 256 0
 1430 0126 0139     		subs	r1, r1, #1
 1431 0128 0A29     		cmp	r1, #10
 1432 012a 77D8     		bhi	.L114
 1433 012c DFE801F0 		tbb	[pc, r1]
 1434              	.L134:
 1435 0130 37       		.byte	(.L133-.L134)/2
 1436 0131 76       		.byte	(.L114-.L134)/2
 1437 0132 4F       		.byte	(.L135-.L134)/2
 1438 0133 76       		.byte	(.L114-.L134)/2
 1439 0134 06       		.byte	(.L136-.L134)/2
 1440 0135 76       		.byte	(.L114-.L134)/2
 1441 0136 76       		.byte	(.L114-.L134)/2
 1442 0137 76       		.byte	(.L114-.L134)/2
 1443 0138 0A       		.byte	(.L137-.L134)/2
 1444 0139 76       		.byte	(.L114-.L134)/2
 1445 013a 20       		.byte	(.L138-.L134)/2
 1446 013b 00       		.p2align 1
 1447              	.L136:
 260:Generated_Source\PSoC5/USBFS_std.c ****                 requestHandled = USBFS_InitNoDataControlTransfer();
 1448              		.loc 1 260 0
 1449 013c 9378     		ldrb	r3, [r2, #2]	@ zero_extendqisi2
 1450              	.LVL117:
 1451 013e 444A     		ldr	r2, .L168+48
 1452 0140 DBB2     		uxtb	r3, r3
 1453 0142 5AE0     		b	.L167
 1454              	.LVL118:
 1455              	.L137:
 265:Generated_Source\PSoC5/USBFS_std.c ****                 
 1456              		.loc 1 265 0
 1457 0144 9378     		ldrb	r3, [r2, #2]	@ zero_extendqisi2
 1458              	.LVL119:
 268:Generated_Source\PSoC5/USBFS_std.c ****                 {
 1459              		.loc 1 268 0
 1460 0146 03F0FF01 		and	r1, r3, #255
 1461 014a 53B9     		cbnz	r3, .L139
 1462              	.LVL120:
ARM GAS  C:\Users\RABBIT~1\AppData\Local\Temp\ccIAjdRL.s 			page 52


 1463              	.L142:
 277:Generated_Source\PSoC5/USBFS_std.c ****                     {
 1464              		.loc 1 277 0
 1465 014c 3E4B     		ldr	r3, .L168+40
 1466 014e 1A78     		ldrb	r2, [r3]	@ zero_extendqisi2
 1467 0150 9142     		cmp	r1, r2
 1468 0152 5FD0     		beq	.L163
 279:Generated_Source\PSoC5/USBFS_std.c ****                         USBFS_configurationChanged = USBFS_TRUE;
 1469              		.loc 1 279 0
 1470 0154 1970     		strb	r1, [r3]
 280:Generated_Source\PSoC5/USBFS_std.c ****                         USBFS_Config(USBFS_TRUE);
 1471              		.loc 1 280 0
 1472 0156 3F4B     		ldr	r3, .L168+52
 1473 0158 0120     		movs	r0, #1
 1474 015a 1870     		strb	r0, [r3]
 281:Generated_Source\PSoC5/USBFS_std.c ****                     }
 1475              		.loc 1 281 0
 1476 015c FFF7FEFF 		bl	USBFS_Config
 1477              	.LVL121:
 1478 0160 58E0     		b	.L163
 1479              	.LVL122:
 1480              	.L139:
 270:Generated_Source\PSoC5/USBFS_std.c ****                 }
 1481              		.loc 1 270 0
 1482 0162 481E     		subs	r0, r1, #1
 1483 0164 C0B2     		uxtb	r0, r0
 1484 0166 FFF7FEFF 		bl	USBFS_GetConfigTablePtr
 1485              	.LVL123:
 274:Generated_Source\PSoC5/USBFS_std.c ****                 {
 1486              		.loc 1 274 0
 1487 016a 0028     		cmp	r0, #0
 1488 016c EED1     		bne	.L142
 1489 016e 55E0     		b	.L114
 1490              	.LVL124:
 1491              	.L138:
 288:Generated_Source\PSoC5/USBFS_std.c ****                 {
 1492              		.loc 1 288 0
 1493 0170 FFF7FEFF 		bl	USBFS_ValidateAlternateSetting
 1494              	.LVL125:
 1495 0174 0028     		cmp	r0, #0
 1496 0176 51D0     		beq	.L114
 291:Generated_Source\PSoC5/USBFS_std.c ****                     USBFS_interfaceNumber = (uint8) USBFS_wIndexLoReg;
 1497              		.loc 1 291 0
 1498 0178 294A     		ldr	r2, .L168
 292:Generated_Source\PSoC5/USBFS_std.c ****                      
 1499              		.loc 1 292 0
 1500 017a 3749     		ldr	r1, .L168+56
 291:Generated_Source\PSoC5/USBFS_std.c ****                     USBFS_interfaceNumber = (uint8) USBFS_wIndexLoReg;
 1501              		.loc 1 291 0
 1502 017c 1379     		ldrb	r3, [r2, #4]	@ zero_extendqisi2
 292:Generated_Source\PSoC5/USBFS_std.c ****                      
 1503              		.loc 1 292 0
 1504 017e 1279     		ldrb	r2, [r2, #4]	@ zero_extendqisi2
 291:Generated_Source\PSoC5/USBFS_std.c ****                     USBFS_interfaceNumber = (uint8) USBFS_wIndexLoReg;
 1505              		.loc 1 291 0
 1506 0180 DBB2     		uxtb	r3, r3
 1507              	.LVL126:
ARM GAS  C:\Users\RABBIT~1\AppData\Local\Temp\ccIAjdRL.s 			page 53


 292:Generated_Source\PSoC5/USBFS_std.c ****                      
 1508              		.loc 1 292 0
 1509 0182 D2B2     		uxtb	r2, r2
 1510 0184 0A70     		strb	r2, [r1]
 295:Generated_Source\PSoC5/USBFS_std.c ****                     {
 1511              		.loc 1 295 0
 1512 0186 354A     		ldr	r2, .L168+60
 1513 0188 3049     		ldr	r1, .L168+44
 1514 018a D25C     		ldrb	r2, [r2, r3]	@ zero_extendqisi2
 1515 018c CB5C     		ldrb	r3, [r1, r3]	@ zero_extendqisi2
 1516              	.LVL127:
 1517 018e 9A42     		cmp	r2, r3
 1518 0190 40D0     		beq	.L163
 297:Generated_Source\PSoC5/USBFS_std.c ****                     
 1519              		.loc 1 297 0
 1520 0192 304B     		ldr	r3, .L168+52
 1521 0194 0122     		movs	r2, #1
 1522 0196 1A70     		strb	r2, [r3]
 303:Generated_Source\PSoC5/USBFS_std.c ****                     #endif /* (USBFS_EP_MANAGEMENT_MANUAL && USBFS_EP_ALLOC_DYNAMIC) */
 1523              		.loc 1 303 0
 1524 0198 FFF7FEFF 		bl	USBFS_ConfigAltChanged
 1525              	.LVL128:
 1526 019c 3AE0     		b	.L163
 1527              	.LVL129:
 1528              	.L133:
 312:Generated_Source\PSoC5/USBFS_std.c ****                 {
 1529              		.loc 1 312 0
 1530 019e 03F00303 		and	r3, r3, #3
 1531              	.LVL130:
 1532 01a2 012B     		cmp	r3, #1
 1533 01a4 2BD0     		beq	.L147
 1534 01a6 09D3     		bcc	.L145
 1535 01a8 022B     		cmp	r3, #2
 1536 01aa 37D1     		bne	.L114
 315:Generated_Source\PSoC5/USBFS_std.c ****                         {
 1537              		.loc 1 315 0
 1538 01ac 1C4B     		ldr	r3, .L168
 1539 01ae 9B78     		ldrb	r3, [r3, #2]	@ zero_extendqisi2
 1540 01b0 002B     		cmp	r3, #0
 1541 01b2 33D1     		bne	.L114
 380:Generated_Source\PSoC5/USBFS_std.c **** 
 1542              		.loc 1 380 0
 1543 01b4 BDE83840 		pop	{r3, r4, r5, lr}
 1544              		.cfi_remember_state
 1545              		.cfi_restore 14
 1546              		.cfi_restore 5
 1547              		.cfi_restore 4
 1548              		.cfi_restore 3
 1549              		.cfi_def_cfa_offset 0
 317:Generated_Source\PSoC5/USBFS_std.c ****                         }
 1550              		.loc 1 317 0
 1551 01b8 FFF7FEBF 		b	USBFS_ClearEndpointHalt
 1552              	.LVL131:
 1553              	.L145:
 1554              		.cfi_restore_state
 322:Generated_Source\PSoC5/USBFS_std.c ****                         {
 1555              		.loc 1 322 0
ARM GAS  C:\Users\RABBIT~1\AppData\Local\Temp\ccIAjdRL.s 			page 54


 1556 01bc 184B     		ldr	r3, .L168
 1557 01be 9B78     		ldrb	r3, [r3, #2]	@ zero_extendqisi2
 1558 01c0 012B     		cmp	r3, #1
 1559 01c2 2BD1     		bne	.L114
 324:Generated_Source\PSoC5/USBFS_std.c ****                             requestHandled = USBFS_InitNoDataControlTransfer();
 1560              		.loc 1 324 0
 1561 01c4 1F4A     		ldr	r2, .L168+36
 1562 01c6 1378     		ldrb	r3, [r2]	@ zero_extendqisi2
 1563 01c8 03F0FD03 		and	r3, r3, #253
 1564 01cc 15E0     		b	.L167
 1565              	.LVL132:
 1566              	.L135:
 342:Generated_Source\PSoC5/USBFS_std.c ****                 {
 1567              		.loc 1 342 0
 1568 01ce 03F00303 		and	r3, r3, #3
 1569              	.LVL133:
 1570 01d2 012B     		cmp	r3, #1
 1571 01d4 13D0     		beq	.L147
 1572 01d6 08D3     		bcc	.L148
 1573 01d8 022B     		cmp	r3, #2
 1574 01da 1FD1     		bne	.L114
 345:Generated_Source\PSoC5/USBFS_std.c ****                         {
 1575              		.loc 1 345 0
 1576 01dc 104B     		ldr	r3, .L168
 1577 01de 9B78     		ldrb	r3, [r3, #2]	@ zero_extendqisi2
 1578 01e0 E3B9     		cbnz	r3, .L114
 380:Generated_Source\PSoC5/USBFS_std.c **** 
 1579              		.loc 1 380 0
 1580 01e2 BDE83840 		pop	{r3, r4, r5, lr}
 1581              		.cfi_remember_state
 1582              		.cfi_restore 14
 1583              		.cfi_restore 5
 1584              		.cfi_restore 4
 1585              		.cfi_restore 3
 1586              		.cfi_def_cfa_offset 0
 347:Generated_Source\PSoC5/USBFS_std.c ****                         }
 1587              		.loc 1 347 0
 1588 01e6 FFF7FEBF 		b	USBFS_SetEndpointHalt
 1589              	.LVL134:
 1590              	.L148:
 1591              		.cfi_restore_state
 353:Generated_Source\PSoC5/USBFS_std.c ****                         {
 1592              		.loc 1 353 0
 1593 01ea 0D4B     		ldr	r3, .L168
 1594 01ec 9B78     		ldrb	r3, [r3, #2]	@ zero_extendqisi2
 1595 01ee 012B     		cmp	r3, #1
 1596 01f0 14D1     		bne	.L114
 355:Generated_Source\PSoC5/USBFS_std.c ****                             requestHandled = USBFS_InitNoDataControlTransfer();
 1597              		.loc 1 355 0
 1598 01f2 144A     		ldr	r2, .L168+36
 1599 01f4 1378     		ldrb	r3, [r2]	@ zero_extendqisi2
 1600 01f6 43F00203 		orr	r3, r3, #2
 1601              	.L167:
 1602 01fa 1370     		strb	r3, [r2]
 1603 01fc 0AE0     		b	.L163
 1604              	.L147:
 362:Generated_Source\PSoC5/USBFS_std.c ****                         {
ARM GAS  C:\Users\RABBIT~1\AppData\Local\Temp\ccIAjdRL.s 			page 55


 1605              		.loc 1 362 0
 1606 01fe 084B     		ldr	r3, .L168
 1607 0200 1A79     		ldrb	r2, [r3, #4]	@ zero_extendqisi2
 1608 0202 5AB9     		cbnz	r2, .L114
 364:Generated_Source\PSoC5/USBFS_std.c ****                             requestHandled = USBFS_InitNoDataControlTransfer();
 1609              		.loc 1 364 0
 1610 0204 9878     		ldrb	r0, [r3, #2]	@ zero_extendqisi2
 1611 0206 1B79     		ldrb	r3, [r3, #4]	@ zero_extendqisi2
 1612 0208 1549     		ldr	r1, .L168+64
 1613 020a DBB2     		uxtb	r3, r3
 1614 020c CA5C     		ldrb	r2, [r1, r3]	@ zero_extendqisi2
 1615 020e 22EA0002 		bic	r2, r2, r0
 1616 0212 CA54     		strb	r2, [r1, r3]
 1617              	.L163:
 380:Generated_Source\PSoC5/USBFS_std.c **** 
 1618              		.loc 1 380 0
 1619 0214 BDE83840 		pop	{r3, r4, r5, lr}
 1620              		.cfi_remember_state
 1621              		.cfi_restore 14
 1622              		.cfi_restore 5
 1623              		.cfi_restore 4
 1624              		.cfi_restore 3
 1625              		.cfi_def_cfa_offset 0
 365:Generated_Source\PSoC5/USBFS_std.c ****                         }
 1626              		.loc 1 365 0
 1627 0218 FFF7FEBF 		b	USBFS_InitNoDataControlTransfer
 1628              	.LVL135:
 1629              	.L114:
 1630              		.cfi_restore_state
 380:Generated_Source\PSoC5/USBFS_std.c **** 
 1631              		.loc 1 380 0
 1632 021c 0020     		movs	r0, #0
 1633 021e 38BD     		pop	{r3, r4, r5, pc}
 1634              	.L169:
 1635              		.align	2
 1636              	.L168:
 1637 0220 00600040 		.word	1073766400
 1638 0224 00000000 		.word	USBFS_currentTD
 1639 0228 00000000 		.word	USBFS_device
 1640 022c 00000000 		.word	USBFS_TABLE
 1641 0230 00000000 		.word	USBFS_STRING_DESCRIPTORS
 1642 0234 00000000 		.word	USBFS_DEVICE0_DESCR
 1643 0238 00000000 		.word	USBFS_idSerialNumberStringDescriptor
 1644 023c 00000000 		.word	USBFS_EP
 1645 0240 00000000 		.word	.LANCHOR0
 1646 0244 00000000 		.word	USBFS_deviceStatus
 1647 0248 00000000 		.word	USBFS_configuration
 1648 024c 00000000 		.word	USBFS_interfaceSetting
 1649 0250 00000000 		.word	USBFS_deviceAddress
 1650 0254 00000000 		.word	USBFS_configurationChanged
 1651 0258 00000000 		.word	USBFS_interfaceNumber
 1652 025c 00000000 		.word	USBFS_interfaceSettingLast
 1653 0260 00000000 		.word	USBFS_interfaceStatus
 1654              		.cfi_endproc
 1655              	.LFE0:
 1656              		.size	USBFS_HandleStandardRqst, .-USBFS_HandleStandardRqst
 1657              		.section	.rodata.str1.1,"aMS",%progbits,1
ARM GAS  C:\Users\RABBIT~1\AppData\Local\Temp\ccIAjdRL.s 			page 56


 1658              	.LC0:
 1659 0000 30313233 		.ascii	"0123456789ABCDEF\000"
 1659      34353637 
 1659      38394142 
 1659      43444546 
 1659      00
 1660              		.bss
 1661              		.set	.LANCHOR0,. + 0
 1662              		.type	USBFS_tBuffer.5198, %object
 1663              		.size	USBFS_tBuffer.5198, 2
 1664              	USBFS_tBuffer.5198:
 1665 0000 0000     		.space	2
 1666              		.text
 1667              	.Letext0:
 1668              		.file 2 "Generated_Source\\PSoC5\\cytypes.h"
 1669              		.file 3 "Generated_Source\\PSoC5\\USBFS.h"
 1670              		.file 4 "Generated_Source\\PSoC5\\USBFS_pvt.h"
 1671              		.file 5 "Generated_Source\\PSoC5\\CyLib.h"