ARM GAS  C:\Users\RABBIT~1\AppData\Local\Temp\ccavO8bx.s 			page 1


   1              		.syntax unified
   2              		.cpu cortex-m3
   3              		.fpu softvfp
   4              		.eabi_attribute 20, 1
   5              		.eabi_attribute 21, 1
   6              		.eabi_attribute 23, 3
   7              		.eabi_attribute 24, 1
   8              		.eabi_attribute 25, 1
   9              		.eabi_attribute 26, 1
  10              		.eabi_attribute 30, 4
  11              		.eabi_attribute 34, 1
  12              		.eabi_attribute 18, 4
  13              		.thumb
  14              		.syntax unified
  15              		.file	"BL.c"
  16              		.text
  17              	.Ltext0:
  18              		.cfi_sections	.debug_frame
  19              		.section	.text.BL_LaunchBootloadable,"ax",%progbits
  20              		.align	1
  21              		.thumb
  22              		.thumb_func
  23              		.type	BL_LaunchBootloadable, %function
  24              	BL_LaunchBootloadable:
  25              	.LFB62:
  26              		.file 1 "Generated_Source\\PSoC5\\BL.c"
   1:Generated_Source\PSoC5/BL.c **** /*******************************************************************************
   2:Generated_Source\PSoC5/BL.c **** * File Name: BL.c
   3:Generated_Source\PSoC5/BL.c **** * Version 1.30
   4:Generated_Source\PSoC5/BL.c **** *
   5:Generated_Source\PSoC5/BL.c **** *  Description:
   6:Generated_Source\PSoC5/BL.c **** *   Provides an API for the Bootloader component. The API includes functions
   7:Generated_Source\PSoC5/BL.c **** *   for starting boot loading operations, validating the application and
   8:Generated_Source\PSoC5/BL.c **** *   jumping to the application.
   9:Generated_Source\PSoC5/BL.c **** *
  10:Generated_Source\PSoC5/BL.c **** ********************************************************************************
  11:Generated_Source\PSoC5/BL.c **** * Copyright 2008-2014, Cypress Semiconductor Corporation.  All rights reserved.
  12:Generated_Source\PSoC5/BL.c **** * You may use this file only in accordance with the license, terms, conditions,
  13:Generated_Source\PSoC5/BL.c **** * disclaimers, and limitations in the end user license agreement accompanying
  14:Generated_Source\PSoC5/BL.c **** * the software package with which this file was provided.
  15:Generated_Source\PSoC5/BL.c **** *******************************************************************************/
  16:Generated_Source\PSoC5/BL.c **** 
  17:Generated_Source\PSoC5/BL.c **** #include "BL_PVT.h"
  18:Generated_Source\PSoC5/BL.c **** 
  19:Generated_Source\PSoC5/BL.c **** #include "project.h"
  20:Generated_Source\PSoC5/BL.c **** #include <string.h>
  21:Generated_Source\PSoC5/BL.c **** 
  22:Generated_Source\PSoC5/BL.c **** 
  23:Generated_Source\PSoC5/BL.c **** /*******************************************************************************
  24:Generated_Source\PSoC5/BL.c **** * The Checksum and SizeBytes are forcefully set in code. We then post process
  25:Generated_Source\PSoC5/BL.c **** * the hex file from the linker and inject their values then. When the hex file
  26:Generated_Source\PSoC5/BL.c **** * is loaded onto the device these two variables should have valid values.
  27:Generated_Source\PSoC5/BL.c **** * Because the compiler can do optimizations to remove the constant
  28:Generated_Source\PSoC5/BL.c **** * accesses, these should not be accessed directly. Instead, the variables
  29:Generated_Source\PSoC5/BL.c **** * CyBtldr_ChecksumAccess & CyBtldr_SizeBytesAccess should be used to get the
  30:Generated_Source\PSoC5/BL.c **** * proper values at runtime.
  31:Generated_Source\PSoC5/BL.c **** *******************************************************************************/
ARM GAS  C:\Users\RABBIT~1\AppData\Local\Temp\ccavO8bx.s 			page 2


  32:Generated_Source\PSoC5/BL.c **** #if defined(__ARMCC_VERSION) || defined (__GNUC__)
  33:Generated_Source\PSoC5/BL.c ****     __attribute__((section (".bootloader"), used))
  34:Generated_Source\PSoC5/BL.c **** #elif defined (__ICCARM__)
  35:Generated_Source\PSoC5/BL.c ****     #pragma location=".bootloader"
  36:Generated_Source\PSoC5/BL.c **** #endif  /* defined(__ARMCC_VERSION) || defined (__GNUC__) */
  37:Generated_Source\PSoC5/BL.c **** 
  38:Generated_Source\PSoC5/BL.c **** #if defined(__ARMCC_VERSION) || defined (__GNUC__) || defined (__C51__)
  39:Generated_Source\PSoC5/BL.c ****            const uint8  CYCODE BL_Checksum = 0u;
  40:Generated_Source\PSoC5/BL.c **** #elif defined (__ICCARM__)
  41:Generated_Source\PSoC5/BL.c ****     __root const uint8  CYCODE BL_Checksum = 0u;
  42:Generated_Source\PSoC5/BL.c **** #endif  /* defined(__ARMCC_VERSION) || defined (__GNUC__) || defined (__C51__) */
  43:Generated_Source\PSoC5/BL.c **** const uint8  CYCODE *BL_ChecksumAccess  = (const uint8  CYCODE *)(&BL_Checksum);
  44:Generated_Source\PSoC5/BL.c **** 
  45:Generated_Source\PSoC5/BL.c **** #if defined(__ARMCC_VERSION) || defined (__GNUC__)
  46:Generated_Source\PSoC5/BL.c ****     __attribute__((section (".bootloader"), used))
  47:Generated_Source\PSoC5/BL.c **** #elif defined (__ICCARM__)
  48:Generated_Source\PSoC5/BL.c ****     #pragma location=".bootloader"
  49:Generated_Source\PSoC5/BL.c **** #endif  /* defined(__ARMCC_VERSION) || defined (__GNUC__) */
  50:Generated_Source\PSoC5/BL.c **** 
  51:Generated_Source\PSoC5/BL.c **** const uint32 CYCODE BL_SizeBytes = 0xFFFFFFFFu;
  52:Generated_Source\PSoC5/BL.c **** const uint32 CYCODE *BL_SizeBytesAccess = (const uint32 CYCODE *)(&BL_SizeBytes);
  53:Generated_Source\PSoC5/BL.c **** 
  54:Generated_Source\PSoC5/BL.c **** 
  55:Generated_Source\PSoC5/BL.c **** #if(0u != BL_DUAL_APP_BOOTLOADER)
  56:Generated_Source\PSoC5/BL.c ****     uint8 BL_activeApp = BL_MD_BTLDB_ACTIVE_NONE;
  57:Generated_Source\PSoC5/BL.c **** #else
  58:Generated_Source\PSoC5/BL.c ****     #define BL_activeApp      (BL_MD_BTLDB_ACTIVE_0)
  59:Generated_Source\PSoC5/BL.c **** #endif  /* (0u != BL_DUAL_APP_BOOTLOADER) */
  60:Generated_Source\PSoC5/BL.c **** 
  61:Generated_Source\PSoC5/BL.c **** 
  62:Generated_Source\PSoC5/BL.c **** /***************************************
  63:Generated_Source\PSoC5/BL.c **** *     Function Prototypes
  64:Generated_Source\PSoC5/BL.c **** ***************************************/
  65:Generated_Source\PSoC5/BL.c **** static cystatus BL_WritePacket(uint8 status, uint8 buffer[], uint16 size) CYSMALL \
  66:Generated_Source\PSoC5/BL.c ****                                     ;
  67:Generated_Source\PSoC5/BL.c **** 
  68:Generated_Source\PSoC5/BL.c **** static uint16   BL_CalcPacketChecksum(const uint8 buffer[], uint16 size) CYSMALL \
  69:Generated_Source\PSoC5/BL.c ****                                     ;
  70:Generated_Source\PSoC5/BL.c **** 
  71:Generated_Source\PSoC5/BL.c **** static void     BL_HostLink(uint8 timeOut) \
  72:Generated_Source\PSoC5/BL.c ****                                     ;
  73:Generated_Source\PSoC5/BL.c **** 
  74:Generated_Source\PSoC5/BL.c **** static void     BL_LaunchApplication(void) CYSMALL \
  75:Generated_Source\PSoC5/BL.c ****                                     ;
  76:Generated_Source\PSoC5/BL.c **** 
  77:Generated_Source\PSoC5/BL.c **** #if(!CY_PSOC3)
  78:Generated_Source\PSoC5/BL.c ****     /* Implementation for the PSoC 3 resides in a BL_psoc3.a51 file.  */
  79:Generated_Source\PSoC5/BL.c ****     static void     BL_LaunchBootloadable(uint32 appAddr);
  80:Generated_Source\PSoC5/BL.c **** #endif  /* (!CY_PSOC3) */
  81:Generated_Source\PSoC5/BL.c **** 
  82:Generated_Source\PSoC5/BL.c **** 
  83:Generated_Source\PSoC5/BL.c **** /*******************************************************************************
  84:Generated_Source\PSoC5/BL.c **** * Function Name: BL_CalcPacketChecksum
  85:Generated_Source\PSoC5/BL.c **** ********************************************************************************
  86:Generated_Source\PSoC5/BL.c **** *
  87:Generated_Source\PSoC5/BL.c **** * Summary:
  88:Generated_Source\PSoC5/BL.c **** *  This computes the 16 bit checksum for the provided number of bytes contained
ARM GAS  C:\Users\RABBIT~1\AppData\Local\Temp\ccavO8bx.s 			page 3


  89:Generated_Source\PSoC5/BL.c **** *  in the provided buffer
  90:Generated_Source\PSoC5/BL.c **** *
  91:Generated_Source\PSoC5/BL.c **** * Parameters:
  92:Generated_Source\PSoC5/BL.c **** *  buffer:
  93:Generated_Source\PSoC5/BL.c **** *     The buffer containing the data to compute the checksum for
  94:Generated_Source\PSoC5/BL.c **** *  size:
  95:Generated_Source\PSoC5/BL.c **** *     The number of bytes in the buffer to compute the checksum for
  96:Generated_Source\PSoC5/BL.c **** *
  97:Generated_Source\PSoC5/BL.c **** * Returns:
  98:Generated_Source\PSoC5/BL.c **** *  16 bit checksum for the provided data
  99:Generated_Source\PSoC5/BL.c **** *
 100:Generated_Source\PSoC5/BL.c **** *******************************************************************************/
 101:Generated_Source\PSoC5/BL.c **** static uint16 BL_CalcPacketChecksum(const uint8 buffer[], uint16 size) \
 102:Generated_Source\PSoC5/BL.c ****                     CYSMALL 
 103:Generated_Source\PSoC5/BL.c **** {
 104:Generated_Source\PSoC5/BL.c ****     #if(0u != BL_PACKET_CHECKSUM_CRC)
 105:Generated_Source\PSoC5/BL.c **** 
 106:Generated_Source\PSoC5/BL.c ****         uint16 CYDATA crc = BL_CRC_CCITT_INITIAL_VALUE;
 107:Generated_Source\PSoC5/BL.c ****         uint16 CYDATA tmp;
 108:Generated_Source\PSoC5/BL.c ****         uint8  CYDATA i;
 109:Generated_Source\PSoC5/BL.c ****         uint16 CYDATA tmpIndex = size;
 110:Generated_Source\PSoC5/BL.c **** 
 111:Generated_Source\PSoC5/BL.c ****         if(0u == size)
 112:Generated_Source\PSoC5/BL.c ****         {
 113:Generated_Source\PSoC5/BL.c ****             crc = ~crc;
 114:Generated_Source\PSoC5/BL.c ****         }
 115:Generated_Source\PSoC5/BL.c ****         else
 116:Generated_Source\PSoC5/BL.c ****         {
 117:Generated_Source\PSoC5/BL.c ****             do
 118:Generated_Source\PSoC5/BL.c ****             {
 119:Generated_Source\PSoC5/BL.c ****                 tmp = buffer[tmpIndex - size];
 120:Generated_Source\PSoC5/BL.c **** 
 121:Generated_Source\PSoC5/BL.c ****                 for (i = 0u; i < 8u; i++)
 122:Generated_Source\PSoC5/BL.c ****                 {
 123:Generated_Source\PSoC5/BL.c ****                     if (0u != ((crc & 0x0001u) ^ (tmp & 0x0001u)))
 124:Generated_Source\PSoC5/BL.c ****                     {
 125:Generated_Source\PSoC5/BL.c ****                         crc = (crc >> 1u) ^ BL_CRC_CCITT_POLYNOMIAL;
 126:Generated_Source\PSoC5/BL.c ****                     }
 127:Generated_Source\PSoC5/BL.c ****                     else
 128:Generated_Source\PSoC5/BL.c ****                     {
 129:Generated_Source\PSoC5/BL.c ****                         crc >>= 1u;
 130:Generated_Source\PSoC5/BL.c ****                     }
 131:Generated_Source\PSoC5/BL.c **** 
 132:Generated_Source\PSoC5/BL.c ****                     tmp >>= 1u;
 133:Generated_Source\PSoC5/BL.c ****                 }
 134:Generated_Source\PSoC5/BL.c **** 
 135:Generated_Source\PSoC5/BL.c ****                 size--;
 136:Generated_Source\PSoC5/BL.c ****             }
 137:Generated_Source\PSoC5/BL.c ****             while(0u != size);
 138:Generated_Source\PSoC5/BL.c **** 
 139:Generated_Source\PSoC5/BL.c ****             crc = ~crc;
 140:Generated_Source\PSoC5/BL.c ****             tmp = crc;
 141:Generated_Source\PSoC5/BL.c ****             crc = ( uint16 )(crc << 8u) | (tmp >> 8u);
 142:Generated_Source\PSoC5/BL.c ****         }
 143:Generated_Source\PSoC5/BL.c **** 
 144:Generated_Source\PSoC5/BL.c ****         return(crc);
 145:Generated_Source\PSoC5/BL.c **** 
ARM GAS  C:\Users\RABBIT~1\AppData\Local\Temp\ccavO8bx.s 			page 4


 146:Generated_Source\PSoC5/BL.c ****     #else
 147:Generated_Source\PSoC5/BL.c **** 
 148:Generated_Source\PSoC5/BL.c ****         uint16 CYDATA sum = 0u;
 149:Generated_Source\PSoC5/BL.c **** 
 150:Generated_Source\PSoC5/BL.c ****         while (size > 0u)
 151:Generated_Source\PSoC5/BL.c ****         {
 152:Generated_Source\PSoC5/BL.c ****             sum += buffer[size - 1u];
 153:Generated_Source\PSoC5/BL.c ****             size--;
 154:Generated_Source\PSoC5/BL.c ****         }
 155:Generated_Source\PSoC5/BL.c **** 
 156:Generated_Source\PSoC5/BL.c ****         return(( uint16 )1u + ( uint16 )(~sum));
 157:Generated_Source\PSoC5/BL.c **** 
 158:Generated_Source\PSoC5/BL.c ****     #endif /* (0u != BL_PACKET_CHECKSUM_CRC) */
 159:Generated_Source\PSoC5/BL.c **** }
 160:Generated_Source\PSoC5/BL.c **** 
 161:Generated_Source\PSoC5/BL.c **** 
 162:Generated_Source\PSoC5/BL.c **** /*******************************************************************************
 163:Generated_Source\PSoC5/BL.c **** * Function Name: BL_Calc8BitSum
 164:Generated_Source\PSoC5/BL.c **** ********************************************************************************
 165:Generated_Source\PSoC5/BL.c **** *
 166:Generated_Source\PSoC5/BL.c **** * Summary:
 167:Generated_Source\PSoC5/BL.c **** *  This computes the 8 bit sum for the provided number of bytes contained in
 168:Generated_Source\PSoC5/BL.c **** *  FLASH (if baseAddr equals CY_FLASH_BASE) or EEPROM (if baseAddr equals
 169:Generated_Source\PSoC5/BL.c **** *  CY_EEPROM_BASE).
 170:Generated_Source\PSoC5/BL.c **** *
 171:Generated_Source\PSoC5/BL.c **** * Parameters:
 172:Generated_Source\PSoC5/BL.c **** * baseAddr:
 173:Generated_Source\PSoC5/BL.c **** *   CY_FLASH_BASE
 174:Generated_Source\PSoC5/BL.c **** *   CY_EEPROM_BASE - applicable only for PSoC 3 / PSoC 5LP devices.
 175:Generated_Source\PSoC5/BL.c **** *
 176:Generated_Source\PSoC5/BL.c **** *  start:
 177:Generated_Source\PSoC5/BL.c **** *     The starting address to start summing data for
 178:Generated_Source\PSoC5/BL.c **** *  size:
 179:Generated_Source\PSoC5/BL.c **** *     The number of bytes to read and compute the sum for
 180:Generated_Source\PSoC5/BL.c **** *
 181:Generated_Source\PSoC5/BL.c **** * Returns:
 182:Generated_Source\PSoC5/BL.c **** *   8 bit sum for the provided data
 183:Generated_Source\PSoC5/BL.c **** *
 184:Generated_Source\PSoC5/BL.c **** *******************************************************************************/
 185:Generated_Source\PSoC5/BL.c **** uint8 BL_Calc8BitSum(uint32 baseAddr, uint32 start, uint32 size) \
 186:Generated_Source\PSoC5/BL.c ****                 CYSMALL 
 187:Generated_Source\PSoC5/BL.c **** {
 188:Generated_Source\PSoC5/BL.c ****     uint8 CYDATA sum = 0u;
 189:Generated_Source\PSoC5/BL.c **** 
 190:Generated_Source\PSoC5/BL.c ****     #if(!CY_PSOC4)
 191:Generated_Source\PSoC5/BL.c ****         CYASSERT((baseAddr == CY_EEPROM_BASE) || (baseAddr == CY_FLASH_BASE));
 192:Generated_Source\PSoC5/BL.c ****     #else
 193:Generated_Source\PSoC5/BL.c ****         CYASSERT(baseAddr == CY_FLASH_BASE);
 194:Generated_Source\PSoC5/BL.c ****     #endif  /* (!CY_PSOC4) */
 195:Generated_Source\PSoC5/BL.c **** 
 196:Generated_Source\PSoC5/BL.c ****     while (size > 0u)
 197:Generated_Source\PSoC5/BL.c ****     {
 198:Generated_Source\PSoC5/BL.c ****         size--;
 199:Generated_Source\PSoC5/BL.c ****         sum += (*((uint8  *)(baseAddr + start + size)));
 200:Generated_Source\PSoC5/BL.c ****     }
 201:Generated_Source\PSoC5/BL.c **** 
 202:Generated_Source\PSoC5/BL.c ****     return(sum);
ARM GAS  C:\Users\RABBIT~1\AppData\Local\Temp\ccavO8bx.s 			page 5


 203:Generated_Source\PSoC5/BL.c **** }
 204:Generated_Source\PSoC5/BL.c **** 
 205:Generated_Source\PSoC5/BL.c **** 
 206:Generated_Source\PSoC5/BL.c **** /*******************************************************************************
 207:Generated_Source\PSoC5/BL.c **** * Function Name: BL_Start
 208:Generated_Source\PSoC5/BL.c **** ********************************************************************************
 209:Generated_Source\PSoC5/BL.c **** * Summary:
 210:Generated_Source\PSoC5/BL.c **** *  This function is called in order to execute the following algorithm:
 211:Generated_Source\PSoC5/BL.c **** *
 212:Generated_Source\PSoC5/BL.c **** *  - Identify the active bootloadable application (applicable only to
 213:Generated_Source\PSoC5/BL.c **** *    the Multi-application bootloader)
 214:Generated_Source\PSoC5/BL.c **** *
 215:Generated_Source\PSoC5/BL.c **** *  - Validate the bootloader application (design-time configurable, Bootloader
 216:Generated_Source\PSoC5/BL.c **** *    application validation option of the component customizer)
 217:Generated_Source\PSoC5/BL.c **** *
 218:Generated_Source\PSoC5/BL.c **** *  - Validate the active bootloadable application. If active bootloadable
 219:Generated_Source\PSoC5/BL.c **** *    application is not valid, and the other bootloadable application (inactive)
 220:Generated_Source\PSoC5/BL.c **** *    is valid, the last one is started.
 221:Generated_Source\PSoC5/BL.c **** *
 222:Generated_Source\PSoC5/BL.c **** *  - Run a communication subroutine (design-time configurable, Wait for command
 223:Generated_Source\PSoC5/BL.c **** *    option of the component customizer)
 224:Generated_Source\PSoC5/BL.c **** *
 225:Generated_Source\PSoC5/BL.c **** *  - Schedule the bootloadable and reset the device
 226:Generated_Source\PSoC5/BL.c **** *
 227:Generated_Source\PSoC5/BL.c **** * Parameters:
 228:Generated_Source\PSoC5/BL.c **** *  None
 229:Generated_Source\PSoC5/BL.c **** *
 230:Generated_Source\PSoC5/BL.c **** * Return:
 231:Generated_Source\PSoC5/BL.c **** *  This method will never return. It will either load a new application and
 232:Generated_Source\PSoC5/BL.c **** *  reset the device or jump directly to the existing application. The CPU is
 233:Generated_Source\PSoC5/BL.c **** *  halted, if validation failed when "Bootloader application validation" option
 234:Generated_Source\PSoC5/BL.c **** *  is enabled.
 235:Generated_Source\PSoC5/BL.c **** *  PSoC 3/PSoC 5: The CPU is halted if Flash initialization fails.
 236:Generated_Source\PSoC5/BL.c **** *
 237:Generated_Source\PSoC5/BL.c **** * Side Effects:
 238:Generated_Source\PSoC5/BL.c **** *  If Bootloader application validation option is enabled and this method
 239:Generated_Source\PSoC5/BL.c **** *  determines that the bootloader application itself is corrupt, this method
 240:Generated_Source\PSoC5/BL.c **** *  will not return, instead it will simply hang the application.
 241:Generated_Source\PSoC5/BL.c **** *
 242:Generated_Source\PSoC5/BL.c **** *******************************************************************************/
 243:Generated_Source\PSoC5/BL.c **** void BL_Start(void) CYSMALL 
 244:Generated_Source\PSoC5/BL.c **** {
 245:Generated_Source\PSoC5/BL.c ****     #if(0u != BL_BOOTLOADER_APP_VALIDATION)
 246:Generated_Source\PSoC5/BL.c ****         uint8 CYDATA calcedChecksum;
 247:Generated_Source\PSoC5/BL.c ****     #endif    /* (0u != BL_BOOTLOADER_APP_VALIDATION) */
 248:Generated_Source\PSoC5/BL.c **** 
 249:Generated_Source\PSoC5/BL.c ****     #if(!CY_PSOC4)
 250:Generated_Source\PSoC5/BL.c ****         #if(0u != BL_FAST_APP_VALIDATION)
 251:Generated_Source\PSoC5/BL.c ****             #if !defined(CY_BOOT_VERSION)
 252:Generated_Source\PSoC5/BL.c **** 
 253:Generated_Source\PSoC5/BL.c ****                 /* Not required starting from cy_boot 4.20 */
 254:Generated_Source\PSoC5/BL.c ****                 uint8 CYXDATA BL_flashBuffer[BL_FROW_SIZE];
 255:Generated_Source\PSoC5/BL.c **** 
 256:Generated_Source\PSoC5/BL.c ****             #endif /* !defined(CY_BOOT_VERSION) */
 257:Generated_Source\PSoC5/BL.c ****         #endif  /* (0u != BL_FAST_APP_VALIDATION) */
 258:Generated_Source\PSoC5/BL.c ****     #endif  /* (!CY_PSOC4) */
 259:Generated_Source\PSoC5/BL.c **** 
ARM GAS  C:\Users\RABBIT~1\AppData\Local\Temp\ccavO8bx.s 			page 6


 260:Generated_Source\PSoC5/BL.c ****     cystatus validApp  = CYRET_BAD_DATA;
 261:Generated_Source\PSoC5/BL.c **** 
 262:Generated_Source\PSoC5/BL.c **** 
 263:Generated_Source\PSoC5/BL.c ****     /* Identify active bootloadable application */
 264:Generated_Source\PSoC5/BL.c ****     #if(0u != BL_DUAL_APP_BOOTLOADER)
 265:Generated_Source\PSoC5/BL.c **** 
 266:Generated_Source\PSoC5/BL.c ****         /* Assumes no active bootloadable application. Bootloader is active. */
 267:Generated_Source\PSoC5/BL.c ****         BL_activeApp = BL_MD_BTLDB_ACTIVE_NONE;
 268:Generated_Source\PSoC5/BL.c **** 
 269:Generated_Source\PSoC5/BL.c ****         /* Bootloadable # A is active */
 270:Generated_Source\PSoC5/BL.c ****         if(BL_GetMetadata(BL_GET_BTLDB_ACTIVE, 0u) == BL_MD_BTLDB_IS_ACTIVE)
 271:Generated_Source\PSoC5/BL.c ****         {
 272:Generated_Source\PSoC5/BL.c ****             /*******************************************************************
 273:Generated_Source\PSoC5/BL.c ****             * -----------------------------------------------------------
 274:Generated_Source\PSoC5/BL.c ****             * |      | Bootloadable A | Bootloadable B |                |
 275:Generated_Source\PSoC5/BL.c ****             * | Case |---------------------------------|     Action     |
 276:Generated_Source\PSoC5/BL.c ****             * |      | Active | Valid | Active | Valid |                |
 277:Generated_Source\PSoC5/BL.c ****             * |------|--------------------------------------------------|
 278:Generated_Source\PSoC5/BL.c ****             * |  9   |    1   |   0   |   0    |   0   | Bootloader     |
 279:Generated_Source\PSoC5/BL.c ****             * |  10  |    1   |   0   |   0    |   1   | Bootloadable B |
 280:Generated_Source\PSoC5/BL.c ****             * |  11  |    1   |   0   |   1    |   0   | Bootloader     |
 281:Generated_Source\PSoC5/BL.c ****             * |  12  |    1   |   0   |   1    |   1   | Bootloadable B |
 282:Generated_Source\PSoC5/BL.c ****             * |  13  |    1   |   1   |   0    |   0   | Bootloadable A |
 283:Generated_Source\PSoC5/BL.c ****             * |  14  |    1   |   1   |   0    |   1   | Bootloadable A |
 284:Generated_Source\PSoC5/BL.c ****             * |  15  |    1   |   1   |   1    |   0   | Bootloadable A |
 285:Generated_Source\PSoC5/BL.c ****             * |  16  |    1   |   1   |   1    |   1   | Bootloadable A |
 286:Generated_Source\PSoC5/BL.c ****             * -----------------------------------------------------------
 287:Generated_Source\PSoC5/BL.c ****             *******************************************************************/
 288:Generated_Source\PSoC5/BL.c ****             if (CYRET_SUCCESS == BL_ValidateBootloadable(BL_MD_BTLDB_ACTIVE_0))
 289:Generated_Source\PSoC5/BL.c ****             {
 290:Generated_Source\PSoC5/BL.c ****                 /* Cases # 13,  14, 15, and 16 */
 291:Generated_Source\PSoC5/BL.c ****                 BL_activeApp = BL_MD_BTLDB_ACTIVE_0;
 292:Generated_Source\PSoC5/BL.c ****                 validApp = CYRET_SUCCESS;
 293:Generated_Source\PSoC5/BL.c ****             }
 294:Generated_Source\PSoC5/BL.c ****             else
 295:Generated_Source\PSoC5/BL.c ****             {
 296:Generated_Source\PSoC5/BL.c ****                 if (CYRET_SUCCESS == BL_ValidateBootloadable(BL_MD_BTLDB_ACTIVE_1))
 297:Generated_Source\PSoC5/BL.c ****                 {
 298:Generated_Source\PSoC5/BL.c ****                     /* Cases # 10 and 12 */
 299:Generated_Source\PSoC5/BL.c ****                     BL_activeApp = BL_MD_BTLDB_ACTIVE_1;
 300:Generated_Source\PSoC5/BL.c ****                     validApp = CYRET_SUCCESS;
 301:Generated_Source\PSoC5/BL.c ****                 }
 302:Generated_Source\PSoC5/BL.c ****             }
 303:Generated_Source\PSoC5/BL.c ****         }
 304:Generated_Source\PSoC5/BL.c **** 
 305:Generated_Source\PSoC5/BL.c ****         /*  Active bootloadable application is not identified */
 306:Generated_Source\PSoC5/BL.c ****         if(BL_activeApp == BL_MD_BTLDB_ACTIVE_NONE)
 307:Generated_Source\PSoC5/BL.c ****         {
 308:Generated_Source\PSoC5/BL.c ****             /*******************************************************************
 309:Generated_Source\PSoC5/BL.c ****             * -----------------------------------------------------------
 310:Generated_Source\PSoC5/BL.c ****             * |      | Bootloadable A | Bootloadable B |                |
 311:Generated_Source\PSoC5/BL.c ****             * | Case |---------------------------------|     Action     |
 312:Generated_Source\PSoC5/BL.c ****             * |      | Active | Valid | Active | Valid |                |
 313:Generated_Source\PSoC5/BL.c ****             * |------|--------------------------------------------------|
 314:Generated_Source\PSoC5/BL.c ****             * |  1   |    0   |   0   |   0    |   0   | Bootloader     |
 315:Generated_Source\PSoC5/BL.c ****             * |  2   |    0   |   0   |   0    |   1   | Bootloader     |
 316:Generated_Source\PSoC5/BL.c ****             * |  3   |    0   |   0   |   1    |   0   | Bootloader     |
ARM GAS  C:\Users\RABBIT~1\AppData\Local\Temp\ccavO8bx.s 			page 7


 317:Generated_Source\PSoC5/BL.c ****             * |  4   |    0   |   0   |   1    |   1   | Bootloadable B |
 318:Generated_Source\PSoC5/BL.c ****             * |  5   |    0   |   1   |   0    |   0   | Bootloader     |
 319:Generated_Source\PSoC5/BL.c ****             * |  6   |    0   |   1   |   0    |   1   | Bootloader     |
 320:Generated_Source\PSoC5/BL.c ****             * |  7   |    0   |   1   |   1    |   0   | Bootloadable A |
 321:Generated_Source\PSoC5/BL.c ****             * |  8   |    0   |   1   |   1    |   1   | Bootloadable B |
 322:Generated_Source\PSoC5/BL.c ****             * -----------------------------------------------------------
 323:Generated_Source\PSoC5/BL.c ****             *******************************************************************/
 324:Generated_Source\PSoC5/BL.c ****             if (BL_GetMetadata(BL_GET_BTLDB_ACTIVE, 1u) ==
 325:Generated_Source\PSoC5/BL.c ****                     BL_MD_BTLDB_IS_ACTIVE)
 326:Generated_Source\PSoC5/BL.c ****             {
 327:Generated_Source\PSoC5/BL.c ****                 /* Cases # 3, 4, 7, and 8 */
 328:Generated_Source\PSoC5/BL.c ****                 if (CYRET_SUCCESS == BL_ValidateBootloadable(BL_MD_BTLDB_ACTIVE_1))
 329:Generated_Source\PSoC5/BL.c ****                 {
 330:Generated_Source\PSoC5/BL.c ****                     /* Cases # 4 and 8 */
 331:Generated_Source\PSoC5/BL.c ****                     BL_activeApp = BL_MD_BTLDB_ACTIVE_1;
 332:Generated_Source\PSoC5/BL.c ****                     validApp = CYRET_SUCCESS;
 333:Generated_Source\PSoC5/BL.c ****                 }
 334:Generated_Source\PSoC5/BL.c ****                 else
 335:Generated_Source\PSoC5/BL.c ****                 {
 336:Generated_Source\PSoC5/BL.c ****                     if (CYRET_SUCCESS == BL_ValidateBootloadable(BL_MD_BTLDB_ACTIVE_0))
 337:Generated_Source\PSoC5/BL.c ****                     {
 338:Generated_Source\PSoC5/BL.c ****                         /* Cases # 7 */
 339:Generated_Source\PSoC5/BL.c ****                         BL_activeApp = BL_MD_BTLDB_ACTIVE_0;
 340:Generated_Source\PSoC5/BL.c ****                         validApp = CYRET_SUCCESS;
 341:Generated_Source\PSoC5/BL.c ****                     }
 342:Generated_Source\PSoC5/BL.c ****                 }
 343:Generated_Source\PSoC5/BL.c ****             }
 344:Generated_Source\PSoC5/BL.c ****         }
 345:Generated_Source\PSoC5/BL.c ****     #else
 346:Generated_Source\PSoC5/BL.c ****         if (CYRET_SUCCESS == BL_ValidateBootloadable(BL_MD_BTLDB_ACTIVE_0))
 347:Generated_Source\PSoC5/BL.c ****         {
 348:Generated_Source\PSoC5/BL.c ****             validApp = CYRET_SUCCESS;
 349:Generated_Source\PSoC5/BL.c ****         }
 350:Generated_Source\PSoC5/BL.c ****     #endif  /* (0u != BL_DUAL_APP_BOOTLOADER) */
 351:Generated_Source\PSoC5/BL.c **** 
 352:Generated_Source\PSoC5/BL.c **** 
 353:Generated_Source\PSoC5/BL.c ****     /* Initialize Flash subsystem for non-PSoC 4 devices */
 354:Generated_Source\PSoC5/BL.c ****     #if(!CY_PSOC4)
 355:Generated_Source\PSoC5/BL.c ****         #if(0u != BL_FAST_APP_VALIDATION)
 356:Generated_Source\PSoC5/BL.c **** 
 357:Generated_Source\PSoC5/BL.c ****             if (CYRET_SUCCESS != CySetTemp())
 358:Generated_Source\PSoC5/BL.c ****             {
 359:Generated_Source\PSoC5/BL.c ****                 CyHalt(0x00u);
 360:Generated_Source\PSoC5/BL.c ****             }
 361:Generated_Source\PSoC5/BL.c **** 
 362:Generated_Source\PSoC5/BL.c ****             #if !defined(CY_BOOT_VERSION)
 363:Generated_Source\PSoC5/BL.c **** 
 364:Generated_Source\PSoC5/BL.c ****                 /* Not required with cy_boot 4.20 */
 365:Generated_Source\PSoC5/BL.c ****                 if (CYRET_SUCCESS != CySetFlashEEBuffer(BL_flashBuffer))
 366:Generated_Source\PSoC5/BL.c ****                 {
 367:Generated_Source\PSoC5/BL.c ****                     CyHalt(0x00u);
 368:Generated_Source\PSoC5/BL.c ****                 }
 369:Generated_Source\PSoC5/BL.c **** 
 370:Generated_Source\PSoC5/BL.c ****             #endif /* !defined(CY_BOOT_VERSION) */
 371:Generated_Source\PSoC5/BL.c ****         #endif  /* (0u != BL_FAST_APP_VALIDATION) */
 372:Generated_Source\PSoC5/BL.c ****     #endif  /* (CY_PSOC4) */
 373:Generated_Source\PSoC5/BL.c **** 
ARM GAS  C:\Users\RABBIT~1\AppData\Local\Temp\ccavO8bx.s 			page 8


 374:Generated_Source\PSoC5/BL.c **** 
 375:Generated_Source\PSoC5/BL.c ****     /***********************************************************************
 376:Generated_Source\PSoC5/BL.c ****     * Bootloader Application Validation
 377:Generated_Source\PSoC5/BL.c ****     *
 378:Generated_Source\PSoC5/BL.c ****     * Halt the device if:
 379:Generated_Source\PSoC5/BL.c ****     *  - A calculated checksum does not match the one stored in the metadata
 380:Generated_Source\PSoC5/BL.c ****     *     section.
 381:Generated_Source\PSoC5/BL.c ****     *  - There is an invalid pointer to the place where the bootloader
 382:Generated_Source\PSoC5/BL.c ****     *    application ends.
 383:Generated_Source\PSoC5/BL.c ****     *  - Flash subsystem was not initialized correctly
 384:Generated_Source\PSoC5/BL.c ****     ***********************************************************************/
 385:Generated_Source\PSoC5/BL.c ****     #if(0u != BL_BOOTLOADER_APP_VALIDATION)
 386:Generated_Source\PSoC5/BL.c **** 
 387:Generated_Source\PSoC5/BL.c ****         /* Calculate Bootloader application checksum */
 388:Generated_Source\PSoC5/BL.c ****         calcedChecksum = BL_Calc8BitSum(CY_FLASH_BASE,
 389:Generated_Source\PSoC5/BL.c ****                 BL_MD_BTLDR_ADDR_PTR,
 390:Generated_Source\PSoC5/BL.c ****                 *BL_SizeBytesAccess - BL_MD_BTLDR_ADDR_PTR);
 391:Generated_Source\PSoC5/BL.c **** 
 392:Generated_Source\PSoC5/BL.c ****         /* we included checksum, so remove it */
 393:Generated_Source\PSoC5/BL.c ****         calcedChecksum -= *BL_ChecksumAccess;
 394:Generated_Source\PSoC5/BL.c ****         calcedChecksum = ( uint8 )1u + ( uint8 )(~calcedChecksum);
 395:Generated_Source\PSoC5/BL.c **** 
 396:Generated_Source\PSoC5/BL.c ****         /* Checksum and pointer to bootloader verification */
 397:Generated_Source\PSoC5/BL.c ****         if((calcedChecksum != *BL_ChecksumAccess) ||
 398:Generated_Source\PSoC5/BL.c ****            (0u == *BL_SizeBytesAccess))
 399:Generated_Source\PSoC5/BL.c ****         {
 400:Generated_Source\PSoC5/BL.c ****             CyHalt(0x00u);
 401:Generated_Source\PSoC5/BL.c ****         }
 402:Generated_Source\PSoC5/BL.c **** 
 403:Generated_Source\PSoC5/BL.c ****     #endif  /* (0u != BL_BOOTLOADER_APP_VALIDATION) */
 404:Generated_Source\PSoC5/BL.c **** 
 405:Generated_Source\PSoC5/BL.c **** 
 406:Generated_Source\PSoC5/BL.c ****     /***********************************************************************
 407:Generated_Source\PSoC5/BL.c ****     * If the active bootloadable application is invalid or a bootloader
 408:Generated_Source\PSoC5/BL.c ****     * application is scheduled - do the following:
 409:Generated_Source\PSoC5/BL.c ****     *  - schedule the bootloader application to be run after software reset
 410:Generated_Source\PSoC5/BL.c ****     *  - Go to the communication subroutine. The HostLink() will wait for
 411:Generated_Source\PSoC5/BL.c ****     *    the commands forever.
 412:Generated_Source\PSoC5/BL.c ****     ***********************************************************************/
 413:Generated_Source\PSoC5/BL.c ****     if ((BL_GET_RUN_TYPE == BL_START_BTLDR) ||
 414:Generated_Source\PSoC5/BL.c ****         (CYRET_SUCCESS != validApp))
 415:Generated_Source\PSoC5/BL.c ****     {
 416:Generated_Source\PSoC5/BL.c ****         BL_SET_RUN_TYPE(0u);
 417:Generated_Source\PSoC5/BL.c **** 
 418:Generated_Source\PSoC5/BL.c ****         BL_HostLink(BL_WAIT_FOR_COMMAND_FOREVER);
 419:Generated_Source\PSoC5/BL.c ****     }
 420:Generated_Source\PSoC5/BL.c **** 
 421:Generated_Source\PSoC5/BL.c **** 
 422:Generated_Source\PSoC5/BL.c ****     /* Go to communication subroutine. Will wait for commands for specifed time */
 423:Generated_Source\PSoC5/BL.c ****     #if(0u != BL_WAIT_FOR_COMMAND)
 424:Generated_Source\PSoC5/BL.c **** 
 425:Generated_Source\PSoC5/BL.c ****         /* Timeout is in 100s of milliseconds */
 426:Generated_Source\PSoC5/BL.c ****         BL_HostLink(BL_WAIT_FOR_COMMAND_TIME);
 427:Generated_Source\PSoC5/BL.c **** 
 428:Generated_Source\PSoC5/BL.c ****     #endif  /* (0u != BL_WAIT_FOR_COMMAND) */
 429:Generated_Source\PSoC5/BL.c **** 
 430:Generated_Source\PSoC5/BL.c **** 
ARM GAS  C:\Users\RABBIT~1\AppData\Local\Temp\ccavO8bx.s 			page 9


 431:Generated_Source\PSoC5/BL.c ****     /* Schedule bootloadable application and perform software reset */
 432:Generated_Source\PSoC5/BL.c ****     BL_LaunchApplication();
 433:Generated_Source\PSoC5/BL.c **** }
 434:Generated_Source\PSoC5/BL.c **** 
 435:Generated_Source\PSoC5/BL.c **** 
 436:Generated_Source\PSoC5/BL.c **** /*******************************************************************************
 437:Generated_Source\PSoC5/BL.c **** * Function Name: BL_LaunchApplication
 438:Generated_Source\PSoC5/BL.c **** ********************************************************************************
 439:Generated_Source\PSoC5/BL.c **** *
 440:Generated_Source\PSoC5/BL.c **** * Summary:
 441:Generated_Source\PSoC5/BL.c **** *  Schedules bootloadable application and resets device
 442:Generated_Source\PSoC5/BL.c **** *
 443:Generated_Source\PSoC5/BL.c **** * Parameters:
 444:Generated_Source\PSoC5/BL.c **** *  None
 445:Generated_Source\PSoC5/BL.c **** *
 446:Generated_Source\PSoC5/BL.c **** * Returns:
 447:Generated_Source\PSoC5/BL.c **** *  This method will never return.
 448:Generated_Source\PSoC5/BL.c **** *
 449:Generated_Source\PSoC5/BL.c **** *******************************************************************************/
 450:Generated_Source\PSoC5/BL.c **** static void BL_LaunchApplication(void) CYSMALL 
 451:Generated_Source\PSoC5/BL.c **** {
 452:Generated_Source\PSoC5/BL.c ****     /* Schedule Bootloadable to start after reset */
 453:Generated_Source\PSoC5/BL.c ****     BL_SET_RUN_TYPE(BL_START_APP);
 454:Generated_Source\PSoC5/BL.c **** 
 455:Generated_Source\PSoC5/BL.c ****     CySoftwareReset();
 456:Generated_Source\PSoC5/BL.c **** }
 457:Generated_Source\PSoC5/BL.c **** 
 458:Generated_Source\PSoC5/BL.c **** 
 459:Generated_Source\PSoC5/BL.c **** /*******************************************************************************
 460:Generated_Source\PSoC5/BL.c **** * Function Name: BL_Exit
 461:Generated_Source\PSoC5/BL.c **** ********************************************************************************
 462:Generated_Source\PSoC5/BL.c **** *
 463:Generated_Source\PSoC5/BL.c **** * Summary:
 464:Generated_Source\PSoC5/BL.c **** *  Schedules the specified application and performs software reset to launch
 465:Generated_Source\PSoC5/BL.c **** *  a specified application.
 466:Generated_Source\PSoC5/BL.c **** *
 467:Generated_Source\PSoC5/BL.c **** *  If the specified application is not valid, the Bootloader (the result of the
 468:Generated_Source\PSoC5/BL.c **** *  ValidateBootloadable() function execution returns other than CYRET_SUCCESS,
 469:Generated_Source\PSoC5/BL.c **** *  the bootloader application is launched.
 470:Generated_Source\PSoC5/BL.c **** *
 471:Generated_Source\PSoC5/BL.c **** * Parameters:
 472:Generated_Source\PSoC5/BL.c **** *  appId: application to be started:
 473:Generated_Source\PSoC5/BL.c **** *  BL_EXIT_TO_BTLDR   - Bootloader application will be started on
 474:Generated_Source\PSoC5/BL.c **** *                                     software reset.
 475:Generated_Source\PSoC5/BL.c **** *  BL_EXIT_TO_BTLDB,
 476:Generated_Source\PSoC5/BL.c **** *  BL_EXIT_TO_BTLDB_1 - Bootloadable application # 1 will be
 477:Generated_Source\PSoC5/BL.c **** *                                     started on software reset.
 478:Generated_Source\PSoC5/BL.c **** *  BL_EXIT_TO_BTLDB_2 - Bootloadable application # 2 will be
 479:Generated_Source\PSoC5/BL.c **** *                                     started on software reset. Available only
 480:Generated_Source\PSoC5/BL.c **** *                                     if Multi-Application option is enabled in
 481:Generated_Source\PSoC5/BL.c **** *                                     the component customizer.
 482:Generated_Source\PSoC5/BL.c **** * Returns:
 483:Generated_Source\PSoC5/BL.c **** *  This function never returns.
 484:Generated_Source\PSoC5/BL.c **** *
 485:Generated_Source\PSoC5/BL.c **** *******************************************************************************/
 486:Generated_Source\PSoC5/BL.c **** void BL_Exit(uint8 appId) CYSMALL 
 487:Generated_Source\PSoC5/BL.c **** {
ARM GAS  C:\Users\RABBIT~1\AppData\Local\Temp\ccavO8bx.s 			page 10


 488:Generated_Source\PSoC5/BL.c ****     if(BL_EXIT_TO_BTLDR == appId)
 489:Generated_Source\PSoC5/BL.c ****     {
 490:Generated_Source\PSoC5/BL.c ****         BL_SET_RUN_TYPE(0x0u);
 491:Generated_Source\PSoC5/BL.c ****     }
 492:Generated_Source\PSoC5/BL.c ****     else
 493:Generated_Source\PSoC5/BL.c ****     {
 494:Generated_Source\PSoC5/BL.c ****         if(CYRET_SUCCESS == BL_ValidateBootloadable(appId))
 495:Generated_Source\PSoC5/BL.c ****         {
 496:Generated_Source\PSoC5/BL.c ****             /* Set active application in metadata */
 497:Generated_Source\PSoC5/BL.c ****             uint8 CYDATA idx;
 498:Generated_Source\PSoC5/BL.c ****             for(idx = 0u; idx < BL_MAX_NUM_OF_BTLDB; idx++)
 499:Generated_Source\PSoC5/BL.c ****             {
 500:Generated_Source\PSoC5/BL.c ****                 BL_SetFlashByte((uint32) BL_MD_BTLDB_ACTIVE_OFFSET(idx),
 501:Generated_Source\PSoC5/BL.c ****                                               (uint8 )(idx == appId));
 502:Generated_Source\PSoC5/BL.c ****             }
 503:Generated_Source\PSoC5/BL.c **** 
 504:Generated_Source\PSoC5/BL.c ****         #if(0u != BL_DUAL_APP_BOOTLOADER)
 505:Generated_Source\PSoC5/BL.c ****             BL_activeApp = appId;
 506:Generated_Source\PSoC5/BL.c ****         #endif /* (0u != BL_DUAL_APP_BOOTLOADER) */
 507:Generated_Source\PSoC5/BL.c **** 
 508:Generated_Source\PSoC5/BL.c ****             BL_SET_RUN_TYPE(BL_SCHEDULE_BTLDB);
 509:Generated_Source\PSoC5/BL.c ****         }
 510:Generated_Source\PSoC5/BL.c ****         else
 511:Generated_Source\PSoC5/BL.c ****         {
 512:Generated_Source\PSoC5/BL.c ****             BL_SET_RUN_TYPE(0u);
 513:Generated_Source\PSoC5/BL.c ****         }
 514:Generated_Source\PSoC5/BL.c ****     }
 515:Generated_Source\PSoC5/BL.c **** 
 516:Generated_Source\PSoC5/BL.c ****     CySoftwareReset();
 517:Generated_Source\PSoC5/BL.c **** }
 518:Generated_Source\PSoC5/BL.c **** 
 519:Generated_Source\PSoC5/BL.c **** 
 520:Generated_Source\PSoC5/BL.c **** /*******************************************************************************
 521:Generated_Source\PSoC5/BL.c **** * Function Name: CyBtldr_CheckLaunch
 522:Generated_Source\PSoC5/BL.c **** ********************************************************************************
 523:Generated_Source\PSoC5/BL.c **** *
 524:Generated_Source\PSoC5/BL.c **** * Summary:
 525:Generated_Source\PSoC5/BL.c **** *  This routine checks if the bootloader or the bootloadable application has to
 526:Generated_Source\PSoC5/BL.c **** *  be run.  If the application has to be run, it will start executing.
 527:Generated_Source\PSoC5/BL.c **** *  If the bootloader is to be run, it will return, so the bootloader can
 528:Generated_Source\PSoC5/BL.c **** *  continue starting up.
 529:Generated_Source\PSoC5/BL.c **** *
 530:Generated_Source\PSoC5/BL.c **** * Parameters:
 531:Generated_Source\PSoC5/BL.c **** *  None
 532:Generated_Source\PSoC5/BL.c **** *
 533:Generated_Source\PSoC5/BL.c **** * Returns:
 534:Generated_Source\PSoC5/BL.c **** *  It will not return if it determines that the bootloadable application should
 535:Generated_Source\PSoC5/BL.c **** *  be run.
 536:Generated_Source\PSoC5/BL.c **** *
 537:Generated_Source\PSoC5/BL.c **** *******************************************************************************/
 538:Generated_Source\PSoC5/BL.c **** void CyBtldr_CheckLaunch(void) CYSMALL 
 539:Generated_Source\PSoC5/BL.c **** {
 540:Generated_Source\PSoC5/BL.c **** 
 541:Generated_Source\PSoC5/BL.c **** #if(CY_PSOC4)
 542:Generated_Source\PSoC5/BL.c **** 
 543:Generated_Source\PSoC5/BL.c ****     /*******************************************************************************
 544:Generated_Source\PSoC5/BL.c ****     * Set cyBtldrRunType to zero in case of non-software reset occurred. This means
ARM GAS  C:\Users\RABBIT~1\AppData\Local\Temp\ccavO8bx.s 			page 11


 545:Generated_Source\PSoC5/BL.c ****     * that bootloader application is scheduled - that is initial clean state. The
 546:Generated_Source\PSoC5/BL.c ****     * value of cyBtldrRunType is valid only in case of software reset.
 547:Generated_Source\PSoC5/BL.c ****     *******************************************************************************/
 548:Generated_Source\PSoC5/BL.c ****     if (0u == (BL_RES_CAUSE_REG & BL_RES_CAUSE_RESET_SOFT))
 549:Generated_Source\PSoC5/BL.c ****     {
 550:Generated_Source\PSoC5/BL.c ****         cyBtldrRunType = 0u;
 551:Generated_Source\PSoC5/BL.c ****     }
 552:Generated_Source\PSoC5/BL.c **** 
 553:Generated_Source\PSoC5/BL.c **** #endif /* (CY_PSOC4) */
 554:Generated_Source\PSoC5/BL.c **** 
 555:Generated_Source\PSoC5/BL.c **** 
 556:Generated_Source\PSoC5/BL.c ****     if (BL_GET_RUN_TYPE == BL_START_APP)
 557:Generated_Source\PSoC5/BL.c ****     {
 558:Generated_Source\PSoC5/BL.c ****         BL_SET_RUN_TYPE(0u);
 559:Generated_Source\PSoC5/BL.c **** 
 560:Generated_Source\PSoC5/BL.c ****         /*******************************************************************************
 561:Generated_Source\PSoC5/BL.c ****         * Indicates that we have told ourselves to jump to the application since we have
 562:Generated_Source\PSoC5/BL.c ****         * already told ourselves to jump, we do not do any expensive verification of the
 563:Generated_Source\PSoC5/BL.c ****         * application. We just check to make sure that the value at CY_APP_ADDR_ADDRESS
 564:Generated_Source\PSoC5/BL.c ****         * is something other than 0.
 565:Generated_Source\PSoC5/BL.c ****         *******************************************************************************/
 566:Generated_Source\PSoC5/BL.c ****         if(0u != BL_GetMetadata(BL_GET_BTLDB_ADDR, BL_activeApp))
 567:Generated_Source\PSoC5/BL.c ****         {
 568:Generated_Source\PSoC5/BL.c ****             /* Never return from this method */
 569:Generated_Source\PSoC5/BL.c ****             BL_LaunchBootloadable(BL_GetMetadata(BL_GET_BTLDB_ADDR,
 570:Generated_Source\PSoC5/BL.c ****                                                                              BL_activeApp));
 571:Generated_Source\PSoC5/BL.c ****         }
 572:Generated_Source\PSoC5/BL.c ****     }
 573:Generated_Source\PSoC5/BL.c **** }
 574:Generated_Source\PSoC5/BL.c **** 
 575:Generated_Source\PSoC5/BL.c **** 
 576:Generated_Source\PSoC5/BL.c **** /* Moves argument appAddr (RO) into PC, moving execution to appAddr */
 577:Generated_Source\PSoC5/BL.c **** #if defined (__ARMCC_VERSION)
 578:Generated_Source\PSoC5/BL.c **** 
 579:Generated_Source\PSoC5/BL.c ****     __asm static void BL_LaunchBootloadable(uint32 appAddr)
 580:Generated_Source\PSoC5/BL.c ****     {
 581:Generated_Source\PSoC5/BL.c ****         BX  R0
 582:Generated_Source\PSoC5/BL.c ****         ALIGN
 583:Generated_Source\PSoC5/BL.c ****     }
 584:Generated_Source\PSoC5/BL.c **** 
 585:Generated_Source\PSoC5/BL.c **** #elif defined(__GNUC__)
 586:Generated_Source\PSoC5/BL.c **** 
 587:Generated_Source\PSoC5/BL.c ****     __attribute__((noinline)) /* Workaround for GCC toolchain bug with inlining */
 588:Generated_Source\PSoC5/BL.c ****     __attribute__((naked))
 589:Generated_Source\PSoC5/BL.c ****     static void BL_LaunchBootloadable(uint32 appAddr)
 590:Generated_Source\PSoC5/BL.c ****     {
  27              		.loc 1 590 0
  28              		.cfi_startproc
  29              		@ Naked Function: prologue and epilogue provided by programmer.
  30              		@ args = 0, pretend = 0, frame = 0
  31              		@ frame_needed = 0, uses_anonymous_args = 0
  32              	.LVL0:
 591:Generated_Source\PSoC5/BL.c ****         __asm volatile("    BX  R0\n");
  33              		.loc 1 591 0
  34              		.syntax unified
  35              	@ 591 "Generated_Source\PSoC5\BL.c" 1
  36 0000 0047     		    BX  R0
ARM GAS  C:\Users\RABBIT~1\AppData\Local\Temp\ccavO8bx.s 			page 12


  37              	
  38              	@ 0 "" 2
 592:Generated_Source\PSoC5/BL.c ****     }
  39              		.loc 1 592 0
  40              		.thumb
  41              		.syntax unified
  42              		.cfi_endproc
  43              	.LFE62:
  44              		.size	BL_LaunchBootloadable, .-BL_LaunchBootloadable
  45              		.section	.text.BL_Calc8BitSum,"ax",%progbits
  46              		.align	1
  47              		.global	BL_Calc8BitSum
  48              		.thumb
  49              		.thumb_func
  50              		.type	BL_Calc8BitSum, %function
  51              	BL_Calc8BitSum:
  52              	.LFB57:
 187:Generated_Source\PSoC5/BL.c ****     uint8 CYDATA sum = 0u;
  53              		.loc 1 187 0
  54              		.cfi_startproc
  55              		@ args = 0, pretend = 0, frame = 0
  56              		@ frame_needed = 0, uses_anonymous_args = 0
  57              		@ link register save eliminated.
  58              	.LVL1:
 188:Generated_Source\PSoC5/BL.c **** 
  59              		.loc 1 188 0
  60 0000 0023     		movs	r3, #0
 199:Generated_Source\PSoC5/BL.c ****     }
  61              		.loc 1 199 0
  62 0002 0144     		add	r1, r1, r0
  63              	.LVL2:
  64              	.L3:
 196:Generated_Source\PSoC5/BL.c ****     {
  65              		.loc 1 196 0
  66 0004 22B1     		cbz	r2, .L6
 198:Generated_Source\PSoC5/BL.c ****         sum += (*((uint8  *)(baseAddr + start + size)));
  67              		.loc 1 198 0
  68 0006 013A     		subs	r2, r2, #1
  69              	.LVL3:
 199:Generated_Source\PSoC5/BL.c ****     }
  70              		.loc 1 199 0
  71 0008 885C     		ldrb	r0, [r1, r2]	@ zero_extendqisi2
  72 000a 0344     		add	r3, r3, r0
  73              	.LVL4:
  74 000c DBB2     		uxtb	r3, r3
  75              	.LVL5:
  76 000e F9E7     		b	.L3
  77              	.L6:
 203:Generated_Source\PSoC5/BL.c **** 
  78              		.loc 1 203 0
  79 0010 1846     		mov	r0, r3
  80 0012 7047     		bx	lr
  81              		.cfi_endproc
  82              	.LFE57:
  83              		.size	BL_Calc8BitSum, .-BL_Calc8BitSum
  84              		.section	.text.BL_SetFlashByte,"ax",%progbits
  85              		.align	1
ARM GAS  C:\Users\RABBIT~1\AppData\Local\Temp\ccavO8bx.s 			page 13


  86              		.global	BL_SetFlashByte
  87              		.thumb
  88              		.thumb_func
  89              		.type	BL_SetFlashByte, %function
  90              	BL_SetFlashByte:
  91              	.LFB66:
 593:Generated_Source\PSoC5/BL.c **** 
 594:Generated_Source\PSoC5/BL.c **** #elif defined (__ICCARM__)
 595:Generated_Source\PSoC5/BL.c **** 
 596:Generated_Source\PSoC5/BL.c ****     static void BL_LaunchBootloadable(uint32 appAddr)
 597:Generated_Source\PSoC5/BL.c ****     {
 598:Generated_Source\PSoC5/BL.c ****         __asm volatile("    BX  R0\n");
 599:Generated_Source\PSoC5/BL.c ****     }
 600:Generated_Source\PSoC5/BL.c **** 
 601:Generated_Source\PSoC5/BL.c **** #endif  /* (__ARMCC_VERSION) */
 602:Generated_Source\PSoC5/BL.c **** 
 603:Generated_Source\PSoC5/BL.c **** 
 604:Generated_Source\PSoC5/BL.c **** /*******************************************************************************
 605:Generated_Source\PSoC5/BL.c **** * Function Name: BL_ValidateBootloadable
 606:Generated_Source\PSoC5/BL.c **** ********************************************************************************
 607:Generated_Source\PSoC5/BL.c **** * Summary:
 608:Generated_Source\PSoC5/BL.c **** *  Performs the bootloadable application validation by calculating the
 609:Generated_Source\PSoC5/BL.c **** *  application image checksum and comparing it with the checksum value stored
 610:Generated_Source\PSoC5/BL.c **** *  in the Bootloadable Application Checksum field of the metadata section.
 611:Generated_Source\PSoC5/BL.c **** *
 612:Generated_Source\PSoC5/BL.c **** *  If the Fast bootloadable application validation option is enabled in the
 613:Generated_Source\PSoC5/BL.c **** *  component customizer and bootloadable application successfully passes
 614:Generated_Source\PSoC5/BL.c **** *  validation, the Bootloadable Application Verification Status field of the
 615:Generated_Source\PSoC5/BL.c **** *  metadata section is updated. Refer to the Metadata Layout section for the
 616:Generated_Source\PSoC5/BL.c **** *  details.
 617:Generated_Source\PSoC5/BL.c **** *
 618:Generated_Source\PSoC5/BL.c **** *  If the Fast bootloadable application validation option is enabled and
 619:Generated_Source\PSoC5/BL.c **** *  Bootloadable Application Verification Status field of the metadata section
 620:Generated_Source\PSoC5/BL.c **** *  claims that bootloadable application is valid, the function returns
 621:Generated_Source\PSoC5/BL.c **** *  CYRET_SUCCESS without further checksum calculation.
 622:Generated_Source\PSoC5/BL.c **** *
 623:Generated_Source\PSoC5/BL.c **** * Parameters:
 624:Generated_Source\PSoC5/BL.c **** *  appId:
 625:Generated_Source\PSoC5/BL.c **** *  The number of the bootloadable application should be 0 for the normal
 626:Generated_Source\PSoC5/BL.c **** *  bootloader and 0 or 1 for the Multi-Application bootloader.
 627:Generated_Source\PSoC5/BL.c **** *
 628:Generated_Source\PSoC5/BL.c **** * Returns:
 629:Generated_Source\PSoC5/BL.c **** *  Returns CYRET_SUCCESS if the specified bootloadable application is valid.
 630:Generated_Source\PSoC5/BL.c **** *
 631:Generated_Source\PSoC5/BL.c **** *******************************************************************************/
 632:Generated_Source\PSoC5/BL.c **** cystatus BL_ValidateBootloadable(uint8 appId) CYSMALL \
 633:Generated_Source\PSoC5/BL.c **** 
 634:Generated_Source\PSoC5/BL.c ****     {
 635:Generated_Source\PSoC5/BL.c ****         uint32 CYDATA idx;
 636:Generated_Source\PSoC5/BL.c **** 
 637:Generated_Source\PSoC5/BL.c ****         uint32 CYDATA end   = BL_FIRST_APP_BYTE(appId) +
 638:Generated_Source\PSoC5/BL.c ****                                 BL_GetMetadata(BL_GET_BTLDB_LENGTH,
 639:Generated_Source\PSoC5/BL.c ****                                                        appId);
 640:Generated_Source\PSoC5/BL.c **** 
 641:Generated_Source\PSoC5/BL.c ****         CYBIT         valid = 0u; /* Assume bad flash image */
 642:Generated_Source\PSoC5/BL.c ****         uint8  CYDATA calcedChecksum = 0u;
 643:Generated_Source\PSoC5/BL.c **** 
ARM GAS  C:\Users\RABBIT~1\AppData\Local\Temp\ccavO8bx.s 			page 14


 644:Generated_Source\PSoC5/BL.c **** 
 645:Generated_Source\PSoC5/BL.c ****         #if(0u != BL_DUAL_APP_BOOTLOADER)
 646:Generated_Source\PSoC5/BL.c **** 
 647:Generated_Source\PSoC5/BL.c ****             if(appId > 1u)
 648:Generated_Source\PSoC5/BL.c ****             {
 649:Generated_Source\PSoC5/BL.c ****                 return(CYRET_BAD_DATA);
 650:Generated_Source\PSoC5/BL.c ****             }
 651:Generated_Source\PSoC5/BL.c **** 
 652:Generated_Source\PSoC5/BL.c ****         #endif  /* (0u != BL_DUAL_APP_BOOTLOADER) */
 653:Generated_Source\PSoC5/BL.c **** 
 654:Generated_Source\PSoC5/BL.c **** 
 655:Generated_Source\PSoC5/BL.c ****         #if(0u != BL_FAST_APP_VALIDATION)
 656:Generated_Source\PSoC5/BL.c **** 
 657:Generated_Source\PSoC5/BL.c **** 
 658:Generated_Source\PSoC5/BL.c ****             if(BL_GetMetadata(BL_GET_BTLDB_STATUS, appId) ==
 659:Generated_Source\PSoC5/BL.c ****                BL_MD_BTLDB_IS_VERIFIED)
 660:Generated_Source\PSoC5/BL.c ****             {
 661:Generated_Source\PSoC5/BL.c ****                 return(CYRET_SUCCESS);
 662:Generated_Source\PSoC5/BL.c ****             }
 663:Generated_Source\PSoC5/BL.c **** 
 664:Generated_Source\PSoC5/BL.c ****         #endif  /* (0u != BL_FAST_APP_VALIDATION) */
 665:Generated_Source\PSoC5/BL.c **** 
 666:Generated_Source\PSoC5/BL.c **** 
 667:Generated_Source\PSoC5/BL.c ****         /* Calculate checksum of bootloadable image */
 668:Generated_Source\PSoC5/BL.c ****         for(idx = BL_FIRST_APP_BYTE(appId); idx < end; ++idx)
 669:Generated_Source\PSoC5/BL.c ****         {
 670:Generated_Source\PSoC5/BL.c ****             uint8 CYDATA curByte = BL_GET_CODE_BYTE(idx);
 671:Generated_Source\PSoC5/BL.c **** 
 672:Generated_Source\PSoC5/BL.c ****             if((curByte != 0u) && (curByte != 0xFFu))
 673:Generated_Source\PSoC5/BL.c ****             {
 674:Generated_Source\PSoC5/BL.c ****                 valid = 1u;
 675:Generated_Source\PSoC5/BL.c ****             }
 676:Generated_Source\PSoC5/BL.c **** 
 677:Generated_Source\PSoC5/BL.c ****             calcedChecksum += curByte;
 678:Generated_Source\PSoC5/BL.c ****         }
 679:Generated_Source\PSoC5/BL.c **** 
 680:Generated_Source\PSoC5/BL.c **** 
 681:Generated_Source\PSoC5/BL.c ****         /***************************************************************************
 682:Generated_Source\PSoC5/BL.c ****         * We do not compute checksum over the meta data section, so no need to
 683:Generated_Source\PSoC5/BL.c ****         * subtract off App Verified or App Active information here like we do when
 684:Generated_Source\PSoC5/BL.c ****         * verifying a row.
 685:Generated_Source\PSoC5/BL.c ****         ***************************************************************************/
 686:Generated_Source\PSoC5/BL.c **** 
 687:Generated_Source\PSoC5/BL.c **** 
 688:Generated_Source\PSoC5/BL.c ****         #if((!CY_PSOC4) && (CYDEV_ECC_ENABLE == 0u))
 689:Generated_Source\PSoC5/BL.c **** 
 690:Generated_Source\PSoC5/BL.c ****             /* Add ECC data to checksum */
 691:Generated_Source\PSoC5/BL.c ****             idx = ((BL_FIRST_APP_BYTE(appId)) >> 3u);
 692:Generated_Source\PSoC5/BL.c **** 
 693:Generated_Source\PSoC5/BL.c ****             /* Flash may run into meta data, so ECC does not use full row */
 694:Generated_Source\PSoC5/BL.c ****             end = (end == (CY_FLASH_SIZE - BL_MD_SIZEOF))
 695:Generated_Source\PSoC5/BL.c ****                 ? (CY_FLASH_SIZE >> 3u)
 696:Generated_Source\PSoC5/BL.c ****                 : (end >> 3u);
 697:Generated_Source\PSoC5/BL.c **** 
 698:Generated_Source\PSoC5/BL.c ****             for (; idx < end; ++idx)
 699:Generated_Source\PSoC5/BL.c ****             {
 700:Generated_Source\PSoC5/BL.c ****                 calcedChecksum += CY_GET_XTND_REG8((volatile uint8 *)(CYDEV_ECC_BASE + idx));
ARM GAS  C:\Users\RABBIT~1\AppData\Local\Temp\ccavO8bx.s 			page 15


 701:Generated_Source\PSoC5/BL.c ****             }
 702:Generated_Source\PSoC5/BL.c **** 
 703:Generated_Source\PSoC5/BL.c ****         #endif  /* ((!CY_PSOC4) && (CYDEV_ECC_ENABLE == 0u)) */
 704:Generated_Source\PSoC5/BL.c **** 
 705:Generated_Source\PSoC5/BL.c **** 
 706:Generated_Source\PSoC5/BL.c ****         calcedChecksum = ( uint8 )1u + ( uint8 )(~calcedChecksum);
 707:Generated_Source\PSoC5/BL.c **** 
 708:Generated_Source\PSoC5/BL.c **** 
 709:Generated_Source\PSoC5/BL.c ****         if((calcedChecksum != BL_GetMetadata(BL_GET_BTLDB_CHECKSUM, appId)) ||
 710:Generated_Source\PSoC5/BL.c ****            (0u == valid))
 711:Generated_Source\PSoC5/BL.c ****         {
 712:Generated_Source\PSoC5/BL.c ****             return(CYRET_BAD_DATA);
 713:Generated_Source\PSoC5/BL.c ****         }
 714:Generated_Source\PSoC5/BL.c **** 
 715:Generated_Source\PSoC5/BL.c **** 
 716:Generated_Source\PSoC5/BL.c ****         #if(0u != BL_FAST_APP_VALIDATION)
 717:Generated_Source\PSoC5/BL.c ****             BL_SetFlashByte((uint32) BL_MD_BTLDB_VERIFIED_OFFSET(appId),
 718:Generated_Source\PSoC5/BL.c ****                                           BL_MD_BTLDB_IS_VERIFIED);
 719:Generated_Source\PSoC5/BL.c ****         #endif  /* (0u != BL_FAST_APP_VALIDATION) */
 720:Generated_Source\PSoC5/BL.c **** 
 721:Generated_Source\PSoC5/BL.c **** 
 722:Generated_Source\PSoC5/BL.c ****         return(CYRET_SUCCESS);
 723:Generated_Source\PSoC5/BL.c **** }
 724:Generated_Source\PSoC5/BL.c **** 
 725:Generated_Source\PSoC5/BL.c **** 
 726:Generated_Source\PSoC5/BL.c **** /*******************************************************************************
 727:Generated_Source\PSoC5/BL.c **** * Function Name: BL_HostLink
 728:Generated_Source\PSoC5/BL.c **** ********************************************************************************
 729:Generated_Source\PSoC5/BL.c **** *
 730:Generated_Source\PSoC5/BL.c **** * Summary:
 731:Generated_Source\PSoC5/BL.c **** *  Causes the bootloader to attempt to read data being transmitted by the
 732:Generated_Source\PSoC5/BL.c **** *  host application.  If data is sent from the host, this establishes the
 733:Generated_Source\PSoC5/BL.c **** *  communication interface to process all requests.
 734:Generated_Source\PSoC5/BL.c **** *
 735:Generated_Source\PSoC5/BL.c **** * Parameters:
 736:Generated_Source\PSoC5/BL.c **** *  timeOut:
 737:Generated_Source\PSoC5/BL.c **** *   The amount of time to listen for data before giving up. Timeout is
 738:Generated_Source\PSoC5/BL.c **** *   measured in 10s of ms.  Use 0 for an infinite wait.
 739:Generated_Source\PSoC5/BL.c **** *
 740:Generated_Source\PSoC5/BL.c **** * Return:
 741:Generated_Source\PSoC5/BL.c **** *   None
 742:Generated_Source\PSoC5/BL.c **** *
 743:Generated_Source\PSoC5/BL.c **** *******************************************************************************/
 744:Generated_Source\PSoC5/BL.c **** static void BL_HostLink(uint8 timeOut) 
 745:Generated_Source\PSoC5/BL.c **** {
 746:Generated_Source\PSoC5/BL.c ****     uint16    CYDATA numberRead;
 747:Generated_Source\PSoC5/BL.c ****     uint16    CYDATA rspSize;
 748:Generated_Source\PSoC5/BL.c ****     uint8     CYDATA ackCode;
 749:Generated_Source\PSoC5/BL.c ****     uint16    CYDATA pktChecksum;
 750:Generated_Source\PSoC5/BL.c ****     cystatus  CYDATA readStat;
 751:Generated_Source\PSoC5/BL.c ****     uint16    CYDATA pktSize    = 0u;
 752:Generated_Source\PSoC5/BL.c ****     uint16    CYDATA dataOffset = 0u;
 753:Generated_Source\PSoC5/BL.c ****     uint8     CYDATA timeOutCnt = 10u;
 754:Generated_Source\PSoC5/BL.c **** 
 755:Generated_Source\PSoC5/BL.c ****     #if(0u != BL_FAST_APP_VALIDATION)
 756:Generated_Source\PSoC5/BL.c ****         uint8 CYDATA clearedMetaData = 0u;
 757:Generated_Source\PSoC5/BL.c ****     #endif  /* (0u != BL_FAST_APP_VALIDATION) */
ARM GAS  C:\Users\RABBIT~1\AppData\Local\Temp\ccavO8bx.s 			page 16


 758:Generated_Source\PSoC5/BL.c **** 
 759:Generated_Source\PSoC5/BL.c ****     CYBIT     communicationState = BL_COMMUNICATION_STATE_IDLE;
 760:Generated_Source\PSoC5/BL.c **** 
 761:Generated_Source\PSoC5/BL.c ****     uint8     packetBuffer[BL_SIZEOF_COMMAND_BUFFER];
 762:Generated_Source\PSoC5/BL.c ****     uint8     dataBuffer  [BL_SIZEOF_COMMAND_BUFFER];
 763:Generated_Source\PSoC5/BL.c **** 
 764:Generated_Source\PSoC5/BL.c **** 
 765:Generated_Source\PSoC5/BL.c ****     #if(!CY_PSOC4)
 766:Generated_Source\PSoC5/BL.c ****         #if(0u == BL_FAST_APP_VALIDATION)
 767:Generated_Source\PSoC5/BL.c ****             #if !defined(CY_BOOT_VERSION)
 768:Generated_Source\PSoC5/BL.c **** 
 769:Generated_Source\PSoC5/BL.c ****                 /* Not required with cy_boot 4.20 */
 770:Generated_Source\PSoC5/BL.c ****                 uint8 CYXDATA BL_flashBuffer[BL_FROW_SIZE];
 771:Generated_Source\PSoC5/BL.c **** 
 772:Generated_Source\PSoC5/BL.c ****             #endif /* !defined(CY_BOOT_VERSION) */
 773:Generated_Source\PSoC5/BL.c ****         #endif  /* (0u == BL_FAST_APP_VALIDATION) */
 774:Generated_Source\PSoC5/BL.c ****     #endif  /* (CY_PSOC4) */
 775:Generated_Source\PSoC5/BL.c **** 
 776:Generated_Source\PSoC5/BL.c **** 
 777:Generated_Source\PSoC5/BL.c **** 
 778:Generated_Source\PSoC5/BL.c ****     #if(!CY_PSOC4)
 779:Generated_Source\PSoC5/BL.c ****         #if(0u == BL_FAST_APP_VALIDATION)
 780:Generated_Source\PSoC5/BL.c **** 
 781:Generated_Source\PSoC5/BL.c ****             /* Initialize Flash subsystem for non-PSoC 4 devices */
 782:Generated_Source\PSoC5/BL.c ****             if (CYRET_SUCCESS != CySetTemp())
 783:Generated_Source\PSoC5/BL.c ****             {
 784:Generated_Source\PSoC5/BL.c ****                 CyHalt(0x00u);
 785:Generated_Source\PSoC5/BL.c ****             }
 786:Generated_Source\PSoC5/BL.c **** 
 787:Generated_Source\PSoC5/BL.c ****             #if !defined(CY_BOOT_VERSION)
 788:Generated_Source\PSoC5/BL.c **** 
 789:Generated_Source\PSoC5/BL.c ****                 /* Not required with cy_boot 4.20 */
 790:Generated_Source\PSoC5/BL.c ****                 if (CYRET_SUCCESS != CySetFlashEEBuffer(BL_flashBuffer))
 791:Generated_Source\PSoC5/BL.c ****                 {
 792:Generated_Source\PSoC5/BL.c ****                     CyHalt(0x00u);
 793:Generated_Source\PSoC5/BL.c ****                 }
 794:Generated_Source\PSoC5/BL.c **** 
 795:Generated_Source\PSoC5/BL.c ****             #endif /* !defined(CY_BOOT_VERSION) */
 796:Generated_Source\PSoC5/BL.c ****         #endif  /* (0u == BL_FAST_APP_VALIDATION) */
 797:Generated_Source\PSoC5/BL.c ****     #endif  /* (CY_PSOC4) */
 798:Generated_Source\PSoC5/BL.c **** 
 799:Generated_Source\PSoC5/BL.c ****     /* Initialize communications channel. */
 800:Generated_Source\PSoC5/BL.c ****     CyBtldrCommStart();
 801:Generated_Source\PSoC5/BL.c **** 
 802:Generated_Source\PSoC5/BL.c ****     /* Enable global interrupts */
 803:Generated_Source\PSoC5/BL.c ****     CyGlobalIntEnable;
 804:Generated_Source\PSoC5/BL.c **** 
 805:Generated_Source\PSoC5/BL.c ****     do
 806:Generated_Source\PSoC5/BL.c ****     {
 807:Generated_Source\PSoC5/BL.c ****         ackCode = CYRET_SUCCESS;
 808:Generated_Source\PSoC5/BL.c **** 
 809:Generated_Source\PSoC5/BL.c ****         do
 810:Generated_Source\PSoC5/BL.c ****         {
 811:Generated_Source\PSoC5/BL.c ****             readStat = CyBtldrCommRead(packetBuffer,
 812:Generated_Source\PSoC5/BL.c ****                                         BL_SIZEOF_COMMAND_BUFFER,
 813:Generated_Source\PSoC5/BL.c ****                                         &numberRead,
 814:Generated_Source\PSoC5/BL.c ****                                         (0u == timeOut) ? 0xFFu : timeOut);
ARM GAS  C:\Users\RABBIT~1\AppData\Local\Temp\ccavO8bx.s 			page 17


 815:Generated_Source\PSoC5/BL.c ****             if (0u != timeOut)
 816:Generated_Source\PSoC5/BL.c ****             {
 817:Generated_Source\PSoC5/BL.c ****                 timeOutCnt--;
 818:Generated_Source\PSoC5/BL.c ****             }
 819:Generated_Source\PSoC5/BL.c **** 
 820:Generated_Source\PSoC5/BL.c ****         } while ( (0u != timeOutCnt) && (readStat != CYRET_SUCCESS) );
 821:Generated_Source\PSoC5/BL.c **** 
 822:Generated_Source\PSoC5/BL.c **** 
 823:Generated_Source\PSoC5/BL.c ****         if( readStat != CYRET_SUCCESS )
 824:Generated_Source\PSoC5/BL.c ****         {
 825:Generated_Source\PSoC5/BL.c ****             continue;
 826:Generated_Source\PSoC5/BL.c ****         }
 827:Generated_Source\PSoC5/BL.c **** 
 828:Generated_Source\PSoC5/BL.c ****         if((numberRead < BL_MIN_PKT_SIZE) ||
 829:Generated_Source\PSoC5/BL.c ****            (packetBuffer[BL_SOP_ADDR] != BL_SOP))
 830:Generated_Source\PSoC5/BL.c ****         {
 831:Generated_Source\PSoC5/BL.c ****             ackCode = BL_ERR_DATA;
 832:Generated_Source\PSoC5/BL.c ****         }
 833:Generated_Source\PSoC5/BL.c ****         else
 834:Generated_Source\PSoC5/BL.c ****         {
 835:Generated_Source\PSoC5/BL.c ****             pktSize = ((uint16)((uint16)packetBuffer[BL_SIZE_ADDR + 1u] << 8u)) |
 836:Generated_Source\PSoC5/BL.c ****                                packetBuffer[BL_SIZE_ADDR];
 837:Generated_Source\PSoC5/BL.c **** 
 838:Generated_Source\PSoC5/BL.c ****             pktChecksum = ((uint16)((uint16)packetBuffer[BL_CHK_ADDR(pktSize) + 1u] << 8u)) |
 839:Generated_Source\PSoC5/BL.c ****                                    packetBuffer[BL_CHK_ADDR(pktSize)];
 840:Generated_Source\PSoC5/BL.c **** 
 841:Generated_Source\PSoC5/BL.c ****             if((pktSize + BL_MIN_PKT_SIZE) > numberRead)
 842:Generated_Source\PSoC5/BL.c ****             {
 843:Generated_Source\PSoC5/BL.c ****                 ackCode = BL_ERR_LENGTH;
 844:Generated_Source\PSoC5/BL.c ****             }
 845:Generated_Source\PSoC5/BL.c ****             else if(packetBuffer[BL_EOP_ADDR(pktSize)] != BL_EOP)
 846:Generated_Source\PSoC5/BL.c ****             {
 847:Generated_Source\PSoC5/BL.c ****                 ackCode = BL_ERR_DATA;
 848:Generated_Source\PSoC5/BL.c ****             }
 849:Generated_Source\PSoC5/BL.c ****             else if(pktChecksum != BL_CalcPacketChecksum(packetBuffer,
 850:Generated_Source\PSoC5/BL.c ****                                                                         pktSize + BL_DATA_ADDR))
 851:Generated_Source\PSoC5/BL.c ****             {
 852:Generated_Source\PSoC5/BL.c ****                 ackCode = BL_ERR_CHECKSUM;
 853:Generated_Source\PSoC5/BL.c ****             }
 854:Generated_Source\PSoC5/BL.c ****             else
 855:Generated_Source\PSoC5/BL.c ****             {
 856:Generated_Source\PSoC5/BL.c ****                 /* Empty section */
 857:Generated_Source\PSoC5/BL.c ****             }
 858:Generated_Source\PSoC5/BL.c ****         }
 859:Generated_Source\PSoC5/BL.c **** 
 860:Generated_Source\PSoC5/BL.c ****         rspSize = 0u;
 861:Generated_Source\PSoC5/BL.c ****         if(ackCode == CYRET_SUCCESS)
 862:Generated_Source\PSoC5/BL.c ****         {
 863:Generated_Source\PSoC5/BL.c ****             uint8 CYDATA btldrData = packetBuffer[BL_DATA_ADDR];
 864:Generated_Source\PSoC5/BL.c **** 
 865:Generated_Source\PSoC5/BL.c ****             ackCode = BL_ERR_DATA;
 866:Generated_Source\PSoC5/BL.c ****             switch(packetBuffer[BL_CMD_ADDR])
 867:Generated_Source\PSoC5/BL.c ****             {
 868:Generated_Source\PSoC5/BL.c **** 
 869:Generated_Source\PSoC5/BL.c **** 
 870:Generated_Source\PSoC5/BL.c ****             /***************************************************************************
 871:Generated_Source\PSoC5/BL.c ****             *   Get metadata
ARM GAS  C:\Users\RABBIT~1\AppData\Local\Temp\ccavO8bx.s 			page 18


 872:Generated_Source\PSoC5/BL.c ****             ***************************************************************************/
 873:Generated_Source\PSoC5/BL.c ****             #if(0u != BL_CMD_GET_METADATA)
 874:Generated_Source\PSoC5/BL.c **** 
 875:Generated_Source\PSoC5/BL.c ****                 case BL_COMMAND_GET_METADATA:
 876:Generated_Source\PSoC5/BL.c **** 
 877:Generated_Source\PSoC5/BL.c ****                     if((BL_COMMUNICATION_STATE_ACTIVE == communicationState) && (pktSize == 1u))
 878:Generated_Source\PSoC5/BL.c ****                     {
 879:Generated_Source\PSoC5/BL.c ****                         if (btldrData >= BL_MAX_NUM_OF_BTLDB)
 880:Generated_Source\PSoC5/BL.c ****                         {
 881:Generated_Source\PSoC5/BL.c ****                             ackCode = BL_ERR_APP;
 882:Generated_Source\PSoC5/BL.c ****                         }
 883:Generated_Source\PSoC5/BL.c ****                         else if(CYRET_SUCCESS == BL_ValidateBootloadable(btldrData))
 884:Generated_Source\PSoC5/BL.c ****                         {
 885:Generated_Source\PSoC5/BL.c ****                             #if(CY_PSOC3)
 886:Generated_Source\PSoC5/BL.c ****                                 (void) memcpy(&packetBuffer[BL_DATA_ADDR],
 887:Generated_Source\PSoC5/BL.c ****                                             ((uint8  CYCODE *) (BL_META_BASE(btldrData))),
 888:Generated_Source\PSoC5/BL.c ****                                             BL_GET_METADATA_RESPONSE_SIZE);
 889:Generated_Source\PSoC5/BL.c ****                             #else
 890:Generated_Source\PSoC5/BL.c ****                                 (void) memcpy(&packetBuffer[BL_DATA_ADDR],
 891:Generated_Source\PSoC5/BL.c ****                                             (uint8 *) BL_META_BASE(btldrData),
 892:Generated_Source\PSoC5/BL.c ****                                             BL_GET_METADATA_RESPONSE_SIZE);
 893:Generated_Source\PSoC5/BL.c ****                             #endif  /* (CY_PSOC3) */
 894:Generated_Source\PSoC5/BL.c **** 
 895:Generated_Source\PSoC5/BL.c ****                             rspSize = 56u;
 896:Generated_Source\PSoC5/BL.c ****                             ackCode = CYRET_SUCCESS;
 897:Generated_Source\PSoC5/BL.c ****                         }
 898:Generated_Source\PSoC5/BL.c ****                         else
 899:Generated_Source\PSoC5/BL.c ****                         {
 900:Generated_Source\PSoC5/BL.c ****                             ackCode = BL_ERR_APP;
 901:Generated_Source\PSoC5/BL.c ****                         }
 902:Generated_Source\PSoC5/BL.c ****                     }
 903:Generated_Source\PSoC5/BL.c ****                     break;
 904:Generated_Source\PSoC5/BL.c **** 
 905:Generated_Source\PSoC5/BL.c ****             #endif  /* (0u != BL_CMD_GET_METADATA) */
 906:Generated_Source\PSoC5/BL.c **** 
 907:Generated_Source\PSoC5/BL.c **** 
 908:Generated_Source\PSoC5/BL.c ****             /***************************************************************************
 909:Generated_Source\PSoC5/BL.c ****             *   Verify checksum
 910:Generated_Source\PSoC5/BL.c ****             ***************************************************************************/
 911:Generated_Source\PSoC5/BL.c ****             case BL_COMMAND_CHECKSUM:
 912:Generated_Source\PSoC5/BL.c **** 
 913:Generated_Source\PSoC5/BL.c ****                 if((BL_COMMUNICATION_STATE_ACTIVE == communicationState) && (pktSize == 0u))
 914:Generated_Source\PSoC5/BL.c ****                 {
 915:Generated_Source\PSoC5/BL.c ****                     packetBuffer[BL_DATA_ADDR] =
 916:Generated_Source\PSoC5/BL.c ****                             (uint8)(BL_ValidateBootloadable(BL_activeApp) == CYRET_SUCCESS);
 917:Generated_Source\PSoC5/BL.c **** 
 918:Generated_Source\PSoC5/BL.c ****                     rspSize = 1u;
 919:Generated_Source\PSoC5/BL.c ****                     ackCode = CYRET_SUCCESS;
 920:Generated_Source\PSoC5/BL.c ****                 }
 921:Generated_Source\PSoC5/BL.c ****                 break;
 922:Generated_Source\PSoC5/BL.c **** 
 923:Generated_Source\PSoC5/BL.c **** 
 924:Generated_Source\PSoC5/BL.c ****             /***************************************************************************
 925:Generated_Source\PSoC5/BL.c ****             *   Get flash size
 926:Generated_Source\PSoC5/BL.c ****             ***************************************************************************/
 927:Generated_Source\PSoC5/BL.c **** 
 928:Generated_Source\PSoC5/BL.c ****             /* Replace BL_NUM_OF_FLASH_ARRAYS with CY_FLASH_NUMBER_ARRAYS */
ARM GAS  C:\Users\RABBIT~1\AppData\Local\Temp\ccavO8bx.s 			page 19


 929:Generated_Source\PSoC5/BL.c **** 
 930:Generated_Source\PSoC5/BL.c **** 
 931:Generated_Source\PSoC5/BL.c ****             #if(0u != BL_CMD_GET_FLASH_SIZE_AVAIL)
 932:Generated_Source\PSoC5/BL.c **** 
 933:Generated_Source\PSoC5/BL.c ****                 case BL_COMMAND_REPORT_SIZE:
 934:Generated_Source\PSoC5/BL.c **** 
 935:Generated_Source\PSoC5/BL.c ****                     /* btldrData - holds flash array ID sent by host */
 936:Generated_Source\PSoC5/BL.c **** 
 937:Generated_Source\PSoC5/BL.c ****                     if((BL_COMMUNICATION_STATE_ACTIVE == communicationState) && (pktSize == 1u))
 938:Generated_Source\PSoC5/BL.c ****                     {
 939:Generated_Source\PSoC5/BL.c ****                         if(btldrData < CY_FLASH_NUMBER_ARRAYS)
 940:Generated_Source\PSoC5/BL.c ****                         {
 941:Generated_Source\PSoC5/BL.c ****                             uint16 CYDATA startRow;
 942:Generated_Source\PSoC5/BL.c ****                             uint8  CYDATA ArrayIdBtlderEnds;
 943:Generated_Source\PSoC5/BL.c **** 
 944:Generated_Source\PSoC5/BL.c **** 
 945:Generated_Source\PSoC5/BL.c ****                             /**********************************************************************
 946:Generated_Source\PSoC5/BL.c ****                             * - For the flash array where bootloader application ends, return the f
 947:Generated_Source\PSoC5/BL.c ****                             *   full row after the bootloader application.
 948:Generated_Source\PSoC5/BL.c ****                             *
 949:Generated_Source\PSoC5/BL.c ****                             * - For the fully occupied flash array, the number of rows in array is 
 950:Generated_Source\PSoC5/BL.c ****                             *   As there is no space for the bootloadable application in this array
 951:Generated_Source\PSoC5/BL.c ****                             *
 952:Generated_Source\PSoC5/BL.c ****                             * - For the arrays next to the occupied array, zero is returned.
 953:Generated_Source\PSoC5/BL.c ****                             *   The bootloadable application can written from the their beginning.
 954:Generated_Source\PSoC5/BL.c ****                             *
 955:Generated_Source\PSoC5/BL.c ****                             ***********************************************************************
 956:Generated_Source\PSoC5/BL.c ****                             ArrayIdBtlderEnds = (uint8)  (*BL_SizeBytesAccess / CY_FLASH_SIZEOF_ARR
 957:Generated_Source\PSoC5/BL.c **** 
 958:Generated_Source\PSoC5/BL.c ****                             if (btldrData == ArrayIdBtlderEnds)
 959:Generated_Source\PSoC5/BL.c ****                             {
 960:Generated_Source\PSoC5/BL.c ****                                 startRow = (uint16) (*BL_SizeBytesAccess / CY_FLASH_SIZEOF_ROW) %
 961:Generated_Source\PSoC5/BL.c ****                                             BL_NUMBER_OF_ROWS_IN_ARRAY;
 962:Generated_Source\PSoC5/BL.c ****                             }
 963:Generated_Source\PSoC5/BL.c ****                             else if (btldrData > ArrayIdBtlderEnds)
 964:Generated_Source\PSoC5/BL.c ****                             {
 965:Generated_Source\PSoC5/BL.c ****                                 startRow = BL_FIRST_ROW_IN_ARRAY;
 966:Generated_Source\PSoC5/BL.c ****                             }
 967:Generated_Source\PSoC5/BL.c ****                             else /* (btldrData < ArrayIdBtlderEnds) */
 968:Generated_Source\PSoC5/BL.c ****                             {
 969:Generated_Source\PSoC5/BL.c ****                                 startRow = BL_NUMBER_OF_ROWS_IN_ARRAY;
 970:Generated_Source\PSoC5/BL.c ****                             }
 971:Generated_Source\PSoC5/BL.c **** 
 972:Generated_Source\PSoC5/BL.c ****                             packetBuffer[BL_DATA_ADDR]      = LO8(startRow);
 973:Generated_Source\PSoC5/BL.c ****                             packetBuffer[BL_DATA_ADDR + 1u] = HI8(startRow);
 974:Generated_Source\PSoC5/BL.c **** 
 975:Generated_Source\PSoC5/BL.c ****                             packetBuffer[BL_DATA_ADDR + 2u] =
 976:Generated_Source\PSoC5/BL.c ****                                         LO8(BL_NUMBER_OF_ROWS_IN_ARRAY - 1u);
 977:Generated_Source\PSoC5/BL.c **** 
 978:Generated_Source\PSoC5/BL.c ****                             packetBuffer[BL_DATA_ADDR + 3u] =
 979:Generated_Source\PSoC5/BL.c ****                                         HI8(BL_NUMBER_OF_ROWS_IN_ARRAY - 1u);
 980:Generated_Source\PSoC5/BL.c **** 
 981:Generated_Source\PSoC5/BL.c ****                             rspSize = 4u;
 982:Generated_Source\PSoC5/BL.c ****                             ackCode = CYRET_SUCCESS;
 983:Generated_Source\PSoC5/BL.c ****                         }
 984:Generated_Source\PSoC5/BL.c **** 
 985:Generated_Source\PSoC5/BL.c ****                     }
ARM GAS  C:\Users\RABBIT~1\AppData\Local\Temp\ccavO8bx.s 			page 20


 986:Generated_Source\PSoC5/BL.c ****                     break;
 987:Generated_Source\PSoC5/BL.c **** 
 988:Generated_Source\PSoC5/BL.c ****             #endif  /* (0u != BL_CMD_GET_FLASH_SIZE_AVAIL) */
 989:Generated_Source\PSoC5/BL.c **** 
 990:Generated_Source\PSoC5/BL.c **** 
 991:Generated_Source\PSoC5/BL.c ****             /***************************************************************************
 992:Generated_Source\PSoC5/BL.c ****             *   Get application status
 993:Generated_Source\PSoC5/BL.c ****             ***************************************************************************/
 994:Generated_Source\PSoC5/BL.c ****             #if(0u != BL_DUAL_APP_BOOTLOADER)
 995:Generated_Source\PSoC5/BL.c **** 
 996:Generated_Source\PSoC5/BL.c ****                 #if(0u != BL_CMD_GET_APP_STATUS_AVAIL)
 997:Generated_Source\PSoC5/BL.c **** 
 998:Generated_Source\PSoC5/BL.c ****                     case BL_COMMAND_APP_STATUS:
 999:Generated_Source\PSoC5/BL.c **** 
1000:Generated_Source\PSoC5/BL.c ****                         if((BL_COMMUNICATION_STATE_ACTIVE == communicationState) && (pktSize == 1u)
1001:Generated_Source\PSoC5/BL.c ****                         {
1002:Generated_Source\PSoC5/BL.c **** 
1003:Generated_Source\PSoC5/BL.c ****                             packetBuffer[BL_DATA_ADDR] =
1004:Generated_Source\PSoC5/BL.c ****                                 (uint8)BL_ValidateBootloadable(btldrData);
1005:Generated_Source\PSoC5/BL.c **** 
1006:Generated_Source\PSoC5/BL.c ****                             packetBuffer[BL_DATA_ADDR + 1u] =
1007:Generated_Source\PSoC5/BL.c ****                                 (uint8) BL_GetMetadata(BL_GET_BTLDB_ACTIVE, btldrData);
1008:Generated_Source\PSoC5/BL.c **** 
1009:Generated_Source\PSoC5/BL.c ****                             rspSize = 2u;
1010:Generated_Source\PSoC5/BL.c ****                             ackCode = CYRET_SUCCESS;
1011:Generated_Source\PSoC5/BL.c ****                         }
1012:Generated_Source\PSoC5/BL.c ****                         break;
1013:Generated_Source\PSoC5/BL.c **** 
1014:Generated_Source\PSoC5/BL.c ****                 #endif  /* (0u != BL_CMD_GET_APP_STATUS_AVAIL) */
1015:Generated_Source\PSoC5/BL.c **** 
1016:Generated_Source\PSoC5/BL.c ****             #endif  /* (0u != BL_DUAL_APP_BOOTLOADER) */
1017:Generated_Source\PSoC5/BL.c **** 
1018:Generated_Source\PSoC5/BL.c **** 
1019:Generated_Source\PSoC5/BL.c ****             /***************************************************************************
1020:Generated_Source\PSoC5/BL.c ****             *   Program / Erase row
1021:Generated_Source\PSoC5/BL.c ****             ***************************************************************************/
1022:Generated_Source\PSoC5/BL.c ****             case BL_COMMAND_PROGRAM:
1023:Generated_Source\PSoC5/BL.c **** 
1024:Generated_Source\PSoC5/BL.c ****             /* The btldrData variable holds Flash Array ID */
1025:Generated_Source\PSoC5/BL.c **** 
1026:Generated_Source\PSoC5/BL.c ****         #if (0u != BL_CMD_ERASE_ROW_AVAIL)
1027:Generated_Source\PSoC5/BL.c **** 
1028:Generated_Source\PSoC5/BL.c ****             case BL_COMMAND_ERASE:
1029:Generated_Source\PSoC5/BL.c ****                 if (BL_COMMAND_ERASE == packetBuffer[BL_CMD_ADDR])
1030:Generated_Source\PSoC5/BL.c ****                 {
1031:Generated_Source\PSoC5/BL.c ****                     if ((BL_COMMUNICATION_STATE_ACTIVE == communicationState) && (pktSize == 3u))
1032:Generated_Source\PSoC5/BL.c ****                     {
1033:Generated_Source\PSoC5/BL.c ****                         #if(!CY_PSOC4)
1034:Generated_Source\PSoC5/BL.c ****                             if((btldrData >= BL_FIRST_EE_ARRAYID) &&
1035:Generated_Source\PSoC5/BL.c ****                                (btldrData <= BL_LAST_EE_ARRAYID))
1036:Generated_Source\PSoC5/BL.c ****                             {
1037:Generated_Source\PSoC5/BL.c ****                                 /* Size of EEPROM row */
1038:Generated_Source\PSoC5/BL.c ****                                 dataOffset = CY_EEPROM_SIZEOF_ROW;
1039:Generated_Source\PSoC5/BL.c ****                             }
1040:Generated_Source\PSoC5/BL.c ****                             else
1041:Generated_Source\PSoC5/BL.c ****                             {
1042:Generated_Source\PSoC5/BL.c ****                                 /* Size of FLASH row (depends on ECC configuration) */
ARM GAS  C:\Users\RABBIT~1\AppData\Local\Temp\ccavO8bx.s 			page 21


1043:Generated_Source\PSoC5/BL.c ****                                 dataOffset = BL_FROW_SIZE;
1044:Generated_Source\PSoC5/BL.c ****                             }
1045:Generated_Source\PSoC5/BL.c ****                         #else
1046:Generated_Source\PSoC5/BL.c ****                             /* Size of FLASH row (no ECC available) */
1047:Generated_Source\PSoC5/BL.c ****                             dataOffset = BL_FROW_SIZE;
1048:Generated_Source\PSoC5/BL.c ****                         #endif  /* (!CY_PSOC4) */
1049:Generated_Source\PSoC5/BL.c **** 
1050:Generated_Source\PSoC5/BL.c ****                         #if(CY_PSOC3)
1051:Generated_Source\PSoC5/BL.c ****                             (void) memset(dataBuffer, (char8) 0, (int16) dataOffset);
1052:Generated_Source\PSoC5/BL.c ****                         #else
1053:Generated_Source\PSoC5/BL.c ****                             (void) memset(dataBuffer, 0, (uint32) dataOffset);
1054:Generated_Source\PSoC5/BL.c ****                         #endif  /* (CY_PSOC3) */
1055:Generated_Source\PSoC5/BL.c ****                     }
1056:Generated_Source\PSoC5/BL.c ****                     else
1057:Generated_Source\PSoC5/BL.c ****                     {
1058:Generated_Source\PSoC5/BL.c ****                         break;
1059:Generated_Source\PSoC5/BL.c ****                     }
1060:Generated_Source\PSoC5/BL.c ****                 }
1061:Generated_Source\PSoC5/BL.c **** 
1062:Generated_Source\PSoC5/BL.c ****         #endif  /* (0u != BL_CMD_ERASE_ROW_AVAIL) */
1063:Generated_Source\PSoC5/BL.c **** 
1064:Generated_Source\PSoC5/BL.c **** 
1065:Generated_Source\PSoC5/BL.c ****                 if((BL_COMMUNICATION_STATE_ACTIVE == communicationState) && (pktSize >= 3u))
1066:Generated_Source\PSoC5/BL.c ****                 {
1067:Generated_Source\PSoC5/BL.c **** 
1068:Generated_Source\PSoC5/BL.c ****                     /* The command may be sent along with the last block of data, to program the ro
1069:Generated_Source\PSoC5/BL.c ****                     #if(CY_PSOC3)
1070:Generated_Source\PSoC5/BL.c ****                         (void) memcpy(&dataBuffer[dataOffset],
1071:Generated_Source\PSoC5/BL.c ****                                       &packetBuffer[BL_DATA_ADDR + 3u],
1072:Generated_Source\PSoC5/BL.c ****                                       (int16) pktSize - 3);
1073:Generated_Source\PSoC5/BL.c ****                     #else
1074:Generated_Source\PSoC5/BL.c ****                         (void) memcpy(&dataBuffer[dataOffset],
1075:Generated_Source\PSoC5/BL.c ****                                       &packetBuffer[BL_DATA_ADDR + 3u],
1076:Generated_Source\PSoC5/BL.c ****                                       (uint32) pktSize - 3u);
1077:Generated_Source\PSoC5/BL.c ****                     #endif  /* (CY_PSOC3) */
1078:Generated_Source\PSoC5/BL.c **** 
1079:Generated_Source\PSoC5/BL.c ****                     dataOffset += (pktSize - 3u);
1080:Generated_Source\PSoC5/BL.c **** 
1081:Generated_Source\PSoC5/BL.c ****                     #if(!CY_PSOC4)
1082:Generated_Source\PSoC5/BL.c ****                         if((btldrData >= BL_FIRST_EE_ARRAYID) &&
1083:Generated_Source\PSoC5/BL.c ****                            (btldrData <= BL_LAST_EE_ARRAYID))
1084:Generated_Source\PSoC5/BL.c ****                         {
1085:Generated_Source\PSoC5/BL.c **** 
1086:Generated_Source\PSoC5/BL.c ****                             CyEEPROM_Start();
1087:Generated_Source\PSoC5/BL.c **** 
1088:Generated_Source\PSoC5/BL.c ****                             /* Size of EEPROM row */
1089:Generated_Source\PSoC5/BL.c ****                             pktSize = CY_EEPROM_SIZEOF_ROW;
1090:Generated_Source\PSoC5/BL.c ****                         }
1091:Generated_Source\PSoC5/BL.c ****                         else
1092:Generated_Source\PSoC5/BL.c ****                         {
1093:Generated_Source\PSoC5/BL.c ****                             /* Size of FLASH row (depends on ECC configuration) */
1094:Generated_Source\PSoC5/BL.c ****                             pktSize = BL_FROW_SIZE;
1095:Generated_Source\PSoC5/BL.c ****                         }
1096:Generated_Source\PSoC5/BL.c ****                     #else
1097:Generated_Source\PSoC5/BL.c ****                         /* Size of FLASH row (no ECC available) */
1098:Generated_Source\PSoC5/BL.c ****                         pktSize = BL_FROW_SIZE;
1099:Generated_Source\PSoC5/BL.c ****                     #endif  /* (!CY_PSOC4) */
ARM GAS  C:\Users\RABBIT~1\AppData\Local\Temp\ccavO8bx.s 			page 22


1100:Generated_Source\PSoC5/BL.c **** 
1101:Generated_Source\PSoC5/BL.c **** 
1102:Generated_Source\PSoC5/BL.c ****                     /* Check if we have all data to program */
1103:Generated_Source\PSoC5/BL.c ****                     if(dataOffset == pktSize)
1104:Generated_Source\PSoC5/BL.c ****                     {
1105:Generated_Source\PSoC5/BL.c ****                         uint16 row;
1106:Generated_Source\PSoC5/BL.c ****                         uint16 firstRow;
1107:Generated_Source\PSoC5/BL.c **** 
1108:Generated_Source\PSoC5/BL.c ****                         /* Get FLASH/EEPROM row number inside of the array */
1109:Generated_Source\PSoC5/BL.c ****                         dataOffset = ((uint16)((uint16)packetBuffer[BL_DATA_ADDR + 2u] << 8u)) |
1110:Generated_Source\PSoC5/BL.c ****                                               packetBuffer[BL_DATA_ADDR + 1u];
1111:Generated_Source\PSoC5/BL.c **** 
1112:Generated_Source\PSoC5/BL.c **** 
1113:Generated_Source\PSoC5/BL.c ****                         /* Metadata section resides in Flash (cannot be in EEPROM). */
1114:Generated_Source\PSoC5/BL.c ****                         #if(!CY_PSOC4)
1115:Generated_Source\PSoC5/BL.c ****                             if(btldrData <= BL_LAST_FLASH_ARRAYID)
1116:Generated_Source\PSoC5/BL.c ****                             {
1117:Generated_Source\PSoC5/BL.c ****                         #endif  /* (!CY_PSOC4) */
1118:Generated_Source\PSoC5/BL.c **** 
1119:Generated_Source\PSoC5/BL.c **** 
1120:Generated_Source\PSoC5/BL.c ****                         /* btldrData  - holds flash array Id sent by host */
1121:Generated_Source\PSoC5/BL.c ****                         /* dataOffset - holds flash row Id sent by host   */
1122:Generated_Source\PSoC5/BL.c ****                         row = (uint16)(btldrData * BL_NUMBER_OF_ROWS_IN_ARRAY) + dataOffset;
1123:Generated_Source\PSoC5/BL.c **** 
1124:Generated_Source\PSoC5/BL.c **** 
1125:Generated_Source\PSoC5/BL.c ****                         /**************************************************************************
1126:Generated_Source\PSoC5/BL.c ****                         * Refuse to write to the row within range of the bootloader application
1127:Generated_Source\PSoC5/BL.c ****                         ***************************************************************************
1128:Generated_Source\PSoC5/BL.c **** 
1129:Generated_Source\PSoC5/BL.c ****                         /* First empty flash row after bootloader application */
1130:Generated_Source\PSoC5/BL.c ****                         firstRow = (uint16) (*BL_SizeBytesAccess / CYDEV_FLS_ROW_SIZE);
1131:Generated_Source\PSoC5/BL.c ****                         if ((*BL_SizeBytesAccess % CYDEV_FLS_ROW_SIZE) != 0u)
1132:Generated_Source\PSoC5/BL.c ****                         {
1133:Generated_Source\PSoC5/BL.c ****                             firstRow++;
1134:Generated_Source\PSoC5/BL.c ****                         }
1135:Generated_Source\PSoC5/BL.c **** 
1136:Generated_Source\PSoC5/BL.c ****                         /* Check to see if the row to program will not corrupt the bootloader appli
1137:Generated_Source\PSoC5/BL.c ****                         if(row < firstRow)
1138:Generated_Source\PSoC5/BL.c ****                         {
1139:Generated_Source\PSoC5/BL.c ****                             ackCode = BL_ERR_ROW;
1140:Generated_Source\PSoC5/BL.c ****                             dataOffset = 0u;
1141:Generated_Source\PSoC5/BL.c ****                             break;
1142:Generated_Source\PSoC5/BL.c ****                         }
1143:Generated_Source\PSoC5/BL.c **** 
1144:Generated_Source\PSoC5/BL.c **** 
1145:Generated_Source\PSoC5/BL.c ****                         #if(0u != BL_DUAL_APP_BOOTLOADER)
1146:Generated_Source\PSoC5/BL.c **** 
1147:Generated_Source\PSoC5/BL.c ****                             if(BL_activeApp < BL_MD_BTLDB_ACTIVE_NONE)
1148:Generated_Source\PSoC5/BL.c ****                             {
1149:Generated_Source\PSoC5/BL.c ****                                 uint16 lastRow;
1150:Generated_Source\PSoC5/BL.c **** 
1151:Generated_Source\PSoC5/BL.c **** 
1152:Generated_Source\PSoC5/BL.c ****                                 /******************************************************************
1153:Generated_Source\PSoC5/BL.c ****                                 * For the first bootloadable application gets the last flash row oc
1154:Generated_Source\PSoC5/BL.c ****                                 * the bootloader application image:
1155:Generated_Source\PSoC5/BL.c ****                                 *  ----------------------------------------------------------------
1156:Generated_Source\PSoC5/BL.c ****                                 * | Bootloader   | Bootloadable # 1 |     | Bootloadable # 2 |     
ARM GAS  C:\Users\RABBIT~1\AppData\Local\Temp\ccavO8bx.s 			page 23


1157:Generated_Source\PSoC5/BL.c ****                                 *  ----------------------------------------------------------------
1158:Generated_Source\PSoC5/BL.c ****                                 * |<--firstRow---|>
1159:Generated_Source\PSoC5/BL.c ****                                 *
1160:Generated_Source\PSoC5/BL.c ****                                 * For the second bootloadable application gets the last flash row o
1161:Generated_Source\PSoC5/BL.c ****                                 * the first bootloadable application:
1162:Generated_Source\PSoC5/BL.c ****                                 *  ----------------------------------------------------------------
1163:Generated_Source\PSoC5/BL.c ****                                 * | Bootloader   | Bootloadable # 1 |     | Bootloadable # 2 |     
1164:Generated_Source\PSoC5/BL.c ****                                 *  ----------------------------------------------------------------
1165:Generated_Source\PSoC5/BL.c ****                                 * |<-------------firstRow-----------------|>
1166:Generated_Source\PSoC5/BL.c ****                                 *
1167:Generated_Source\PSoC5/BL.c ****                                 * Incremented by 1 to get the first available row.
1168:Generated_Source\PSoC5/BL.c ****                                 *
1169:Generated_Source\PSoC5/BL.c ****                                 * Note: M1 and M2 stands for the metadata # 1 and metadata # 2, met
1170:Generated_Source\PSoC5/BL.c ****                                 * sections for the 1st and 2nd bootloadable applications.
1171:Generated_Source\PSoC5/BL.c ****                                 *******************************************************************
1172:Generated_Source\PSoC5/BL.c ****                                 firstRow = (uint16) 1u +
1173:Generated_Source\PSoC5/BL.c ****                                     (uint16) BL_GetMetadata(BL_GET_BTLDR_LAST_ROW,
1174:Generated_Source\PSoC5/BL.c ****                                                                           BL_activeApp);
1175:Generated_Source\PSoC5/BL.c **** 
1176:Generated_Source\PSoC5/BL.c **** 
1177:Generated_Source\PSoC5/BL.c ****                                 /******************************************************************
1178:Generated_Source\PSoC5/BL.c ****                                 * The number of flash rows available for the both bootloadable appl
1179:Generated_Source\PSoC5/BL.c ****                                 *
1180:Generated_Source\PSoC5/BL.c ****                                 * First bootloadable application is active:
1181:Generated_Source\PSoC5/BL.c ****                                 *  ----------------------------------------------------------------
1182:Generated_Source\PSoC5/BL.c ****                                 * | Bootloader   | Bootloadable # 1 |     | Bootloadable # 2 |     
1183:Generated_Source\PSoC5/BL.c ****                                 *  ----------------------------------------------------------------
1184:Generated_Source\PSoC5/BL.c ****                                 *                |<-------------------lastRow -------------------->
1185:Generated_Source\PSoC5/BL.c ****                                 *
1186:Generated_Source\PSoC5/BL.c ****                                 * Second bootloadable application is active:
1187:Generated_Source\PSoC5/BL.c ****                                 *  ----------------------------------------------------------------
1188:Generated_Source\PSoC5/BL.c ****                                 * | Bootloader   | Bootloadable # 1 |     | Bootloadable # 2 |     
1189:Generated_Source\PSoC5/BL.c ****                                 *  ----------------------------------------------------------------
1190:Generated_Source\PSoC5/BL.c ****                                 *                                         |<-------lastRow-------->
1191:Generated_Source\PSoC5/BL.c ****                                 *******************************************************************
1192:Generated_Source\PSoC5/BL.c ****                                 lastRow = (uint16)(CY_FLASH_NUMBER_ROWS -
1193:Generated_Source\PSoC5/BL.c ****                                                     BL_NUMBER_OF_METADATA_ROWS -
1194:Generated_Source\PSoC5/BL.c ****                                                     firstRow);
1195:Generated_Source\PSoC5/BL.c **** 
1196:Generated_Source\PSoC5/BL.c **** 
1197:Generated_Source\PSoC5/BL.c ****                                 /******************************************************************
1198:Generated_Source\PSoC5/BL.c ****                                 * The number of flash rows available for the active bootloadable ap
1199:Generated_Source\PSoC5/BL.c ****                                 *
1200:Generated_Source\PSoC5/BL.c ****                                 * First bootloadable application is active: the number of flash row
1201:Generated_Source\PSoC5/BL.c ****                                 * for the both bootloadable applications should be divided by 2 - 2
1202:Generated_Source\PSoC5/BL.c ****                                 * applications should fit there.
1203:Generated_Source\PSoC5/BL.c ****                                 *
1204:Generated_Source\PSoC5/BL.c ****                                 * Second bootloadable application is active: the number of flash ro
1205:Generated_Source\PSoC5/BL.c ****                                 * for the both bootloadable applications should be divided by 1 - 1
1206:Generated_Source\PSoC5/BL.c ****                                 * application should fit there.
1207:Generated_Source\PSoC5/BL.c ****                                 *******************************************************************
1208:Generated_Source\PSoC5/BL.c ****                                 lastRow = lastRow / (BL_NUMBER_OF_BTLDBLE_APPS -
1209:Generated_Source\PSoC5/BL.c ****                                                 BL_activeApp);
1210:Generated_Source\PSoC5/BL.c **** 
1211:Generated_Source\PSoC5/BL.c **** 
1212:Generated_Source\PSoC5/BL.c ****                                 /******************************************************************
1213:Generated_Source\PSoC5/BL.c ****                                 * The last row equals to the first row plus the number of rows avai
ARM GAS  C:\Users\RABBIT~1\AppData\Local\Temp\ccavO8bx.s 			page 24


1214:Generated_Source\PSoC5/BL.c ****                                 * the each bootloadable application. That gives the flash row numbe
1215:Generated_Source\PSoC5/BL.c ****                                 * beyond the valid range, so we subtract 1.
1216:Generated_Source\PSoC5/BL.c ****                                 *
1217:Generated_Source\PSoC5/BL.c ****                                 * First bootloadable application is active:
1218:Generated_Source\PSoC5/BL.c ****                                 *  ----------------------------------------------------------------
1219:Generated_Source\PSoC5/BL.c ****                                 * | Bootloader   | Bootloadable # 1 |     | Bootloadable # 2 |     
1220:Generated_Source\PSoC5/BL.c ****                                 *  ----------------------------------------------------------------
1221:Generated_Source\PSoC5/BL.c ****                                 * |<----------------lastRow ------------->|
1222:Generated_Source\PSoC5/BL.c ****                                 *
1223:Generated_Source\PSoC5/BL.c ****                                 * Second bootloadable application is active:
1224:Generated_Source\PSoC5/BL.c ****                                 *  ----------------------------------------------------------------
1225:Generated_Source\PSoC5/BL.c ****                                 * | Bootloader   | Bootloadable # 1 |     | Bootloadable # 2 |     
1226:Generated_Source\PSoC5/BL.c ****                                 *  ----------------------------------------------------------------
1227:Generated_Source\PSoC5/BL.c ****                                 * |<-----------------------------lastRow-------------------------->
1228:Generated_Source\PSoC5/BL.c ****                                 *******************************************************************
1229:Generated_Source\PSoC5/BL.c ****                                 lastRow = (firstRow + lastRow) - 1u;
1230:Generated_Source\PSoC5/BL.c **** 
1231:Generated_Source\PSoC5/BL.c **** 
1232:Generated_Source\PSoC5/BL.c ****                                 /******************************************************************
1233:Generated_Source\PSoC5/BL.c ****                                 * 1. Refuse to write row within the range of the active application
1234:Generated_Source\PSoC5/BL.c ****                                 *
1235:Generated_Source\PSoC5/BL.c ****                                 *  First bootloadable application is active:
1236:Generated_Source\PSoC5/BL.c ****                                 *   ---------------------------------------------------------------
1237:Generated_Source\PSoC5/BL.c ****                                 *  | Bootloader   | Bootloadable # 1 |     | Bootloadable # 2 |    
1238:Generated_Source\PSoC5/BL.c ****                                 *   ---------------------------------------------------------------
1239:Generated_Source\PSoC5/BL.c ****                                 *  |<----------------lastRow ------------->|
1240:Generated_Source\PSoC5/BL.c ****                                 *  |<--firstRow---|>
1241:Generated_Source\PSoC5/BL.c ****                                 *                 |<-------protected------>|
1242:Generated_Source\PSoC5/BL.c ****                                 *
1243:Generated_Source\PSoC5/BL.c ****                                 *  Second bootloadable application is active:
1244:Generated_Source\PSoC5/BL.c ****                                 *   ---------------------------------------------------------------
1245:Generated_Source\PSoC5/BL.c ****                                 *  | Bootloader   | Bootloadable # 1 |     | Bootloadable # 2 |    
1246:Generated_Source\PSoC5/BL.c ****                                 *   ---------------------------------------------------------------
1247:Generated_Source\PSoC5/BL.c ****                                 *  |<-------------firstRow-----------------|>
1248:Generated_Source\PSoC5/BL.c ****                                 *  |<-----------------------------lastRow--------------------------
1249:Generated_Source\PSoC5/BL.c ****                                 *                                          |<-------protected------
1250:Generated_Source\PSoC5/BL.c ****                                 *
1251:Generated_Source\PSoC5/BL.c ****                                 * 2. Refuse to write to the row that contains metadata of the activ
1252:Generated_Source\PSoC5/BL.c ****                                 *    bootloadable application.
1253:Generated_Source\PSoC5/BL.c ****                                 *
1254:Generated_Source\PSoC5/BL.c ****                                 *******************************************************************
1255:Generated_Source\PSoC5/BL.c ****                                 if(((row >= firstRow) && (row <= lastRow)) ||
1256:Generated_Source\PSoC5/BL.c ****                                    ((btldrData == BL_MD_FLASH_ARRAY_NUM) &&
1257:Generated_Source\PSoC5/BL.c ****                                    (dataOffset == BL_MD_ROW_NUM(BL_activeApp))))
1258:Generated_Source\PSoC5/BL.c ****                                 {
1259:Generated_Source\PSoC5/BL.c ****                                     ackCode = BL_ERR_ACTIVE;
1260:Generated_Source\PSoC5/BL.c ****                                     dataOffset = 0u;
1261:Generated_Source\PSoC5/BL.c ****                                     break;
1262:Generated_Source\PSoC5/BL.c ****                                 }
1263:Generated_Source\PSoC5/BL.c ****                             }
1264:Generated_Source\PSoC5/BL.c **** 
1265:Generated_Source\PSoC5/BL.c ****                         #endif  /* (0u != BL_DUAL_APP_BOOTLOADER) */
1266:Generated_Source\PSoC5/BL.c **** 
1267:Generated_Source\PSoC5/BL.c **** 
1268:Generated_Source\PSoC5/BL.c **** 
1269:Generated_Source\PSoC5/BL.c ****                         /**************************************************************************
1270:Generated_Source\PSoC5/BL.c ****                         * Clear row that contains the metadata, when 'Fast bootloadable application
ARM GAS  C:\Users\RABBIT~1\AppData\Local\Temp\ccavO8bx.s 			page 25


1271:Generated_Source\PSoC5/BL.c ****                         * validation' option is enabled.
1272:Generated_Source\PSoC5/BL.c ****                         *
1273:Generated_Source\PSoC5/BL.c ****                         * If 'Fast bootloadable application validation' option is enabled, the
1274:Generated_Source\PSoC5/BL.c ****                         * bootloader only computes the checksum the first time and assumes that it
1275:Generated_Source\PSoC5/BL.c ****                         * remains valid in each future startup. The metadata row is cleared because
1276:Generated_Source\PSoC5/BL.c ****                         * bootloadable application might become corrupted during update, while
1277:Generated_Source\PSoC5/BL.c ****                         * 'Bootloadable Application Verification Status' field will still report th
1278:Generated_Source\PSoC5/BL.c ****                         * application is valid.
1279:Generated_Source\PSoC5/BL.c ****                         ***************************************************************************
1280:Generated_Source\PSoC5/BL.c ****                         #if(0u != BL_FAST_APP_VALIDATION)
1281:Generated_Source\PSoC5/BL.c **** 
1282:Generated_Source\PSoC5/BL.c ****                             if(0u == clearedMetaData)
1283:Generated_Source\PSoC5/BL.c ****                             {
1284:Generated_Source\PSoC5/BL.c ****                                 /* Metadata section must be filled with zeros */
1285:Generated_Source\PSoC5/BL.c **** 
1286:Generated_Source\PSoC5/BL.c ****                                 uint8 erase[BL_FROW_SIZE];
1287:Generated_Source\PSoC5/BL.c ****                                 uint8 BL_notActiveApp;
1288:Generated_Source\PSoC5/BL.c **** 
1289:Generated_Source\PSoC5/BL.c **** 
1290:Generated_Source\PSoC5/BL.c ****                                 #if(CY_PSOC3)
1291:Generated_Source\PSoC5/BL.c ****                                     (void) memset(erase, (char8) 0, (int16) BL_FROW_SIZE);
1292:Generated_Source\PSoC5/BL.c ****                                 #else
1293:Generated_Source\PSoC5/BL.c ****                                     (void) memset(erase, 0, BL_FROW_SIZE);
1294:Generated_Source\PSoC5/BL.c ****                                 #endif  /* (CY_PSOC3) */
1295:Generated_Source\PSoC5/BL.c **** 
1296:Generated_Source\PSoC5/BL.c **** 
1297:Generated_Source\PSoC5/BL.c ****                                 #if(0u != BL_DUAL_APP_BOOTLOADER)
1298:Generated_Source\PSoC5/BL.c ****                                     if (BL_MD_BTLDB_ACTIVE_0 == BL_activeApp)
1299:Generated_Source\PSoC5/BL.c ****                                     {
1300:Generated_Source\PSoC5/BL.c ****                                         BL_notActiveApp = BL_MD_BTLDB_ACTIVE_1;
1301:Generated_Source\PSoC5/BL.c ****                                     }
1302:Generated_Source\PSoC5/BL.c ****                                     else
1303:Generated_Source\PSoC5/BL.c ****                                     {
1304:Generated_Source\PSoC5/BL.c ****                                         BL_notActiveApp = BL_MD_BTLDB_ACTIVE_0;
1305:Generated_Source\PSoC5/BL.c ****                                     }
1306:Generated_Source\PSoC5/BL.c ****                                 #else
1307:Generated_Source\PSoC5/BL.c ****                                     BL_notActiveApp = BL_MD_BTLDB_ACTIVE_0;
1308:Generated_Source\PSoC5/BL.c ****                                 #endif /* (0u != BL_DUAL_APP_BOOTLOADER) */
1309:Generated_Source\PSoC5/BL.c **** 
1310:Generated_Source\PSoC5/BL.c **** 
1311:Generated_Source\PSoC5/BL.c ****                                 #if(CY_PSOC4)
1312:Generated_Source\PSoC5/BL.c ****                                     (void) CySysFlashWriteRow(
1313:Generated_Source\PSoC5/BL.c ****                                             BL_MD_ROW_NUM(BL_notActiveApp),
1314:Generated_Source\PSoC5/BL.c ****                                             erase);
1315:Generated_Source\PSoC5/BL.c ****                                 #else
1316:Generated_Source\PSoC5/BL.c ****                                     (void) CyWriteRowFull(
1317:Generated_Source\PSoC5/BL.c ****                                             (uint8)  BL_MD_FLASH_ARRAY_NUM,
1318:Generated_Source\PSoC5/BL.c ****                                             (uint16) BL_MD_ROW_NUM(BL_notActiveApp),
1319:Generated_Source\PSoC5/BL.c ****                                             erase,
1320:Generated_Source\PSoC5/BL.c ****                                             BL_FROW_SIZE);
1321:Generated_Source\PSoC5/BL.c ****                                 #endif  /* (CY_PSOC4) */
1322:Generated_Source\PSoC5/BL.c **** 
1323:Generated_Source\PSoC5/BL.c ****                                 /* PSoC 5: Do not care about flushing the cache as flash row has be
1324:Generated_Source\PSoC5/BL.c **** 
1325:Generated_Source\PSoC5/BL.c ****                                 /* Set up flag that metadata was cleared */
1326:Generated_Source\PSoC5/BL.c ****                                 clearedMetaData = 1u;
1327:Generated_Source\PSoC5/BL.c ****                             }
ARM GAS  C:\Users\RABBIT~1\AppData\Local\Temp\ccavO8bx.s 			page 26


1328:Generated_Source\PSoC5/BL.c **** 
1329:Generated_Source\PSoC5/BL.c ****                         #endif  /* (0u != BL_FAST_APP_VALIDATION) */
1330:Generated_Source\PSoC5/BL.c **** 
1331:Generated_Source\PSoC5/BL.c **** 
1332:Generated_Source\PSoC5/BL.c ****                         #if(!CY_PSOC4)
1333:Generated_Source\PSoC5/BL.c ****                             }   /* (btldrData <= BL_LAST_FLASH_ARRAYID) */
1334:Generated_Source\PSoC5/BL.c ****                         #endif  /* (!CY_PSOC4) */
1335:Generated_Source\PSoC5/BL.c **** 
1336:Generated_Source\PSoC5/BL.c **** 
1337:Generated_Source\PSoC5/BL.c ****                         #if(CY_PSOC4)
1338:Generated_Source\PSoC5/BL.c ****                             ackCode = (CYRET_SUCCESS != CySysFlashWriteRow((uint32) row, dataBuffer
1339:Generated_Source\PSoC5/BL.c ****                                 ? BL_ERR_ROW \
1340:Generated_Source\PSoC5/BL.c ****                                 : CYRET_SUCCESS;
1341:Generated_Source\PSoC5/BL.c ****                         #else
1342:Generated_Source\PSoC5/BL.c ****                             ackCode = (CYRET_SUCCESS != CyWriteRowFull(btldrData, dataOffset, dataB
1343:Generated_Source\PSoC5/BL.c ****                                 ? BL_ERR_ROW \
1344:Generated_Source\PSoC5/BL.c ****                                 : CYRET_SUCCESS;
1345:Generated_Source\PSoC5/BL.c ****                         #endif  /* (CY_PSOC4) */
1346:Generated_Source\PSoC5/BL.c **** 
1347:Generated_Source\PSoC5/BL.c **** 
1348:Generated_Source\PSoC5/BL.c ****                         #if(CY_PSOC5)
1349:Generated_Source\PSoC5/BL.c ****                             /**********************************************************************
1350:Generated_Source\PSoC5/BL.c ****                             * When writing Flash, data in the instruction cache can become stale.
1351:Generated_Source\PSoC5/BL.c ****                             * Therefore, the cache data does not correlate to the data just written
1352:Generated_Source\PSoC5/BL.c ****                             * Flash. A call to CyFlushCache() is required to invalidate the data in
1353:Generated_Source\PSoC5/BL.c ****                             * cache and force fresh information to be loaded from Flash.
1354:Generated_Source\PSoC5/BL.c ****                             ***********************************************************************
1355:Generated_Source\PSoC5/BL.c ****                             CyFlushCache();
1356:Generated_Source\PSoC5/BL.c ****                         #endif /* (CY_PSOC5) */
1357:Generated_Source\PSoC5/BL.c **** 
1358:Generated_Source\PSoC5/BL.c ****                     }
1359:Generated_Source\PSoC5/BL.c ****                     else
1360:Generated_Source\PSoC5/BL.c ****                     {
1361:Generated_Source\PSoC5/BL.c ****                         ackCode = BL_ERR_LENGTH;
1362:Generated_Source\PSoC5/BL.c ****                     }
1363:Generated_Source\PSoC5/BL.c **** 
1364:Generated_Source\PSoC5/BL.c ****                     dataOffset = 0u;
1365:Generated_Source\PSoC5/BL.c ****                 }
1366:Generated_Source\PSoC5/BL.c ****                 break;
1367:Generated_Source\PSoC5/BL.c **** 
1368:Generated_Source\PSoC5/BL.c **** 
1369:Generated_Source\PSoC5/BL.c ****             /***************************************************************************
1370:Generated_Source\PSoC5/BL.c ****             *   Sync bootloader
1371:Generated_Source\PSoC5/BL.c ****             ***************************************************************************/
1372:Generated_Source\PSoC5/BL.c ****             #if(0u != BL_CMD_SYNC_BOOTLOADER_AVAIL)
1373:Generated_Source\PSoC5/BL.c **** 
1374:Generated_Source\PSoC5/BL.c ****             case BL_COMMAND_SYNC:
1375:Generated_Source\PSoC5/BL.c **** 
1376:Generated_Source\PSoC5/BL.c ****                 if(BL_COMMUNICATION_STATE_ACTIVE == communicationState)
1377:Generated_Source\PSoC5/BL.c ****                 {
1378:Generated_Source\PSoC5/BL.c ****                     /* If something failed the host would send this command to reset the bootloader
1379:Generated_Source\PSoC5/BL.c ****                     dataOffset = 0u;
1380:Generated_Source\PSoC5/BL.c **** 
1381:Generated_Source\PSoC5/BL.c ****                     /* Don't acknowledge the packet, just get ready to accept the next one */
1382:Generated_Source\PSoC5/BL.c ****                     continue;
1383:Generated_Source\PSoC5/BL.c ****                 }
1384:Generated_Source\PSoC5/BL.c ****                 break;
ARM GAS  C:\Users\RABBIT~1\AppData\Local\Temp\ccavO8bx.s 			page 27


1385:Generated_Source\PSoC5/BL.c **** 
1386:Generated_Source\PSoC5/BL.c ****             #endif  /* (0u != BL_CMD_SYNC_BOOTLOADER_AVAIL) */
1387:Generated_Source\PSoC5/BL.c **** 
1388:Generated_Source\PSoC5/BL.c **** 
1389:Generated_Source\PSoC5/BL.c ****             /***************************************************************************
1390:Generated_Source\PSoC5/BL.c ****             *   Set an active application
1391:Generated_Source\PSoC5/BL.c ****             ***************************************************************************/
1392:Generated_Source\PSoC5/BL.c ****             #if(0u != BL_DUAL_APP_BOOTLOADER)
1393:Generated_Source\PSoC5/BL.c **** 
1394:Generated_Source\PSoC5/BL.c ****                 case BL_COMMAND_APP_ACTIVE:
1395:Generated_Source\PSoC5/BL.c **** 
1396:Generated_Source\PSoC5/BL.c ****                     if((BL_COMMUNICATION_STATE_ACTIVE == communicationState) && (pktSize == 1u))
1397:Generated_Source\PSoC5/BL.c ****                     {
1398:Generated_Source\PSoC5/BL.c ****                         if(CYRET_SUCCESS == BL_ValidateBootloadable(btldrData))
1399:Generated_Source\PSoC5/BL.c ****                         {
1400:Generated_Source\PSoC5/BL.c ****                             uint8 CYDATA idx;
1401:Generated_Source\PSoC5/BL.c **** 
1402:Generated_Source\PSoC5/BL.c ****                             for(idx = 0u; idx < BL_MAX_NUM_OF_BTLDB; idx++)
1403:Generated_Source\PSoC5/BL.c ****                             {
1404:Generated_Source\PSoC5/BL.c ****                                 BL_SetFlashByte((uint32) BL_MD_BTLDB_ACTIVE_OFFSET(idx),
1405:Generated_Source\PSoC5/BL.c ****                                                               (uint8 )(idx == btldrData));
1406:Generated_Source\PSoC5/BL.c ****                             }
1407:Generated_Source\PSoC5/BL.c ****                             BL_activeApp = btldrData;
1408:Generated_Source\PSoC5/BL.c ****                             ackCode = CYRET_SUCCESS;
1409:Generated_Source\PSoC5/BL.c ****                         }
1410:Generated_Source\PSoC5/BL.c ****                         else
1411:Generated_Source\PSoC5/BL.c ****                         {
1412:Generated_Source\PSoC5/BL.c ****                             ackCode = BL_ERR_APP;
1413:Generated_Source\PSoC5/BL.c ****                         }
1414:Generated_Source\PSoC5/BL.c ****                     }
1415:Generated_Source\PSoC5/BL.c ****                     break;
1416:Generated_Source\PSoC5/BL.c **** 
1417:Generated_Source\PSoC5/BL.c ****             #endif  /* (0u != BL_DUAL_APP_BOOTLOADER) */
1418:Generated_Source\PSoC5/BL.c **** 
1419:Generated_Source\PSoC5/BL.c **** 
1420:Generated_Source\PSoC5/BL.c ****             /***************************************************************************
1421:Generated_Source\PSoC5/BL.c ****             *   Send data
1422:Generated_Source\PSoC5/BL.c ****             ***************************************************************************/
1423:Generated_Source\PSoC5/BL.c ****             #if (0u != BL_CMD_SEND_DATA_AVAIL)
1424:Generated_Source\PSoC5/BL.c **** 
1425:Generated_Source\PSoC5/BL.c ****                 case BL_COMMAND_DATA:
1426:Generated_Source\PSoC5/BL.c **** 
1427:Generated_Source\PSoC5/BL.c ****                     if(BL_COMMUNICATION_STATE_ACTIVE == communicationState)
1428:Generated_Source\PSoC5/BL.c ****                     {
1429:Generated_Source\PSoC5/BL.c ****                         /*  Make sure that dataOffset is valid before copying the data */
1430:Generated_Source\PSoC5/BL.c ****                         if((dataOffset + pktSize) <= BL_SIZEOF_COMMAND_BUFFER)
1431:Generated_Source\PSoC5/BL.c ****                         {
1432:Generated_Source\PSoC5/BL.c ****                             ackCode = CYRET_SUCCESS;
1433:Generated_Source\PSoC5/BL.c **** 
1434:Generated_Source\PSoC5/BL.c ****                             #if(CY_PSOC3)
1435:Generated_Source\PSoC5/BL.c ****                                 (void) memcpy(&dataBuffer[dataOffset],
1436:Generated_Source\PSoC5/BL.c ****                                               &packetBuffer[BL_DATA_ADDR],
1437:Generated_Source\PSoC5/BL.c ****                                               ( int16 )pktSize);
1438:Generated_Source\PSoC5/BL.c ****                             #else
1439:Generated_Source\PSoC5/BL.c ****                                 (void) memcpy(&dataBuffer[dataOffset],
1440:Generated_Source\PSoC5/BL.c ****                                               &packetBuffer[BL_DATA_ADDR],
1441:Generated_Source\PSoC5/BL.c ****                                               (uint32) pktSize);
ARM GAS  C:\Users\RABBIT~1\AppData\Local\Temp\ccavO8bx.s 			page 28


1442:Generated_Source\PSoC5/BL.c ****                             #endif  /* (CY_PSOC3) */
1443:Generated_Source\PSoC5/BL.c **** 
1444:Generated_Source\PSoC5/BL.c ****                             dataOffset += pktSize;
1445:Generated_Source\PSoC5/BL.c ****                         }
1446:Generated_Source\PSoC5/BL.c ****                         else
1447:Generated_Source\PSoC5/BL.c ****                         {
1448:Generated_Source\PSoC5/BL.c ****                             ackCode = BL_ERR_LENGTH;
1449:Generated_Source\PSoC5/BL.c ****                         }
1450:Generated_Source\PSoC5/BL.c ****                     }
1451:Generated_Source\PSoC5/BL.c **** 
1452:Generated_Source\PSoC5/BL.c ****                     break;
1453:Generated_Source\PSoC5/BL.c **** 
1454:Generated_Source\PSoC5/BL.c ****             #endif  /* (0u != BL_CMD_SEND_DATA_AVAIL) */
1455:Generated_Source\PSoC5/BL.c **** 
1456:Generated_Source\PSoC5/BL.c **** 
1457:Generated_Source\PSoC5/BL.c ****             /***************************************************************************
1458:Generated_Source\PSoC5/BL.c ****             *   Enter bootloader
1459:Generated_Source\PSoC5/BL.c ****             ***************************************************************************/
1460:Generated_Source\PSoC5/BL.c ****             case BL_COMMAND_ENTER:
1461:Generated_Source\PSoC5/BL.c **** 
1462:Generated_Source\PSoC5/BL.c ****                 if(pktSize == 0u)
1463:Generated_Source\PSoC5/BL.c ****                 {
1464:Generated_Source\PSoC5/BL.c ****                     #if(CY_PSOC3)
1465:Generated_Source\PSoC5/BL.c **** 
1466:Generated_Source\PSoC5/BL.c ****                         BL_ENTER CYDATA BtldrVersion =
1467:Generated_Source\PSoC5/BL.c ****                             {CYSWAP_ENDIAN32(CYDEV_CHIP_JTAG_ID), CYDEV_CHIP_REV_EXPECT, BL_VERSION
1468:Generated_Source\PSoC5/BL.c **** 
1469:Generated_Source\PSoC5/BL.c ****                     #else
1470:Generated_Source\PSoC5/BL.c **** 
1471:Generated_Source\PSoC5/BL.c ****                         BL_ENTER CYDATA BtldrVersion =
1472:Generated_Source\PSoC5/BL.c ****                             {CYDEV_CHIP_JTAG_ID, CYDEV_CHIP_REV_EXPECT, BL_VERSION};
1473:Generated_Source\PSoC5/BL.c **** 
1474:Generated_Source\PSoC5/BL.c ****                     #endif  /* (CY_PSOC3) */
1475:Generated_Source\PSoC5/BL.c **** 
1476:Generated_Source\PSoC5/BL.c ****                     communicationState = BL_COMMUNICATION_STATE_ACTIVE;
1477:Generated_Source\PSoC5/BL.c **** 
1478:Generated_Source\PSoC5/BL.c ****                     rspSize = sizeof(BL_ENTER);
1479:Generated_Source\PSoC5/BL.c **** 
1480:Generated_Source\PSoC5/BL.c ****                     #if(CY_PSOC3)
1481:Generated_Source\PSoC5/BL.c ****                         (void) memcpy(&packetBuffer[BL_DATA_ADDR],
1482:Generated_Source\PSoC5/BL.c ****                                       &BtldrVersion,
1483:Generated_Source\PSoC5/BL.c ****                                       ( int16 )rspSize);
1484:Generated_Source\PSoC5/BL.c ****                     #else
1485:Generated_Source\PSoC5/BL.c ****                         (void) memcpy(&packetBuffer[BL_DATA_ADDR],
1486:Generated_Source\PSoC5/BL.c ****                                       &BtldrVersion,
1487:Generated_Source\PSoC5/BL.c ****                                       (uint32) rspSize);
1488:Generated_Source\PSoC5/BL.c ****                     #endif  /* (CY_PSOC3) */
1489:Generated_Source\PSoC5/BL.c **** 
1490:Generated_Source\PSoC5/BL.c ****                     ackCode = CYRET_SUCCESS;
1491:Generated_Source\PSoC5/BL.c ****                 }
1492:Generated_Source\PSoC5/BL.c ****                 break;
1493:Generated_Source\PSoC5/BL.c **** 
1494:Generated_Source\PSoC5/BL.c **** 
1495:Generated_Source\PSoC5/BL.c ****             /***************************************************************************
1496:Generated_Source\PSoC5/BL.c ****             *   Verify row
1497:Generated_Source\PSoC5/BL.c ****             ***************************************************************************/
1498:Generated_Source\PSoC5/BL.c ****             #if (0u != BL_CMD_VERIFY_ROW_AVAIL)
ARM GAS  C:\Users\RABBIT~1\AppData\Local\Temp\ccavO8bx.s 			page 29


1499:Generated_Source\PSoC5/BL.c **** 
1500:Generated_Source\PSoC5/BL.c ****             case BL_COMMAND_VERIFY:
1501:Generated_Source\PSoC5/BL.c **** 
1502:Generated_Source\PSoC5/BL.c ****                 if((BL_COMMUNICATION_STATE_ACTIVE == communicationState) && (pktSize == 3u))
1503:Generated_Source\PSoC5/BL.c ****                 {
1504:Generated_Source\PSoC5/BL.c ****                     /* Get FLASH/EEPROM row number */
1505:Generated_Source\PSoC5/BL.c ****                     uint16 CYDATA rowNum = ((uint16)((uint16)packetBuffer[BL_DATA_ADDR + 2u] << 8u)
1506:Generated_Source\PSoC5/BL.c ****                                                     packetBuffer[BL_DATA_ADDR + 1u];
1507:Generated_Source\PSoC5/BL.c **** 
1508:Generated_Source\PSoC5/BL.c ****                     #if(!CY_PSOC4)
1509:Generated_Source\PSoC5/BL.c **** 
1510:Generated_Source\PSoC5/BL.c ****                         uint32 CYDATA rowAddr;
1511:Generated_Source\PSoC5/BL.c ****                         uint8 CYDATA checksum;
1512:Generated_Source\PSoC5/BL.c **** 
1513:Generated_Source\PSoC5/BL.c ****                         if((btldrData >= BL_FIRST_EE_ARRAYID) &&
1514:Generated_Source\PSoC5/BL.c ****                            (btldrData <= BL_LAST_EE_ARRAYID))
1515:Generated_Source\PSoC5/BL.c ****                         {
1516:Generated_Source\PSoC5/BL.c ****                             /* EEPROM */
1517:Generated_Source\PSoC5/BL.c ****                             /* Both PSoC 3 and PSoC 5LP architectures have one EEPROM array. */
1518:Generated_Source\PSoC5/BL.c ****                             rowAddr = (uint32)rowNum * CYDEV_EEPROM_ROW_SIZE;
1519:Generated_Source\PSoC5/BL.c **** 
1520:Generated_Source\PSoC5/BL.c ****                             checksum = BL_Calc8BitSum(CY_EEPROM_BASE, rowAddr, CYDEV_EEPROM_ROW_SIZ
1521:Generated_Source\PSoC5/BL.c ****                         }
1522:Generated_Source\PSoC5/BL.c ****                         else
1523:Generated_Source\PSoC5/BL.c ****                         {
1524:Generated_Source\PSoC5/BL.c ****                             /* FLASH */
1525:Generated_Source\PSoC5/BL.c ****                             rowAddr = ((uint32)btldrData * CYDEV_FLS_SECTOR_SIZE)
1526:Generated_Source\PSoC5/BL.c ****                                        + ((uint32)rowNum * CYDEV_FLS_ROW_SIZE);
1527:Generated_Source\PSoC5/BL.c **** 
1528:Generated_Source\PSoC5/BL.c ****                             checksum = BL_Calc8BitSum(CY_FLASH_BASE, rowAddr, CYDEV_FLS_ROW_SIZE);
1529:Generated_Source\PSoC5/BL.c ****                         }
1530:Generated_Source\PSoC5/BL.c **** 
1531:Generated_Source\PSoC5/BL.c ****                     #else
1532:Generated_Source\PSoC5/BL.c **** 
1533:Generated_Source\PSoC5/BL.c ****                         uint32 CYDATA rowAddr = ((uint32)btldrData * CYDEV_FLS_SECTOR_SIZE)
1534:Generated_Source\PSoC5/BL.c ****                                             + ((uint32)rowNum * CYDEV_FLS_ROW_SIZE);
1535:Generated_Source\PSoC5/BL.c **** 
1536:Generated_Source\PSoC5/BL.c ****                         uint8 CYDATA checksum = BL_Calc8BitSum(CY_FLASH_BASE,
1537:Generated_Source\PSoC5/BL.c ****                                                                              rowAddr,
1538:Generated_Source\PSoC5/BL.c ****                                                                              CYDEV_FLS_ROW_SIZE);
1539:Generated_Source\PSoC5/BL.c **** 
1540:Generated_Source\PSoC5/BL.c ****                     #endif  /* (!CY_PSOC4) */
1541:Generated_Source\PSoC5/BL.c **** 
1542:Generated_Source\PSoC5/BL.c **** 
1543:Generated_Source\PSoC5/BL.c ****                     /* Calculate checksum on data from ECC */
1544:Generated_Source\PSoC5/BL.c ****                     #if(!CY_PSOC4) && (CYDEV_ECC_ENABLE == 0u)
1545:Generated_Source\PSoC5/BL.c **** 
1546:Generated_Source\PSoC5/BL.c ****                         if(btldrData <= BL_LAST_FLASH_ARRAYID)
1547:Generated_Source\PSoC5/BL.c ****                         {
1548:Generated_Source\PSoC5/BL.c ****                             uint16 CYDATA tmpIndex;
1549:Generated_Source\PSoC5/BL.c **** 
1550:Generated_Source\PSoC5/BL.c ****                             rowAddr = CYDEV_ECC_BASE + ((uint32)btldrData * (CYDEV_FLS_SECTOR_SIZE 
1551:Generated_Source\PSoC5/BL.c ****                                         + ((uint32)rowNum * CYDEV_ECC_ROW_SIZE);
1552:Generated_Source\PSoC5/BL.c **** 
1553:Generated_Source\PSoC5/BL.c ****                             for(tmpIndex = 0u; tmpIndex < CYDEV_ECC_ROW_SIZE; tmpIndex++)
1554:Generated_Source\PSoC5/BL.c ****                             {
1555:Generated_Source\PSoC5/BL.c ****                                 checksum += CY_GET_XTND_REG8((uint8 CYFAR *)(rowAddr + tmpIndex));
ARM GAS  C:\Users\RABBIT~1\AppData\Local\Temp\ccavO8bx.s 			page 30


1556:Generated_Source\PSoC5/BL.c ****                             }
1557:Generated_Source\PSoC5/BL.c ****                         }
1558:Generated_Source\PSoC5/BL.c **** 
1559:Generated_Source\PSoC5/BL.c ****                     #endif  /* (!CY_PSOC4) && (CYDEV_ECC_ENABLE == 0u) */
1560:Generated_Source\PSoC5/BL.c **** 
1561:Generated_Source\PSoC5/BL.c **** 
1562:Generated_Source\PSoC5/BL.c ****                     /******************************************************************************
1563:Generated_Source\PSoC5/BL.c ****                     * App Verified & App Active are information that is updated in Flash at runtime
1564:Generated_Source\PSoC5/BL.c ****                     * Remove these items from the checksum to allow the host to verify everything i
1565:Generated_Source\PSoC5/BL.c ****                     * correct.
1566:Generated_Source\PSoC5/BL.c ****                      ******************************************************************************
1567:Generated_Source\PSoC5/BL.c ****                     if((BL_MD_FLASH_ARRAY_NUM == btldrData) &&
1568:Generated_Source\PSoC5/BL.c ****                        (BL_CONTAIN_METADATA(rowNum)))
1569:Generated_Source\PSoC5/BL.c ****                     {
1570:Generated_Source\PSoC5/BL.c **** 
1571:Generated_Source\PSoC5/BL.c ****                         checksum -= (uint8)BL_GetMetadata(BL_GET_BTLDB_ACTIVE,
1572:Generated_Source\PSoC5/BL.c ****                                                                  BL_GET_APP_ID(rowNum));
1573:Generated_Source\PSoC5/BL.c **** 
1574:Generated_Source\PSoC5/BL.c ****                         checksum -= (uint8)BL_GetMetadata(BL_GET_BTLDB_STATUS,
1575:Generated_Source\PSoC5/BL.c ****                                                                  BL_GET_APP_ID(rowNum));
1576:Generated_Source\PSoC5/BL.c ****                     }
1577:Generated_Source\PSoC5/BL.c **** 
1578:Generated_Source\PSoC5/BL.c ****                     packetBuffer[BL_DATA_ADDR] = (uint8)1u + (uint8)(~checksum);
1579:Generated_Source\PSoC5/BL.c ****                     ackCode = CYRET_SUCCESS;
1580:Generated_Source\PSoC5/BL.c ****                     rspSize = 1u;
1581:Generated_Source\PSoC5/BL.c ****                 }
1582:Generated_Source\PSoC5/BL.c ****                 break;
1583:Generated_Source\PSoC5/BL.c **** 
1584:Generated_Source\PSoC5/BL.c ****             #endif /* (0u != BL_CMD_VERIFY_ROW_AVAIL) */
1585:Generated_Source\PSoC5/BL.c **** 
1586:Generated_Source\PSoC5/BL.c **** 
1587:Generated_Source\PSoC5/BL.c ****             /***************************************************************************
1588:Generated_Source\PSoC5/BL.c ****             *   Exit bootloader
1589:Generated_Source\PSoC5/BL.c ****             ***************************************************************************/
1590:Generated_Source\PSoC5/BL.c ****             case BL_COMMAND_EXIT:
1591:Generated_Source\PSoC5/BL.c **** 
1592:Generated_Source\PSoC5/BL.c ****                 if(CYRET_SUCCESS == BL_ValidateBootloadable(BL_activeApp))
1593:Generated_Source\PSoC5/BL.c ****                 {
1594:Generated_Source\PSoC5/BL.c ****                     BL_SET_RUN_TYPE(BL_SCHEDULE_BTLDB);
1595:Generated_Source\PSoC5/BL.c ****                 }
1596:Generated_Source\PSoC5/BL.c **** 
1597:Generated_Source\PSoC5/BL.c ****                 CySoftwareReset();
1598:Generated_Source\PSoC5/BL.c **** 
1599:Generated_Source\PSoC5/BL.c ****                 /* Will never get here */
1600:Generated_Source\PSoC5/BL.c ****                 break;
1601:Generated_Source\PSoC5/BL.c **** 
1602:Generated_Source\PSoC5/BL.c **** 
1603:Generated_Source\PSoC5/BL.c ****             /***************************************************************************
1604:Generated_Source\PSoC5/BL.c ****             *   Unsupported command
1605:Generated_Source\PSoC5/BL.c ****             ***************************************************************************/
1606:Generated_Source\PSoC5/BL.c ****             default:
1607:Generated_Source\PSoC5/BL.c ****                 ackCode = BL_ERR_CMD;
1608:Generated_Source\PSoC5/BL.c ****                 break;
1609:Generated_Source\PSoC5/BL.c ****             }
1610:Generated_Source\PSoC5/BL.c ****         }
1611:Generated_Source\PSoC5/BL.c **** 
1612:Generated_Source\PSoC5/BL.c ****         /* Reply with acknowledge or not acknowledge packet */
ARM GAS  C:\Users\RABBIT~1\AppData\Local\Temp\ccavO8bx.s 			page 31


1613:Generated_Source\PSoC5/BL.c ****         (void) BL_WritePacket(ackCode, packetBuffer, rspSize);
1614:Generated_Source\PSoC5/BL.c **** 
1615:Generated_Source\PSoC5/BL.c ****     } while ((0u == timeOut) || (BL_COMMUNICATION_STATE_ACTIVE == communicationState));
1616:Generated_Source\PSoC5/BL.c **** }
1617:Generated_Source\PSoC5/BL.c **** 
1618:Generated_Source\PSoC5/BL.c **** 
1619:Generated_Source\PSoC5/BL.c **** /*******************************************************************************
1620:Generated_Source\PSoC5/BL.c **** * Function Name: BL_WritePacket
1621:Generated_Source\PSoC5/BL.c **** ********************************************************************************
1622:Generated_Source\PSoC5/BL.c **** *
1623:Generated_Source\PSoC5/BL.c **** * Summary:
1624:Generated_Source\PSoC5/BL.c **** *  Creates a bootloader response packet and transmits it back to the bootloader
1625:Generated_Source\PSoC5/BL.c **** *  host application over the already established communications protocol.
1626:Generated_Source\PSoC5/BL.c **** *
1627:Generated_Source\PSoC5/BL.c **** * Parameters:
1628:Generated_Source\PSoC5/BL.c **** *  status:
1629:Generated_Source\PSoC5/BL.c **** *      The status code to pass back as the second byte of the packet
1630:Generated_Source\PSoC5/BL.c **** *  buffer:
1631:Generated_Source\PSoC5/BL.c **** *      The buffer containing the data portion of the packet
1632:Generated_Source\PSoC5/BL.c **** *  size:
1633:Generated_Source\PSoC5/BL.c **** *      The number of bytes contained within the buffer to pass back
1634:Generated_Source\PSoC5/BL.c **** *
1635:Generated_Source\PSoC5/BL.c **** * Return:
1636:Generated_Source\PSoC5/BL.c **** *   CYRET_SUCCESS if successful. Any other non-zero value if failure occurred.
1637:Generated_Source\PSoC5/BL.c **** *
1638:Generated_Source\PSoC5/BL.c **** *******************************************************************************/
1639:Generated_Source\PSoC5/BL.c **** static cystatus BL_WritePacket(uint8 status, uint8 buffer[], uint16 size) CYSMALL \
1640:Generated_Source\PSoC5/BL.c ****                                             
1641:Generated_Source\PSoC5/BL.c **** {
1642:Generated_Source\PSoC5/BL.c ****     uint16 CYDATA checksum;
1643:Generated_Source\PSoC5/BL.c **** 
1644:Generated_Source\PSoC5/BL.c ****     /* Start of packet. */
1645:Generated_Source\PSoC5/BL.c ****     buffer[BL_SOP_ADDR]      = BL_SOP;
1646:Generated_Source\PSoC5/BL.c ****     buffer[BL_CMD_ADDR]      = status;
1647:Generated_Source\PSoC5/BL.c ****     buffer[BL_SIZE_ADDR]     = LO8(size);
1648:Generated_Source\PSoC5/BL.c ****     buffer[BL_SIZE_ADDR + 1u] = HI8(size);
1649:Generated_Source\PSoC5/BL.c **** 
1650:Generated_Source\PSoC5/BL.c ****     /* Compute checksum. */
1651:Generated_Source\PSoC5/BL.c ****     checksum = BL_CalcPacketChecksum(buffer, size + BL_DATA_ADDR);
1652:Generated_Source\PSoC5/BL.c **** 
1653:Generated_Source\PSoC5/BL.c ****     buffer[BL_CHK_ADDR(size)]     = LO8(checksum);
1654:Generated_Source\PSoC5/BL.c ****     buffer[BL_CHK_ADDR(1u + size)] = HI8(checksum);
1655:Generated_Source\PSoC5/BL.c ****     buffer[BL_EOP_ADDR(size)]     = BL_EOP;
1656:Generated_Source\PSoC5/BL.c **** 
1657:Generated_Source\PSoC5/BL.c ****     /* Start packet transmit. */
1658:Generated_Source\PSoC5/BL.c ****     return(CyBtldrCommWrite(buffer, size + BL_MIN_PKT_SIZE, &size, 150u));
1659:Generated_Source\PSoC5/BL.c **** }
1660:Generated_Source\PSoC5/BL.c **** 
1661:Generated_Source\PSoC5/BL.c **** 
1662:Generated_Source\PSoC5/BL.c **** /*******************************************************************************
1663:Generated_Source\PSoC5/BL.c **** * Function Name: BL_SetFlashByte
1664:Generated_Source\PSoC5/BL.c **** ********************************************************************************
1665:Generated_Source\PSoC5/BL.c **** *
1666:Generated_Source\PSoC5/BL.c **** * Summary:
1667:Generated_Source\PSoC5/BL.c **** *  Writes a byte to the specified Flash memory location.
1668:Generated_Source\PSoC5/BL.c **** *
1669:Generated_Source\PSoC5/BL.c **** * Parameters:
ARM GAS  C:\Users\RABBIT~1\AppData\Local\Temp\ccavO8bx.s 			page 32


1670:Generated_Source\PSoC5/BL.c **** *  address:
1671:Generated_Source\PSoC5/BL.c **** *      The address in Flash memory where data will be written
1672:Generated_Source\PSoC5/BL.c **** *
1673:Generated_Source\PSoC5/BL.c **** *  runType:
1674:Generated_Source\PSoC5/BL.c **** *      Byte to be written
1675:Generated_Source\PSoC5/BL.c **** *
1676:Generated_Source\PSoC5/BL.c **** * Return:
1677:Generated_Source\PSoC5/BL.c **** *  None
1678:Generated_Source\PSoC5/BL.c **** *
1679:Generated_Source\PSoC5/BL.c **** *******************************************************************************/
1680:Generated_Source\PSoC5/BL.c **** void BL_SetFlashByte(uint32 address, uint8 runType) 
1681:Generated_Source\PSoC5/BL.c **** {
  92              		.loc 1 1681 0
  93              		.cfi_startproc
  94              		@ args = 0, pretend = 0, frame = 256
  95              		@ frame_needed = 0, uses_anonymous_args = 0
  96              	.LVL6:
  97 0000 F0B5     		push	{r4, r5, r6, r7, lr}
  98              		.cfi_def_cfa_offset 20
  99              		.cfi_offset 4, -20
 100              		.cfi_offset 5, -16
 101              		.cfi_offset 6, -12
 102              		.cfi_offset 7, -8
 103              		.cfi_offset 14, -4
 104 0002 0346     		mov	r3, r0
 105 0004 C1B0     		sub	sp, sp, #260
 106              		.cfi_def_cfa_offset 280
1682:Generated_Source\PSoC5/BL.c ****     uint32 flsAddr = address - CYDEV_FLASH_BASE;
1683:Generated_Source\PSoC5/BL.c ****     uint8  rowData[CYDEV_FLS_ROW_SIZE];
1684:Generated_Source\PSoC5/BL.c **** 
1685:Generated_Source\PSoC5/BL.c ****     #if !(CY_PSOC4)
1686:Generated_Source\PSoC5/BL.c ****         uint8 arrayId = ( uint8 )(flsAddr / CYDEV_FLS_SECTOR_SIZE);
1687:Generated_Source\PSoC5/BL.c ****     #endif  /* !(CY_PSOC4) */
1688:Generated_Source\PSoC5/BL.c **** 
1689:Generated_Source\PSoC5/BL.c ****     #if (CY_PSOC4)
1690:Generated_Source\PSoC5/BL.c ****         uint16 rowNum = ( uint16 )(flsAddr / CYDEV_FLS_ROW_SIZE);
1691:Generated_Source\PSoC5/BL.c ****     #else
1692:Generated_Source\PSoC5/BL.c ****         uint16 rowNum = ( uint16 )((flsAddr % CYDEV_FLS_SECTOR_SIZE) / CYDEV_FLS_ROW_SIZE);
1693:Generated_Source\PSoC5/BL.c ****     #endif  /* (CY_PSOC4) */
1694:Generated_Source\PSoC5/BL.c **** 
1695:Generated_Source\PSoC5/BL.c ****     uint32 baseAddr = address - (address % CYDEV_FLS_ROW_SIZE);
1696:Generated_Source\PSoC5/BL.c ****     uint16 idx;
1697:Generated_Source\PSoC5/BL.c **** 
1698:Generated_Source\PSoC5/BL.c ****     for(idx = 0u; idx < CYDEV_FLS_ROW_SIZE; idx++)
1699:Generated_Source\PSoC5/BL.c ****     {
1700:Generated_Source\PSoC5/BL.c ****         rowData[idx] = BL_GET_CODE_BYTE(baseAddr + idx);
 107              		.loc 1 1700 0
 108 0006 6A46     		mov	r2, sp
1695:Generated_Source\PSoC5/BL.c ****     uint16 idx;
 109              		.loc 1 1695 0
 110 0008 23F0FF04 		bic	r4, r3, #255
1681:Generated_Source\PSoC5/BL.c ****     uint32 flsAddr = address - CYDEV_FLASH_BASE;
 111              		.loc 1 1681 0
 112 000c 0E46     		mov	r6, r1
 113 000e 651E     		subs	r5, r4, #1
 114 0010 04F1FF07 		add	r7, r4, #255
1686:Generated_Source\PSoC5/BL.c ****     #endif  /* !(CY_PSOC4) */
ARM GAS  C:\Users\RABBIT~1\AppData\Local\Temp\ccavO8bx.s 			page 33


 115              		.loc 1 1686 0
 116 0014 C0F30740 		ubfx	r0, r0, #16, #8
 117              	.LVL7:
1692:Generated_Source\PSoC5/BL.c ****     #endif  /* (CY_PSOC4) */
 118              		.loc 1 1692 0
 119 0018 C3F30721 		ubfx	r1, r3, #8, #8
 120              	.LVL8:
 121              		.loc 1 1700 0
 122 001c 141B     		subs	r4, r2, r4
 123              	.LVL9:
 124              	.L8:
 125              		.loc 1 1700 0 is_stmt 0 discriminator 3
 126 001e 15F801EF 		ldrb	lr, [r5, #1]!	@ zero_extendqisi2
1698:Generated_Source\PSoC5/BL.c ****     {
 127              		.loc 1 1698 0 is_stmt 1 discriminator 3
 128 0022 BD42     		cmp	r5, r7
 129              		.loc 1 1700 0 discriminator 3
 130 0024 04F805E0 		strb	lr, [r4, r5]
1698:Generated_Source\PSoC5/BL.c ****     {
 131              		.loc 1 1698 0 discriminator 3
 132 0028 F9D1     		bne	.L8
1701:Generated_Source\PSoC5/BL.c ****     }
1702:Generated_Source\PSoC5/BL.c **** 
1703:Generated_Source\PSoC5/BL.c ****     rowData[address % CYDEV_FLS_ROW_SIZE] = runType;
 133              		.loc 1 1703 0
 134 002a DBB2     		uxtb	r3, r3
 135              	.LVL10:
 136 002c D654     		strb	r6, [r2, r3]
1704:Generated_Source\PSoC5/BL.c **** 
1705:Generated_Source\PSoC5/BL.c ****     #if(CY_PSOC4)
1706:Generated_Source\PSoC5/BL.c ****         (void) CySysFlashWriteRow((uint32) rowNum, rowData);
1707:Generated_Source\PSoC5/BL.c ****     #else
1708:Generated_Source\PSoC5/BL.c ****         (void) CyWriteRowData(arrayId, rowNum, rowData);
 137              		.loc 1 1708 0
 138 002e FFF7FEFF 		bl	CyWriteRowData
 139              	.LVL11:
1709:Generated_Source\PSoC5/BL.c ****     #endif  /* (CY_PSOC4) */
1710:Generated_Source\PSoC5/BL.c **** 
1711:Generated_Source\PSoC5/BL.c ****     #if(CY_PSOC5)
1712:Generated_Source\PSoC5/BL.c ****         /***************************************************************************
1713:Generated_Source\PSoC5/BL.c ****         * When writing Flash, data in the instruction cache can become stale.
1714:Generated_Source\PSoC5/BL.c ****         * Therefore, the cache data does not correlate to the data just written to
1715:Generated_Source\PSoC5/BL.c ****         * Flash. A call to CyFlushCache() is required to invalidate the data in the
1716:Generated_Source\PSoC5/BL.c ****         * cache and force fresh information to be loaded from Flash.
1717:Generated_Source\PSoC5/BL.c ****         ***************************************************************************/
1718:Generated_Source\PSoC5/BL.c ****         CyFlushCache();
 140              		.loc 1 1718 0
 141 0032 FFF7FEFF 		bl	CyFlushCache
 142              	.LVL12:
1719:Generated_Source\PSoC5/BL.c ****     #endif /* (CY_PSOC5) */
1720:Generated_Source\PSoC5/BL.c **** }
 143              		.loc 1 1720 0
 144 0036 41B0     		add	sp, sp, #260
 145              		.cfi_def_cfa_offset 20
 146              		@ sp needed
 147 0038 F0BD     		pop	{r4, r5, r6, r7, pc}
 148              		.cfi_endproc
ARM GAS  C:\Users\RABBIT~1\AppData\Local\Temp\ccavO8bx.s 			page 34


 149              	.LFE66:
 150              		.size	BL_SetFlashByte, .-BL_SetFlashByte
 151              		.section	.text.BL_GetMetadata,"ax",%progbits
 152              		.align	1
 153              		.global	BL_GetMetadata
 154              		.thumb
 155              		.thumb_func
 156              		.type	BL_GetMetadata, %function
 157              	BL_GetMetadata:
 158              	.LFB67:
1721:Generated_Source\PSoC5/BL.c **** 
1722:Generated_Source\PSoC5/BL.c **** 
1723:Generated_Source\PSoC5/BL.c **** /*******************************************************************************
1724:Generated_Source\PSoC5/BL.c **** * Function Name: BL_GetMetadata
1725:Generated_Source\PSoC5/BL.c **** ********************************************************************************
1726:Generated_Source\PSoC5/BL.c **** *
1727:Generated_Source\PSoC5/BL.c **** * Summary:
1728:Generated_Source\PSoC5/BL.c **** *  Returns the value of the specified field of the metadata section.
1729:Generated_Source\PSoC5/BL.c **** *
1730:Generated_Source\PSoC5/BL.c **** * Parameters:
1731:Generated_Source\PSoC5/BL.c **** *  field:
1732:Generated_Source\PSoC5/BL.c **** *   The field to get data from:
1733:Generated_Source\PSoC5/BL.c **** *   BL_GET_BTLDB_CHECKSUM    - Bootloadable Application Checksum
1734:Generated_Source\PSoC5/BL.c **** *   BL_GET_BTLDB_ADDR        - Bootloadable Application Start
1735:Generated_Source\PSoC5/BL.c **** *                                            Routine Address
1736:Generated_Source\PSoC5/BL.c **** *   BL_GET_BTLDR_LAST_ROW    - Bootloader Last Flash Row
1737:Generated_Source\PSoC5/BL.c **** *   BL_GET_BTLDB_LENGTH      - Bootloadable Application Length
1738:Generated_Source\PSoC5/BL.c **** *   BL_GET_BTLDB_ACTIVE      - Active Bootloadable Application
1739:Generated_Source\PSoC5/BL.c **** *   BL_GET_BTLDB_STATUS      - Bootloadable Application
1740:Generated_Source\PSoC5/BL.c **** *                                            Verification Status
1741:Generated_Source\PSoC5/BL.c **** *   BL_GET_BTLDR_APP_VERSION - Bootloader Application Version
1742:Generated_Source\PSoC5/BL.c **** *   BL_GET_BTLDB_APP_VERSION - Bootloadable Application Version
1743:Generated_Source\PSoC5/BL.c **** *   BL_GET_BTLDB_APP_ID      - Bootloadable Application ID
1744:Generated_Source\PSoC5/BL.c **** *   BL_GET_BTLDB_APP_CUST_ID - Bootloadable Application Custom ID
1745:Generated_Source\PSoC5/BL.c **** *
1746:Generated_Source\PSoC5/BL.c **** *  appId:
1747:Generated_Source\PSoC5/BL.c **** *   Number of the bootlodable application. Should be 0 for the normal
1748:Generated_Source\PSoC5/BL.c **** *   bootloader and 0 or 1 for the Multi-Application bootloader.
1749:Generated_Source\PSoC5/BL.c **** *
1750:Generated_Source\PSoC5/BL.c **** * Return:
1751:Generated_Source\PSoC5/BL.c **** *  The value of the specified field of the specified application.
1752:Generated_Source\PSoC5/BL.c **** *
1753:Generated_Source\PSoC5/BL.c **** *******************************************************************************/
1754:Generated_Source\PSoC5/BL.c **** uint32 BL_GetMetadata(uint8 field, uint8 appId)
1755:Generated_Source\PSoC5/BL.c **** {
 159              		.loc 1 1755 0
 160              		.cfi_startproc
 161              		@ args = 0, pretend = 0, frame = 0
 162              		@ frame_needed = 0, uses_anonymous_args = 0
 163              		@ link register save eliminated.
 164              	.LVL13:
1756:Generated_Source\PSoC5/BL.c ****     uint32 fieldPtr;
1757:Generated_Source\PSoC5/BL.c ****     uint8  fieldSize = 2u;
1758:Generated_Source\PSoC5/BL.c ****     uint32 result = 0u;
1759:Generated_Source\PSoC5/BL.c **** 
1760:Generated_Source\PSoC5/BL.c ****     switch (field)
 165              		.loc 1 1760 0
ARM GAS  C:\Users\RABBIT~1\AppData\Local\Temp\ccavO8bx.s 			page 35


 166 0000 0138     		subs	r0, r0, #1
 167              	.LVL14:
 168 0002 0928     		cmp	r0, #9
 169 0004 42D8     		bhi	.L27
 170 0006 DFE800F0 		tbb	[pc, r0]
 171              	.L13:
 172 000a 05       		.byte	(.L12-.L13)/2
 173 000b 0B       		.byte	(.L14-.L13)/2
 174 000c 11       		.byte	(.L15-.L13)/2
 175 000d 17       		.byte	(.L16-.L13)/2
 176 000e 1D       		.byte	(.L17-.L13)/2
 177 000f 23       		.byte	(.L18-.L13)/2
 178 0010 2F       		.byte	(.L19-.L13)/2
 179 0011 29       		.byte	(.L20-.L13)/2
 180 0012 35       		.byte	(.L21-.L13)/2
 181 0013 3B       		.byte	(.L22-.L13)/2
 182              		.p2align 1
 183              	.L12:
1761:Generated_Source\PSoC5/BL.c ****     {
1762:Generated_Source\PSoC5/BL.c ****     case BL_GET_BTLDB_CHECKSUM:
1763:Generated_Source\PSoC5/BL.c ****         fieldPtr  = BL_MD_BTLDB_CHECKSUM_OFFSET(appId);
 184              		.loc 1 1763 0
 185 0014 0902     		lsls	r1, r1, #8
 186              	.LVL15:
 187 0016 C1F5FF31 		rsb	r1, r1, #130560
 188 001a 01F5E071 		add	r1, r1, #448
 189              	.LVL16:
1764:Generated_Source\PSoC5/BL.c ****         fieldSize = 1u;
1765:Generated_Source\PSoC5/BL.c ****         break;
 190              		.loc 1 1765 0
 191 001e 3BE0     		b	.L23
 192              	.LVL17:
 193              	.L14:
1766:Generated_Source\PSoC5/BL.c **** 
1767:Generated_Source\PSoC5/BL.c ****     case BL_GET_BTLDB_ADDR:
1768:Generated_Source\PSoC5/BL.c ****         fieldPtr  = BL_MD_BTLDB_ADDR_OFFSET(appId);
 194              		.loc 1 1768 0
 195 0020 0902     		lsls	r1, r1, #8
 196              	.LVL18:
 197 0022 C1F5FF31 		rsb	r1, r1, #130560
 198 0026 01F2C111 		addw	r1, r1, #449
 199              	.LVL19:
1769:Generated_Source\PSoC5/BL.c ****     #if(!CY_PSOC3)
1770:Generated_Source\PSoC5/BL.c ****         fieldSize = 4u;
1771:Generated_Source\PSoC5/BL.c ****     #endif  /* (!CY_PSOC3) */
1772:Generated_Source\PSoC5/BL.c ****         break;
 200              		.loc 1 1772 0
 201 002a 38E0     		b	.L24
 202              	.LVL20:
 203              	.L15:
1773:Generated_Source\PSoC5/BL.c **** 
1774:Generated_Source\PSoC5/BL.c ****     case BL_GET_BTLDR_LAST_ROW:
1775:Generated_Source\PSoC5/BL.c ****         fieldPtr  = BL_MD_BTLDR_LAST_ROW_OFFSET(appId);
 204              		.loc 1 1775 0
 205 002c 0902     		lsls	r1, r1, #8
 206              	.LVL21:
 207 002e C1F5FF31 		rsb	r1, r1, #130560
ARM GAS  C:\Users\RABBIT~1\AppData\Local\Temp\ccavO8bx.s 			page 36


 208 0032 01F2C511 		addw	r1, r1, #453
 209              	.LVL22:
1776:Generated_Source\PSoC5/BL.c ****         break;
 210              		.loc 1 1776 0
 211 0036 2AE0     		b	.L11
 212              	.LVL23:
 213              	.L16:
1777:Generated_Source\PSoC5/BL.c **** 
1778:Generated_Source\PSoC5/BL.c ****     case BL_GET_BTLDB_LENGTH:
1779:Generated_Source\PSoC5/BL.c ****         fieldPtr  = BL_MD_BTLDB_LENGTH_OFFSET(appId);
 214              		.loc 1 1779 0
 215 0038 0902     		lsls	r1, r1, #8
 216              	.LVL24:
 217 003a C1F5FF31 		rsb	r1, r1, #130560
 218 003e 01F2C911 		addw	r1, r1, #457
 219              	.LVL25:
1780:Generated_Source\PSoC5/BL.c ****     #if(!CY_PSOC3)
1781:Generated_Source\PSoC5/BL.c ****         fieldSize = 4u;
1782:Generated_Source\PSoC5/BL.c ****     #endif  /* (!CY_PSOC3) */
1783:Generated_Source\PSoC5/BL.c ****         break;
 220              		.loc 1 1783 0
 221 0042 2CE0     		b	.L24
 222              	.LVL26:
 223              	.L17:
1784:Generated_Source\PSoC5/BL.c **** 
1785:Generated_Source\PSoC5/BL.c ****     case BL_GET_BTLDB_ACTIVE:
1786:Generated_Source\PSoC5/BL.c ****         fieldPtr  = BL_MD_BTLDB_ACTIVE_OFFSET(appId);
 224              		.loc 1 1786 0
 225 0044 0902     		lsls	r1, r1, #8
 226              	.LVL27:
 227 0046 C1F5FF31 		rsb	r1, r1, #130560
 228 004a 01F5E871 		add	r1, r1, #464
 229              	.LVL28:
1787:Generated_Source\PSoC5/BL.c ****         fieldSize = 1u;
1788:Generated_Source\PSoC5/BL.c ****         break;
 230              		.loc 1 1788 0
 231 004e 23E0     		b	.L23
 232              	.LVL29:
 233              	.L18:
1789:Generated_Source\PSoC5/BL.c **** 
1790:Generated_Source\PSoC5/BL.c ****     case BL_GET_BTLDB_STATUS:
1791:Generated_Source\PSoC5/BL.c ****         fieldPtr  = BL_MD_BTLDB_VERIFIED_OFFSET(appId);
 234              		.loc 1 1791 0
 235 0050 0902     		lsls	r1, r1, #8
 236              	.LVL30:
 237 0052 C1F5FF31 		rsb	r1, r1, #130560
 238 0056 01F2D111 		addw	r1, r1, #465
 239              	.LVL31:
1792:Generated_Source\PSoC5/BL.c ****         fieldSize = 1u;
1793:Generated_Source\PSoC5/BL.c ****         break;
 240              		.loc 1 1793 0
 241 005a 1DE0     		b	.L23
 242              	.LVL32:
 243              	.L20:
1794:Generated_Source\PSoC5/BL.c **** 
1795:Generated_Source\PSoC5/BL.c ****     case BL_GET_BTLDB_APP_VERSION:
1796:Generated_Source\PSoC5/BL.c ****         fieldPtr  = BL_MD_BTLDB_APP_VERSION_OFFSET(appId);
ARM GAS  C:\Users\RABBIT~1\AppData\Local\Temp\ccavO8bx.s 			page 37


 244              		.loc 1 1796 0
 245 005c 0902     		lsls	r1, r1, #8
 246              	.LVL33:
 247 005e C1F5FF31 		rsb	r1, r1, #130560
 248 0062 01F5EB71 		add	r1, r1, #470
 249              	.LVL34:
1797:Generated_Source\PSoC5/BL.c ****         break;
 250              		.loc 1 1797 0
 251 0066 12E0     		b	.L11
 252              	.LVL35:
 253              	.L19:
1798:Generated_Source\PSoC5/BL.c **** 
1799:Generated_Source\PSoC5/BL.c ****     case BL_GET_BTLDR_APP_VERSION:
1800:Generated_Source\PSoC5/BL.c ****         fieldPtr  = BL_MD_BTLDR_APP_VERSION_OFFSET(appId);
 254              		.loc 1 1800 0
 255 0068 0902     		lsls	r1, r1, #8
 256              	.LVL36:
 257 006a C1F5FF31 		rsb	r1, r1, #130560
 258 006e 01F5E971 		add	r1, r1, #466
 259              	.LVL37:
1801:Generated_Source\PSoC5/BL.c ****         break;
 260              		.loc 1 1801 0
 261 0072 0CE0     		b	.L11
 262              	.LVL38:
 263              	.L21:
1802:Generated_Source\PSoC5/BL.c **** 
1803:Generated_Source\PSoC5/BL.c ****     case BL_GET_BTLDB_APP_ID:
1804:Generated_Source\PSoC5/BL.c ****         fieldPtr  = BL_MD_BTLDB_APP_ID_OFFSET(appId);
 264              		.loc 1 1804 0
 265 0074 0902     		lsls	r1, r1, #8
 266              	.LVL39:
 267 0076 C1F5FF31 		rsb	r1, r1, #130560
 268 007a 01F5EA71 		add	r1, r1, #468
 269              	.LVL40:
1805:Generated_Source\PSoC5/BL.c ****         break;
 270              		.loc 1 1805 0
 271 007e 06E0     		b	.L11
 272              	.LVL41:
 273              	.L22:
1806:Generated_Source\PSoC5/BL.c **** 
1807:Generated_Source\PSoC5/BL.c ****     case BL_GET_BTLDB_APP_CUST_ID:
1808:Generated_Source\PSoC5/BL.c ****         fieldPtr  = BL_MD_BTLDB_APP_CUST_ID_OFFSET(appId);
 274              		.loc 1 1808 0
 275 0080 0902     		lsls	r1, r1, #8
 276              	.LVL42:
 277 0082 C1F5FF31 		rsb	r1, r1, #130560
 278 0086 01F5EC71 		add	r1, r1, #472
 279              	.LVL43:
1809:Generated_Source\PSoC5/BL.c ****         fieldSize = 4u;
1810:Generated_Source\PSoC5/BL.c ****         break;
 280              		.loc 1 1810 0
 281 008a 08E0     		b	.L24
 282              	.LVL44:
 283              	.L27:
1811:Generated_Source\PSoC5/BL.c **** 
1812:Generated_Source\PSoC5/BL.c ****     default:
1813:Generated_Source\PSoC5/BL.c ****         /* Should never be here */
ARM GAS  C:\Users\RABBIT~1\AppData\Local\Temp\ccavO8bx.s 			page 38


1814:Generated_Source\PSoC5/BL.c ****         CYASSERT(0u != 0u);
1815:Generated_Source\PSoC5/BL.c ****         fieldPtr  = 0u;
 284              		.loc 1 1815 0
 285 008c 0021     		movs	r1, #0
 286              	.LVL45:
 287              	.L11:
1816:Generated_Source\PSoC5/BL.c ****         break;
1817:Generated_Source\PSoC5/BL.c ****     }
1818:Generated_Source\PSoC5/BL.c **** 
1819:Generated_Source\PSoC5/BL.c **** 
1820:Generated_Source\PSoC5/BL.c ****     if (1u == fieldSize)
1821:Generated_Source\PSoC5/BL.c ****     {
1822:Generated_Source\PSoC5/BL.c ****         result =  (uint32) CY_GET_XTND_REG8((volatile uint8 *)fieldPtr);
1823:Generated_Source\PSoC5/BL.c ****     }
1824:Generated_Source\PSoC5/BL.c **** 
1825:Generated_Source\PSoC5/BL.c ****     #if(CY_PSOC3)   /* Big-endian */
1826:Generated_Source\PSoC5/BL.c **** 
1827:Generated_Source\PSoC5/BL.c ****         if (2u == fieldSize)
1828:Generated_Source\PSoC5/BL.c ****         {
1829:Generated_Source\PSoC5/BL.c ****             result =  (uint32) CY_GET_XTND_REG8((volatile uint8 *)(fieldPtr + 1u));
1830:Generated_Source\PSoC5/BL.c ****             result |= (uint32) CY_GET_XTND_REG8((volatile uint8 *)(fieldPtr     )) <<  8u;
1831:Generated_Source\PSoC5/BL.c ****         }
1832:Generated_Source\PSoC5/BL.c **** 
1833:Generated_Source\PSoC5/BL.c ****         if (4u == fieldSize)
1834:Generated_Source\PSoC5/BL.c ****         {
1835:Generated_Source\PSoC5/BL.c ****             result =  (uint32) CY_GET_XTND_REG8((volatile uint8 *)(fieldPtr + 3u));
1836:Generated_Source\PSoC5/BL.c ****             result |= (uint32) CY_GET_XTND_REG8((volatile uint8 *)(fieldPtr + 2u)) <<  8u;
1837:Generated_Source\PSoC5/BL.c ****             result |= (uint32) CY_GET_XTND_REG8((volatile uint8 *)(fieldPtr + 1u)) << 16u;
1838:Generated_Source\PSoC5/BL.c ****             result |= (uint32) CY_GET_XTND_REG8((volatile uint8 *)(fieldPtr     )) << 24u;
1839:Generated_Source\PSoC5/BL.c ****         }
1840:Generated_Source\PSoC5/BL.c **** 
1841:Generated_Source\PSoC5/BL.c ****     #else   /* PSoC 4 and PSoC 5: Little-endian */
1842:Generated_Source\PSoC5/BL.c **** 
1843:Generated_Source\PSoC5/BL.c ****         if (2u == fieldSize)
1844:Generated_Source\PSoC5/BL.c ****         {
1845:Generated_Source\PSoC5/BL.c ****             result =  (uint32) CY_GET_XTND_REG8((volatile uint8 *) (fieldPtr     ));
 288              		.loc 1 1845 0
 289 008e 0B78     		ldrb	r3, [r1]	@ zero_extendqisi2
 290              	.LVL46:
1846:Generated_Source\PSoC5/BL.c ****             result |= (uint32) CY_GET_XTND_REG8((volatile uint8 *) (fieldPtr + 1u)) <<  8u;
 291              		.loc 1 1846 0
 292 0090 4878     		ldrb	r0, [r1, #1]	@ zero_extendqisi2
 293 0092 43EA0020 		orr	r0, r3, r0, lsl #8
 294              	.LVL47:
 295 0096 7047     		bx	lr
 296              	.LVL48:
 297              	.L23:
1822:Generated_Source\PSoC5/BL.c ****     }
 298              		.loc 1 1822 0
 299 0098 0878     		ldrb	r0, [r1]	@ zero_extendqisi2
 300 009a C0B2     		uxtb	r0, r0
 301              	.LVL49:
 302 009c 7047     		bx	lr
 303              	.LVL50:
 304              	.L24:
1847:Generated_Source\PSoC5/BL.c ****         }
1848:Generated_Source\PSoC5/BL.c **** 
ARM GAS  C:\Users\RABBIT~1\AppData\Local\Temp\ccavO8bx.s 			page 39


1849:Generated_Source\PSoC5/BL.c ****         if (4u == fieldSize)
1850:Generated_Source\PSoC5/BL.c ****         {
1851:Generated_Source\PSoC5/BL.c ****             result =  (uint32) CY_GET_XTND_REG8((volatile uint8 *)(fieldPtr     ));
 305              		.loc 1 1851 0
 306 009e 0B78     		ldrb	r3, [r1]	@ zero_extendqisi2
 307              	.LVL51:
1852:Generated_Source\PSoC5/BL.c ****             result |= (uint32) CY_GET_XTND_REG8((volatile uint8 *)(fieldPtr + 1u)) <<  8u;
 308              		.loc 1 1852 0
 309 00a0 4A78     		ldrb	r2, [r1, #1]	@ zero_extendqisi2
 310              	.LVL52:
1853:Generated_Source\PSoC5/BL.c ****             result |= (uint32) CY_GET_XTND_REG8((volatile uint8 *)(fieldPtr + 2u)) << 16u;
 311              		.loc 1 1853 0
 312 00a2 8878     		ldrb	r0, [r1, #2]	@ zero_extendqisi2
 313 00a4 0004     		lsls	r0, r0, #16
 314 00a6 40EA0220 		orr	r0, r0, r2, lsl #8
 315 00aa 1843     		orrs	r0, r0, r3
 316              	.LVL53:
1854:Generated_Source\PSoC5/BL.c ****             result |= (uint32) CY_GET_XTND_REG8((volatile uint8 *)(fieldPtr + 3u)) << 24u;
 317              		.loc 1 1854 0
 318 00ac CB78     		ldrb	r3, [r1, #3]	@ zero_extendqisi2
 319 00ae 40EA0360 		orr	r0, r0, r3, lsl #24
 320              	.LVL54:
1855:Generated_Source\PSoC5/BL.c ****         }
1856:Generated_Source\PSoC5/BL.c **** 
1857:Generated_Source\PSoC5/BL.c ****     #endif /* (CY_PSOC3) */
1858:Generated_Source\PSoC5/BL.c **** 
1859:Generated_Source\PSoC5/BL.c ****     return (result);
1860:Generated_Source\PSoC5/BL.c **** }
 321              		.loc 1 1860 0
 322 00b2 7047     		bx	lr
 323              		.cfi_endproc
 324              	.LFE67:
 325              		.size	BL_GetMetadata, .-BL_GetMetadata
 326              		.section	.text.CyBtldr_CheckLaunch,"ax",%progbits
 327              		.align	1
 328              		.global	CyBtldr_CheckLaunch
 329              		.thumb
 330              		.thumb_func
 331              		.type	CyBtldr_CheckLaunch, %function
 332              	CyBtldr_CheckLaunch:
 333              	.LFB61:
 539:Generated_Source\PSoC5/BL.c **** 
 334              		.loc 1 539 0
 335              		.cfi_startproc
 336              		@ args = 0, pretend = 0, frame = 0
 337              		@ frame_needed = 0, uses_anonymous_args = 0
 338 0000 10B5     		push	{r4, lr}
 339              		.cfi_def_cfa_offset 8
 340              		.cfi_offset 4, -8
 341              		.cfi_offset 14, -4
 556:Generated_Source\PSoC5/BL.c ****     {
 342              		.loc 1 556 0
 343 0002 0B4A     		ldr	r2, .L36
 344 0004 1378     		ldrb	r3, [r2]	@ zero_extendqisi2
 345 0006 03F0C003 		and	r3, r3, #192
 346 000a 802B     		cmp	r3, #128
 347 000c 0ED1     		bne	.L29
ARM GAS  C:\Users\RABBIT~1\AppData\Local\Temp\ccavO8bx.s 			page 40


 558:Generated_Source\PSoC5/BL.c **** 
 348              		.loc 1 558 0
 349 000e 0024     		movs	r4, #0
 350 0010 1470     		strb	r4, [r2]
 566:Generated_Source\PSoC5/BL.c ****         {
 351              		.loc 1 566 0
 352 0012 2146     		mov	r1, r4
 353 0014 0220     		movs	r0, #2
 354 0016 FFF7FEFF 		bl	BL_GetMetadata
 355              	.LVL55:
 356 001a 38B1     		cbz	r0, .L29
 569:Generated_Source\PSoC5/BL.c ****                                                                              BL_activeApp));
 357              		.loc 1 569 0
 358 001c 2146     		mov	r1, r4
 359 001e 0220     		movs	r0, #2
 360 0020 FFF7FEFF 		bl	BL_GetMetadata
 361              	.LVL56:
 573:Generated_Source\PSoC5/BL.c **** 
 362              		.loc 1 573 0
 363 0024 BDE81040 		pop	{r4, lr}
 364              		.cfi_remember_state
 365              		.cfi_restore 14
 366              		.cfi_restore 4
 367              		.cfi_def_cfa_offset 0
 569:Generated_Source\PSoC5/BL.c ****                                                                              BL_activeApp));
 368              		.loc 1 569 0
 369 0028 FFF7FEBF 		b	BL_LaunchBootloadable
 370              	.LVL57:
 371              	.L29:
 372              		.cfi_restore_state
 373 002c 10BD     		pop	{r4, pc}
 374              	.L37:
 375 002e 00BF     		.align	2
 376              	.L36:
 377 0030 FA460040 		.word	1073759994
 378              		.cfi_endproc
 379              	.LFE61:
 380              		.size	CyBtldr_CheckLaunch, .-CyBtldr_CheckLaunch
 381              		.section	.text.BL_ValidateBootloadable,"ax",%progbits
 382              		.align	1
 383              		.global	BL_ValidateBootloadable
 384              		.thumb
 385              		.thumb_func
 386              		.type	BL_ValidateBootloadable, %function
 387              	BL_ValidateBootloadable:
 388              	.LFB63:
 634:Generated_Source\PSoC5/BL.c ****         uint32 CYDATA idx;
 389              		.loc 1 634 0
 390              		.cfi_startproc
 391              		@ args = 0, pretend = 0, frame = 0
 392              		@ frame_needed = 0, uses_anonymous_args = 0
 393              	.LVL58:
 394 0000 F8B5     		push	{r3, r4, r5, r6, r7, lr}
 395              		.cfi_def_cfa_offset 24
 396              		.cfi_offset 3, -24
 397              		.cfi_offset 4, -20
 398              		.cfi_offset 5, -16
ARM GAS  C:\Users\RABBIT~1\AppData\Local\Temp\ccavO8bx.s 			page 41


 399              		.cfi_offset 6, -12
 400              		.cfi_offset 7, -8
 401              		.cfi_offset 14, -4
 637:Generated_Source\PSoC5/BL.c ****                                 BL_GetMetadata(BL_GET_BTLDB_LENGTH,
 402              		.loc 1 637 0
 403 0002 0146     		mov	r1, r0
 634:Generated_Source\PSoC5/BL.c ****         uint32 CYDATA idx;
 404              		.loc 1 634 0
 405 0004 0546     		mov	r5, r0
 637:Generated_Source\PSoC5/BL.c ****                                 BL_GetMetadata(BL_GET_BTLDB_LENGTH,
 406              		.loc 1 637 0
 407 0006 0320     		movs	r0, #3
 408              	.LVL59:
 409 0008 FFF7FEFF 		bl	BL_GetMetadata
 410              	.LVL60:
 638:Generated_Source\PSoC5/BL.c ****                                                        appId);
 411              		.loc 1 638 0
 412 000c 2946     		mov	r1, r5
 637:Generated_Source\PSoC5/BL.c ****                                 BL_GetMetadata(BL_GET_BTLDB_LENGTH,
 413              		.loc 1 637 0
 414 000e 0446     		mov	r4, r0
 638:Generated_Source\PSoC5/BL.c ****                                                        appId);
 415              		.loc 1 638 0
 416 0010 0420     		movs	r0, #4
 417 0012 FFF7FEFF 		bl	BL_GetMetadata
 418              	.LVL61:
 658:Generated_Source\PSoC5/BL.c ****                BL_MD_BTLDB_IS_VERIFIED)
 419              		.loc 1 658 0
 420 0016 2946     		mov	r1, r5
 638:Generated_Source\PSoC5/BL.c ****                                                        appId);
 421              		.loc 1 638 0
 422 0018 0646     		mov	r6, r0
 423              	.LVL62:
 658:Generated_Source\PSoC5/BL.c ****                BL_MD_BTLDB_IS_VERIFIED)
 424              		.loc 1 658 0
 425 001a 0620     		movs	r0, #6
 426              	.LVL63:
 427 001c FFF7FEFF 		bl	BL_GetMetadata
 428              	.LVL64:
 429 0020 0128     		cmp	r0, #1
 430 0022 3FD0     		beq	.L46
 668:Generated_Source\PSoC5/BL.c ****         {
 431              		.loc 1 668 0
 432 0024 2946     		mov	r1, r5
 433 0026 0320     		movs	r0, #3
 637:Generated_Source\PSoC5/BL.c ****                                 BL_GetMetadata(BL_GET_BTLDB_LENGTH,
 434              		.loc 1 637 0
 435 0028 0134     		adds	r4, r4, #1
 436              	.LVL65:
 668:Generated_Source\PSoC5/BL.c ****         {
 437              		.loc 1 668 0
 438 002a FFF7FEFF 		bl	BL_GetMetadata
 439              	.LVL66:
 637:Generated_Source\PSoC5/BL.c ****                                 BL_GetMetadata(BL_GET_BTLDB_LENGTH,
 440              		.loc 1 637 0
 441 002e 06EB0426 		add	r6, r6, r4, lsl #8
 442              	.LVL67:
ARM GAS  C:\Users\RABBIT~1\AppData\Local\Temp\ccavO8bx.s 			page 42


 642:Generated_Source\PSoC5/BL.c **** 
 443              		.loc 1 642 0
 444 0032 0024     		movs	r4, #0
 641:Generated_Source\PSoC5/BL.c ****         uint8  CYDATA calcedChecksum = 0u;
 445              		.loc 1 641 0
 446 0034 2746     		mov	r7, r4
 668:Generated_Source\PSoC5/BL.c ****         {
 447              		.loc 1 668 0
 448 0036 0130     		adds	r0, r0, #1
 449 0038 0002     		lsls	r0, r0, #8
 450              	.LVL68:
 451              	.L40:
 668:Generated_Source\PSoC5/BL.c ****         {
 452              		.loc 1 668 0 is_stmt 0 discriminator 1
 453 003a 8642     		cmp	r6, r0
 454 003c 09D9     		bls	.L50
 455              	.LBB9:
 670:Generated_Source\PSoC5/BL.c **** 
 456              		.loc 1 670 0 is_stmt 1
 457 003e 10F8013B 		ldrb	r3, [r0], #1	@ zero_extendqisi2
 458              	.LVL69:
 672:Generated_Source\PSoC5/BL.c ****             {
 459              		.loc 1 672 0
 460 0042 5A1E     		subs	r2, r3, #1
 461 0044 D2B2     		uxtb	r2, r2
 674:Generated_Source\PSoC5/BL.c ****             }
 462              		.loc 1 674 0
 463 0046 FD2A     		cmp	r2, #253
 677:Generated_Source\PSoC5/BL.c ****         }
 464              		.loc 1 677 0
 465 0048 1C44     		add	r4, r4, r3
 466              	.LVL70:
 674:Generated_Source\PSoC5/BL.c ****             }
 467              		.loc 1 674 0
 468 004a 98BF     		it	ls
 469 004c 0127     		movls	r7, #1
 470              	.LVL71:
 677:Generated_Source\PSoC5/BL.c ****         }
 471              		.loc 1 677 0
 472 004e E4B2     		uxtb	r4, r4
 473              	.LVL72:
 474 0050 F3E7     		b	.L40
 475              	.LVL73:
 476              	.L50:
 477              	.LBE9:
 691:Generated_Source\PSoC5/BL.c **** 
 478              		.loc 1 691 0
 479 0052 2946     		mov	r1, r5
 480 0054 0320     		movs	r0, #3
 481              	.LVL74:
 482 0056 FFF7FEFF 		bl	BL_GetMetadata
 483              	.LVL75:
 696:Generated_Source\PSoC5/BL.c **** 
 484              		.loc 1 696 0
 485 005a 144B     		ldr	r3, .L52
 691:Generated_Source\PSoC5/BL.c **** 
 486              		.loc 1 691 0
ARM GAS  C:\Users\RABBIT~1\AppData\Local\Temp\ccavO8bx.s 			page 43


 487 005c 0130     		adds	r0, r0, #1
 696:Generated_Source\PSoC5/BL.c **** 
 488              		.loc 1 696 0
 489 005e 9E42     		cmp	r6, r3
 691:Generated_Source\PSoC5/BL.c **** 
 490              		.loc 1 691 0
 491 0060 4FEA0020 		lsl	r0, r0, #8
 492 0064 4FEAD000 		lsr	r0, r0, #3
 493              	.LVL76:
 696:Generated_Source\PSoC5/BL.c **** 
 494              		.loc 1 696 0
 495 0068 14BF     		ite	ne
 496 006a F608     		lsrne	r6, r6, #3
 497 006c 4FF48046 		moveq	r6, #16384
 498              	.LVL77:
 499              	.L44:
 698:Generated_Source\PSoC5/BL.c ****             {
 500              		.loc 1 698 0 discriminator 1
 501 0070 B042     		cmp	r0, r6
 502 0072 06D2     		bcs	.L51
 503 0074 00F19043 		add	r3, r0, #1207959552
 700:Generated_Source\PSoC5/BL.c ****             }
 504              		.loc 1 700 0 discriminator 2
 505 0078 1B78     		ldrb	r3, [r3]	@ zero_extendqisi2
 698:Generated_Source\PSoC5/BL.c ****             {
 506              		.loc 1 698 0 discriminator 2
 507 007a 0130     		adds	r0, r0, #1
 508              	.LVL78:
 700:Generated_Source\PSoC5/BL.c ****             }
 509              		.loc 1 700 0 discriminator 2
 510 007c 1C44     		add	r4, r4, r3
 511              	.LVL79:
 512 007e E4B2     		uxtb	r4, r4
 513              	.LVL80:
 514 0080 F6E7     		b	.L44
 515              	.L51:
 516              	.LVL81:
 709:Generated_Source\PSoC5/BL.c ****            (0u == valid))
 517              		.loc 1 709 0
 518 0082 2946     		mov	r1, r5
 519 0084 0120     		movs	r0, #1
 520              	.LVL82:
 521 0086 FFF7FEFF 		bl	BL_GetMetadata
 522              	.LVL83:
 523 008a 6442     		negs	r4, r4
 524              	.LVL84:
 525 008c E4B2     		uxtb	r4, r4
 526 008e 8442     		cmp	r4, r0
 527 0090 0AD1     		bne	.L49
 709:Generated_Source\PSoC5/BL.c ****            (0u == valid))
 528              		.loc 1 709 0 is_stmt 0 discriminator 1
 529 0092 4FB1     		cbz	r7, .L49
 717:Generated_Source\PSoC5/BL.c ****                                           BL_MD_BTLDB_IS_VERIFIED);
 530              		.loc 1 717 0 is_stmt 1
 531 0094 2802     		lsls	r0, r5, #8
 532 0096 C0F5FF30 		rsb	r0, r0, #130560
 533 009a 0121     		movs	r1, #1
ARM GAS  C:\Users\RABBIT~1\AppData\Local\Temp\ccavO8bx.s 			page 44


 534 009c 00F2D110 		addw	r0, r0, #465
 535 00a0 FFF7FEFF 		bl	BL_SetFlashByte
 536              	.LVL85:
 537              	.L46:
 661:Generated_Source\PSoC5/BL.c ****             }
 538              		.loc 1 661 0
 539 00a4 0020     		movs	r0, #0
 540 00a6 F8BD     		pop	{r3, r4, r5, r6, r7, pc}
 541              	.LVL86:
 542              	.L49:
 712:Generated_Source\PSoC5/BL.c ****         }
 543              		.loc 1 712 0
 544 00a8 0620     		movs	r0, #6
 723:Generated_Source\PSoC5/BL.c **** 
 545              		.loc 1 723 0
 546 00aa F8BD     		pop	{r3, r4, r5, r6, r7, pc}
 547              	.LVL87:
 548              	.L53:
 549              		.align	2
 550              	.L52:
 551 00ac C0FF0100 		.word	131008
 552              		.cfi_endproc
 553              	.LFE63:
 554              		.size	BL_ValidateBootloadable, .-BL_ValidateBootloadable
 555              		.section	.text.BL_Exit,"ax",%progbits
 556              		.align	1
 557              		.global	BL_Exit
 558              		.thumb
 559              		.thumb_func
 560              		.type	BL_Exit, %function
 561              	BL_Exit:
 562              	.LFB60:
 487:Generated_Source\PSoC5/BL.c ****     if(BL_EXIT_TO_BTLDR == appId)
 563              		.loc 1 487 0
 564              		.cfi_startproc
 565              		@ args = 0, pretend = 0, frame = 0
 566              		@ frame_needed = 0, uses_anonymous_args = 0
 567              	.LVL88:
 488:Generated_Source\PSoC5/BL.c ****     {
 568              		.loc 1 488 0
 569 0000 0228     		cmp	r0, #2
 487:Generated_Source\PSoC5/BL.c ****     if(BL_EXIT_TO_BTLDR == appId)
 570              		.loc 1 487 0
 571 0002 38B5     		push	{r3, r4, r5, lr}
 572              		.cfi_def_cfa_offset 16
 573              		.cfi_offset 3, -16
 574              		.cfi_offset 4, -12
 575              		.cfi_offset 5, -8
 576              		.cfi_offset 14, -4
 487:Generated_Source\PSoC5/BL.c ****     if(BL_EXIT_TO_BTLDR == appId)
 577              		.loc 1 487 0
 578 0004 0546     		mov	r5, r0
 579 0006 094C     		ldr	r4, .L59
 488:Generated_Source\PSoC5/BL.c ****     {
 580              		.loc 1 488 0
 581 0008 0AD0     		beq	.L57
 494:Generated_Source\PSoC5/BL.c ****         {
ARM GAS  C:\Users\RABBIT~1\AppData\Local\Temp\ccavO8bx.s 			page 45


 582              		.loc 1 494 0
 583 000a FFF7FEFF 		bl	BL_ValidateBootloadable
 584              	.LVL89:
 585 000e 38B9     		cbnz	r0, .L57
 586              	.LVL90:
 587              	.LBB10:
 500:Generated_Source\PSoC5/BL.c ****                                               (uint8 )(idx == appId));
 588              		.loc 1 500 0 discriminator 3
 589 0010 B5FA85F1 		clz	r1, r5
 590 0014 0648     		ldr	r0, .L59+4
 591 0016 4909     		lsrs	r1, r1, #5
 592 0018 FFF7FEFF 		bl	BL_SetFlashByte
 593              	.LVL91:
 508:Generated_Source\PSoC5/BL.c ****         }
 594              		.loc 1 508 0 discriminator 3
 595 001c 8023     		movs	r3, #128
 596 001e 00E0     		b	.L58
 597              	.LVL92:
 598              	.L57:
 599              	.LBE10:
 512:Generated_Source\PSoC5/BL.c ****         }
 600              		.loc 1 512 0
 601 0020 0023     		movs	r3, #0
 602              	.L58:
 603 0022 2370     		strb	r3, [r4]
 517:Generated_Source\PSoC5/BL.c **** 
 604              		.loc 1 517 0
 605 0024 BDE83840 		pop	{r3, r4, r5, lr}
 606              		.cfi_restore 14
 607              		.cfi_restore 5
 608              		.cfi_restore 4
 609              		.cfi_restore 3
 610              		.cfi_def_cfa_offset 0
 516:Generated_Source\PSoC5/BL.c **** }
 611              		.loc 1 516 0
 612 0028 FFF7FEBF 		b	CySoftwareReset
 613              	.LVL93:
 614              	.L60:
 615              		.align	2
 616              	.L59:
 617 002c FA460040 		.word	1073759994
 618 0030 D0FF0100 		.word	131024
 619              		.cfi_endproc
 620              	.LFE60:
 621              		.size	BL_Exit, .-BL_Exit
 622              		.section	.text.BL_HostLink.constprop.0,"ax",%progbits
 623              		.align	1
 624              		.thumb
 625              		.thumb_func
 626              		.type	BL_HostLink.constprop.0, %function
 627              	BL_HostLink.constprop.0:
 628              	.LFB68:
 744:Generated_Source\PSoC5/BL.c **** {
 629              		.loc 1 744 0
 630              		.cfi_startproc
 631              		@ Volatile: function does not return.
 632              		@ args = 0, pretend = 0, frame = 896
ARM GAS  C:\Users\RABBIT~1\AppData\Local\Temp\ccavO8bx.s 			page 46


 633              		@ frame_needed = 0, uses_anonymous_args = 0
 634              	.LVL94:
 635 0000 2DE98048 		push	{r7, fp, lr}
 636              		.cfi_def_cfa_offset 12
 637              		.cfi_offset 7, -12
 638              		.cfi_offset 11, -8
 639              		.cfi_offset 14, -4
 640 0004 ADF5617D 		sub	sp, sp, #900
 641              		.cfi_def_cfa_offset 912
 800:Generated_Source\PSoC5/BL.c **** 
 642              		.loc 1 800 0
 643 0008 FFF7FEFF 		bl	USBFS_CyBtldrCommStart
 644              	.LVL95:
 803:Generated_Source\PSoC5/BL.c **** 
 645              		.loc 1 803 0
 646              		.syntax unified
 647              	@ 803 "Generated_Source\PSoC5\BL.c" 1
 648 000c 62B6     		CPSIE   i
 649              	@ 0 "" 2
 759:Generated_Source\PSoC5/BL.c **** 
 650              		.loc 1 759 0
 651              		.thumb
 652              		.syntax unified
 653 000e 0025     		movs	r5, #0
 756:Generated_Source\PSoC5/BL.c ****     #endif  /* (0u != BL_FAST_APP_VALIDATION) */
 654              		.loc 1 756 0
 655 0010 2F46     		mov	r7, r5
 752:Generated_Source\PSoC5/BL.c ****     uint8     CYDATA timeOutCnt = 10u;
 656              		.loc 1 752 0
 657 0012 2E46     		mov	r6, r5
 658              	.LBB24:
1594:Generated_Source\PSoC5/BL.c ****                 }
 659              		.loc 1 1594 0
 660 0014 DFF84083 		ldr	r8, .L133+12
 661              	.LVL96:
 662              	.L63:
 663              	.LBE24:
 811:Generated_Source\PSoC5/BL.c ****                                         BL_SIZEOF_COMMAND_BUFFER,
 664              		.loc 1 811 0
 665 0018 FF23     		movs	r3, #255
 666 001a 01AA     		add	r2, sp, #4
 667 001c 4FF49671 		mov	r1, #300
 668 0020 4AA8     		add	r0, sp, #296
 669 0022 FFF7FEFF 		bl	USBFS_CyBtldrCommRead
 670              	.LVL97:
 820:Generated_Source\PSoC5/BL.c **** 
 671              		.loc 1 820 0
 672 0026 0028     		cmp	r0, #0
 673 0028 F6D1     		bne	.L63
 828:Generated_Source\PSoC5/BL.c ****            (packetBuffer[BL_SOP_ADDR] != BL_SOP))
 674              		.loc 1 828 0
 675 002a BDF80430 		ldrh	r3, [sp, #4]
 676 002e 062B     		cmp	r3, #6
 677 0030 53D9     		bls	.L97
 678 0032 9DF82821 		ldrb	r2, [sp, #296]	@ zero_extendqisi2
 679 0036 012A     		cmp	r2, #1
 680 0038 4FD1     		bne	.L97
ARM GAS  C:\Users\RABBIT~1\AppData\Local\Temp\ccavO8bx.s 			page 47


 835:Generated_Source\PSoC5/BL.c ****                                packetBuffer[BL_SIZE_ADDR];
 681              		.loc 1 835 0
 682 003a BDF82A41 		ldrh	r4, [sp, #298]
 683              	.LVL98:
 841:Generated_Source\PSoC5/BL.c ****             {
 684              		.loc 1 841 0
 685 003e E21D     		adds	r2, r4, #7
 686 0040 9A42     		cmp	r2, r3
 687 0042 47D8     		bhi	.L96
 845:Generated_Source\PSoC5/BL.c ****             {
 688              		.loc 1 845 0
 689 0044 4AAB     		add	r3, sp, #296
 690 0046 2344     		add	r3, r3, r4
 691 0048 9B79     		ldrb	r3, [r3, #6]	@ zero_extendqisi2
 692 004a 172B     		cmp	r3, #23
 693 004c 45D1     		bne	.L97
 849:Generated_Source\PSoC5/BL.c ****                                                                         pktSize + BL_DATA_ADDR))
 694              		.loc 1 849 0
 695 004e 231D     		adds	r3, r4, #4
 696              	.LVL99:
 697 0050 9BB2     		uxth	r3, r3
 698              	.LVL100:
 699              	.LBB32:
 700              	.LBB33:
 152:Generated_Source\PSoC5/BL.c ****             size--;
 701              		.loc 1 152 0
 702 0052 0DF22712 		addw	r2, sp, #295
 703              	.LVL101:
 704              	.L65:
 150:Generated_Source\PSoC5/BL.c ****         {
 705              		.loc 1 150 0
 706 0056 2BB1     		cbz	r3, .L130
 152:Generated_Source\PSoC5/BL.c ****             size--;
 707              		.loc 1 152 0
 708 0058 D15C     		ldrb	r1, [r2, r3]	@ zero_extendqisi2
 153:Generated_Source\PSoC5/BL.c ****         }
 709              		.loc 1 153 0
 710 005a 013B     		subs	r3, r3, #1
 711              	.LVL102:
 152:Generated_Source\PSoC5/BL.c ****             size--;
 712              		.loc 1 152 0
 713 005c 0844     		add	r0, r0, r1
 714              	.LVL103:
 715 005e 80B2     		uxth	r0, r0
 716              	.LVL104:
 153:Generated_Source\PSoC5/BL.c ****         }
 717              		.loc 1 153 0
 718 0060 9BB2     		uxth	r3, r3
 719              	.LVL105:
 720 0062 F8E7     		b	.L65
 721              	.L130:
 722              	.LVL106:
 723              	.LBE33:
 724              	.LBE32:
 838:Generated_Source\PSoC5/BL.c ****                                    packetBuffer[BL_CHK_ADDR(pktSize)];
 725              		.loc 1 838 0
 726 0064 4AAB     		add	r3, sp, #296
ARM GAS  C:\Users\RABBIT~1\AppData\Local\Temp\ccavO8bx.s 			page 48


 727 0066 1A19     		adds	r2, r3, r4
 849:Generated_Source\PSoC5/BL.c ****                                                                         pktSize + BL_DATA_ADDR))
 728              		.loc 1 849 0
 729 0068 5179     		ldrb	r1, [r2, #5]	@ zero_extendqisi2
 730 006a 1379     		ldrb	r3, [r2, #4]	@ zero_extendqisi2
 731 006c 4042     		negs	r0, r0
 732 006e 43EA0123 		orr	r3, r3, r1, lsl #8
 733 0072 80B2     		uxth	r0, r0
 734 0074 8342     		cmp	r3, r0
 735 0076 32D0     		beq	.L131
 852:Generated_Source\PSoC5/BL.c ****             }
 736              		.loc 1 852 0
 737 0078 0824     		movs	r4, #8
 738              	.LVL107:
 739              	.L128:
 860:Generated_Source\PSoC5/BL.c ****         if(ackCode == CYRET_SUCCESS)
 740              		.loc 1 860 0
 741 007a 0021     		movs	r1, #0
 742              	.L69:
 743              	.LVL108:
 744              	.LBB34:
 745              	.LBB35:
1645:Generated_Source\PSoC5/BL.c ****     buffer[BL_CMD_ADDR]      = status;
 746              		.loc 1 1645 0
 747 007c 0123     		movs	r3, #1
 748 007e 8DF82831 		strb	r3, [sp, #296]
1651:Generated_Source\PSoC5/BL.c **** 
 749              		.loc 1 1651 0
 750 0082 0A1D     		adds	r2, r1, #4
1648:Generated_Source\PSoC5/BL.c **** 
 751              		.loc 1 1648 0
 752 0084 0023     		movs	r3, #0
1646:Generated_Source\PSoC5/BL.c ****     buffer[BL_SIZE_ADDR]     = LO8(size);
 753              		.loc 1 1646 0
 754 0086 8DF82941 		strb	r4, [sp, #297]
 755 008a ADF80610 		strh	r1, [sp, #6]	@ movhi
 756              	.LVL109:
1647:Generated_Source\PSoC5/BL.c ****     buffer[BL_SIZE_ADDR + 1u] = HI8(size);
 757              		.loc 1 1647 0
 758 008e 8DF82A11 		strb	r1, [sp, #298]
1648:Generated_Source\PSoC5/BL.c **** 
 759              		.loc 1 1648 0
 760 0092 8DF82B31 		strb	r3, [sp, #299]
1651:Generated_Source\PSoC5/BL.c **** 
 761              		.loc 1 1651 0
 762 0096 92B2     		uxth	r2, r2
 763              	.LVL110:
 764              	.LBB36:
 765              	.LBB37:
 152:Generated_Source\PSoC5/BL.c ****             size--;
 766              		.loc 1 152 0
 767 0098 0DF22714 		addw	r4, sp, #295
 768              	.LVL111:
 769              	.L92:
 770 009c A05C     		ldrb	r0, [r4, r2]	@ zero_extendqisi2
 153:Generated_Source\PSoC5/BL.c ****         }
 771              		.loc 1 153 0
ARM GAS  C:\Users\RABBIT~1\AppData\Local\Temp\ccavO8bx.s 			page 49


 772 009e 013A     		subs	r2, r2, #1
 773              	.LVL112:
 152:Generated_Source\PSoC5/BL.c ****             size--;
 774              		.loc 1 152 0
 775 00a0 0344     		add	r3, r3, r0
 776              	.LVL113:
 153:Generated_Source\PSoC5/BL.c ****         }
 777              		.loc 1 153 0
 778 00a2 92B2     		uxth	r2, r2
 152:Generated_Source\PSoC5/BL.c ****             size--;
 779              		.loc 1 152 0
 780 00a4 9BB2     		uxth	r3, r3
 781              	.LVL114:
 150:Generated_Source\PSoC5/BL.c ****         {
 782              		.loc 1 150 0
 783 00a6 002A     		cmp	r2, #0
 784 00a8 F8D1     		bne	.L92
 156:Generated_Source\PSoC5/BL.c **** 
 785              		.loc 1 156 0
 786 00aa 5B42     		negs	r3, r3
 787              	.LVL115:
 788              	.LBE37:
 789              	.LBE36:
1653:Generated_Source\PSoC5/BL.c ****     buffer[BL_CHK_ADDR(1u + size)] = HI8(checksum);
 790              		.loc 1 1653 0
 791 00ac 4BAA     		add	r2, sp, #300
 792              	.LVL116:
 793              	.LBB39:
 794              	.LBB38:
 156:Generated_Source\PSoC5/BL.c **** 
 795              		.loc 1 156 0
 796 00ae 9BB2     		uxth	r3, r3
 797              	.LVL117:
 798              	.LBE38:
 799              	.LBE39:
1653:Generated_Source\PSoC5/BL.c ****     buffer[BL_CHK_ADDR(1u + size)] = HI8(checksum);
 800              		.loc 1 1653 0
 801 00b0 5354     		strb	r3, [r2, r1]
 802              	.LVL118:
1654:Generated_Source\PSoC5/BL.c ****     buffer[BL_EOP_ADDR(size)]     = BL_EOP;
 803              		.loc 1 1654 0
 804 00b2 0DF22D12 		addw	r2, sp, #301
 805 00b6 1B0A     		lsrs	r3, r3, #8
 806 00b8 5354     		strb	r3, [r2, r1]
1655:Generated_Source\PSoC5/BL.c **** 
 807              		.loc 1 1655 0
 808 00ba 0DF59773 		add	r3, sp, #302
 809 00be 1722     		movs	r2, #23
 810 00c0 5A54     		strb	r2, [r3, r1]
1658:Generated_Source\PSoC5/BL.c **** }
 811              		.loc 1 1658 0
 812 00c2 0731     		adds	r1, r1, #7
 813              	.LVL119:
 814 00c4 9623     		movs	r3, #150
 815 00c6 0DF10602 		add	r2, sp, #6
 816              	.LVL120:
 817 00ca 89B2     		uxth	r1, r1
ARM GAS  C:\Users\RABBIT~1\AppData\Local\Temp\ccavO8bx.s 			page 50


 818 00cc 4AA8     		add	r0, sp, #296
 819              	.LVL121:
 820 00ce FFF7FEFF 		bl	USBFS_CyBtldrCommWrite
 821              	.LVL122:
 822 00d2 A1E7     		b	.L63
 823              	.LVL123:
 824              	.L96:
 825              	.LBE35:
 826              	.LBE34:
 843:Generated_Source\PSoC5/BL.c ****             }
 827              		.loc 1 843 0
 828 00d4 0324     		movs	r4, #3
 829              	.LVL124:
 830 00d6 D0E7     		b	.L128
 831              	.LVL125:
 832              	.L68:
 833              	.LBB40:
 913:Generated_Source\PSoC5/BL.c ****                 {
 834              		.loc 1 913 0
 835 00d8 25BB     		cbnz	r5, .L132
 836              	.LVL126:
 837              	.L97:
 838              	.LBE40:
 831:Generated_Source\PSoC5/BL.c ****         }
 839              		.loc 1 831 0
 840 00da 0424     		movs	r4, #4
 841 00dc CDE7     		b	.L128
 842              	.LVL127:
 843              	.L131:
 844              	.LBB41:
 866:Generated_Source\PSoC5/BL.c ****             {
 845              		.loc 1 866 0
 846 00de 9DF82921 		ldrb	r2, [sp, #297]	@ zero_extendqisi2
 863:Generated_Source\PSoC5/BL.c **** 
 847              		.loc 1 863 0
 848 00e2 9DF82C91 		ldrb	r9, [sp, #300]	@ zero_extendqisi2
 849              	.LVL128:
 866:Generated_Source\PSoC5/BL.c ****             {
 850              		.loc 1 866 0
 851 00e6 A2F13103 		sub	r3, r2, #49
 852 00ea 0A2B     		cmp	r3, #10
 853 00ec 00F22B81 		bhi	.L120
 854 00f0 01A1     		adr	r1, .L93
 855 00f2 51F823F0 		ldr	pc, [r1, r3, lsl #2]
 856 00f6 00BF     		.p2align 2
 857              	.L93:
 858 00f8 D9000000 		.word	.L68+1
 859 00fc 3D010000 		.word	.L70+1
 860 0100 47030000 		.word	.L120+1
 861 0104 81010000 		.word	.L73+1
 862 0108 43020000 		.word	.L81+1
 863 010c 47030000 		.word	.L120+1
 864 0110 4D020000 		.word	.L83+1
 865 0114 75020000 		.word	.L84+1
 866 0118 81010000 		.word	.L73+1
 867 011c 93020000 		.word	.L85+1
 868 0120 21030000 		.word	.L90+1
ARM GAS  C:\Users\RABBIT~1\AppData\Local\Temp\ccavO8bx.s 			page 51


 869              		.p2align 1
 870              	.L132:
 913:Generated_Source\PSoC5/BL.c ****                 {
 871              		.loc 1 913 0
 872 0124 002C     		cmp	r4, #0
 873 0126 D8D1     		bne	.L97
 916:Generated_Source\PSoC5/BL.c **** 
 874              		.loc 1 916 0
 875 0128 2046     		mov	r0, r4
 876 012a FFF7FEFF 		bl	BL_ValidateBootloadable
 877              	.LVL129:
 915:Generated_Source\PSoC5/BL.c ****                             (uint8)(BL_ValidateBootloadable(BL_activeApp) == CYRET_SUCCESS);
 878              		.loc 1 915 0
 879 012e B0FA80F0 		clz	r0, r0
 880 0132 4009     		lsrs	r0, r0, #5
 881 0134 8DF82C01 		strb	r0, [sp, #300]
 882              	.LVL130:
 918:Generated_Source\PSoC5/BL.c ****                     ackCode = CYRET_SUCCESS;
 883              		.loc 1 918 0
 884 0138 2946     		mov	r1, r5
 885 013a 9FE7     		b	.L69
 886              	.LVL131:
 887              	.L70:
 937:Generated_Source\PSoC5/BL.c ****                     {
 888              		.loc 1 937 0
 889 013c 002D     		cmp	r5, #0
 890 013e CCD0     		beq	.L97
 891 0140 012C     		cmp	r4, #1
 892 0142 CAD1     		bne	.L97
 939:Generated_Source\PSoC5/BL.c ****                         {
 893              		.loc 1 939 0
 894 0144 B9F1010F 		cmp	r9, #1
 895 0148 C7D8     		bhi	.L97
 896              	.LBB25:
 956:Generated_Source\PSoC5/BL.c **** 
 897              		.loc 1 956 0
 898 014a 804B     		ldr	r3, .L133
 899 014c 1B68     		ldr	r3, [r3]
 900 014e 1B68     		ldr	r3, [r3]
 901 0150 C3F30742 		ubfx	r2, r3, #16, #8
 902              	.LVL132:
 958:Generated_Source\PSoC5/BL.c ****                             {
 903              		.loc 1 958 0
 904 0154 9145     		cmp	r9, r2
 905 0156 02D1     		bne	.L71
 960:Generated_Source\PSoC5/BL.c ****                                             BL_NUMBER_OF_ROWS_IN_ARRAY;
 906              		.loc 1 960 0
 907 0158 C3F30723 		ubfx	r3, r3, #8, #8
 908              	.LVL133:
 909 015c 03E0     		b	.L72
 910              	.LVL134:
 911              	.L71:
 965:Generated_Source\PSoC5/BL.c ****                             }
 912              		.loc 1 965 0
 913 015e 8CBF     		ite	hi
 914 0160 0023     		movhi	r3, #0
 969:Generated_Source\PSoC5/BL.c ****                             }
ARM GAS  C:\Users\RABBIT~1\AppData\Local\Temp\ccavO8bx.s 			page 52


 915              		.loc 1 969 0
 916 0162 4FF48073 		movls	r3, #256
 917              	.L72:
 918              	.LVL135:
 972:Generated_Source\PSoC5/BL.c ****                             packetBuffer[BL_DATA_ADDR + 1u] = HI8(startRow);
 919              		.loc 1 972 0
 920 0166 8DF82C31 		strb	r3, [sp, #300]
 921              	.LVL136:
 973:Generated_Source\PSoC5/BL.c **** 
 922              		.loc 1 973 0
 923 016a 1B0A     		lsrs	r3, r3, #8
 924              	.LVL137:
 925 016c 8DF82D31 		strb	r3, [sp, #301]
 978:Generated_Source\PSoC5/BL.c ****                                         HI8(BL_NUMBER_OF_ROWS_IN_ARRAY - 1u);
 926              		.loc 1 978 0
 927 0170 0024     		movs	r4, #0
 975:Generated_Source\PSoC5/BL.c ****                                         LO8(BL_NUMBER_OF_ROWS_IN_ARRAY - 1u);
 928              		.loc 1 975 0
 929 0172 FF23     		movs	r3, #255
 930 0174 8DF82E31 		strb	r3, [sp, #302]
 978:Generated_Source\PSoC5/BL.c ****                                         HI8(BL_NUMBER_OF_ROWS_IN_ARRAY - 1u);
 931              		.loc 1 978 0
 932 0178 8DF82F41 		strb	r4, [sp, #303]
 933              	.LVL138:
 981:Generated_Source\PSoC5/BL.c ****                             ackCode = CYRET_SUCCESS;
 934              		.loc 1 981 0
 935 017c 0421     		movs	r1, #4
 936 017e 7DE7     		b	.L69
 937              	.LVL139:
 938              	.L73:
 939              	.LBE25:
1029:Generated_Source\PSoC5/BL.c ****                 {
 940              		.loc 1 1029 0
 941 0180 342A     		cmp	r2, #52
 942 0182 10D1     		bne	.L74
1031:Generated_Source\PSoC5/BL.c ****                     {
 943              		.loc 1 1031 0
 944 0184 002D     		cmp	r5, #0
 945 0186 A8D0     		beq	.L97
 946 0188 032C     		cmp	r4, #3
 947 018a A6D1     		bne	.L97
1034:Generated_Source\PSoC5/BL.c ****                                (btldrData <= BL_LAST_EE_ARRAYID))
 948              		.loc 1 1034 0
 949 018c A9F14003 		sub	r3, r9, #64
1038:Generated_Source\PSoC5/BL.c ****                             }
 950              		.loc 1 1038 0
 951 0190 3F2B     		cmp	r3, #63
 952 0192 8CBF     		ite	hi
 953 0194 4FF49076 		movhi	r6, #288
 954 0198 1026     		movls	r6, #16
 955              	.LVL140:
1053:Generated_Source\PSoC5/BL.c ****                         #endif  /* (CY_PSOC3) */
 956              		.loc 1 1053 0
 957 019a 3246     		mov	r2, r6
 958 019c 0021     		movs	r1, #0
 959 019e 95A8     		add	r0, sp, #596
 960 01a0 FFF7FEFF 		bl	memset
ARM GAS  C:\Users\RABBIT~1\AppData\Local\Temp\ccavO8bx.s 			page 53


 961              	.LVL141:
 962 01a4 03E0     		b	.L76
 963              	.LVL142:
 964              	.L74:
1065:Generated_Source\PSoC5/BL.c ****                 {
 965              		.loc 1 1065 0
 966 01a6 002D     		cmp	r5, #0
 967 01a8 97D0     		beq	.L97
 968 01aa 022C     		cmp	r4, #2
 969 01ac 95D9     		bls	.L97
 970              	.LVL143:
 971              	.L76:
1074:Generated_Source\PSoC5/BL.c ****                                       &packetBuffer[BL_DATA_ADDR + 3u],
 972              		.loc 1 1074 0
 973 01ae 95AB     		add	r3, sp, #596
 974 01b0 033C     		subs	r4, r4, #3
 975 01b2 9819     		adds	r0, r3, r6
 976 01b4 2246     		mov	r2, r4
 977 01b6 0DF22F11 		addw	r1, sp, #303
 978 01ba FFF7FEFF 		bl	memcpy
 979              	.LVL144:
1082:Generated_Source\PSoC5/BL.c ****                            (btldrData <= BL_LAST_EE_ARRAYID))
 980              		.loc 1 1082 0
 981 01be A9F14003 		sub	r3, r9, #64
1079:Generated_Source\PSoC5/BL.c **** 
 982              		.loc 1 1079 0
 983 01c2 3444     		add	r4, r4, r6
1082:Generated_Source\PSoC5/BL.c ****                            (btldrData <= BL_LAST_EE_ARRAYID))
 984              		.loc 1 1082 0
 985 01c4 3F2B     		cmp	r3, #63
1079:Generated_Source\PSoC5/BL.c **** 
 986              		.loc 1 1079 0
 987 01c6 A6B2     		uxth	r6, r4
 988              	.LVL145:
1082:Generated_Source\PSoC5/BL.c ****                            (btldrData <= BL_LAST_EE_ARRAYID))
 989              		.loc 1 1082 0
 990 01c8 03D8     		bhi	.L110
1086:Generated_Source\PSoC5/BL.c **** 
 991              		.loc 1 1086 0
 992 01ca FFF7FEFF 		bl	CyEEPROM_Start
 993              	.LVL146:
1089:Generated_Source\PSoC5/BL.c ****                         }
 994              		.loc 1 1089 0
 995 01ce 1023     		movs	r3, #16
 996 01d0 01E0     		b	.L77
 997              	.LVL147:
 998              	.L110:
1094:Generated_Source\PSoC5/BL.c ****                         }
 999              		.loc 1 1094 0
 1000 01d2 4FF49073 		mov	r3, #288
 1001              	.L77:
 1002              	.LVL148:
1103:Generated_Source\PSoC5/BL.c ****                     {
 1003              		.loc 1 1103 0
 1004 01d6 9E42     		cmp	r6, r3
 1005 01d8 40F0AC80 		bne	.L111
 1006              	.LBB26:
ARM GAS  C:\Users\RABBIT~1\AppData\Local\Temp\ccavO8bx.s 			page 54


1115:Generated_Source\PSoC5/BL.c ****                             {
 1007              		.loc 1 1115 0
 1008 01dc B9F13F0F 		cmp	r9, #63
1109:Generated_Source\PSoC5/BL.c ****                                               packetBuffer[BL_DATA_ADDR + 1u];
 1009              		.loc 1 1109 0
 1010 01e0 BDF82D41 		ldrh	r4, [sp, #301]	@ unaligned
 1011              	.LVL149:
1115:Generated_Source\PSoC5/BL.c ****                             {
 1012              		.loc 1 1115 0
 1013 01e4 1ED8     		bhi	.L78
1130:Generated_Source\PSoC5/BL.c ****                         if ((*BL_SizeBytesAccess % CYDEV_FLS_ROW_SIZE) != 0u)
 1014              		.loc 1 1130 0
 1015 01e6 594B     		ldr	r3, .L133
 1016              	.LVL150:
1122:Generated_Source\PSoC5/BL.c **** 
 1017              		.loc 1 1122 0
 1018 01e8 04EB0922 		add	r2, r4, r9, lsl #8
1130:Generated_Source\PSoC5/BL.c ****                         if ((*BL_SizeBytesAccess % CYDEV_FLS_ROW_SIZE) != 0u)
 1019              		.loc 1 1130 0
 1020 01ec 1B68     		ldr	r3, [r3]
1122:Generated_Source\PSoC5/BL.c **** 
 1021              		.loc 1 1122 0
 1022 01ee 92B2     		uxth	r2, r2
 1023              	.LVL151:
1130:Generated_Source\PSoC5/BL.c ****                         if ((*BL_SizeBytesAccess % CYDEV_FLS_ROW_SIZE) != 0u)
 1024              		.loc 1 1130 0
 1025 01f0 1968     		ldr	r1, [r3]
 1026 01f2 C1F30F23 		ubfx	r3, r1, #8, #16
 1027              	.LVL152:
1131:Generated_Source\PSoC5/BL.c ****                         {
 1028              		.loc 1 1131 0
 1029 01f6 11F0FF0F 		tst	r1, #255
1133:Generated_Source\PSoC5/BL.c ****                         }
 1030              		.loc 1 1133 0
 1031 01fa 1CBF     		itt	ne
 1032 01fc 0133     		addne	r3, r3, #1
 1033              	.LVL153:
 1034 01fe 9BB2     		uxthne	r3, r3
 1035              	.LVL154:
1137:Generated_Source\PSoC5/BL.c ****                         {
 1036              		.loc 1 1137 0
 1037 0200 9A42     		cmp	r2, r3
 1038 0202 C0F09B80 		bcc	.L112
1282:Generated_Source\PSoC5/BL.c ****                             {
 1039              		.loc 1 1282 0
 1040 0206 6FB9     		cbnz	r7, .L78
 1041              	.LBB27:
1293:Generated_Source\PSoC5/BL.c ****                                 #endif  /* (CY_PSOC3) */
 1042              		.loc 1 1293 0
 1043 0208 3946     		mov	r1, r7
 1044 020a 4FF49072 		mov	r2, #288
 1045              	.LVL155:
 1046 020e 02A8     		add	r0, sp, #8
 1047 0210 FFF7FEFF 		bl	memset
 1048              	.LVL156:
1316:Generated_Source\PSoC5/BL.c ****                                             (uint8)  BL_MD_FLASH_ARRAY_NUM,
 1049              		.loc 1 1316 0
ARM GAS  C:\Users\RABBIT~1\AppData\Local\Temp\ccavO8bx.s 			page 55


 1050 0214 4FF49073 		mov	r3, #288
 1051 0218 02AA     		add	r2, sp, #8
 1052 021a FF21     		movs	r1, #255
 1053 021c 0120     		movs	r0, #1
 1054 021e FFF7FEFF 		bl	CyWriteRowFull
 1055              	.LVL157:
1326:Generated_Source\PSoC5/BL.c ****                             }
 1056              		.loc 1 1326 0
 1057 0222 0127     		movs	r7, #1
 1058              	.LVL158:
 1059              	.L78:
 1060              	.LBE27:
1342:Generated_Source\PSoC5/BL.c ****                                 ? BL_ERR_ROW \
 1061              		.loc 1 1342 0
 1062 0224 2146     		mov	r1, r4
 1063 0226 3346     		mov	r3, r6
 1064 0228 95AA     		add	r2, sp, #596
 1065 022a 4846     		mov	r0, r9
 1066 022c FFF7FEFF 		bl	CyWriteRowFull
 1067              	.LVL159:
 1068 0230 0028     		cmp	r0, #0
 1069 0232 0CBF     		ite	eq
 1070 0234 0024     		moveq	r4, #0
 1071 0236 0A24     		movne	r4, #10
 1072              	.LVL160:
1355:Generated_Source\PSoC5/BL.c ****                         #endif /* (CY_PSOC5) */
 1073              		.loc 1 1355 0
 1074 0238 0125     		movs	r5, #1
 1075 023a FFF7FEFF 		bl	CyFlushCache
 1076              	.LVL161:
 1077              	.LBE26:
1364:Generated_Source\PSoC5/BL.c ****                 }
 1078              		.loc 1 1364 0
 1079 023e 0026     		movs	r6, #0
 1080 0240 7FE0     		b	.L129
 1081              	.LVL162:
 1082              	.L81:
1376:Generated_Source\PSoC5/BL.c ****                 {
 1083              		.loc 1 1376 0
 1084 0242 002D     		cmp	r5, #0
 1085 0244 3FF449AF 		beq	.L97
1379:Generated_Source\PSoC5/BL.c **** 
 1086              		.loc 1 1379 0
 1087 0248 0026     		movs	r6, #0
 1088              	.LVL163:
 1089 024a E5E6     		b	.L63
 1090              	.LVL164:
 1091              	.L83:
1427:Generated_Source\PSoC5/BL.c ****                     {
 1092              		.loc 1 1427 0
 1093 024c 002D     		cmp	r5, #0
 1094 024e 3FF444AF 		beq	.L97
1430:Generated_Source\PSoC5/BL.c ****                         {
 1095              		.loc 1 1430 0
 1096 0252 04EB0609 		add	r9, r4, r6
 1097              	.LVL165:
 1098 0256 B9F5967F 		cmp	r9, #300
ARM GAS  C:\Users\RABBIT~1\AppData\Local\Temp\ccavO8bx.s 			page 56


 1099 025a 3FF73BAF 		bgt	.L96
 1100              	.LVL166:
1439:Generated_Source\PSoC5/BL.c ****                                               &packetBuffer[BL_DATA_ADDR],
 1101              		.loc 1 1439 0
 1102 025e 95AB     		add	r3, sp, #596
 1103 0260 2246     		mov	r2, r4
 1104 0262 4BA9     		add	r1, sp, #300
 1105              	.LVL167:
 1106 0264 9819     		adds	r0, r3, r6
1432:Generated_Source\PSoC5/BL.c **** 
 1107              		.loc 1 1432 0
 1108 0266 0024     		movs	r4, #0
 1109              	.LVL168:
1439:Generated_Source\PSoC5/BL.c ****                                               &packetBuffer[BL_DATA_ADDR],
 1110              		.loc 1 1439 0
 1111 0268 FFF7FEFF 		bl	memcpy
 1112              	.LVL169:
1444:Generated_Source\PSoC5/BL.c ****                         }
 1113              		.loc 1 1444 0
 1114 026c 1FFA89F6 		uxth	r6, r9
 1115              	.LVL170:
 1116              	.LBE41:
 860:Generated_Source\PSoC5/BL.c ****         if(ackCode == CYRET_SUCCESS)
 1117              		.loc 1 860 0
 1118 0270 2146     		mov	r1, r4
 1119 0272 03E7     		b	.L69
 1120              	.LVL171:
 1121              	.L84:
 1122              	.LBB42:
1462:Generated_Source\PSoC5/BL.c ****                 {
 1123              		.loc 1 1462 0
 1124 0274 002C     		cmp	r4, #0
 1125 0276 7FF430AF 		bne	.L97
 1126              	.LBB28:
1471:Generated_Source\PSoC5/BL.c ****                             {CYDEV_CHIP_JTAG_ID, CYDEV_CHIP_REV_EXPECT, BL_VERSION};
 1127              		.loc 1 1471 0
 1128 027a 354A     		ldr	r2, .L133+4
 1129 027c 02AB     		add	r3, sp, #8
 1130 027e 92E80300 		ldmia	r2, {r0, r1}
1485:Generated_Source\PSoC5/BL.c ****                                       &BtldrVersion,
 1131              		.loc 1 1485 0
 1132 0282 4BAA     		add	r2, sp, #300
1471:Generated_Source\PSoC5/BL.c ****                             {CYDEV_CHIP_JTAG_ID, CYDEV_CHIP_REV_EXPECT, BL_VERSION};
 1133              		.loc 1 1471 0
 1134 0284 83E80300 		stmia	r3, {r0, r1}
 1135              	.LVL172:
1485:Generated_Source\PSoC5/BL.c ****                                       &BtldrVersion,
 1136              		.loc 1 1485 0
 1137 0288 82E80300 		stmia	r2, {r0, r1}
 1138              	.LVL173:
1476:Generated_Source\PSoC5/BL.c **** 
 1139              		.loc 1 1476 0
 1140 028c 0125     		movs	r5, #1
1478:Generated_Source\PSoC5/BL.c **** 
 1141              		.loc 1 1478 0
 1142 028e 0821     		movs	r1, #8
 1143 0290 F4E6     		b	.L69
ARM GAS  C:\Users\RABBIT~1\AppData\Local\Temp\ccavO8bx.s 			page 57


 1144              	.LVL174:
 1145              	.L85:
 1146              	.LBE28:
1502:Generated_Source\PSoC5/BL.c ****                 {
 1147              		.loc 1 1502 0
 1148 0292 002D     		cmp	r5, #0
 1149 0294 3FF421AF 		beq	.L97
 1150 0298 032C     		cmp	r4, #3
 1151 029a 7FF41EAF 		bne	.L97
 1152              	.LBB29:
1513:Generated_Source\PSoC5/BL.c ****                            (btldrData <= BL_LAST_EE_ARRAYID))
 1153              		.loc 1 1513 0
 1154 029e A9F14003 		sub	r3, r9, #64
 1155 02a2 3F2B     		cmp	r3, #63
1505:Generated_Source\PSoC5/BL.c ****                                                     packetBuffer[BL_DATA_ADDR + 1u];
 1156              		.loc 1 1505 0
 1157 02a4 BDF82DB1 		ldrh	fp, [sp, #301]	@ unaligned
 1158              	.LVL175:
1513:Generated_Source\PSoC5/BL.c ****                            (btldrData <= BL_LAST_EE_ARRAYID))
 1159              		.loc 1 1513 0
 1160 02a8 07D8     		bhi	.L86
 1161              	.LVL176:
1520:Generated_Source\PSoC5/BL.c ****                         }
 1162              		.loc 1 1520 0
 1163 02aa 1022     		movs	r2, #16
 1164 02ac 4FEA0B11 		lsl	r1, fp, #4
 1165 02b0 2848     		ldr	r0, .L133+8
 1166 02b2 FFF7FEFF 		bl	BL_Calc8BitSum
 1167              	.LVL177:
 1168 02b6 0446     		mov	r4, r0
 1169              	.LVL178:
 1170 02b8 2CE0     		b	.L89
 1171              	.LVL179:
 1172              	.L86:
1526:Generated_Source\PSoC5/BL.c **** 
 1173              		.loc 1 1526 0
 1174 02ba 4FEA092A 		lsl	r10, r9, #8
 1175              	.LVL180:
1528:Generated_Source\PSoC5/BL.c ****                         }
 1176              		.loc 1 1528 0
 1177 02be 0AEB0B01 		add	r1, r10, fp
 1178 02c2 4FF48072 		mov	r2, #256
 1179 02c6 0902     		lsls	r1, r1, #8
 1180              	.LVL181:
 1181 02c8 0020     		movs	r0, #0
 1182 02ca FFF7FEFF 		bl	BL_Calc8BitSum
 1183              	.LVL182:
1546:Generated_Source\PSoC5/BL.c ****                         {
 1184              		.loc 1 1546 0
 1185 02ce B9F13F0F 		cmp	r9, #63
1528:Generated_Source\PSoC5/BL.c ****                         }
 1186              		.loc 1 1528 0
 1187 02d2 0446     		mov	r4, r0
 1188              	.LVL183:
1546:Generated_Source\PSoC5/BL.c ****                         {
 1189              		.loc 1 1546 0
 1190 02d4 1ED8     		bhi	.L89
ARM GAS  C:\Users\RABBIT~1\AppData\Local\Temp\ccavO8bx.s 			page 58


 1191              	.LBB30:
1550:Generated_Source\PSoC5/BL.c ****                                         + ((uint32)rowNum * CYDEV_ECC_ROW_SIZE);
 1192              		.loc 1 1550 0
 1193 02d6 0AF1107A 		add	r10, r10, #37748736
 1194              	.LVL184:
 1195 02da DA44     		add	r10, r10, fp
 1196              	.LVL185:
 1197 02dc 4FEA4A1A 		lsl	r10, r10, #5
 1198              	.LVL186:
 1199 02e0 0023     		movs	r3, #0
 1200              	.LVL187:
 1201              	.L88:
1555:Generated_Source\PSoC5/BL.c ****                             }
 1202              		.loc 1 1555 0
 1203 02e2 13F80A00 		ldrb	r0, [r3, r10]	@ zero_extendqisi2
 1204 02e6 0133     		adds	r3, r3, #1
 1205              	.LVL188:
 1206 02e8 0444     		add	r4, r4, r0
 1207              	.LVL189:
1553:Generated_Source\PSoC5/BL.c ****                             {
 1208              		.loc 1 1553 0
 1209 02ea 202B     		cmp	r3, #32
1555:Generated_Source\PSoC5/BL.c ****                             }
 1210              		.loc 1 1555 0
 1211 02ec E4B2     		uxtb	r4, r4
 1212              	.LVL190:
1553:Generated_Source\PSoC5/BL.c ****                             {
 1213              		.loc 1 1553 0
 1214 02ee F8D1     		bne	.L88
 1215              	.LBE30:
1567:Generated_Source\PSoC5/BL.c ****                        (BL_CONTAIN_METADATA(rowNum)))
 1216              		.loc 1 1567 0
 1217 02f0 B9F1010F 		cmp	r9, #1
 1218 02f4 0ED1     		bne	.L89
 1219 02f6 BBF1FF0F 		cmp	fp, #255
 1220 02fa 0BD1     		bne	.L89
1571:Generated_Source\PSoC5/BL.c ****                                                                  BL_GET_APP_ID(rowNum));
 1221              		.loc 1 1571 0
 1222 02fc 0021     		movs	r1, #0
 1223 02fe 0520     		movs	r0, #5
 1224 0300 FFF7FEFF 		bl	BL_GetMetadata
 1225              	.LVL191:
 1226 0304 201A     		subs	r0, r4, r0
 1227 0306 C4B2     		uxtb	r4, r0
 1228              	.LVL192:
1574:Generated_Source\PSoC5/BL.c ****                                                                  BL_GET_APP_ID(rowNum));
 1229              		.loc 1 1574 0
 1230 0308 0021     		movs	r1, #0
 1231 030a 0620     		movs	r0, #6
 1232 030c FFF7FEFF 		bl	BL_GetMetadata
 1233              	.LVL193:
 1234 0310 201A     		subs	r0, r4, r0
 1235 0312 C4B2     		uxtb	r4, r0
 1236              	.LVL194:
 1237              	.L89:
1578:Generated_Source\PSoC5/BL.c ****                     ackCode = CYRET_SUCCESS;
 1238              		.loc 1 1578 0
ARM GAS  C:\Users\RABBIT~1\AppData\Local\Temp\ccavO8bx.s 			page 59


 1239 0314 6442     		negs	r4, r4
 1240              	.LVL195:
 1241 0316 8DF82C41 		strb	r4, [sp, #300]
 1242              	.LVL196:
1580:Generated_Source\PSoC5/BL.c ****                 }
 1243              		.loc 1 1580 0
 1244 031a 0121     		movs	r1, #1
1579:Generated_Source\PSoC5/BL.c ****                     rspSize = 1u;
 1245              		.loc 1 1579 0
 1246 031c 0024     		movs	r4, #0
 1247 031e ADE6     		b	.L69
 1248              	.LVL197:
 1249              	.L90:
 1250              	.LBE29:
1592:Generated_Source\PSoC5/BL.c ****                 {
 1251              		.loc 1 1592 0
 1252 0320 0020     		movs	r0, #0
 1253 0322 FFF7FEFF 		bl	BL_ValidateBootloadable
 1254              	.LVL198:
 1255 0326 10B9     		cbnz	r0, .L91
1594:Generated_Source\PSoC5/BL.c ****                 }
 1256              		.loc 1 1594 0
 1257 0328 8023     		movs	r3, #128
 1258 032a 88F80030 		strb	r3, [r8]
 1259              	.L91:
1597:Generated_Source\PSoC5/BL.c **** 
 1260              		.loc 1 1597 0
 1261 032e FFF7FEFF 		bl	CySoftwareReset
 1262              	.LVL199:
 1263 0332 D2E6     		b	.L97
 1264              	.LVL200:
 1265              	.L111:
1103:Generated_Source\PSoC5/BL.c ****                     {
 1266              		.loc 1 1103 0
 1267 0334 0125     		movs	r5, #1
1364:Generated_Source\PSoC5/BL.c ****                 }
 1268              		.loc 1 1364 0
 1269 0336 0026     		movs	r6, #0
 1270              	.LVL201:
1361:Generated_Source\PSoC5/BL.c ****                     }
 1271              		.loc 1 1361 0
 1272 0338 0324     		movs	r4, #3
 1273              	.LVL202:
 1274 033a 02E0     		b	.L129
 1275              	.LVL203:
 1276              	.L112:
 1277              	.LBB31:
1137:Generated_Source\PSoC5/BL.c ****                         {
 1278              		.loc 1 1137 0
 1279 033c 0125     		movs	r5, #1
1140:Generated_Source\PSoC5/BL.c ****                             break;
 1280              		.loc 1 1140 0
 1281 033e 0026     		movs	r6, #0
1139:Generated_Source\PSoC5/BL.c ****                             dataOffset = 0u;
 1282              		.loc 1 1139 0
 1283 0340 0A24     		movs	r4, #10
 1284              	.LVL204:
ARM GAS  C:\Users\RABBIT~1\AppData\Local\Temp\ccavO8bx.s 			page 60


 1285              	.L129:
 1286              	.LBE31:
 1287              	.LBE42:
 860:Generated_Source\PSoC5/BL.c ****         if(ackCode == CYRET_SUCCESS)
 1288              		.loc 1 860 0
 1289 0342 3146     		mov	r1, r6
 1290 0344 9AE6     		b	.L69
 1291              	.LVL205:
 1292              	.L120:
 1293              	.LBB43:
1607:Generated_Source\PSoC5/BL.c ****                 break;
 1294              		.loc 1 1607 0
 1295 0346 0524     		movs	r4, #5
 1296              	.LVL206:
 1297 0348 97E6     		b	.L128
 1298              	.L134:
 1299 034a 00BF     		.align	2
 1300              	.L133:
 1301 034c 00000000 		.word	.LANCHOR0
 1302 0350 00000000 		.word	.LANCHOR1
 1303 0354 00800040 		.word	1073774592
 1304 0358 FA460040 		.word	1073759994
 1305              	.LBE43:
 1306              		.cfi_endproc
 1307              	.LFE68:
 1308              		.size	BL_HostLink.constprop.0, .-BL_HostLink.constprop.0
 1309              		.section	.text.BL_Start,"ax",%progbits
 1310              		.align	1
 1311              		.global	BL_Start
 1312              		.thumb
 1313              		.thumb_func
 1314              		.type	BL_Start, %function
 1315              	BL_Start:
 1316              	.LFB58:
 244:Generated_Source\PSoC5/BL.c ****     #if(0u != BL_BOOTLOADER_APP_VALIDATION)
 1317              		.loc 1 244 0
 1318              		.cfi_startproc
 1319              		@ args = 0, pretend = 0, frame = 0
 1320              		@ frame_needed = 0, uses_anonymous_args = 0
 1321              	.LVL207:
 1322 0000 70B5     		push	{r4, r5, r6, lr}
 1323              		.cfi_def_cfa_offset 16
 1324              		.cfi_offset 4, -16
 1325              		.cfi_offset 5, -12
 1326              		.cfi_offset 6, -8
 1327              		.cfi_offset 14, -4
 346:Generated_Source\PSoC5/BL.c ****         {
 1328              		.loc 1 346 0
 1329 0002 0020     		movs	r0, #0
 1330 0004 FFF7FEFF 		bl	BL_ValidateBootloadable
 1331              	.LVL208:
 348:Generated_Source\PSoC5/BL.c ****         }
 1332              		.loc 1 348 0
 1333 0008 0028     		cmp	r0, #0
 1334 000a 14BF     		ite	ne
 1335 000c 0625     		movne	r5, #6
 1336 000e 0025     		moveq	r5, #0
ARM GAS  C:\Users\RABBIT~1\AppData\Local\Temp\ccavO8bx.s 			page 61


 1337              	.LVL209:
 357:Generated_Source\PSoC5/BL.c ****             {
 1338              		.loc 1 357 0
 1339 0010 FFF7FEFF 		bl	CySetTemp
 1340              	.LVL210:
 1341 0014 10B1     		cbz	r0, .L137
 359:Generated_Source\PSoC5/BL.c ****             }
 1342              		.loc 1 359 0
 1343 0016 0020     		movs	r0, #0
 1344 0018 FFF7FEFF 		bl	CyHalt
 1345              	.LVL211:
 1346              	.L137:
 388:Generated_Source\PSoC5/BL.c ****                 BL_MD_BTLDR_ADDR_PTR,
 1347              		.loc 1 388 0
 1348 001c 124E     		ldr	r6, .L149
 1349 001e 0021     		movs	r1, #0
 1350 0020 3368     		ldr	r3, [r6]
 1351 0022 0846     		mov	r0, r1
 1352 0024 1C68     		ldr	r4, [r3]
 1353 0026 2246     		mov	r2, r4
 1354 0028 FFF7FEFF 		bl	BL_Calc8BitSum
 1355              	.LVL212:
 393:Generated_Source\PSoC5/BL.c ****         calcedChecksum = ( uint8 )1u + ( uint8 )(~calcedChecksum);
 1356              		.loc 1 393 0
 1357 002c 7368     		ldr	r3, [r6, #4]
 1358 002e 1B78     		ldrb	r3, [r3]	@ zero_extendqisi2
 1359              	.LVL213:
 397:Generated_Source\PSoC5/BL.c ****            (0u == *BL_SizeBytesAccess))
 1360              		.loc 1 397 0
 1361 0030 181A     		subs	r0, r3, r0
 1362              	.LVL214:
 1363 0032 00F0FF00 		and	r0, r0, #255
 1364 0036 8342     		cmp	r3, r0
 1365 0038 00D1     		bne	.L138
 397:Generated_Source\PSoC5/BL.c ****            (0u == *BL_SizeBytesAccess))
 1366              		.loc 1 397 0 is_stmt 0 discriminator 1
 1367 003a 14B9     		cbnz	r4, .L139
 1368              	.L138:
 400:Generated_Source\PSoC5/BL.c ****         }
 1369              		.loc 1 400 0 is_stmt 1
 1370 003c 0020     		movs	r0, #0
 1371 003e FFF7FEFF 		bl	CyHalt
 1372              	.LVL215:
 1373              	.L139:
 413:Generated_Source\PSoC5/BL.c ****         (CYRET_SUCCESS != validApp))
 1374              		.loc 1 413 0
 1375 0042 0A4B     		ldr	r3, .L149+4
 1376 0044 1A78     		ldrb	r2, [r3]	@ zero_extendqisi2
 1377 0046 02F0C002 		and	r2, r2, #192
 1378 004a 402A     		cmp	r2, #64
 1379 004c 1A46     		mov	r2, r3
 1380 004e 00D0     		beq	.L140
 413:Generated_Source\PSoC5/BL.c ****         (CYRET_SUCCESS != validApp))
 1381              		.loc 1 413 0 is_stmt 0 discriminator 1
 1382 0050 1DB1     		cbz	r5, .L141
 1383              	.L140:
 416:Generated_Source\PSoC5/BL.c **** 
ARM GAS  C:\Users\RABBIT~1\AppData\Local\Temp\ccavO8bx.s 			page 62


 1384              		.loc 1 416 0 is_stmt 1
 1385 0052 0023     		movs	r3, #0
 1386 0054 1370     		strb	r3, [r2]
 418:Generated_Source\PSoC5/BL.c ****     }
 1387              		.loc 1 418 0
 1388 0056 FFF7FEFF 		bl	BL_HostLink.constprop.0
 1389              	.LVL216:
 1390              	.L141:
 1391              	.LBB46:
 1392              	.LBB47:
 453:Generated_Source\PSoC5/BL.c **** 
 1393              		.loc 1 453 0
 1394 005a 8022     		movs	r2, #128
 1395 005c 1A70     		strb	r2, [r3]
 1396              	.LBE47:
 1397              	.LBE46:
 433:Generated_Source\PSoC5/BL.c **** 
 1398              		.loc 1 433 0
 1399 005e BDE87040 		pop	{r4, r5, r6, lr}
 1400              		.cfi_restore 14
 1401              		.cfi_restore 6
 1402              		.cfi_restore 5
 1403              		.cfi_restore 4
 1404              		.cfi_def_cfa_offset 0
 1405              	.LVL217:
 1406              	.LBB49:
 1407              	.LBB48:
 455:Generated_Source\PSoC5/BL.c **** }
 1408              		.loc 1 455 0
 1409 0062 FFF7FEBF 		b	CySoftwareReset
 1410              	.LVL218:
 1411              	.L150:
 1412 0066 00BF     		.align	2
 1413              	.L149:
 1414 0068 00000000 		.word	.LANCHOR0
 1415 006c FA460040 		.word	1073759994
 1416              	.LBE48:
 1417              	.LBE49:
 1418              		.cfi_endproc
 1419              	.LFE58:
 1420              		.size	BL_Start, .-BL_Start
 1421              		.global	BL_SizeBytesAccess
 1422              		.global	BL_ChecksumAccess
 1423              		.global	BL_SizeBytes
 1424              		.global	BL_Checksum
 1425              		.section	.rodata
 1426              		.align	2
 1427              		.set	.LANCHOR1,. + 0
 1428              	.LC0:
 1429 0000 6930132E 		.word	773009513
 1430 0004 00       		.byte	0
 1431 0005 1E       		.byte	30
 1432 0006 01       		.byte	1
 1433 0007 01       		.byte	1
 1434              		.section	.bootloader,"a",%progbits
 1435              		.align	2
 1436              		.type	BL_SizeBytes, %object
ARM GAS  C:\Users\RABBIT~1\AppData\Local\Temp\ccavO8bx.s 			page 63


 1437              		.size	BL_SizeBytes, 4
 1438              	BL_SizeBytes:
 1439 0000 FFFFFFFF 		.word	-1
 1440              		.type	BL_Checksum, %object
 1441              		.size	BL_Checksum, 1
 1442              	BL_Checksum:
 1443 0004 00       		.space	1
 1444              		.data
 1445              		.align	2
 1446              		.set	.LANCHOR0,. + 0
 1447              		.type	BL_SizeBytesAccess, %object
 1448              		.size	BL_SizeBytesAccess, 4
 1449              	BL_SizeBytesAccess:
 1450 0000 00000000 		.word	BL_SizeBytes
 1451              		.type	BL_ChecksumAccess, %object
 1452              		.size	BL_ChecksumAccess, 4
 1453              	BL_ChecksumAccess:
 1454 0004 00000000 		.word	BL_Checksum
 1455              		.text
 1456              	.Letext0:
 1457              		.file 2 "c:\\program files (x86)\\cypress\\psoc creator\\4.2\\psoc creator\\import\\gnu\\arm\\5.4.
 1458              		.file 3 "c:\\program files (x86)\\cypress\\psoc creator\\4.2\\psoc creator\\import\\gnu\\arm\\5.4.
 1459              		.file 4 "Generated_Source\\PSoC5\\cytypes.h"
 1460              		.file 5 "Generated_Source\\PSoC5\\BL_PVT.h"
 1461              		.file 6 "Generated_Source\\PSoC5/core_cm3.h"
 1462              		.file 7 "Generated_Source\\PSoC5\\CyFlash.h"
 1463              		.file 8 "Generated_Source\\PSoC5\\CyLib.h"
 1464              		.file 9 "Generated_Source\\PSoC5\\USBFS.h"
 1465              		.section	.debug_info,"",%progbits
 1466              	.Ldebug_info0:
 1467 0000 4D0C0000 		.4byte	0xc4d
 1468 0004 0400     		.2byte	0x4
 1469 0006 00000000 		.4byte	.Ldebug_abbrev0
 1470 000a 04       		.byte	0x4
 1471 000b 01       		.uleb128 0x1
 1472 000c 33030000 		.4byte	.LASF95
 1473 0010 0C       		.byte	0xc
 1474 0011 12020000 		.4byte	.LASF96
 1475 0015 2B000000 		.4byte	.LASF97
 1476 0019 78000000 		.4byte	.Ldebug_ranges0+0x78
 1477 001d 00000000 		.4byte	0
 1478 0021 00000000 		.4byte	.Ldebug_line0
 1479 0025 02       		.uleb128 0x2
 1480 0026 01       		.byte	0x1
 1481 0027 06       		.byte	0x6
 1482 0028 9E010000 		.4byte	.LASF0
 1483 002c 02       		.uleb128 0x2
 1484 002d 01       		.byte	0x1
 1485 002e 08       		.byte	0x8
 1486 002f A0020000 		.4byte	.LASF1
 1487 0033 02       		.uleb128 0x2
 1488 0034 02       		.byte	0x2
 1489 0035 05       		.byte	0x5
 1490 0036 B5000000 		.4byte	.LASF2
 1491 003a 02       		.uleb128 0x2
 1492 003b 02       		.byte	0x2
 1493 003c 07       		.byte	0x7
ARM GAS  C:\Users\RABBIT~1\AppData\Local\Temp\ccavO8bx.s 			page 64


 1494 003d 41040000 		.4byte	.LASF3
 1495 0041 03       		.uleb128 0x3
 1496 0042 F5040000 		.4byte	.LASF9
 1497 0046 02       		.byte	0x2
 1498 0047 3F       		.byte	0x3f
 1499 0048 4C000000 		.4byte	0x4c
 1500 004c 02       		.uleb128 0x2
 1501 004d 04       		.byte	0x4
 1502 004e 05       		.byte	0x5
 1503 004f 0E040000 		.4byte	.LASF4
 1504 0053 02       		.uleb128 0x2
 1505 0054 04       		.byte	0x4
 1506 0055 07       		.byte	0x7
 1507 0056 C3040000 		.4byte	.LASF5
 1508 005a 02       		.uleb128 0x2
 1509 005b 08       		.byte	0x8
 1510 005c 05       		.byte	0x5
 1511 005d B0010000 		.4byte	.LASF6
 1512 0061 02       		.uleb128 0x2
 1513 0062 08       		.byte	0x8
 1514 0063 07       		.byte	0x7
 1515 0064 D7020000 		.4byte	.LASF7
 1516 0068 04       		.uleb128 0x4
 1517 0069 04       		.byte	0x4
 1518 006a 05       		.byte	0x5
 1519 006b 696E7400 		.ascii	"int\000"
 1520 006f 02       		.uleb128 0x2
 1521 0070 04       		.byte	0x4
 1522 0071 07       		.byte	0x7
 1523 0072 4D050000 		.4byte	.LASF8
 1524 0076 03       		.uleb128 0x3
 1525 0077 CF020000 		.4byte	.LASF10
 1526 007b 03       		.byte	0x3
 1527 007c 2C       		.byte	0x2c
 1528 007d 41000000 		.4byte	0x41
 1529 0081 03       		.uleb128 0x3
 1530 0082 64010000 		.4byte	.LASF11
 1531 0086 04       		.byte	0x4
 1532 0087 A1       		.byte	0xa1
 1533 0088 2C000000 		.4byte	0x2c
 1534 008c 03       		.uleb128 0x3
 1535 008d 3C010000 		.4byte	.LASF12
 1536 0091 04       		.byte	0x4
 1537 0092 A2       		.byte	0xa2
 1538 0093 3A000000 		.4byte	0x3a
 1539 0097 03       		.uleb128 0x3
 1540 0098 B7040000 		.4byte	.LASF13
 1541 009c 04       		.byte	0x4
 1542 009d A3       		.byte	0xa3
 1543 009e 53000000 		.4byte	0x53
 1544 00a2 02       		.uleb128 0x2
 1545 00a3 04       		.byte	0x4
 1546 00a4 04       		.byte	0x4
 1547 00a5 AA010000 		.4byte	.LASF14
 1548 00a9 02       		.uleb128 0x2
 1549 00aa 08       		.byte	0x8
 1550 00ab 04       		.byte	0x4
ARM GAS  C:\Users\RABBIT~1\AppData\Local\Temp\ccavO8bx.s 			page 65


 1551 00ac DD040000 		.4byte	.LASF15
 1552 00b0 02       		.uleb128 0x2
 1553 00b1 01       		.byte	0x1
 1554 00b2 08       		.byte	0x8
 1555 00b3 FC030000 		.4byte	.LASF16
 1556 00b7 05       		.uleb128 0x5
 1557 00b8 14030000 		.4byte	.LASF17
 1558 00bc 04       		.byte	0x4
 1559 00bd 4301     		.2byte	0x143
 1560 00bf 53000000 		.4byte	0x53
 1561 00c3 05       		.uleb128 0x5
 1562 00c4 BE040000 		.4byte	.LASF18
 1563 00c8 04       		.byte	0x4
 1564 00c9 4B01     		.2byte	0x14b
 1565 00cb CF000000 		.4byte	0xcf
 1566 00cf 06       		.uleb128 0x6
 1567 00d0 81000000 		.4byte	0x81
 1568 00d4 02       		.uleb128 0x2
 1569 00d5 08       		.byte	0x8
 1570 00d6 04       		.byte	0x4
 1571 00d7 6D040000 		.4byte	.LASF19
 1572 00db 02       		.uleb128 0x2
 1573 00dc 04       		.byte	0x4
 1574 00dd 07       		.byte	0x7
 1575 00de C7000000 		.4byte	.LASF20
 1576 00e2 07       		.uleb128 0x7
 1577 00e3 08       		.byte	0x8
 1578 00e4 05       		.byte	0x5
 1579 00e5 15       		.byte	0x15
 1580 00e6 0F010000 		.4byte	0x10f
 1581 00ea 08       		.uleb128 0x8
 1582 00eb 79040000 		.4byte	.LASF21
 1583 00ef 05       		.byte	0x5
 1584 00f0 17       		.byte	0x17
 1585 00f1 97000000 		.4byte	0x97
 1586 00f5 00       		.byte	0
 1587 00f6 08       		.uleb128 0x8
 1588 00f7 2E050000 		.4byte	.LASF22
 1589 00fb 05       		.byte	0x5
 1590 00fc 18       		.byte	0x18
 1591 00fd 81000000 		.4byte	0x81
 1592 0101 04       		.byte	0x4
 1593 0102 08       		.uleb128 0x8
 1594 0103 8C010000 		.4byte	.LASF23
 1595 0107 05       		.byte	0x5
 1596 0108 19       		.byte	0x19
 1597 0109 0F010000 		.4byte	0x10f
 1598 010d 05       		.byte	0x5
 1599 010e 00       		.byte	0
 1600 010f 09       		.uleb128 0x9
 1601 0110 81000000 		.4byte	0x81
 1602 0114 1F010000 		.4byte	0x11f
 1603 0118 0A       		.uleb128 0xa
 1604 0119 DB000000 		.4byte	0xdb
 1605 011d 02       		.byte	0x2
 1606 011e 00       		.byte	0
 1607 011f 03       		.uleb128 0x3
ARM GAS  C:\Users\RABBIT~1\AppData\Local\Temp\ccavO8bx.s 			page 66


 1608 0120 25050000 		.4byte	.LASF24
 1609 0124 05       		.byte	0x5
 1610 0125 1B       		.byte	0x1b
 1611 0126 E2000000 		.4byte	0xe2
 1612 012a 0B       		.uleb128 0xb
 1613 012b 06020000 		.4byte	.LASF98
 1614 012f 01       		.byte	0x1
 1615 0130 E802     		.2byte	0x2e8
 1616 0132 01       		.byte	0x1
 1617 0133 7E020000 		.4byte	0x27e
 1618 0137 0C       		.uleb128 0xc
 1619 0138 54040000 		.4byte	.LASF71
 1620 013c 01       		.byte	0x1
 1621 013d E802     		.2byte	0x2e8
 1622 013f 81000000 		.4byte	0x81
 1623 0143 0D       		.uleb128 0xd
 1624 0144 EC010000 		.4byte	.LASF25
 1625 0148 01       		.byte	0x1
 1626 0149 EA02     		.2byte	0x2ea
 1627 014b 8C000000 		.4byte	0x8c
 1628 014f 0D       		.uleb128 0xd
 1629 0150 65040000 		.4byte	.LASF26
 1630 0154 01       		.byte	0x1
 1631 0155 EB02     		.2byte	0x2eb
 1632 0157 8C000000 		.4byte	0x8c
 1633 015b 0D       		.uleb128 0xd
 1634 015c BF000000 		.4byte	.LASF27
 1635 0160 01       		.byte	0x1
 1636 0161 EC02     		.2byte	0x2ec
 1637 0163 81000000 		.4byte	0x81
 1638 0167 0D       		.uleb128 0xd
 1639 0168 EE020000 		.4byte	.LASF28
 1640 016c 01       		.byte	0x1
 1641 016d ED02     		.2byte	0x2ed
 1642 016f 8C000000 		.4byte	0x8c
 1643 0173 0D       		.uleb128 0xd
 1644 0174 17040000 		.4byte	.LASF29
 1645 0178 01       		.byte	0x1
 1646 0179 EE02     		.2byte	0x2ee
 1647 017b B7000000 		.4byte	0xb7
 1648 017f 0D       		.uleb128 0xd
 1649 0180 9D000000 		.4byte	.LASF30
 1650 0184 01       		.byte	0x1
 1651 0185 EF02     		.2byte	0x2ef
 1652 0187 8C000000 		.4byte	0x8c
 1653 018b 0D       		.uleb128 0xd
 1654 018c EB000000 		.4byte	.LASF31
 1655 0190 01       		.byte	0x1
 1656 0191 F002     		.2byte	0x2f0
 1657 0193 8C000000 		.4byte	0x8c
 1658 0197 0D       		.uleb128 0xd
 1659 0198 6E020000 		.4byte	.LASF32
 1660 019c 01       		.byte	0x1
 1661 019d F102     		.2byte	0x2f1
 1662 019f 81000000 		.4byte	0x81
 1663 01a3 0D       		.uleb128 0xd
 1664 01a4 4E020000 		.4byte	.LASF33
ARM GAS  C:\Users\RABBIT~1\AppData\Local\Temp\ccavO8bx.s 			page 67


 1665 01a8 01       		.byte	0x1
 1666 01a9 F402     		.2byte	0x2f4
 1667 01ab 81000000 		.4byte	0x81
 1668 01af 0D       		.uleb128 0xd
 1669 01b0 2E020000 		.4byte	.LASF34
 1670 01b4 01       		.byte	0x1
 1671 01b5 F702     		.2byte	0x2f7
 1672 01b7 81000000 		.4byte	0x81
 1673 01bb 0D       		.uleb128 0xd
 1674 01bc EF030000 		.4byte	.LASF35
 1675 01c0 01       		.byte	0x1
 1676 01c1 F902     		.2byte	0x2f9
 1677 01c3 7E020000 		.4byte	0x27e
 1678 01c7 0D       		.uleb128 0xd
 1679 01c8 AE020000 		.4byte	.LASF36
 1680 01cc 01       		.byte	0x1
 1681 01cd FA02     		.2byte	0x2fa
 1682 01cf 7E020000 		.4byte	0x27e
 1683 01d3 0E       		.uleb128 0xe
 1684 01d4 0D       		.uleb128 0xd
 1685 01d5 E1000000 		.4byte	.LASF37
 1686 01d9 01       		.byte	0x1
 1687 01da 5F03     		.2byte	0x35f
 1688 01dc 81000000 		.4byte	0x81
 1689 01e0 0F       		.uleb128 0xf
 1690 01e1 FE010000 		.4byte	0x1fe
 1691 01e5 0D       		.uleb128 0xd
 1692 01e6 D8000000 		.4byte	.LASF38
 1693 01ea 01       		.byte	0x1
 1694 01eb AD03     		.2byte	0x3ad
 1695 01ed 8C000000 		.4byte	0x8c
 1696 01f1 0D       		.uleb128 0xd
 1697 01f2 8E020000 		.4byte	.LASF39
 1698 01f6 01       		.byte	0x1
 1699 01f7 AE03     		.2byte	0x3ae
 1700 01f9 81000000 		.4byte	0x81
 1701 01fd 00       		.byte	0
 1702 01fe 0F       		.uleb128 0xf
 1703 01ff 36020000 		.4byte	0x236
 1704 0203 10       		.uleb128 0x10
 1705 0204 726F7700 		.ascii	"row\000"
 1706 0208 01       		.byte	0x1
 1707 0209 5104     		.2byte	0x451
 1708 020b 8C000000 		.4byte	0x8c
 1709 020f 0D       		.uleb128 0xd
 1710 0210 37050000 		.4byte	.LASF40
 1711 0214 01       		.byte	0x1
 1712 0215 5204     		.2byte	0x452
 1713 0217 8C000000 		.4byte	0x8c
 1714 021b 0E       		.uleb128 0xe
 1715 021c 0D       		.uleb128 0xd
 1716 021d 1F050000 		.4byte	.LASF41
 1717 0221 01       		.byte	0x1
 1718 0222 0605     		.2byte	0x506
 1719 0224 8F020000 		.4byte	0x28f
 1720 0228 0D       		.uleb128 0xd
 1721 0229 5E020000 		.4byte	.LASF42
ARM GAS  C:\Users\RABBIT~1\AppData\Local\Temp\ccavO8bx.s 			page 68


 1722 022d 01       		.byte	0x1
 1723 022e 0705     		.2byte	0x507
 1724 0230 81000000 		.4byte	0x81
 1725 0234 00       		.byte	0
 1726 0235 00       		.byte	0
 1727 0236 0F       		.uleb128 0xf
 1728 0237 48020000 		.4byte	0x248
 1729 023b 0D       		.uleb128 0xd
 1730 023c 09010000 		.4byte	.LASF43
 1731 0240 01       		.byte	0x1
 1732 0241 BF05     		.2byte	0x5bf
 1733 0243 1F010000 		.4byte	0x11f
 1734 0247 00       		.byte	0
 1735 0248 0E       		.uleb128 0xe
 1736 0249 0D       		.uleb128 0xd
 1737 024a E8030000 		.4byte	.LASF44
 1738 024e 01       		.byte	0x1
 1739 024f E105     		.2byte	0x5e1
 1740 0251 8C000000 		.4byte	0x8c
 1741 0255 0D       		.uleb128 0xd
 1742 0256 D5040000 		.4byte	.LASF45
 1743 025a 01       		.byte	0x1
 1744 025b E605     		.2byte	0x5e6
 1745 025d 97000000 		.4byte	0x97
 1746 0261 0D       		.uleb128 0xd
 1747 0262 43010000 		.4byte	.LASF46
 1748 0266 01       		.byte	0x1
 1749 0267 E705     		.2byte	0x5e7
 1750 0269 81000000 		.4byte	0x81
 1751 026d 0E       		.uleb128 0xe
 1752 026e 0D       		.uleb128 0xd
 1753 026f E3010000 		.4byte	.LASF47
 1754 0273 01       		.byte	0x1
 1755 0274 0C06     		.2byte	0x60c
 1756 0276 8C000000 		.4byte	0x8c
 1757 027a 00       		.byte	0
 1758 027b 00       		.byte	0
 1759 027c 00       		.byte	0
 1760 027d 00       		.byte	0
 1761 027e 09       		.uleb128 0x9
 1762 027f 81000000 		.4byte	0x81
 1763 0283 8F020000 		.4byte	0x28f
 1764 0287 11       		.uleb128 0x11
 1765 0288 DB000000 		.4byte	0xdb
 1766 028c 2B01     		.2byte	0x12b
 1767 028e 00       		.byte	0
 1768 028f 09       		.uleb128 0x9
 1769 0290 81000000 		.4byte	0x81
 1770 0294 A0020000 		.4byte	0x2a0
 1771 0298 11       		.uleb128 0x11
 1772 0299 DB000000 		.4byte	0xdb
 1773 029d 1F01     		.2byte	0x11f
 1774 029f 00       		.byte	0
 1775 02a0 12       		.uleb128 0x12
 1776 02a1 1D030000 		.4byte	.LASF99
 1777 02a5 01       		.byte	0x1
 1778 02a6 4D02     		.2byte	0x24d
ARM GAS  C:\Users\RABBIT~1\AppData\Local\Temp\ccavO8bx.s 			page 69


 1779 02a8 00000000 		.4byte	.LFB62
 1780 02ac 02000000 		.4byte	.LFE62-.LFB62
 1781 02b0 01       		.uleb128 0x1
 1782 02b1 9C       		.byte	0x9c
 1783 02b2 C5020000 		.4byte	0x2c5
 1784 02b6 13       		.uleb128 0x13
 1785 02b7 A5000000 		.4byte	.LASF48
 1786 02bb 01       		.byte	0x1
 1787 02bc 4D02     		.2byte	0x24d
 1788 02be 97000000 		.4byte	0x97
 1789 02c2 01       		.uleb128 0x1
 1790 02c3 50       		.byte	0x50
 1791 02c4 00       		.byte	0
 1792 02c5 14       		.uleb128 0x14
 1793 02c6 7D010000 		.4byte	.LASF57
 1794 02ca 01       		.byte	0x1
 1795 02cb B9       		.byte	0xb9
 1796 02cc 81000000 		.4byte	0x81
 1797 02d0 00000000 		.4byte	.LFB57
 1798 02d4 14000000 		.4byte	.LFE57-.LFB57
 1799 02d8 01       		.uleb128 0x1
 1800 02d9 9C       		.byte	0x9c
 1801 02da 1B030000 		.4byte	0x31b
 1802 02de 15       		.uleb128 0x15
 1803 02df 22000000 		.4byte	.LASF49
 1804 02e3 01       		.byte	0x1
 1805 02e4 B9       		.byte	0xb9
 1806 02e5 97000000 		.4byte	0x97
 1807 02e9 00000000 		.4byte	.LLST0
 1808 02ed 15       		.uleb128 0x15
 1809 02ee BE010000 		.4byte	.LASF50
 1810 02f2 01       		.byte	0x1
 1811 02f3 B9       		.byte	0xb9
 1812 02f4 97000000 		.4byte	0x97
 1813 02f8 21000000 		.4byte	.LLST1
 1814 02fc 15       		.uleb128 0x15
 1815 02fd F0040000 		.4byte	.LASF51
 1816 0301 01       		.byte	0x1
 1817 0302 B9       		.byte	0xb9
 1818 0303 97000000 		.4byte	0x97
 1819 0307 42000000 		.4byte	.LLST2
 1820 030b 16       		.uleb128 0x16
 1821 030c 73756D00 		.ascii	"sum\000"
 1822 0310 01       		.byte	0x1
 1823 0311 BC       		.byte	0xbc
 1824 0312 81000000 		.4byte	0x81
 1825 0316 60000000 		.4byte	.LLST3
 1826 031a 00       		.byte	0
 1827 031b 17       		.uleb128 0x17
 1828 031c 69050000 		.4byte	.LASF64
 1829 0320 01       		.byte	0x1
 1830 0321 9006     		.2byte	0x690
 1831 0323 00000000 		.4byte	.LFB66
 1832 0327 3A000000 		.4byte	.LFE66-.LFB66
 1833 032b 01       		.uleb128 0x1
 1834 032c 9C       		.byte	0x9c
 1835 032d CF030000 		.4byte	0x3cf
ARM GAS  C:\Users\RABBIT~1\AppData\Local\Temp\ccavO8bx.s 			page 70


 1836 0331 18       		.uleb128 0x18
 1837 0332 D3010000 		.4byte	.LASF52
 1838 0336 01       		.byte	0x1
 1839 0337 9006     		.2byte	0x690
 1840 0339 97000000 		.4byte	0x97
 1841 033d 8A000000 		.4byte	.LLST4
 1842 0341 18       		.uleb128 0x18
 1843 0342 34010000 		.4byte	.LASF53
 1844 0346 01       		.byte	0x1
 1845 0347 9006     		.2byte	0x690
 1846 0349 81000000 		.4byte	0x81
 1847 034d B6000000 		.4byte	.LLST5
 1848 0351 19       		.uleb128 0x19
 1849 0352 CB010000 		.4byte	.LASF54
 1850 0356 01       		.byte	0x1
 1851 0357 9206     		.2byte	0x692
 1852 0359 97000000 		.4byte	0x97
 1853 035d D7000000 		.4byte	.LLST6
 1854 0361 1A       		.uleb128 0x1a
 1855 0362 AD000000 		.4byte	.LASF55
 1856 0366 01       		.byte	0x1
 1857 0367 9306     		.2byte	0x693
 1858 0369 CF030000 		.4byte	0x3cf
 1859 036d 03       		.uleb128 0x3
 1860 036e 91       		.byte	0x91
 1861 036f E87D     		.sleb128 -280
 1862 0371 19       		.uleb128 0x19
 1863 0372 17050000 		.4byte	.LASF56
 1864 0376 01       		.byte	0x1
 1865 0377 9606     		.2byte	0x696
 1866 0379 81000000 		.4byte	0x81
 1867 037d 03010000 		.4byte	.LLST7
 1868 0381 19       		.uleb128 0x19
 1869 0382 E8030000 		.4byte	.LASF44
 1870 0386 01       		.byte	0x1
 1871 0387 9C06     		.2byte	0x69c
 1872 0389 8C000000 		.4byte	0x8c
 1873 038d 2A010000 		.4byte	.LLST8
 1874 0391 19       		.uleb128 0x19
 1875 0392 22000000 		.4byte	.LASF49
 1876 0396 01       		.byte	0x1
 1877 0397 9F06     		.2byte	0x69f
 1878 0399 97000000 		.4byte	0x97
 1879 039d 51010000 		.4byte	.LLST9
 1880 03a1 1B       		.uleb128 0x1b
 1881 03a2 69647800 		.ascii	"idx\000"
 1882 03a6 01       		.byte	0x1
 1883 03a7 A006     		.2byte	0x6a0
 1884 03a9 8C000000 		.4byte	0x8c
 1885 03ad 72010000 		.4byte	.LLST10
 1886 03b1 1C       		.uleb128 0x1c
 1887 03b2 32000000 		.4byte	.LVL11
 1888 03b6 D00B0000 		.4byte	0xbd0
 1889 03ba C5030000 		.4byte	0x3c5
 1890 03be 1D       		.uleb128 0x1d
 1891 03bf 01       		.uleb128 0x1
 1892 03c0 52       		.byte	0x52
ARM GAS  C:\Users\RABBIT~1\AppData\Local\Temp\ccavO8bx.s 			page 71


 1893 03c1 02       		.uleb128 0x2
 1894 03c2 7D       		.byte	0x7d
 1895 03c3 00       		.sleb128 0
 1896 03c4 00       		.byte	0
 1897 03c5 1E       		.uleb128 0x1e
 1898 03c6 36000000 		.4byte	.LVL12
 1899 03ca DB0B0000 		.4byte	0xbdb
 1900 03ce 00       		.byte	0
 1901 03cf 09       		.uleb128 0x9
 1902 03d0 81000000 		.4byte	0x81
 1903 03d4 DF030000 		.4byte	0x3df
 1904 03d8 0A       		.uleb128 0xa
 1905 03d9 DB000000 		.4byte	0xdb
 1906 03dd FF       		.byte	0xff
 1907 03de 00       		.byte	0
 1908 03df 1F       		.uleb128 0x1f
 1909 03e0 20040000 		.4byte	.LASF58
 1910 03e4 01       		.byte	0x1
 1911 03e5 DA06     		.2byte	0x6da
 1912 03e7 97000000 		.4byte	0x97
 1913 03eb 00000000 		.4byte	.LFB67
 1914 03ef B4000000 		.4byte	.LFE67-.LFB67
 1915 03f3 01       		.uleb128 0x1
 1916 03f4 9C       		.byte	0x9c
 1917 03f5 4A040000 		.4byte	0x44a
 1918 03f9 18       		.uleb128 0x18
 1919 03fa 0E030000 		.4byte	.LASF59
 1920 03fe 01       		.byte	0x1
 1921 03ff DA06     		.2byte	0x6da
 1922 0401 81000000 		.4byte	0x81
 1923 0405 86010000 		.4byte	.LLST11
 1924 0409 18       		.uleb128 0x18
 1925 040a 15000000 		.4byte	.LASF60
 1926 040e 01       		.byte	0x1
 1927 040f DA06     		.2byte	0x6da
 1928 0411 81000000 		.4byte	0x81
 1929 0415 A7010000 		.4byte	.LLST12
 1930 0419 19       		.uleb128 0x19
 1931 041a FF040000 		.4byte	.LASF61
 1932 041e 01       		.byte	0x1
 1933 041f DC06     		.2byte	0x6dc
 1934 0421 97000000 		.4byte	0x97
 1935 0425 C2020000 		.4byte	.LLST13
 1936 0429 19       		.uleb128 0x19
 1937 042a D7030000 		.4byte	.LASF62
 1938 042e 01       		.byte	0x1
 1939 042f DD06     		.2byte	0x6dd
 1940 0431 81000000 		.4byte	0x81
 1941 0435 43030000 		.4byte	.LLST14
 1942 0439 19       		.uleb128 0x19
 1943 043a 1B000000 		.4byte	.LASF63
 1944 043e 01       		.byte	0x1
 1945 043f DE06     		.2byte	0x6de
 1946 0441 97000000 		.4byte	0x97
 1947 0445 FF030000 		.4byte	.LLST15
 1948 0449 00       		.byte	0
 1949 044a 17       		.uleb128 0x17
ARM GAS  C:\Users\RABBIT~1\AppData\Local\Temp\ccavO8bx.s 			page 72


 1950 044b FA020000 		.4byte	.LASF65
 1951 044f 01       		.byte	0x1
 1952 0450 1A02     		.2byte	0x21a
 1953 0452 00000000 		.4byte	.LFB61
 1954 0456 34000000 		.4byte	.LFE61-.LFB61
 1955 045a 01       		.uleb128 0x1
 1956 045b 9C       		.byte	0x9c
 1957 045c 9C040000 		.4byte	0x49c
 1958 0460 1C       		.uleb128 0x1c
 1959 0461 1A000000 		.4byte	.LVL55
 1960 0465 DF030000 		.4byte	0x3df
 1961 0469 79040000 		.4byte	0x479
 1962 046d 1D       		.uleb128 0x1d
 1963 046e 01       		.uleb128 0x1
 1964 046f 50       		.byte	0x50
 1965 0470 01       		.uleb128 0x1
 1966 0471 32       		.byte	0x32
 1967 0472 1D       		.uleb128 0x1d
 1968 0473 01       		.uleb128 0x1
 1969 0474 51       		.byte	0x51
 1970 0475 02       		.uleb128 0x2
 1971 0476 74       		.byte	0x74
 1972 0477 00       		.sleb128 0
 1973 0478 00       		.byte	0
 1974 0479 1C       		.uleb128 0x1c
 1975 047a 24000000 		.4byte	.LVL56
 1976 047e DF030000 		.4byte	0x3df
 1977 0482 92040000 		.4byte	0x492
 1978 0486 1D       		.uleb128 0x1d
 1979 0487 01       		.uleb128 0x1
 1980 0488 50       		.byte	0x50
 1981 0489 01       		.uleb128 0x1
 1982 048a 32       		.byte	0x32
 1983 048b 1D       		.uleb128 0x1d
 1984 048c 01       		.uleb128 0x1
 1985 048d 51       		.byte	0x51
 1986 048e 02       		.uleb128 0x2
 1987 048f 74       		.byte	0x74
 1988 0490 00       		.sleb128 0
 1989 0491 00       		.byte	0
 1990 0492 20       		.uleb128 0x20
 1991 0493 2C000000 		.4byte	.LVL57
 1992 0497 A0020000 		.4byte	0x2a0
 1993 049b 00       		.byte	0
 1994 049c 1F       		.uleb128 0x1f
 1995 049d 4C010000 		.4byte	.LASF66
 1996 04a1 01       		.byte	0x1
 1997 04a2 7802     		.2byte	0x278
 1998 04a4 B7000000 		.4byte	0xb7
 1999 04a8 00000000 		.4byte	.LFB63
 2000 04ac B0000000 		.4byte	.LFE63-.LFB63
 2001 04b0 01       		.uleb128 0x1
 2002 04b1 9C       		.byte	0x9c
 2003 04b2 D8050000 		.4byte	0x5d8
 2004 04b6 18       		.uleb128 0x18
 2005 04b7 15000000 		.4byte	.LASF60
 2006 04bb 01       		.byte	0x1
ARM GAS  C:\Users\RABBIT~1\AppData\Local\Temp\ccavO8bx.s 			page 73


 2007 04bc 7802     		.2byte	0x278
 2008 04be 81000000 		.4byte	0x81
 2009 04c2 74040000 		.4byte	.LLST16
 2010 04c6 1B       		.uleb128 0x1b
 2011 04c7 69647800 		.ascii	"idx\000"
 2012 04cb 01       		.byte	0x1
 2013 04cc 7B02     		.2byte	0x27b
 2014 04ce 97000000 		.4byte	0x97
 2015 04d2 95040000 		.4byte	.LLST17
 2016 04d6 1B       		.uleb128 0x1b
 2017 04d7 656E6400 		.ascii	"end\000"
 2018 04db 01       		.byte	0x1
 2019 04dc 7D02     		.2byte	0x27d
 2020 04de 97000000 		.4byte	0x97
 2021 04e2 E3040000 		.4byte	.LLST18
 2022 04e6 19       		.uleb128 0x19
 2023 04e7 00000000 		.4byte	.LASF67
 2024 04eb 01       		.byte	0x1
 2025 04ec 8102     		.2byte	0x281
 2026 04ee 81000000 		.4byte	0x81
 2027 04f2 37050000 		.4byte	.LLST19
 2028 04f6 19       		.uleb128 0x19
 2029 04f7 F7010000 		.4byte	.LASF68
 2030 04fb 01       		.byte	0x1
 2031 04fc 8202     		.2byte	0x282
 2032 04fe 81000000 		.4byte	0x81
 2033 0502 61050000 		.4byte	.LLST20
 2034 0506 21       		.uleb128 0x21
 2035 0507 3E000000 		.4byte	.LBB9
 2036 050b 14000000 		.4byte	.LBE9-.LBB9
 2037 050f 24050000 		.4byte	0x524
 2038 0513 19       		.uleb128 0x19
 2039 0514 DB010000 		.4byte	.LASF69
 2040 0518 01       		.byte	0x1
 2041 0519 9E02     		.2byte	0x29e
 2042 051b 81000000 		.4byte	0x81
 2043 051f A4050000 		.4byte	.LLST21
 2044 0523 00       		.byte	0
 2045 0524 1C       		.uleb128 0x1c
 2046 0525 0C000000 		.4byte	.LVL60
 2047 0529 DF030000 		.4byte	0x3df
 2048 052d 3D050000 		.4byte	0x53d
 2049 0531 1D       		.uleb128 0x1d
 2050 0532 01       		.uleb128 0x1
 2051 0533 50       		.byte	0x50
 2052 0534 01       		.uleb128 0x1
 2053 0535 33       		.byte	0x33
 2054 0536 1D       		.uleb128 0x1d
 2055 0537 01       		.uleb128 0x1
 2056 0538 51       		.byte	0x51
 2057 0539 02       		.uleb128 0x2
 2058 053a 75       		.byte	0x75
 2059 053b 00       		.sleb128 0
 2060 053c 00       		.byte	0
 2061 053d 1C       		.uleb128 0x1c
 2062 053e 16000000 		.4byte	.LVL61
 2063 0542 DF030000 		.4byte	0x3df
ARM GAS  C:\Users\RABBIT~1\AppData\Local\Temp\ccavO8bx.s 			page 74


 2064 0546 56050000 		.4byte	0x556
 2065 054a 1D       		.uleb128 0x1d
 2066 054b 01       		.uleb128 0x1
 2067 054c 50       		.byte	0x50
 2068 054d 01       		.uleb128 0x1
 2069 054e 34       		.byte	0x34
 2070 054f 1D       		.uleb128 0x1d
 2071 0550 01       		.uleb128 0x1
 2072 0551 51       		.byte	0x51
 2073 0552 02       		.uleb128 0x2
 2074 0553 75       		.byte	0x75
 2075 0554 00       		.sleb128 0
 2076 0555 00       		.byte	0
 2077 0556 1C       		.uleb128 0x1c
 2078 0557 20000000 		.4byte	.LVL64
 2079 055b DF030000 		.4byte	0x3df
 2080 055f 6F050000 		.4byte	0x56f
 2081 0563 1D       		.uleb128 0x1d
 2082 0564 01       		.uleb128 0x1
 2083 0565 50       		.byte	0x50
 2084 0566 01       		.uleb128 0x1
 2085 0567 36       		.byte	0x36
 2086 0568 1D       		.uleb128 0x1d
 2087 0569 01       		.uleb128 0x1
 2088 056a 51       		.byte	0x51
 2089 056b 02       		.uleb128 0x2
 2090 056c 75       		.byte	0x75
 2091 056d 00       		.sleb128 0
 2092 056e 00       		.byte	0
 2093 056f 1C       		.uleb128 0x1c
 2094 0570 2E000000 		.4byte	.LVL66
 2095 0574 DF030000 		.4byte	0x3df
 2096 0578 88050000 		.4byte	0x588
 2097 057c 1D       		.uleb128 0x1d
 2098 057d 01       		.uleb128 0x1
 2099 057e 50       		.byte	0x50
 2100 057f 01       		.uleb128 0x1
 2101 0580 33       		.byte	0x33
 2102 0581 1D       		.uleb128 0x1d
 2103 0582 01       		.uleb128 0x1
 2104 0583 51       		.byte	0x51
 2105 0584 02       		.uleb128 0x2
 2106 0585 75       		.byte	0x75
 2107 0586 00       		.sleb128 0
 2108 0587 00       		.byte	0
 2109 0588 1C       		.uleb128 0x1c
 2110 0589 5A000000 		.4byte	.LVL75
 2111 058d DF030000 		.4byte	0x3df
 2112 0591 A1050000 		.4byte	0x5a1
 2113 0595 1D       		.uleb128 0x1d
 2114 0596 01       		.uleb128 0x1
 2115 0597 50       		.byte	0x50
 2116 0598 01       		.uleb128 0x1
 2117 0599 33       		.byte	0x33
 2118 059a 1D       		.uleb128 0x1d
 2119 059b 01       		.uleb128 0x1
 2120 059c 51       		.byte	0x51
ARM GAS  C:\Users\RABBIT~1\AppData\Local\Temp\ccavO8bx.s 			page 75


 2121 059d 02       		.uleb128 0x2
 2122 059e 75       		.byte	0x75
 2123 059f 00       		.sleb128 0
 2124 05a0 00       		.byte	0
 2125 05a1 1C       		.uleb128 0x1c
 2126 05a2 8A000000 		.4byte	.LVL83
 2127 05a6 DF030000 		.4byte	0x3df
 2128 05aa BA050000 		.4byte	0x5ba
 2129 05ae 1D       		.uleb128 0x1d
 2130 05af 01       		.uleb128 0x1
 2131 05b0 50       		.byte	0x50
 2132 05b1 01       		.uleb128 0x1
 2133 05b2 31       		.byte	0x31
 2134 05b3 1D       		.uleb128 0x1d
 2135 05b4 01       		.uleb128 0x1
 2136 05b5 51       		.byte	0x51
 2137 05b6 02       		.uleb128 0x2
 2138 05b7 75       		.byte	0x75
 2139 05b8 00       		.sleb128 0
 2140 05b9 00       		.byte	0
 2141 05ba 22       		.uleb128 0x22
 2142 05bb A4000000 		.4byte	.LVL85
 2143 05bf 1B030000 		.4byte	0x31b
 2144 05c3 1D       		.uleb128 0x1d
 2145 05c4 01       		.uleb128 0x1
 2146 05c5 50       		.byte	0x50
 2147 05c6 0A       		.uleb128 0xa
 2148 05c7 0C       		.byte	0xc
 2149 05c8 D1FF0100 		.4byte	0x1ffd1
 2150 05cc 75       		.byte	0x75
 2151 05cd 00       		.sleb128 0
 2152 05ce 38       		.byte	0x38
 2153 05cf 24       		.byte	0x24
 2154 05d0 1C       		.byte	0x1c
 2155 05d1 1D       		.uleb128 0x1d
 2156 05d2 01       		.uleb128 0x1
 2157 05d3 51       		.byte	0x51
 2158 05d4 01       		.uleb128 0x1
 2159 05d5 31       		.byte	0x31
 2160 05d6 00       		.byte	0
 2161 05d7 00       		.byte	0
 2162 05d8 17       		.uleb128 0x17
 2163 05d9 D0000000 		.4byte	.LASF70
 2164 05dd 01       		.byte	0x1
 2165 05de E601     		.2byte	0x1e6
 2166 05e0 00000000 		.4byte	.LFB60
 2167 05e4 34000000 		.4byte	.LFE60-.LFB60
 2168 05e8 01       		.uleb128 0x1
 2169 05e9 9C       		.byte	0x9c
 2170 05ea 55060000 		.4byte	0x655
 2171 05ee 18       		.uleb128 0x18
 2172 05ef 15000000 		.4byte	.LASF60
 2173 05f3 01       		.byte	0x1
 2174 05f4 E601     		.2byte	0x1e6
 2175 05f6 81000000 		.4byte	0x81
 2176 05fa B7050000 		.4byte	.LLST22
 2177 05fe 21       		.uleb128 0x21
ARM GAS  C:\Users\RABBIT~1\AppData\Local\Temp\ccavO8bx.s 			page 76


 2178 05ff 10000000 		.4byte	.LBB10
 2179 0603 10000000 		.4byte	.LBE10-.LBB10
 2180 0607 37060000 		.4byte	0x637
 2181 060b 1B       		.uleb128 0x1b
 2182 060c 69647800 		.ascii	"idx\000"
 2183 0610 01       		.byte	0x1
 2184 0611 F101     		.2byte	0x1f1
 2185 0613 81000000 		.4byte	0x81
 2186 0617 D8050000 		.4byte	.LLST23
 2187 061b 22       		.uleb128 0x22
 2188 061c 1C000000 		.4byte	.LVL91
 2189 0620 1B030000 		.4byte	0x31b
 2190 0624 1D       		.uleb128 0x1d
 2191 0625 01       		.uleb128 0x1
 2192 0626 50       		.byte	0x50
 2193 0627 05       		.uleb128 0x5
 2194 0628 0C       		.byte	0xc
 2195 0629 D0FF0100 		.4byte	0x1ffd0
 2196 062d 1D       		.uleb128 0x1d
 2197 062e 01       		.uleb128 0x1
 2198 062f 51       		.byte	0x51
 2199 0630 04       		.uleb128 0x4
 2200 0631 75       		.byte	0x75
 2201 0632 00       		.sleb128 0
 2202 0633 30       		.byte	0x30
 2203 0634 29       		.byte	0x29
 2204 0635 00       		.byte	0
 2205 0636 00       		.byte	0
 2206 0637 1C       		.uleb128 0x1c
 2207 0638 0E000000 		.4byte	.LVL89
 2208 063c 9C040000 		.4byte	0x49c
 2209 0640 4B060000 		.4byte	0x64b
 2210 0644 1D       		.uleb128 0x1d
 2211 0645 01       		.uleb128 0x1
 2212 0646 50       		.byte	0x50
 2213 0647 02       		.uleb128 0x2
 2214 0648 75       		.byte	0x75
 2215 0649 00       		.sleb128 0
 2216 064a 00       		.byte	0
 2217 064b 20       		.uleb128 0x20
 2218 064c 2C000000 		.4byte	.LVL93
 2219 0650 E60B0000 		.4byte	0xbe6
 2220 0654 00       		.byte	0
 2221 0655 23       		.uleb128 0x23
 2222 0656 C1030000 		.4byte	.LASF73
 2223 065a 01       		.byte	0x1
 2224 065b 65       		.byte	0x65
 2225 065c 8C000000 		.4byte	0x8c
 2226 0660 01       		.byte	0x1
 2227 0661 87060000 		.4byte	0x687
 2228 0665 24       		.uleb128 0x24
 2229 0666 99040000 		.4byte	.LASF72
 2230 066a 01       		.byte	0x1
 2231 066b 65       		.byte	0x65
 2232 066c 87060000 		.4byte	0x687
 2233 0670 24       		.uleb128 0x24
 2234 0671 F0040000 		.4byte	.LASF51
ARM GAS  C:\Users\RABBIT~1\AppData\Local\Temp\ccavO8bx.s 			page 77


 2235 0675 01       		.byte	0x1
 2236 0676 65       		.byte	0x65
 2237 0677 8C000000 		.4byte	0x8c
 2238 067b 25       		.uleb128 0x25
 2239 067c 73756D00 		.ascii	"sum\000"
 2240 0680 01       		.byte	0x1
 2241 0681 94       		.byte	0x94
 2242 0682 8C000000 		.4byte	0x8c
 2243 0686 00       		.byte	0
 2244 0687 26       		.uleb128 0x26
 2245 0688 04       		.byte	0x4
 2246 0689 8D060000 		.4byte	0x68d
 2247 068d 27       		.uleb128 0x27
 2248 068e 81000000 		.4byte	0x81
 2249 0692 28       		.uleb128 0x28
 2250 0693 06000000 		.4byte	.LASF74
 2251 0697 01       		.byte	0x1
 2252 0698 6706     		.2byte	0x667
 2253 069a B7000000 		.4byte	0xb7
 2254 069e 01       		.byte	0x1
 2255 069f D4060000 		.4byte	0x6d4
 2256 06a3 0C       		.uleb128 0xc
 2257 06a4 E1030000 		.4byte	.LASF75
 2258 06a8 01       		.byte	0x1
 2259 06a9 6706     		.2byte	0x667
 2260 06ab 81000000 		.4byte	0x81
 2261 06af 0C       		.uleb128 0xc
 2262 06b0 99040000 		.4byte	.LASF72
 2263 06b4 01       		.byte	0x1
 2264 06b5 6706     		.2byte	0x667
 2265 06b7 D4060000 		.4byte	0x6d4
 2266 06bb 0C       		.uleb128 0xc
 2267 06bc F0040000 		.4byte	.LASF51
 2268 06c0 01       		.byte	0x1
 2269 06c1 6706     		.2byte	0x667
 2270 06c3 8C000000 		.4byte	0x8c
 2271 06c7 0D       		.uleb128 0xd
 2272 06c8 43010000 		.4byte	.LASF46
 2273 06cc 01       		.byte	0x1
 2274 06cd 6A06     		.2byte	0x66a
 2275 06cf 8C000000 		.4byte	0x8c
 2276 06d3 00       		.byte	0
 2277 06d4 26       		.uleb128 0x26
 2278 06d5 04       		.byte	0x4
 2279 06d6 81000000 		.4byte	0x81
 2280 06da 29       		.uleb128 0x29
 2281 06db 2A010000 		.4byte	0x12a
 2282 06df 00000000 		.4byte	.LFB68
 2283 06e3 5C030000 		.4byte	.LFE68-.LFB68
 2284 06e7 01       		.uleb128 0x1
 2285 06e8 9C       		.byte	0x9c
 2286 06e9 AB0A0000 		.4byte	0xaab
 2287 06ed 2A       		.uleb128 0x2a
 2288 06ee 43010000 		.4byte	0x143
 2289 06f2 03       		.uleb128 0x3
 2290 06f3 91       		.byte	0x91
 2291 06f4 F478     		.sleb128 -908
ARM GAS  C:\Users\RABBIT~1\AppData\Local\Temp\ccavO8bx.s 			page 78


 2292 06f6 2B       		.uleb128 0x2b
 2293 06f7 4F010000 		.4byte	0x14f
 2294 06fb F8050000 		.4byte	.LLST24
 2295 06ff 2B       		.uleb128 0x2b
 2296 0700 5B010000 		.4byte	0x15b
 2297 0704 9C060000 		.4byte	.LLST25
 2298 0708 2B       		.uleb128 0x2b
 2299 0709 67010000 		.4byte	0x167
 2300 070d 93070000 		.4byte	.LLST26
 2301 0711 2B       		.uleb128 0x2b
 2302 0712 73010000 		.4byte	0x173
 2303 0716 AB0A0000 		.4byte	.LLST27
 2304 071a 2B       		.uleb128 0x2b
 2305 071b 7F010000 		.4byte	0x17f
 2306 071f BE0A0000 		.4byte	.LLST28
 2307 0723 2B       		.uleb128 0x2b
 2308 0724 8B010000 		.4byte	0x18b
 2309 0728 3E0C0000 		.4byte	.LLST29
 2310 072c 2C       		.uleb128 0x2c
 2311 072d 97010000 		.4byte	0x197
 2312 0731 0A       		.byte	0xa
 2313 0732 2B       		.uleb128 0x2b
 2314 0733 A3010000 		.4byte	0x1a3
 2315 0737 D00C0000 		.4byte	.LLST30
 2316 073b 2B       		.uleb128 0x2b
 2317 073c AF010000 		.4byte	0x1af
 2318 0740 110D0000 		.4byte	.LLST31
 2319 0744 2A       		.uleb128 0x2a
 2320 0745 BB010000 		.4byte	0x1bb
 2321 0749 03       		.uleb128 0x3
 2322 074a 91       		.byte	0x91
 2323 074b 987B     		.sleb128 -616
 2324 074d 2A       		.uleb128 0x2a
 2325 074e C7010000 		.4byte	0x1c7
 2326 0752 03       		.uleb128 0x3
 2327 0753 91       		.byte	0x91
 2328 0754 C47D     		.sleb128 -316
 2329 0756 2D       		.uleb128 0x2d
 2330 0757 37010000 		.4byte	0x137
 2331 075b 00       		.byte	0
 2332 075c 2E       		.uleb128 0x2e
 2333 075d 00000000 		.4byte	.Ldebug_ranges0+0
 2334 0761 AF090000 		.4byte	0x9af
 2335 0765 2B       		.uleb128 0x2b
 2336 0766 D4010000 		.4byte	0x1d4
 2337 076a 470D0000 		.4byte	.LLST32
 2338 076e 21       		.uleb128 0x21
 2339 076f 4A010000 		.4byte	.LBB25
 2340 0773 36000000 		.4byte	.LBE25-.LBB25
 2341 0777 8E070000 		.4byte	0x78e
 2342 077b 2B       		.uleb128 0x2b
 2343 077c E5010000 		.4byte	0x1e5
 2344 0780 890D0000 		.4byte	.LLST33
 2345 0784 2B       		.uleb128 0x2b
 2346 0785 F1010000 		.4byte	0x1f1
 2347 0789 A70D0000 		.4byte	.LLST34
 2348 078d 00       		.byte	0
ARM GAS  C:\Users\RABBIT~1\AppData\Local\Temp\ccavO8bx.s 			page 79


 2349 078e 2E       		.uleb128 0x2e
 2350 078f 30000000 		.4byte	.Ldebug_ranges0+0x30
 2351 0793 3F080000 		.4byte	0x83f
 2352 0797 2B       		.uleb128 0x2b
 2353 0798 03020000 		.4byte	0x203
 2354 079c BA0D0000 		.4byte	.LLST35
 2355 07a0 2B       		.uleb128 0x2b
 2356 07a1 0F020000 		.4byte	0x20f
 2357 07a5 EA0D0000 		.4byte	.LLST36
 2358 07a9 21       		.uleb128 0x21
 2359 07aa 08020000 		.4byte	.LBB27
 2360 07ae 1C000000 		.4byte	.LBE27-.LBB27
 2361 07b2 0E080000 		.4byte	0x80e
 2362 07b6 2A       		.uleb128 0x2a
 2363 07b7 1C020000 		.4byte	0x21c
 2364 07bb 03       		.uleb128 0x3
 2365 07bc 91       		.byte	0x91
 2366 07bd F878     		.sleb128 -904
 2367 07bf 2B       		.uleb128 0x2b
 2368 07c0 28020000 		.4byte	0x228
 2369 07c4 260E0000 		.4byte	.LLST37
 2370 07c8 1C       		.uleb128 0x1c
 2371 07c9 14020000 		.4byte	.LVL156
 2372 07cd F10B0000 		.4byte	0xbf1
 2373 07d1 EA070000 		.4byte	0x7ea
 2374 07d5 1D       		.uleb128 0x1d
 2375 07d6 01       		.uleb128 0x1
 2376 07d7 50       		.byte	0x50
 2377 07d8 03       		.uleb128 0x3
 2378 07d9 91       		.byte	0x91
 2379 07da F878     		.sleb128 -904
 2380 07dc 1D       		.uleb128 0x1d
 2381 07dd 01       		.uleb128 0x1
 2382 07de 51       		.byte	0x51
 2383 07df 02       		.uleb128 0x2
 2384 07e0 77       		.byte	0x77
 2385 07e1 00       		.sleb128 0
 2386 07e2 1D       		.uleb128 0x1d
 2387 07e3 01       		.uleb128 0x1
 2388 07e4 52       		.byte	0x52
 2389 07e5 03       		.uleb128 0x3
 2390 07e6 0A       		.byte	0xa
 2391 07e7 2001     		.2byte	0x120
 2392 07e9 00       		.byte	0
 2393 07ea 22       		.uleb128 0x22
 2394 07eb 22020000 		.4byte	.LVL157
 2395 07ef FA0B0000 		.4byte	0xbfa
 2396 07f3 1D       		.uleb128 0x1d
 2397 07f4 01       		.uleb128 0x1
 2398 07f5 50       		.byte	0x50
 2399 07f6 01       		.uleb128 0x1
 2400 07f7 31       		.byte	0x31
 2401 07f8 1D       		.uleb128 0x1d
 2402 07f9 01       		.uleb128 0x1
 2403 07fa 51       		.byte	0x51
 2404 07fb 02       		.uleb128 0x2
 2405 07fc 08       		.byte	0x8
ARM GAS  C:\Users\RABBIT~1\AppData\Local\Temp\ccavO8bx.s 			page 80


 2406 07fd FF       		.byte	0xff
 2407 07fe 1D       		.uleb128 0x1d
 2408 07ff 01       		.uleb128 0x1
 2409 0800 52       		.byte	0x52
 2410 0801 03       		.uleb128 0x3
 2411 0802 91       		.byte	0x91
 2412 0803 F878     		.sleb128 -904
 2413 0805 1D       		.uleb128 0x1d
 2414 0806 01       		.uleb128 0x1
 2415 0807 53       		.byte	0x53
 2416 0808 03       		.uleb128 0x3
 2417 0809 0A       		.byte	0xa
 2418 080a 2001     		.2byte	0x120
 2419 080c 00       		.byte	0
 2420 080d 00       		.byte	0
 2421 080e 1C       		.uleb128 0x1c
 2422 080f 30020000 		.4byte	.LVL159
 2423 0813 FA0B0000 		.4byte	0xbfa
 2424 0817 35080000 		.4byte	0x835
 2425 081b 1D       		.uleb128 0x1d
 2426 081c 01       		.uleb128 0x1
 2427 081d 50       		.byte	0x50
 2428 081e 02       		.uleb128 0x2
 2429 081f 79       		.byte	0x79
 2430 0820 00       		.sleb128 0
 2431 0821 1D       		.uleb128 0x1d
 2432 0822 01       		.uleb128 0x1
 2433 0823 51       		.byte	0x51
 2434 0824 02       		.uleb128 0x2
 2435 0825 74       		.byte	0x74
 2436 0826 00       		.sleb128 0
 2437 0827 1D       		.uleb128 0x1d
 2438 0828 01       		.uleb128 0x1
 2439 0829 52       		.byte	0x52
 2440 082a 03       		.uleb128 0x3
 2441 082b 91       		.byte	0x91
 2442 082c C47D     		.sleb128 -316
 2443 082e 1D       		.uleb128 0x1d
 2444 082f 01       		.uleb128 0x1
 2445 0830 53       		.byte	0x53
 2446 0831 02       		.uleb128 0x2
 2447 0832 76       		.byte	0x76
 2448 0833 00       		.sleb128 0
 2449 0834 00       		.byte	0
 2450 0835 1E       		.uleb128 0x1e
 2451 0836 3E020000 		.4byte	.LVL161
 2452 083a DB0B0000 		.4byte	0xbdb
 2453 083e 00       		.byte	0
 2454 083f 21       		.uleb128 0x21
 2455 0840 7A020000 		.4byte	.LBB28
 2456 0844 18000000 		.4byte	.LBE28-.LBB28
 2457 0848 56080000 		.4byte	0x856
 2458 084c 2A       		.uleb128 0x2a
 2459 084d 3B020000 		.4byte	0x23b
 2460 0851 03       		.uleb128 0x3
 2461 0852 91       		.byte	0x91
 2462 0853 F878     		.sleb128 -904
ARM GAS  C:\Users\RABBIT~1\AppData\Local\Temp\ccavO8bx.s 			page 81


 2463 0855 00       		.byte	0
 2464 0856 21       		.uleb128 0x21
 2465 0857 9E020000 		.4byte	.LBB29
 2466 085b 82000000 		.4byte	.LBE29-.LBB29
 2467 085f 0B090000 		.4byte	0x90b
 2468 0863 2B       		.uleb128 0x2b
 2469 0864 49020000 		.4byte	0x249
 2470 0868 3A0E0000 		.4byte	.LLST38
 2471 086c 2B       		.uleb128 0x2b
 2472 086d 55020000 		.4byte	0x255
 2473 0871 7E0E0000 		.4byte	.LLST39
 2474 0875 2B       		.uleb128 0x2b
 2475 0876 61020000 		.4byte	0x261
 2476 087a EA0E0000 		.4byte	.LLST40
 2477 087e 21       		.uleb128 0x21
 2478 087f D6020000 		.4byte	.LBB30
 2479 0883 1A000000 		.4byte	.LBE30-.LBB30
 2480 0887 95080000 		.4byte	0x895
 2481 088b 2B       		.uleb128 0x2b
 2482 088c 6E020000 		.4byte	0x26e
 2483 0890 130F0000 		.4byte	.LLST41
 2484 0894 00       		.byte	0
 2485 0895 1C       		.uleb128 0x1c
 2486 0896 B6020000 		.4byte	.LVL177
 2487 089a C5020000 		.4byte	0x2c5
 2488 089e B9080000 		.4byte	0x8b9
 2489 08a2 1D       		.uleb128 0x1d
 2490 08a3 01       		.uleb128 0x1
 2491 08a4 50       		.byte	0x50
 2492 08a5 05       		.uleb128 0x5
 2493 08a6 0C       		.byte	0xc
 2494 08a7 00800040 		.4byte	0x40008000
 2495 08ab 1D       		.uleb128 0x1d
 2496 08ac 01       		.uleb128 0x1
 2497 08ad 51       		.byte	0x51
 2498 08ae 04       		.uleb128 0x4
 2499 08af 7B       		.byte	0x7b
 2500 08b0 00       		.sleb128 0
 2501 08b1 34       		.byte	0x34
 2502 08b2 24       		.byte	0x24
 2503 08b3 1D       		.uleb128 0x1d
 2504 08b4 01       		.uleb128 0x1
 2505 08b5 52       		.byte	0x52
 2506 08b6 01       		.uleb128 0x1
 2507 08b7 40       		.byte	0x40
 2508 08b8 00       		.byte	0
 2509 08b9 1C       		.uleb128 0x1c
 2510 08ba CE020000 		.4byte	.LVL182
 2511 08be C5020000 		.4byte	0x2c5
 2512 08c2 DE080000 		.4byte	0x8de
 2513 08c6 1D       		.uleb128 0x1d
 2514 08c7 01       		.uleb128 0x1
 2515 08c8 50       		.byte	0x50
 2516 08c9 01       		.uleb128 0x1
 2517 08ca 30       		.byte	0x30
 2518 08cb 1D       		.uleb128 0x1d
 2519 08cc 01       		.uleb128 0x1
ARM GAS  C:\Users\RABBIT~1\AppData\Local\Temp\ccavO8bx.s 			page 82


 2520 08cd 51       		.byte	0x51
 2521 08ce 07       		.uleb128 0x7
 2522 08cf 7A       		.byte	0x7a
 2523 08d0 00       		.sleb128 0
 2524 08d1 7B       		.byte	0x7b
 2525 08d2 00       		.sleb128 0
 2526 08d3 22       		.byte	0x22
 2527 08d4 38       		.byte	0x38
 2528 08d5 24       		.byte	0x24
 2529 08d6 1D       		.uleb128 0x1d
 2530 08d7 01       		.uleb128 0x1
 2531 08d8 52       		.byte	0x52
 2532 08d9 03       		.uleb128 0x3
 2533 08da 0A       		.byte	0xa
 2534 08db 0001     		.2byte	0x100
 2535 08dd 00       		.byte	0
 2536 08de 1C       		.uleb128 0x1c
 2537 08df 04030000 		.4byte	.LVL191
 2538 08e3 DF030000 		.4byte	0x3df
 2539 08e7 F6080000 		.4byte	0x8f6
 2540 08eb 1D       		.uleb128 0x1d
 2541 08ec 01       		.uleb128 0x1
 2542 08ed 50       		.byte	0x50
 2543 08ee 01       		.uleb128 0x1
 2544 08ef 35       		.byte	0x35
 2545 08f0 1D       		.uleb128 0x1d
 2546 08f1 01       		.uleb128 0x1
 2547 08f2 51       		.byte	0x51
 2548 08f3 01       		.uleb128 0x1
 2549 08f4 30       		.byte	0x30
 2550 08f5 00       		.byte	0
 2551 08f6 22       		.uleb128 0x22
 2552 08f7 10030000 		.4byte	.LVL193
 2553 08fb DF030000 		.4byte	0x3df
 2554 08ff 1D       		.uleb128 0x1d
 2555 0900 01       		.uleb128 0x1
 2556 0901 50       		.byte	0x50
 2557 0902 01       		.uleb128 0x1
 2558 0903 36       		.byte	0x36
 2559 0904 1D       		.uleb128 0x1d
 2560 0905 01       		.uleb128 0x1
 2561 0906 51       		.byte	0x51
 2562 0907 01       		.uleb128 0x1
 2563 0908 30       		.byte	0x30
 2564 0909 00       		.byte	0
 2565 090a 00       		.byte	0
 2566 090b 1C       		.uleb128 0x1c
 2567 090c 2E010000 		.4byte	.LVL129
 2568 0910 9C040000 		.4byte	0x49c
 2569 0914 1F090000 		.4byte	0x91f
 2570 0918 1D       		.uleb128 0x1d
 2571 0919 01       		.uleb128 0x1
 2572 091a 50       		.byte	0x50
 2573 091b 02       		.uleb128 0x2
 2574 091c 74       		.byte	0x74
 2575 091d 00       		.sleb128 0
 2576 091e 00       		.byte	0
ARM GAS  C:\Users\RABBIT~1\AppData\Local\Temp\ccavO8bx.s 			page 83


 2577 091f 1C       		.uleb128 0x1c
 2578 0920 A4010000 		.4byte	.LVL141
 2579 0924 F10B0000 		.4byte	0xbf1
 2580 0928 3F090000 		.4byte	0x93f
 2581 092c 1D       		.uleb128 0x1d
 2582 092d 01       		.uleb128 0x1
 2583 092e 50       		.byte	0x50
 2584 092f 03       		.uleb128 0x3
 2585 0930 91       		.byte	0x91
 2586 0931 C47D     		.sleb128 -316
 2587 0933 1D       		.uleb128 0x1d
 2588 0934 01       		.uleb128 0x1
 2589 0935 51       		.byte	0x51
 2590 0936 01       		.uleb128 0x1
 2591 0937 30       		.byte	0x30
 2592 0938 1D       		.uleb128 0x1d
 2593 0939 01       		.uleb128 0x1
 2594 093a 52       		.byte	0x52
 2595 093b 02       		.uleb128 0x2
 2596 093c 76       		.byte	0x76
 2597 093d 00       		.sleb128 0
 2598 093e 00       		.byte	0
 2599 093f 1C       		.uleb128 0x1c
 2600 0940 BE010000 		.4byte	.LVL144
 2601 0944 050C0000 		.4byte	0xc05
 2602 0948 67090000 		.4byte	0x967
 2603 094c 1D       		.uleb128 0x1d
 2604 094d 01       		.uleb128 0x1
 2605 094e 50       		.byte	0x50
 2606 094f 09       		.uleb128 0x9
 2607 0950 91       		.byte	0x91
 2608 0951 00       		.sleb128 0
 2609 0952 76       		.byte	0x76
 2610 0953 00       		.sleb128 0
 2611 0954 22       		.byte	0x22
 2612 0955 0A       		.byte	0xa
 2613 0956 3C01     		.2byte	0x13c
 2614 0958 1C       		.byte	0x1c
 2615 0959 1D       		.uleb128 0x1d
 2616 095a 01       		.uleb128 0x1
 2617 095b 51       		.byte	0x51
 2618 095c 03       		.uleb128 0x3
 2619 095d 91       		.byte	0x91
 2620 095e 9F7B     		.sleb128 -609
 2621 0960 1D       		.uleb128 0x1d
 2622 0961 01       		.uleb128 0x1
 2623 0962 52       		.byte	0x52
 2624 0963 02       		.uleb128 0x2
 2625 0964 74       		.byte	0x74
 2626 0965 00       		.sleb128 0
 2627 0966 00       		.byte	0
 2628 0967 1E       		.uleb128 0x1e
 2629 0968 CE010000 		.4byte	.LVL146
 2630 096c 0E0C0000 		.4byte	0xc0e
 2631 0970 1C       		.uleb128 0x1c
 2632 0971 6C020000 		.4byte	.LVL169
 2633 0975 050C0000 		.4byte	0xc05
ARM GAS  C:\Users\RABBIT~1\AppData\Local\Temp\ccavO8bx.s 			page 84


 2634 0979 92090000 		.4byte	0x992
 2635 097d 1D       		.uleb128 0x1d
 2636 097e 01       		.uleb128 0x1
 2637 097f 50       		.byte	0x50
 2638 0980 09       		.uleb128 0x9
 2639 0981 91       		.byte	0x91
 2640 0982 00       		.sleb128 0
 2641 0983 76       		.byte	0x76
 2642 0984 00       		.sleb128 0
 2643 0985 22       		.byte	0x22
 2644 0986 0A       		.byte	0xa
 2645 0987 3C01     		.2byte	0x13c
 2646 0989 1C       		.byte	0x1c
 2647 098a 1D       		.uleb128 0x1d
 2648 098b 01       		.uleb128 0x1
 2649 098c 51       		.byte	0x51
 2650 098d 03       		.uleb128 0x3
 2651 098e 91       		.byte	0x91
 2652 098f 9C7B     		.sleb128 -612
 2653 0991 00       		.byte	0
 2654 0992 1C       		.uleb128 0x1c
 2655 0993 26030000 		.4byte	.LVL198
 2656 0997 9C040000 		.4byte	0x49c
 2657 099b A5090000 		.4byte	0x9a5
 2658 099f 1D       		.uleb128 0x1d
 2659 09a0 01       		.uleb128 0x1
 2660 09a1 50       		.byte	0x50
 2661 09a2 01       		.uleb128 0x1
 2662 09a3 30       		.byte	0x30
 2663 09a4 00       		.byte	0
 2664 09a5 1E       		.uleb128 0x1e
 2665 09a6 32030000 		.4byte	.LVL199
 2666 09aa E60B0000 		.4byte	0xbe6
 2667 09ae 00       		.byte	0
 2668 09af 2F       		.uleb128 0x2f
 2669 09b0 55060000 		.4byte	0x655
 2670 09b4 52000000 		.4byte	.LBB32
 2671 09b8 12000000 		.4byte	.LBE32-.LBB32
 2672 09bc 01       		.byte	0x1
 2673 09bd 5103     		.2byte	0x351
 2674 09bf E9090000 		.4byte	0x9e9
 2675 09c3 30       		.uleb128 0x30
 2676 09c4 70060000 		.4byte	0x670
 2677 09c8 320F0000 		.4byte	.LLST42
 2678 09cc 30       		.uleb128 0x30
 2679 09cd 65060000 		.4byte	0x665
 2680 09d1 500F0000 		.4byte	.LLST43
 2681 09d5 31       		.uleb128 0x31
 2682 09d6 52000000 		.4byte	.LBB33
 2683 09da 12000000 		.4byte	.LBE33-.LBB33
 2684 09de 2B       		.uleb128 0x2b
 2685 09df 7B060000 		.4byte	0x67b
 2686 09e3 660F0000 		.4byte	.LLST44
 2687 09e7 00       		.byte	0
 2688 09e8 00       		.byte	0
 2689 09e9 2F       		.uleb128 0x2f
 2690 09ea 92060000 		.4byte	0x692
ARM GAS  C:\Users\RABBIT~1\AppData\Local\Temp\ccavO8bx.s 			page 85


 2691 09ee 7C000000 		.4byte	.LBB34
 2692 09f2 58000000 		.4byte	.LBE34-.LBB34
 2693 09f6 01       		.byte	0x1
 2694 09f7 4D06     		.2byte	0x64d
 2695 09f9 7C0A0000 		.4byte	0xa7c
 2696 09fd 30       		.uleb128 0x30
 2697 09fe BB060000 		.4byte	0x6bb
 2698 0a02 900F0000 		.4byte	.LLST45
 2699 0a06 30       		.uleb128 0x30
 2700 0a07 AF060000 		.4byte	0x6af
 2701 0a0b C90F0000 		.4byte	.LLST46
 2702 0a0f 30       		.uleb128 0x30
 2703 0a10 A3060000 		.4byte	0x6a3
 2704 0a14 F80F0000 		.4byte	.LLST47
 2705 0a18 31       		.uleb128 0x31
 2706 0a19 7C000000 		.4byte	.LBB35
 2707 0a1d 58000000 		.4byte	.LBE35-.LBB35
 2708 0a21 32       		.uleb128 0x32
 2709 0a22 C7060000 		.4byte	0x6c7
 2710 0a26 33       		.uleb128 0x33
 2711 0a27 55060000 		.4byte	0x655
 2712 0a2b 98000000 		.4byte	.LBB36
 2713 0a2f 48000000 		.4byte	.Ldebug_ranges0+0x48
 2714 0a33 01       		.byte	0x1
 2715 0a34 7306     		.2byte	0x673
 2716 0a36 5C0A0000 		.4byte	0xa5c
 2717 0a3a 30       		.uleb128 0x30
 2718 0a3b 70060000 		.4byte	0x670
 2719 0a3f 18100000 		.4byte	.LLST48
 2720 0a43 30       		.uleb128 0x30
 2721 0a44 65060000 		.4byte	0x665
 2722 0a48 36100000 		.4byte	.LLST49
 2723 0a4c 34       		.uleb128 0x34
 2724 0a4d 48000000 		.4byte	.Ldebug_ranges0+0x48
 2725 0a51 2B       		.uleb128 0x2b
 2726 0a52 7B060000 		.4byte	0x67b
 2727 0a56 4C100000 		.4byte	.LLST50
 2728 0a5a 00       		.byte	0
 2729 0a5b 00       		.byte	0
 2730 0a5c 22       		.uleb128 0x22
 2731 0a5d D2000000 		.4byte	.LVL122
 2732 0a61 190C0000 		.4byte	0xc19
 2733 0a65 1D       		.uleb128 0x1d
 2734 0a66 01       		.uleb128 0x1
 2735 0a67 50       		.byte	0x50
 2736 0a68 03       		.uleb128 0x3
 2737 0a69 91       		.byte	0x91
 2738 0a6a 987B     		.sleb128 -616
 2739 0a6c 1D       		.uleb128 0x1d
 2740 0a6d 01       		.uleb128 0x1
 2741 0a6e 52       		.byte	0x52
 2742 0a6f 03       		.uleb128 0x3
 2743 0a70 91       		.byte	0x91
 2744 0a71 F678     		.sleb128 -906
 2745 0a73 1D       		.uleb128 0x1d
 2746 0a74 01       		.uleb128 0x1
 2747 0a75 53       		.byte	0x53
ARM GAS  C:\Users\RABBIT~1\AppData\Local\Temp\ccavO8bx.s 			page 86


 2748 0a76 02       		.uleb128 0x2
 2749 0a77 09       		.byte	0x9
 2750 0a78 96       		.byte	0x96
 2751 0a79 00       		.byte	0
 2752 0a7a 00       		.byte	0
 2753 0a7b 00       		.byte	0
 2754 0a7c 1E       		.uleb128 0x1e
 2755 0a7d 0C000000 		.4byte	.LVL95
 2756 0a81 240C0000 		.4byte	0xc24
 2757 0a85 22       		.uleb128 0x22
 2758 0a86 26000000 		.4byte	.LVL97
 2759 0a8a 2F0C0000 		.4byte	0xc2f
 2760 0a8e 1D       		.uleb128 0x1d
 2761 0a8f 01       		.uleb128 0x1
 2762 0a90 50       		.byte	0x50
 2763 0a91 03       		.uleb128 0x3
 2764 0a92 91       		.byte	0x91
 2765 0a93 987B     		.sleb128 -616
 2766 0a95 1D       		.uleb128 0x1d
 2767 0a96 01       		.uleb128 0x1
 2768 0a97 51       		.byte	0x51
 2769 0a98 03       		.uleb128 0x3
 2770 0a99 0A       		.byte	0xa
 2771 0a9a 2C01     		.2byte	0x12c
 2772 0a9c 1D       		.uleb128 0x1d
 2773 0a9d 01       		.uleb128 0x1
 2774 0a9e 52       		.byte	0x52
 2775 0a9f 03       		.uleb128 0x3
 2776 0aa0 91       		.byte	0x91
 2777 0aa1 F478     		.sleb128 -908
 2778 0aa3 1D       		.uleb128 0x1d
 2779 0aa4 01       		.uleb128 0x1
 2780 0aa5 53       		.byte	0x53
 2781 0aa6 02       		.uleb128 0x2
 2782 0aa7 09       		.byte	0x9
 2783 0aa8 FF       		.byte	0xff
 2784 0aa9 00       		.byte	0
 2785 0aaa 00       		.byte	0
 2786 0aab 35       		.uleb128 0x35
 2787 0aac 79020000 		.4byte	.LASF100
 2788 0ab0 01       		.byte	0x1
 2789 0ab1 C201     		.2byte	0x1c2
 2790 0ab3 01       		.byte	0x1
 2791 0ab4 36       		.uleb128 0x36
 2792 0ab5 74010000 		.4byte	.LASF76
 2793 0ab9 01       		.byte	0x1
 2794 0aba F3       		.byte	0xf3
 2795 0abb 00000000 		.4byte	.LFB58
 2796 0abf 70000000 		.4byte	.LFE58-.LFB58
 2797 0ac3 01       		.uleb128 0x1
 2798 0ac4 9C       		.byte	0x9c
 2799 0ac5 700B0000 		.4byte	0xb70
 2800 0ac9 37       		.uleb128 0x37
 2801 0aca F7010000 		.4byte	.LASF68
 2802 0ace 01       		.byte	0x1
 2803 0acf F6       		.byte	0xf6
 2804 0ad0 81000000 		.4byte	0x81
ARM GAS  C:\Users\RABBIT~1\AppData\Local\Temp\ccavO8bx.s 			page 87


 2805 0ad4 84100000 		.4byte	.LLST51
 2806 0ad8 19       		.uleb128 0x19
 2807 0ad9 5C040000 		.4byte	.LASF77
 2808 0add 01       		.byte	0x1
 2809 0ade 0401     		.2byte	0x104
 2810 0ae0 B7000000 		.4byte	0xb7
 2811 0ae4 A8100000 		.4byte	.LLST52
 2812 0ae8 33       		.uleb128 0x33
 2813 0ae9 AB0A0000 		.4byte	0xaab
 2814 0aed 5A000000 		.4byte	.LBB46
 2815 0af1 60000000 		.4byte	.Ldebug_ranges0+0x60
 2816 0af5 01       		.byte	0x1
 2817 0af6 B001     		.2byte	0x1b0
 2818 0af8 060B0000 		.4byte	0xb06
 2819 0afc 20       		.uleb128 0x20
 2820 0afd 66000000 		.4byte	.LVL218
 2821 0b01 E60B0000 		.4byte	0xbe6
 2822 0b05 00       		.byte	0
 2823 0b06 1C       		.uleb128 0x1c
 2824 0b07 08000000 		.4byte	.LVL208
 2825 0b0b 9C040000 		.4byte	0x49c
 2826 0b0f 190B0000 		.4byte	0xb19
 2827 0b13 1D       		.uleb128 0x1d
 2828 0b14 01       		.uleb128 0x1
 2829 0b15 50       		.byte	0x50
 2830 0b16 01       		.uleb128 0x1
 2831 0b17 30       		.byte	0x30
 2832 0b18 00       		.byte	0
 2833 0b19 1E       		.uleb128 0x1e
 2834 0b1a 14000000 		.4byte	.LVL210
 2835 0b1e 3A0C0000 		.4byte	0xc3a
 2836 0b22 1C       		.uleb128 0x1c
 2837 0b23 1C000000 		.4byte	.LVL211
 2838 0b27 450C0000 		.4byte	0xc45
 2839 0b2b 350B0000 		.4byte	0xb35
 2840 0b2f 1D       		.uleb128 0x1d
 2841 0b30 01       		.uleb128 0x1
 2842 0b31 50       		.byte	0x50
 2843 0b32 01       		.uleb128 0x1
 2844 0b33 30       		.byte	0x30
 2845 0b34 00       		.byte	0
 2846 0b35 1C       		.uleb128 0x1c
 2847 0b36 2C000000 		.4byte	.LVL212
 2848 0b3a C5020000 		.4byte	0x2c5
 2849 0b3e 530B0000 		.4byte	0xb53
 2850 0b42 1D       		.uleb128 0x1d
 2851 0b43 01       		.uleb128 0x1
 2852 0b44 50       		.byte	0x50
 2853 0b45 01       		.uleb128 0x1
 2854 0b46 30       		.byte	0x30
 2855 0b47 1D       		.uleb128 0x1d
 2856 0b48 01       		.uleb128 0x1
 2857 0b49 51       		.byte	0x51
 2858 0b4a 01       		.uleb128 0x1
 2859 0b4b 30       		.byte	0x30
 2860 0b4c 1D       		.uleb128 0x1d
 2861 0b4d 01       		.uleb128 0x1
ARM GAS  C:\Users\RABBIT~1\AppData\Local\Temp\ccavO8bx.s 			page 88


 2862 0b4e 52       		.byte	0x52
 2863 0b4f 02       		.uleb128 0x2
 2864 0b50 74       		.byte	0x74
 2865 0b51 00       		.sleb128 0
 2866 0b52 00       		.byte	0
 2867 0b53 1C       		.uleb128 0x1c
 2868 0b54 42000000 		.4byte	.LVL215
 2869 0b58 450C0000 		.4byte	0xc45
 2870 0b5c 660B0000 		.4byte	0xb66
 2871 0b60 1D       		.uleb128 0x1d
 2872 0b61 01       		.uleb128 0x1
 2873 0b62 50       		.byte	0x50
 2874 0b63 01       		.uleb128 0x1
 2875 0b64 30       		.byte	0x30
 2876 0b65 00       		.byte	0
 2877 0b66 1E       		.uleb128 0x1e
 2878 0b67 5A000000 		.4byte	.LVL216
 2879 0b6b DA060000 		.4byte	0x6da
 2880 0b6f 00       		.byte	0
 2881 0b70 38       		.uleb128 0x38
 2882 0b71 E4040000 		.4byte	.LASF78
 2883 0b75 01       		.byte	0x1
 2884 0b76 27       		.byte	0x27
 2885 0b77 8D060000 		.4byte	0x68d
 2886 0b7b 05       		.uleb128 0x5
 2887 0b7c 03       		.byte	0x3
 2888 0b7d 00000000 		.4byte	BL_Checksum
 2889 0b81 38       		.uleb128 0x38
 2890 0b82 2F040000 		.4byte	.LASF79
 2891 0b86 01       		.byte	0x1
 2892 0b87 2B       		.byte	0x2b
 2893 0b88 87060000 		.4byte	0x687
 2894 0b8c 05       		.uleb128 0x5
 2895 0b8d 03       		.byte	0x3
 2896 0b8e 00000000 		.4byte	BL_ChecksumAccess
 2897 0b92 38       		.uleb128 0x38
 2898 0b93 41020000 		.4byte	.LASF80
 2899 0b97 01       		.byte	0x1
 2900 0b98 33       		.byte	0x33
 2901 0b99 A30B0000 		.4byte	0xba3
 2902 0b9d 05       		.uleb128 0x5
 2903 0b9e 03       		.byte	0x3
 2904 0b9f 00000000 		.4byte	BL_SizeBytes
 2905 0ba3 27       		.uleb128 0x27
 2906 0ba4 97000000 		.4byte	0x97
 2907 0ba8 38       		.uleb128 0x38
 2908 0ba9 F6000000 		.4byte	.LASF81
 2909 0bad 01       		.byte	0x1
 2910 0bae 34       		.byte	0x34
 2911 0baf B90B0000 		.4byte	0xbb9
 2912 0bb3 05       		.uleb128 0x5
 2913 0bb4 03       		.byte	0x3
 2914 0bb5 00000000 		.4byte	BL_SizeBytesAccess
 2915 0bb9 26       		.uleb128 0x26
 2916 0bba 04       		.byte	0x4
 2917 0bbb A30B0000 		.4byte	0xba3
 2918 0bbf 39       		.uleb128 0x39
ARM GAS  C:\Users\RABBIT~1\AppData\Local\Temp\ccavO8bx.s 			page 89


 2919 0bc0 40050000 		.4byte	.LASF82
 2920 0bc4 06       		.byte	0x6
 2921 0bc5 1606     		.2byte	0x616
 2922 0bc7 CB0B0000 		.4byte	0xbcb
 2923 0bcb 06       		.uleb128 0x6
 2924 0bcc 76000000 		.4byte	0x76
 2925 0bd0 3A       		.uleb128 0x3a
 2926 0bd1 08050000 		.4byte	.LASF83
 2927 0bd5 08050000 		.4byte	.LASF83
 2928 0bd9 07       		.byte	0x7
 2929 0bda 4A       		.byte	0x4a
 2930 0bdb 3A       		.uleb128 0x3a
 2931 0bdc 01040000 		.4byte	.LASF84
 2932 0be0 01040000 		.4byte	.LASF84
 2933 0be4 08       		.byte	0x8
 2934 0be5 96       		.byte	0x96
 2935 0be6 3A       		.uleb128 0x3a
 2936 0be7 8D000000 		.4byte	.LASF85
 2937 0beb 8D000000 		.4byte	.LASF85
 2938 0bef 08       		.byte	0x8
 2939 0bf0 7C       		.byte	0x7c
 2940 0bf1 3B       		.uleb128 0x3b
 2941 0bf2 C4010000 		.4byte	.LASF87
 2942 0bf6 C4010000 		.4byte	.LASF87
 2943 0bfa 3A       		.uleb128 0x3a
 2944 0bfb 5A050000 		.4byte	.LASF86
 2945 0bff 5A050000 		.4byte	.LASF86
 2946 0c03 07       		.byte	0x7
 2947 0c04 48       		.byte	0x48
 2948 0c05 3B       		.uleb128 0x3b
 2949 0c06 2D010000 		.4byte	.LASF88
 2950 0c0a 2D010000 		.4byte	.LASF88
 2951 0c0e 3A       		.uleb128 0x3a
 2952 0c0f B9020000 		.4byte	.LASF89
 2953 0c13 B9020000 		.4byte	.LASF89
 2954 0c17 07       		.byte	0x7
 2955 0c18 54       		.byte	0x54
 2956 0c19 3A       		.uleb128 0x3a
 2957 0c1a 16010000 		.4byte	.LASF90
 2958 0c1e 16010000 		.4byte	.LASF90
 2959 0c22 09       		.byte	0x9
 2960 0c23 EC       		.byte	0xec
 2961 0c24 3A       		.uleb128 0x3a
 2962 0c25 A0040000 		.4byte	.LASF91
 2963 0c29 A0040000 		.4byte	.LASF91
 2964 0c2d 09       		.byte	0x9
 2965 0c2e E9       		.byte	0xe9
 2966 0c2f 3A       		.uleb128 0x3a
 2967 0c30 83040000 		.4byte	.LASF92
 2968 0c34 83040000 		.4byte	.LASF92
 2969 0c38 09       		.byte	0x9
 2970 0c39 EE       		.byte	0xee
 2971 0c3a 3A       		.uleb128 0x3a
 2972 0c3b 6A010000 		.4byte	.LASF93
 2973 0c3f 6A010000 		.4byte	.LASF93
 2974 0c43 07       		.byte	0x7
 2975 0c44 46       		.byte	0x46
ARM GAS  C:\Users\RABBIT~1\AppData\Local\Temp\ccavO8bx.s 			page 90


 2976 0c45 3A       		.uleb128 0x3a
 2977 0c46 C8020000 		.4byte	.LASF94
 2978 0c4a C8020000 		.4byte	.LASF94
 2979 0c4e 08       		.byte	0x8
 2980 0c4f 80       		.byte	0x80
 2981 0c50 00       		.byte	0
 2982              		.section	.debug_abbrev,"",%progbits
 2983              	.Ldebug_abbrev0:
 2984 0000 01       		.uleb128 0x1
 2985 0001 11       		.uleb128 0x11
 2986 0002 01       		.byte	0x1
 2987 0003 25       		.uleb128 0x25
 2988 0004 0E       		.uleb128 0xe
 2989 0005 13       		.uleb128 0x13
 2990 0006 0B       		.uleb128 0xb
 2991 0007 03       		.uleb128 0x3
 2992 0008 0E       		.uleb128 0xe
 2993 0009 1B       		.uleb128 0x1b
 2994 000a 0E       		.uleb128 0xe
 2995 000b 55       		.uleb128 0x55
 2996 000c 17       		.uleb128 0x17
 2997 000d 11       		.uleb128 0x11
 2998 000e 01       		.uleb128 0x1
 2999 000f 10       		.uleb128 0x10
 3000 0010 17       		.uleb128 0x17
 3001 0011 00       		.byte	0
 3002 0012 00       		.byte	0
 3003 0013 02       		.uleb128 0x2
 3004 0014 24       		.uleb128 0x24
 3005 0015 00       		.byte	0
 3006 0016 0B       		.uleb128 0xb
 3007 0017 0B       		.uleb128 0xb
 3008 0018 3E       		.uleb128 0x3e
 3009 0019 0B       		.uleb128 0xb
 3010 001a 03       		.uleb128 0x3
 3011 001b 0E       		.uleb128 0xe
 3012 001c 00       		.byte	0
 3013 001d 00       		.byte	0
 3014 001e 03       		.uleb128 0x3
 3015 001f 16       		.uleb128 0x16
 3016 0020 00       		.byte	0
 3017 0021 03       		.uleb128 0x3
 3018 0022 0E       		.uleb128 0xe
 3019 0023 3A       		.uleb128 0x3a
 3020 0024 0B       		.uleb128 0xb
 3021 0025 3B       		.uleb128 0x3b
 3022 0026 0B       		.uleb128 0xb
 3023 0027 49       		.uleb128 0x49
 3024 0028 13       		.uleb128 0x13
 3025 0029 00       		.byte	0
 3026 002a 00       		.byte	0
 3027 002b 04       		.uleb128 0x4
 3028 002c 24       		.uleb128 0x24
 3029 002d 00       		.byte	0
 3030 002e 0B       		.uleb128 0xb
 3031 002f 0B       		.uleb128 0xb
 3032 0030 3E       		.uleb128 0x3e
ARM GAS  C:\Users\RABBIT~1\AppData\Local\Temp\ccavO8bx.s 			page 91


 3033 0031 0B       		.uleb128 0xb
 3034 0032 03       		.uleb128 0x3
 3035 0033 08       		.uleb128 0x8
 3036 0034 00       		.byte	0
 3037 0035 00       		.byte	0
 3038 0036 05       		.uleb128 0x5
 3039 0037 16       		.uleb128 0x16
 3040 0038 00       		.byte	0
 3041 0039 03       		.uleb128 0x3
 3042 003a 0E       		.uleb128 0xe
 3043 003b 3A       		.uleb128 0x3a
 3044 003c 0B       		.uleb128 0xb
 3045 003d 3B       		.uleb128 0x3b
 3046 003e 05       		.uleb128 0x5
 3047 003f 49       		.uleb128 0x49
 3048 0040 13       		.uleb128 0x13
 3049 0041 00       		.byte	0
 3050 0042 00       		.byte	0
 3051 0043 06       		.uleb128 0x6
 3052 0044 35       		.uleb128 0x35
 3053 0045 00       		.byte	0
 3054 0046 49       		.uleb128 0x49
 3055 0047 13       		.uleb128 0x13
 3056 0048 00       		.byte	0
 3057 0049 00       		.byte	0
 3058 004a 07       		.uleb128 0x7
 3059 004b 13       		.uleb128 0x13
 3060 004c 01       		.byte	0x1
 3061 004d 0B       		.uleb128 0xb
 3062 004e 0B       		.uleb128 0xb
 3063 004f 3A       		.uleb128 0x3a
 3064 0050 0B       		.uleb128 0xb
 3065 0051 3B       		.uleb128 0x3b
 3066 0052 0B       		.uleb128 0xb
 3067 0053 01       		.uleb128 0x1
 3068 0054 13       		.uleb128 0x13
 3069 0055 00       		.byte	0
 3070 0056 00       		.byte	0
 3071 0057 08       		.uleb128 0x8
 3072 0058 0D       		.uleb128 0xd
 3073 0059 00       		.byte	0
 3074 005a 03       		.uleb128 0x3
 3075 005b 0E       		.uleb128 0xe
 3076 005c 3A       		.uleb128 0x3a
 3077 005d 0B       		.uleb128 0xb
 3078 005e 3B       		.uleb128 0x3b
 3079 005f 0B       		.uleb128 0xb
 3080 0060 49       		.uleb128 0x49
 3081 0061 13       		.uleb128 0x13
 3082 0062 38       		.uleb128 0x38
 3083 0063 0B       		.uleb128 0xb
 3084 0064 00       		.byte	0
 3085 0065 00       		.byte	0
 3086 0066 09       		.uleb128 0x9
 3087 0067 01       		.uleb128 0x1
 3088 0068 01       		.byte	0x1
 3089 0069 49       		.uleb128 0x49
ARM GAS  C:\Users\RABBIT~1\AppData\Local\Temp\ccavO8bx.s 			page 92


 3090 006a 13       		.uleb128 0x13
 3091 006b 01       		.uleb128 0x1
 3092 006c 13       		.uleb128 0x13
 3093 006d 00       		.byte	0
 3094 006e 00       		.byte	0
 3095 006f 0A       		.uleb128 0xa
 3096 0070 21       		.uleb128 0x21
 3097 0071 00       		.byte	0
 3098 0072 49       		.uleb128 0x49
 3099 0073 13       		.uleb128 0x13
 3100 0074 2F       		.uleb128 0x2f
 3101 0075 0B       		.uleb128 0xb
 3102 0076 00       		.byte	0
 3103 0077 00       		.byte	0
 3104 0078 0B       		.uleb128 0xb
 3105 0079 2E       		.uleb128 0x2e
 3106 007a 01       		.byte	0x1
 3107 007b 03       		.uleb128 0x3
 3108 007c 0E       		.uleb128 0xe
 3109 007d 3A       		.uleb128 0x3a
 3110 007e 0B       		.uleb128 0xb
 3111 007f 3B       		.uleb128 0x3b
 3112 0080 05       		.uleb128 0x5
 3113 0081 27       		.uleb128 0x27
 3114 0082 19       		.uleb128 0x19
 3115 0083 20       		.uleb128 0x20
 3116 0084 0B       		.uleb128 0xb
 3117 0085 01       		.uleb128 0x1
 3118 0086 13       		.uleb128 0x13
 3119 0087 00       		.byte	0
 3120 0088 00       		.byte	0
 3121 0089 0C       		.uleb128 0xc
 3122 008a 05       		.uleb128 0x5
 3123 008b 00       		.byte	0
 3124 008c 03       		.uleb128 0x3
 3125 008d 0E       		.uleb128 0xe
 3126 008e 3A       		.uleb128 0x3a
 3127 008f 0B       		.uleb128 0xb
 3128 0090 3B       		.uleb128 0x3b
 3129 0091 05       		.uleb128 0x5
 3130 0092 49       		.uleb128 0x49
 3131 0093 13       		.uleb128 0x13
 3132 0094 00       		.byte	0
 3133 0095 00       		.byte	0
 3134 0096 0D       		.uleb128 0xd
 3135 0097 34       		.uleb128 0x34
 3136 0098 00       		.byte	0
 3137 0099 03       		.uleb128 0x3
 3138 009a 0E       		.uleb128 0xe
 3139 009b 3A       		.uleb128 0x3a
 3140 009c 0B       		.uleb128 0xb
 3141 009d 3B       		.uleb128 0x3b
 3142 009e 05       		.uleb128 0x5
 3143 009f 49       		.uleb128 0x49
 3144 00a0 13       		.uleb128 0x13
 3145 00a1 00       		.byte	0
 3146 00a2 00       		.byte	0
ARM GAS  C:\Users\RABBIT~1\AppData\Local\Temp\ccavO8bx.s 			page 93


 3147 00a3 0E       		.uleb128 0xe
 3148 00a4 0B       		.uleb128 0xb
 3149 00a5 01       		.byte	0x1
 3150 00a6 00       		.byte	0
 3151 00a7 00       		.byte	0
 3152 00a8 0F       		.uleb128 0xf
 3153 00a9 0B       		.uleb128 0xb
 3154 00aa 01       		.byte	0x1
 3155 00ab 01       		.uleb128 0x1
 3156 00ac 13       		.uleb128 0x13
 3157 00ad 00       		.byte	0
 3158 00ae 00       		.byte	0
 3159 00af 10       		.uleb128 0x10
 3160 00b0 34       		.uleb128 0x34
 3161 00b1 00       		.byte	0
 3162 00b2 03       		.uleb128 0x3
 3163 00b3 08       		.uleb128 0x8
 3164 00b4 3A       		.uleb128 0x3a
 3165 00b5 0B       		.uleb128 0xb
 3166 00b6 3B       		.uleb128 0x3b
 3167 00b7 05       		.uleb128 0x5
 3168 00b8 49       		.uleb128 0x49
 3169 00b9 13       		.uleb128 0x13
 3170 00ba 00       		.byte	0
 3171 00bb 00       		.byte	0
 3172 00bc 11       		.uleb128 0x11
 3173 00bd 21       		.uleb128 0x21
 3174 00be 00       		.byte	0
 3175 00bf 49       		.uleb128 0x49
 3176 00c0 13       		.uleb128 0x13
 3177 00c1 2F       		.uleb128 0x2f
 3178 00c2 05       		.uleb128 0x5
 3179 00c3 00       		.byte	0
 3180 00c4 00       		.byte	0
 3181 00c5 12       		.uleb128 0x12
 3182 00c6 2E       		.uleb128 0x2e
 3183 00c7 01       		.byte	0x1
 3184 00c8 03       		.uleb128 0x3
 3185 00c9 0E       		.uleb128 0xe
 3186 00ca 3A       		.uleb128 0x3a
 3187 00cb 0B       		.uleb128 0xb
 3188 00cc 3B       		.uleb128 0x3b
 3189 00cd 05       		.uleb128 0x5
 3190 00ce 27       		.uleb128 0x27
 3191 00cf 19       		.uleb128 0x19
 3192 00d0 11       		.uleb128 0x11
 3193 00d1 01       		.uleb128 0x1
 3194 00d2 12       		.uleb128 0x12
 3195 00d3 06       		.uleb128 0x6
 3196 00d4 40       		.uleb128 0x40
 3197 00d5 18       		.uleb128 0x18
 3198 00d6 9742     		.uleb128 0x2117
 3199 00d8 19       		.uleb128 0x19
 3200 00d9 01       		.uleb128 0x1
 3201 00da 13       		.uleb128 0x13
 3202 00db 00       		.byte	0
 3203 00dc 00       		.byte	0
ARM GAS  C:\Users\RABBIT~1\AppData\Local\Temp\ccavO8bx.s 			page 94


 3204 00dd 13       		.uleb128 0x13
 3205 00de 05       		.uleb128 0x5
 3206 00df 00       		.byte	0
 3207 00e0 03       		.uleb128 0x3
 3208 00e1 0E       		.uleb128 0xe
 3209 00e2 3A       		.uleb128 0x3a
 3210 00e3 0B       		.uleb128 0xb
 3211 00e4 3B       		.uleb128 0x3b
 3212 00e5 05       		.uleb128 0x5
 3213 00e6 49       		.uleb128 0x49
 3214 00e7 13       		.uleb128 0x13
 3215 00e8 02       		.uleb128 0x2
 3216 00e9 18       		.uleb128 0x18
 3217 00ea 00       		.byte	0
 3218 00eb 00       		.byte	0
 3219 00ec 14       		.uleb128 0x14
 3220 00ed 2E       		.uleb128 0x2e
 3221 00ee 01       		.byte	0x1
 3222 00ef 3F       		.uleb128 0x3f
 3223 00f0 19       		.uleb128 0x19
 3224 00f1 03       		.uleb128 0x3
 3225 00f2 0E       		.uleb128 0xe
 3226 00f3 3A       		.uleb128 0x3a
 3227 00f4 0B       		.uleb128 0xb
 3228 00f5 3B       		.uleb128 0x3b
 3229 00f6 0B       		.uleb128 0xb
 3230 00f7 27       		.uleb128 0x27
 3231 00f8 19       		.uleb128 0x19
 3232 00f9 49       		.uleb128 0x49
 3233 00fa 13       		.uleb128 0x13
 3234 00fb 11       		.uleb128 0x11
 3235 00fc 01       		.uleb128 0x1
 3236 00fd 12       		.uleb128 0x12
 3237 00fe 06       		.uleb128 0x6
 3238 00ff 40       		.uleb128 0x40
 3239 0100 18       		.uleb128 0x18
 3240 0101 9742     		.uleb128 0x2117
 3241 0103 19       		.uleb128 0x19
 3242 0104 01       		.uleb128 0x1
 3243 0105 13       		.uleb128 0x13
 3244 0106 00       		.byte	0
 3245 0107 00       		.byte	0
 3246 0108 15       		.uleb128 0x15
 3247 0109 05       		.uleb128 0x5
 3248 010a 00       		.byte	0
 3249 010b 03       		.uleb128 0x3
 3250 010c 0E       		.uleb128 0xe
 3251 010d 3A       		.uleb128 0x3a
 3252 010e 0B       		.uleb128 0xb
 3253 010f 3B       		.uleb128 0x3b
 3254 0110 0B       		.uleb128 0xb
 3255 0111 49       		.uleb128 0x49
 3256 0112 13       		.uleb128 0x13
 3257 0113 02       		.uleb128 0x2
 3258 0114 17       		.uleb128 0x17
 3259 0115 00       		.byte	0
 3260 0116 00       		.byte	0
ARM GAS  C:\Users\RABBIT~1\AppData\Local\Temp\ccavO8bx.s 			page 95


 3261 0117 16       		.uleb128 0x16
 3262 0118 34       		.uleb128 0x34
 3263 0119 00       		.byte	0
 3264 011a 03       		.uleb128 0x3
 3265 011b 08       		.uleb128 0x8
 3266 011c 3A       		.uleb128 0x3a
 3267 011d 0B       		.uleb128 0xb
 3268 011e 3B       		.uleb128 0x3b
 3269 011f 0B       		.uleb128 0xb
 3270 0120 49       		.uleb128 0x49
 3271 0121 13       		.uleb128 0x13
 3272 0122 02       		.uleb128 0x2
 3273 0123 17       		.uleb128 0x17
 3274 0124 00       		.byte	0
 3275 0125 00       		.byte	0
 3276 0126 17       		.uleb128 0x17
 3277 0127 2E       		.uleb128 0x2e
 3278 0128 01       		.byte	0x1
 3279 0129 3F       		.uleb128 0x3f
 3280 012a 19       		.uleb128 0x19
 3281 012b 03       		.uleb128 0x3
 3282 012c 0E       		.uleb128 0xe
 3283 012d 3A       		.uleb128 0x3a
 3284 012e 0B       		.uleb128 0xb
 3285 012f 3B       		.uleb128 0x3b
 3286 0130 05       		.uleb128 0x5
 3287 0131 27       		.uleb128 0x27
 3288 0132 19       		.uleb128 0x19
 3289 0133 11       		.uleb128 0x11
 3290 0134 01       		.uleb128 0x1
 3291 0135 12       		.uleb128 0x12
 3292 0136 06       		.uleb128 0x6
 3293 0137 40       		.uleb128 0x40
 3294 0138 18       		.uleb128 0x18
 3295 0139 9742     		.uleb128 0x2117
 3296 013b 19       		.uleb128 0x19
 3297 013c 01       		.uleb128 0x1
 3298 013d 13       		.uleb128 0x13
 3299 013e 00       		.byte	0
 3300 013f 00       		.byte	0
 3301 0140 18       		.uleb128 0x18
 3302 0141 05       		.uleb128 0x5
 3303 0142 00       		.byte	0
 3304 0143 03       		.uleb128 0x3
 3305 0144 0E       		.uleb128 0xe
 3306 0145 3A       		.uleb128 0x3a
 3307 0146 0B       		.uleb128 0xb
 3308 0147 3B       		.uleb128 0x3b
 3309 0148 05       		.uleb128 0x5
 3310 0149 49       		.uleb128 0x49
 3311 014a 13       		.uleb128 0x13
 3312 014b 02       		.uleb128 0x2
 3313 014c 17       		.uleb128 0x17
 3314 014d 00       		.byte	0
 3315 014e 00       		.byte	0
 3316 014f 19       		.uleb128 0x19
 3317 0150 34       		.uleb128 0x34
ARM GAS  C:\Users\RABBIT~1\AppData\Local\Temp\ccavO8bx.s 			page 96


 3318 0151 00       		.byte	0
 3319 0152 03       		.uleb128 0x3
 3320 0153 0E       		.uleb128 0xe
 3321 0154 3A       		.uleb128 0x3a
 3322 0155 0B       		.uleb128 0xb
 3323 0156 3B       		.uleb128 0x3b
 3324 0157 05       		.uleb128 0x5
 3325 0158 49       		.uleb128 0x49
 3326 0159 13       		.uleb128 0x13
 3327 015a 02       		.uleb128 0x2
 3328 015b 17       		.uleb128 0x17
 3329 015c 00       		.byte	0
 3330 015d 00       		.byte	0
 3331 015e 1A       		.uleb128 0x1a
 3332 015f 34       		.uleb128 0x34
 3333 0160 00       		.byte	0
 3334 0161 03       		.uleb128 0x3
 3335 0162 0E       		.uleb128 0xe
 3336 0163 3A       		.uleb128 0x3a
 3337 0164 0B       		.uleb128 0xb
 3338 0165 3B       		.uleb128 0x3b
 3339 0166 05       		.uleb128 0x5
 3340 0167 49       		.uleb128 0x49
 3341 0168 13       		.uleb128 0x13
 3342 0169 02       		.uleb128 0x2
 3343 016a 18       		.uleb128 0x18
 3344 016b 00       		.byte	0
 3345 016c 00       		.byte	0
 3346 016d 1B       		.uleb128 0x1b
 3347 016e 34       		.uleb128 0x34
 3348 016f 00       		.byte	0
 3349 0170 03       		.uleb128 0x3
 3350 0171 08       		.uleb128 0x8
 3351 0172 3A       		.uleb128 0x3a
 3352 0173 0B       		.uleb128 0xb
 3353 0174 3B       		.uleb128 0x3b
 3354 0175 05       		.uleb128 0x5
 3355 0176 49       		.uleb128 0x49
 3356 0177 13       		.uleb128 0x13
 3357 0178 02       		.uleb128 0x2
 3358 0179 17       		.uleb128 0x17
 3359 017a 00       		.byte	0
 3360 017b 00       		.byte	0
 3361 017c 1C       		.uleb128 0x1c
 3362 017d 898201   		.uleb128 0x4109
 3363 0180 01       		.byte	0x1
 3364 0181 11       		.uleb128 0x11
 3365 0182 01       		.uleb128 0x1
 3366 0183 31       		.uleb128 0x31
 3367 0184 13       		.uleb128 0x13
 3368 0185 01       		.uleb128 0x1
 3369 0186 13       		.uleb128 0x13
 3370 0187 00       		.byte	0
 3371 0188 00       		.byte	0
 3372 0189 1D       		.uleb128 0x1d
 3373 018a 8A8201   		.uleb128 0x410a
 3374 018d 00       		.byte	0
ARM GAS  C:\Users\RABBIT~1\AppData\Local\Temp\ccavO8bx.s 			page 97


 3375 018e 02       		.uleb128 0x2
 3376 018f 18       		.uleb128 0x18
 3377 0190 9142     		.uleb128 0x2111
 3378 0192 18       		.uleb128 0x18
 3379 0193 00       		.byte	0
 3380 0194 00       		.byte	0
 3381 0195 1E       		.uleb128 0x1e
 3382 0196 898201   		.uleb128 0x4109
 3383 0199 00       		.byte	0
 3384 019a 11       		.uleb128 0x11
 3385 019b 01       		.uleb128 0x1
 3386 019c 31       		.uleb128 0x31
 3387 019d 13       		.uleb128 0x13
 3388 019e 00       		.byte	0
 3389 019f 00       		.byte	0
 3390 01a0 1F       		.uleb128 0x1f
 3391 01a1 2E       		.uleb128 0x2e
 3392 01a2 01       		.byte	0x1
 3393 01a3 3F       		.uleb128 0x3f
 3394 01a4 19       		.uleb128 0x19
 3395 01a5 03       		.uleb128 0x3
 3396 01a6 0E       		.uleb128 0xe
 3397 01a7 3A       		.uleb128 0x3a
 3398 01a8 0B       		.uleb128 0xb
 3399 01a9 3B       		.uleb128 0x3b
 3400 01aa 05       		.uleb128 0x5
 3401 01ab 27       		.uleb128 0x27
 3402 01ac 19       		.uleb128 0x19
 3403 01ad 49       		.uleb128 0x49
 3404 01ae 13       		.uleb128 0x13
 3405 01af 11       		.uleb128 0x11
 3406 01b0 01       		.uleb128 0x1
 3407 01b1 12       		.uleb128 0x12
 3408 01b2 06       		.uleb128 0x6
 3409 01b3 40       		.uleb128 0x40
 3410 01b4 18       		.uleb128 0x18
 3411 01b5 9742     		.uleb128 0x2117
 3412 01b7 19       		.uleb128 0x19
 3413 01b8 01       		.uleb128 0x1
 3414 01b9 13       		.uleb128 0x13
 3415 01ba 00       		.byte	0
 3416 01bb 00       		.byte	0
 3417 01bc 20       		.uleb128 0x20
 3418 01bd 898201   		.uleb128 0x4109
 3419 01c0 00       		.byte	0
 3420 01c1 11       		.uleb128 0x11
 3421 01c2 01       		.uleb128 0x1
 3422 01c3 9542     		.uleb128 0x2115
 3423 01c5 19       		.uleb128 0x19
 3424 01c6 31       		.uleb128 0x31
 3425 01c7 13       		.uleb128 0x13
 3426 01c8 00       		.byte	0
 3427 01c9 00       		.byte	0
 3428 01ca 21       		.uleb128 0x21
 3429 01cb 0B       		.uleb128 0xb
 3430 01cc 01       		.byte	0x1
 3431 01cd 11       		.uleb128 0x11
ARM GAS  C:\Users\RABBIT~1\AppData\Local\Temp\ccavO8bx.s 			page 98


 3432 01ce 01       		.uleb128 0x1
 3433 01cf 12       		.uleb128 0x12
 3434 01d0 06       		.uleb128 0x6
 3435 01d1 01       		.uleb128 0x1
 3436 01d2 13       		.uleb128 0x13
 3437 01d3 00       		.byte	0
 3438 01d4 00       		.byte	0
 3439 01d5 22       		.uleb128 0x22
 3440 01d6 898201   		.uleb128 0x4109
 3441 01d9 01       		.byte	0x1
 3442 01da 11       		.uleb128 0x11
 3443 01db 01       		.uleb128 0x1
 3444 01dc 31       		.uleb128 0x31
 3445 01dd 13       		.uleb128 0x13
 3446 01de 00       		.byte	0
 3447 01df 00       		.byte	0
 3448 01e0 23       		.uleb128 0x23
 3449 01e1 2E       		.uleb128 0x2e
 3450 01e2 01       		.byte	0x1
 3451 01e3 03       		.uleb128 0x3
 3452 01e4 0E       		.uleb128 0xe
 3453 01e5 3A       		.uleb128 0x3a
 3454 01e6 0B       		.uleb128 0xb
 3455 01e7 3B       		.uleb128 0x3b
 3456 01e8 0B       		.uleb128 0xb
 3457 01e9 27       		.uleb128 0x27
 3458 01ea 19       		.uleb128 0x19
 3459 01eb 49       		.uleb128 0x49
 3460 01ec 13       		.uleb128 0x13
 3461 01ed 20       		.uleb128 0x20
 3462 01ee 0B       		.uleb128 0xb
 3463 01ef 01       		.uleb128 0x1
 3464 01f0 13       		.uleb128 0x13
 3465 01f1 00       		.byte	0
 3466 01f2 00       		.byte	0
 3467 01f3 24       		.uleb128 0x24
 3468 01f4 05       		.uleb128 0x5
 3469 01f5 00       		.byte	0
 3470 01f6 03       		.uleb128 0x3
 3471 01f7 0E       		.uleb128 0xe
 3472 01f8 3A       		.uleb128 0x3a
 3473 01f9 0B       		.uleb128 0xb
 3474 01fa 3B       		.uleb128 0x3b
 3475 01fb 0B       		.uleb128 0xb
 3476 01fc 49       		.uleb128 0x49
 3477 01fd 13       		.uleb128 0x13
 3478 01fe 00       		.byte	0
 3479 01ff 00       		.byte	0
 3480 0200 25       		.uleb128 0x25
 3481 0201 34       		.uleb128 0x34
 3482 0202 00       		.byte	0
 3483 0203 03       		.uleb128 0x3
 3484 0204 08       		.uleb128 0x8
 3485 0205 3A       		.uleb128 0x3a
 3486 0206 0B       		.uleb128 0xb
 3487 0207 3B       		.uleb128 0x3b
 3488 0208 0B       		.uleb128 0xb
ARM GAS  C:\Users\RABBIT~1\AppData\Local\Temp\ccavO8bx.s 			page 99


 3489 0209 49       		.uleb128 0x49
 3490 020a 13       		.uleb128 0x13
 3491 020b 00       		.byte	0
 3492 020c 00       		.byte	0
 3493 020d 26       		.uleb128 0x26
 3494 020e 0F       		.uleb128 0xf
 3495 020f 00       		.byte	0
 3496 0210 0B       		.uleb128 0xb
 3497 0211 0B       		.uleb128 0xb
 3498 0212 49       		.uleb128 0x49
 3499 0213 13       		.uleb128 0x13
 3500 0214 00       		.byte	0
 3501 0215 00       		.byte	0
 3502 0216 27       		.uleb128 0x27
 3503 0217 26       		.uleb128 0x26
 3504 0218 00       		.byte	0
 3505 0219 49       		.uleb128 0x49
 3506 021a 13       		.uleb128 0x13
 3507 021b 00       		.byte	0
 3508 021c 00       		.byte	0
 3509 021d 28       		.uleb128 0x28
 3510 021e 2E       		.uleb128 0x2e
 3511 021f 01       		.byte	0x1
 3512 0220 03       		.uleb128 0x3
 3513 0221 0E       		.uleb128 0xe
 3514 0222 3A       		.uleb128 0x3a
 3515 0223 0B       		.uleb128 0xb
 3516 0224 3B       		.uleb128 0x3b
 3517 0225 05       		.uleb128 0x5
 3518 0226 27       		.uleb128 0x27
 3519 0227 19       		.uleb128 0x19
 3520 0228 49       		.uleb128 0x49
 3521 0229 13       		.uleb128 0x13
 3522 022a 20       		.uleb128 0x20
 3523 022b 0B       		.uleb128 0xb
 3524 022c 01       		.uleb128 0x1
 3525 022d 13       		.uleb128 0x13
 3526 022e 00       		.byte	0
 3527 022f 00       		.byte	0
 3528 0230 29       		.uleb128 0x29
 3529 0231 2E       		.uleb128 0x2e
 3530 0232 01       		.byte	0x1
 3531 0233 31       		.uleb128 0x31
 3532 0234 13       		.uleb128 0x13
 3533 0235 11       		.uleb128 0x11
 3534 0236 01       		.uleb128 0x1
 3535 0237 12       		.uleb128 0x12
 3536 0238 06       		.uleb128 0x6
 3537 0239 40       		.uleb128 0x40
 3538 023a 18       		.uleb128 0x18
 3539 023b 9742     		.uleb128 0x2117
 3540 023d 19       		.uleb128 0x19
 3541 023e 01       		.uleb128 0x1
 3542 023f 13       		.uleb128 0x13
 3543 0240 00       		.byte	0
 3544 0241 00       		.byte	0
 3545 0242 2A       		.uleb128 0x2a
ARM GAS  C:\Users\RABBIT~1\AppData\Local\Temp\ccavO8bx.s 			page 100


 3546 0243 34       		.uleb128 0x34
 3547 0244 00       		.byte	0
 3548 0245 31       		.uleb128 0x31
 3549 0246 13       		.uleb128 0x13
 3550 0247 02       		.uleb128 0x2
 3551 0248 18       		.uleb128 0x18
 3552 0249 00       		.byte	0
 3553 024a 00       		.byte	0
 3554 024b 2B       		.uleb128 0x2b
 3555 024c 34       		.uleb128 0x34
 3556 024d 00       		.byte	0
 3557 024e 31       		.uleb128 0x31
 3558 024f 13       		.uleb128 0x13
 3559 0250 02       		.uleb128 0x2
 3560 0251 17       		.uleb128 0x17
 3561 0252 00       		.byte	0
 3562 0253 00       		.byte	0
 3563 0254 2C       		.uleb128 0x2c
 3564 0255 34       		.uleb128 0x34
 3565 0256 00       		.byte	0
 3566 0257 31       		.uleb128 0x31
 3567 0258 13       		.uleb128 0x13
 3568 0259 1C       		.uleb128 0x1c
 3569 025a 0B       		.uleb128 0xb
 3570 025b 00       		.byte	0
 3571 025c 00       		.byte	0
 3572 025d 2D       		.uleb128 0x2d
 3573 025e 05       		.uleb128 0x5
 3574 025f 00       		.byte	0
 3575 0260 31       		.uleb128 0x31
 3576 0261 13       		.uleb128 0x13
 3577 0262 1C       		.uleb128 0x1c
 3578 0263 0B       		.uleb128 0xb
 3579 0264 00       		.byte	0
 3580 0265 00       		.byte	0
 3581 0266 2E       		.uleb128 0x2e
 3582 0267 0B       		.uleb128 0xb
 3583 0268 01       		.byte	0x1
 3584 0269 55       		.uleb128 0x55
 3585 026a 17       		.uleb128 0x17
 3586 026b 01       		.uleb128 0x1
 3587 026c 13       		.uleb128 0x13
 3588 026d 00       		.byte	0
 3589 026e 00       		.byte	0
 3590 026f 2F       		.uleb128 0x2f
 3591 0270 1D       		.uleb128 0x1d
 3592 0271 01       		.byte	0x1
 3593 0272 31       		.uleb128 0x31
 3594 0273 13       		.uleb128 0x13
 3595 0274 11       		.uleb128 0x11
 3596 0275 01       		.uleb128 0x1
 3597 0276 12       		.uleb128 0x12
 3598 0277 06       		.uleb128 0x6
 3599 0278 58       		.uleb128 0x58
 3600 0279 0B       		.uleb128 0xb
 3601 027a 59       		.uleb128 0x59
 3602 027b 05       		.uleb128 0x5
ARM GAS  C:\Users\RABBIT~1\AppData\Local\Temp\ccavO8bx.s 			page 101


 3603 027c 01       		.uleb128 0x1
 3604 027d 13       		.uleb128 0x13
 3605 027e 00       		.byte	0
 3606 027f 00       		.byte	0
 3607 0280 30       		.uleb128 0x30
 3608 0281 05       		.uleb128 0x5
 3609 0282 00       		.byte	0
 3610 0283 31       		.uleb128 0x31
 3611 0284 13       		.uleb128 0x13
 3612 0285 02       		.uleb128 0x2
 3613 0286 17       		.uleb128 0x17
 3614 0287 00       		.byte	0
 3615 0288 00       		.byte	0
 3616 0289 31       		.uleb128 0x31
 3617 028a 0B       		.uleb128 0xb
 3618 028b 01       		.byte	0x1
 3619 028c 11       		.uleb128 0x11
 3620 028d 01       		.uleb128 0x1
 3621 028e 12       		.uleb128 0x12
 3622 028f 06       		.uleb128 0x6
 3623 0290 00       		.byte	0
 3624 0291 00       		.byte	0
 3625 0292 32       		.uleb128 0x32
 3626 0293 34       		.uleb128 0x34
 3627 0294 00       		.byte	0
 3628 0295 31       		.uleb128 0x31
 3629 0296 13       		.uleb128 0x13
 3630 0297 00       		.byte	0
 3631 0298 00       		.byte	0
 3632 0299 33       		.uleb128 0x33
 3633 029a 1D       		.uleb128 0x1d
 3634 029b 01       		.byte	0x1
 3635 029c 31       		.uleb128 0x31
 3636 029d 13       		.uleb128 0x13
 3637 029e 52       		.uleb128 0x52
 3638 029f 01       		.uleb128 0x1
 3639 02a0 55       		.uleb128 0x55
 3640 02a1 17       		.uleb128 0x17
 3641 02a2 58       		.uleb128 0x58
 3642 02a3 0B       		.uleb128 0xb
 3643 02a4 59       		.uleb128 0x59
 3644 02a5 05       		.uleb128 0x5
 3645 02a6 01       		.uleb128 0x1
 3646 02a7 13       		.uleb128 0x13
 3647 02a8 00       		.byte	0
 3648 02a9 00       		.byte	0
 3649 02aa 34       		.uleb128 0x34
 3650 02ab 0B       		.uleb128 0xb
 3651 02ac 01       		.byte	0x1
 3652 02ad 55       		.uleb128 0x55
 3653 02ae 17       		.uleb128 0x17
 3654 02af 00       		.byte	0
 3655 02b0 00       		.byte	0
 3656 02b1 35       		.uleb128 0x35
 3657 02b2 2E       		.uleb128 0x2e
 3658 02b3 00       		.byte	0
 3659 02b4 03       		.uleb128 0x3
ARM GAS  C:\Users\RABBIT~1\AppData\Local\Temp\ccavO8bx.s 			page 102


 3660 02b5 0E       		.uleb128 0xe
 3661 02b6 3A       		.uleb128 0x3a
 3662 02b7 0B       		.uleb128 0xb
 3663 02b8 3B       		.uleb128 0x3b
 3664 02b9 05       		.uleb128 0x5
 3665 02ba 27       		.uleb128 0x27
 3666 02bb 19       		.uleb128 0x19
 3667 02bc 20       		.uleb128 0x20
 3668 02bd 0B       		.uleb128 0xb
 3669 02be 00       		.byte	0
 3670 02bf 00       		.byte	0
 3671 02c0 36       		.uleb128 0x36
 3672 02c1 2E       		.uleb128 0x2e
 3673 02c2 01       		.byte	0x1
 3674 02c3 3F       		.uleb128 0x3f
 3675 02c4 19       		.uleb128 0x19
 3676 02c5 03       		.uleb128 0x3
 3677 02c6 0E       		.uleb128 0xe
 3678 02c7 3A       		.uleb128 0x3a
 3679 02c8 0B       		.uleb128 0xb
 3680 02c9 3B       		.uleb128 0x3b
 3681 02ca 0B       		.uleb128 0xb
 3682 02cb 27       		.uleb128 0x27
 3683 02cc 19       		.uleb128 0x19
 3684 02cd 11       		.uleb128 0x11
 3685 02ce 01       		.uleb128 0x1
 3686 02cf 12       		.uleb128 0x12
 3687 02d0 06       		.uleb128 0x6
 3688 02d1 40       		.uleb128 0x40
 3689 02d2 18       		.uleb128 0x18
 3690 02d3 9742     		.uleb128 0x2117
 3691 02d5 19       		.uleb128 0x19
 3692 02d6 01       		.uleb128 0x1
 3693 02d7 13       		.uleb128 0x13
 3694 02d8 00       		.byte	0
 3695 02d9 00       		.byte	0
 3696 02da 37       		.uleb128 0x37
 3697 02db 34       		.uleb128 0x34
 3698 02dc 00       		.byte	0
 3699 02dd 03       		.uleb128 0x3
 3700 02de 0E       		.uleb128 0xe
 3701 02df 3A       		.uleb128 0x3a
 3702 02e0 0B       		.uleb128 0xb
 3703 02e1 3B       		.uleb128 0x3b
 3704 02e2 0B       		.uleb128 0xb
 3705 02e3 49       		.uleb128 0x49
 3706 02e4 13       		.uleb128 0x13
 3707 02e5 02       		.uleb128 0x2
 3708 02e6 17       		.uleb128 0x17
 3709 02e7 00       		.byte	0
 3710 02e8 00       		.byte	0
 3711 02e9 38       		.uleb128 0x38
 3712 02ea 34       		.uleb128 0x34
 3713 02eb 00       		.byte	0
 3714 02ec 03       		.uleb128 0x3
 3715 02ed 0E       		.uleb128 0xe
 3716 02ee 3A       		.uleb128 0x3a
ARM GAS  C:\Users\RABBIT~1\AppData\Local\Temp\ccavO8bx.s 			page 103


 3717 02ef 0B       		.uleb128 0xb
 3718 02f0 3B       		.uleb128 0x3b
 3719 02f1 0B       		.uleb128 0xb
 3720 02f2 49       		.uleb128 0x49
 3721 02f3 13       		.uleb128 0x13
 3722 02f4 3F       		.uleb128 0x3f
 3723 02f5 19       		.uleb128 0x19
 3724 02f6 02       		.uleb128 0x2
 3725 02f7 18       		.uleb128 0x18
 3726 02f8 00       		.byte	0
 3727 02f9 00       		.byte	0
 3728 02fa 39       		.uleb128 0x39
 3729 02fb 34       		.uleb128 0x34
 3730 02fc 00       		.byte	0
 3731 02fd 03       		.uleb128 0x3
 3732 02fe 0E       		.uleb128 0xe
 3733 02ff 3A       		.uleb128 0x3a
 3734 0300 0B       		.uleb128 0xb
 3735 0301 3B       		.uleb128 0x3b
 3736 0302 05       		.uleb128 0x5
 3737 0303 49       		.uleb128 0x49
 3738 0304 13       		.uleb128 0x13
 3739 0305 3F       		.uleb128 0x3f
 3740 0306 19       		.uleb128 0x19
 3741 0307 3C       		.uleb128 0x3c
 3742 0308 19       		.uleb128 0x19
 3743 0309 00       		.byte	0
 3744 030a 00       		.byte	0
 3745 030b 3A       		.uleb128 0x3a
 3746 030c 2E       		.uleb128 0x2e
 3747 030d 00       		.byte	0
 3748 030e 3F       		.uleb128 0x3f
 3749 030f 19       		.uleb128 0x19
 3750 0310 3C       		.uleb128 0x3c
 3751 0311 19       		.uleb128 0x19
 3752 0312 6E       		.uleb128 0x6e
 3753 0313 0E       		.uleb128 0xe
 3754 0314 03       		.uleb128 0x3
 3755 0315 0E       		.uleb128 0xe
 3756 0316 3A       		.uleb128 0x3a
 3757 0317 0B       		.uleb128 0xb
 3758 0318 3B       		.uleb128 0x3b
 3759 0319 0B       		.uleb128 0xb
 3760 031a 00       		.byte	0
 3761 031b 00       		.byte	0
 3762 031c 3B       		.uleb128 0x3b
 3763 031d 2E       		.uleb128 0x2e
 3764 031e 00       		.byte	0
 3765 031f 3F       		.uleb128 0x3f
 3766 0320 19       		.uleb128 0x19
 3767 0321 3C       		.uleb128 0x3c
 3768 0322 19       		.uleb128 0x19
 3769 0323 6E       		.uleb128 0x6e
 3770 0324 0E       		.uleb128 0xe
 3771 0325 03       		.uleb128 0x3
 3772 0326 0E       		.uleb128 0xe
 3773 0327 00       		.byte	0
ARM GAS  C:\Users\RABBIT~1\AppData\Local\Temp\ccavO8bx.s 			page 104


 3774 0328 00       		.byte	0
 3775 0329 00       		.byte	0
 3776              		.section	.debug_loc,"",%progbits
 3777              	.Ldebug_loc0:
 3778              	.LLST0:
 3779 0000 00000000 		.4byte	.LVL1
 3780 0004 04000000 		.4byte	.LVL2
 3781 0008 0100     		.2byte	0x1
 3782 000a 50       		.byte	0x50
 3783 000b 04000000 		.4byte	.LVL2
 3784 000f 14000000 		.4byte	.LFE57
 3785 0013 0400     		.2byte	0x4
 3786 0015 F3       		.byte	0xf3
 3787 0016 01       		.uleb128 0x1
 3788 0017 50       		.byte	0x50
 3789 0018 9F       		.byte	0x9f
 3790 0019 00000000 		.4byte	0
 3791 001d 00000000 		.4byte	0
 3792              	.LLST1:
 3793 0021 00000000 		.4byte	.LVL1
 3794 0025 04000000 		.4byte	.LVL2
 3795 0029 0100     		.2byte	0x1
 3796 002b 51       		.byte	0x51
 3797 002c 04000000 		.4byte	.LVL2
 3798 0030 14000000 		.4byte	.LFE57
 3799 0034 0400     		.2byte	0x4
 3800 0036 F3       		.byte	0xf3
 3801 0037 01       		.uleb128 0x1
 3802 0038 51       		.byte	0x51
 3803 0039 9F       		.byte	0x9f
 3804 003a 00000000 		.4byte	0
 3805 003e 00000000 		.4byte	0
 3806              	.LLST2:
 3807 0042 00000000 		.4byte	.LVL1
 3808 0046 08000000 		.4byte	.LVL3
 3809 004a 0100     		.2byte	0x1
 3810 004c 52       		.byte	0x52
 3811 004d 08000000 		.4byte	.LVL3
 3812 0051 14000000 		.4byte	.LFE57
 3813 0055 0100     		.2byte	0x1
 3814 0057 52       		.byte	0x52
 3815 0058 00000000 		.4byte	0
 3816 005c 00000000 		.4byte	0
 3817              	.LLST3:
 3818 0060 00000000 		.4byte	.LVL1
 3819 0064 04000000 		.4byte	.LVL2
 3820 0068 0200     		.2byte	0x2
 3821 006a 30       		.byte	0x30
 3822 006b 9F       		.byte	0x9f
 3823 006c 04000000 		.4byte	.LVL2
 3824 0070 0C000000 		.4byte	.LVL4
 3825 0074 0100     		.2byte	0x1
 3826 0076 53       		.byte	0x53
 3827 0077 0E000000 		.4byte	.LVL5
 3828 007b 14000000 		.4byte	.LFE57
 3829 007f 0100     		.2byte	0x1
 3830 0081 53       		.byte	0x53
ARM GAS  C:\Users\RABBIT~1\AppData\Local\Temp\ccavO8bx.s 			page 105


 3831 0082 00000000 		.4byte	0
 3832 0086 00000000 		.4byte	0
 3833              	.LLST4:
 3834 008a 00000000 		.4byte	.LVL6
 3835 008e 18000000 		.4byte	.LVL7
 3836 0092 0100     		.2byte	0x1
 3837 0094 50       		.byte	0x50
 3838 0095 18000000 		.4byte	.LVL7
 3839 0099 2C000000 		.4byte	.LVL10
 3840 009d 0100     		.2byte	0x1
 3841 009f 53       		.byte	0x53
 3842 00a0 2C000000 		.4byte	.LVL10
 3843 00a4 3A000000 		.4byte	.LFE66
 3844 00a8 0400     		.2byte	0x4
 3845 00aa F3       		.byte	0xf3
 3846 00ab 01       		.uleb128 0x1
 3847 00ac 50       		.byte	0x50
 3848 00ad 9F       		.byte	0x9f
 3849 00ae 00000000 		.4byte	0
 3850 00b2 00000000 		.4byte	0
 3851              	.LLST5:
 3852 00b6 00000000 		.4byte	.LVL6
 3853 00ba 1C000000 		.4byte	.LVL8
 3854 00be 0100     		.2byte	0x1
 3855 00c0 51       		.byte	0x51
 3856 00c1 1C000000 		.4byte	.LVL8
 3857 00c5 3A000000 		.4byte	.LFE66
 3858 00c9 0400     		.2byte	0x4
 3859 00cb F3       		.byte	0xf3
 3860 00cc 01       		.uleb128 0x1
 3861 00cd 51       		.byte	0x51
 3862 00ce 9F       		.byte	0x9f
 3863 00cf 00000000 		.4byte	0
 3864 00d3 00000000 		.4byte	0
 3865              	.LLST6:
 3866 00d7 00000000 		.4byte	.LVL6
 3867 00db 18000000 		.4byte	.LVL7
 3868 00df 0100     		.2byte	0x1
 3869 00e1 50       		.byte	0x50
 3870 00e2 18000000 		.4byte	.LVL7
 3871 00e6 2C000000 		.4byte	.LVL10
 3872 00ea 0100     		.2byte	0x1
 3873 00ec 53       		.byte	0x53
 3874 00ed 2C000000 		.4byte	.LVL10
 3875 00f1 3A000000 		.4byte	.LFE66
 3876 00f5 0400     		.2byte	0x4
 3877 00f7 F3       		.byte	0xf3
 3878 00f8 01       		.uleb128 0x1
 3879 00f9 50       		.byte	0x50
 3880 00fa 9F       		.byte	0x9f
 3881 00fb 00000000 		.4byte	0
 3882 00ff 00000000 		.4byte	0
 3883              	.LLST7:
 3884 0103 18000000 		.4byte	.LVL7
 3885 0107 31000000 		.4byte	.LVL11-1
 3886 010b 0100     		.2byte	0x1
 3887 010d 50       		.byte	0x50
ARM GAS  C:\Users\RABBIT~1\AppData\Local\Temp\ccavO8bx.s 			page 106


 3888 010e 31000000 		.4byte	.LVL11-1
 3889 0112 3A000000 		.4byte	.LFE66
 3890 0116 0A00     		.2byte	0xa
 3891 0118 F3       		.byte	0xf3
 3892 0119 01       		.uleb128 0x1
 3893 011a 50       		.byte	0x50
 3894 011b 09       		.byte	0x9
 3895 011c EC       		.byte	0xec
 3896 011d 24       		.byte	0x24
 3897 011e 09       		.byte	0x9
 3898 011f FC       		.byte	0xfc
 3899 0120 25       		.byte	0x25
 3900 0121 9F       		.byte	0x9f
 3901 0122 00000000 		.4byte	0
 3902 0126 00000000 		.4byte	0
 3903              	.LLST8:
 3904 012a 1C000000 		.4byte	.LVL8
 3905 012e 31000000 		.4byte	.LVL11-1
 3906 0132 0100     		.2byte	0x1
 3907 0134 51       		.byte	0x51
 3908 0135 31000000 		.4byte	.LVL11-1
 3909 0139 3A000000 		.4byte	.LFE66
 3910 013d 0A00     		.2byte	0xa
 3911 013f F3       		.byte	0xf3
 3912 0140 01       		.uleb128 0x1
 3913 0141 50       		.byte	0x50
 3914 0142 09       		.byte	0x9
 3915 0143 F4       		.byte	0xf4
 3916 0144 24       		.byte	0x24
 3917 0145 09       		.byte	0x9
 3918 0146 FC       		.byte	0xfc
 3919 0147 25       		.byte	0x25
 3920 0148 9F       		.byte	0x9f
 3921 0149 00000000 		.4byte	0
 3922 014d 00000000 		.4byte	0
 3923              	.LLST9:
 3924 0151 1C000000 		.4byte	.LVL8
 3925 0155 1E000000 		.4byte	.LVL9
 3926 0159 0100     		.2byte	0x1
 3927 015b 54       		.byte	0x54
 3928 015c 1E000000 		.4byte	.LVL9
 3929 0160 3A000000 		.4byte	.LFE66
 3930 0164 0400     		.2byte	0x4
 3931 0166 77       		.byte	0x77
 3932 0167 817E     		.sleb128 -255
 3933 0169 9F       		.byte	0x9f
 3934 016a 00000000 		.4byte	0
 3935 016e 00000000 		.4byte	0
 3936              	.LLST10:
 3937 0172 1C000000 		.4byte	.LVL8
 3938 0176 1E000000 		.4byte	.LVL9
 3939 017a 0200     		.2byte	0x2
 3940 017c 30       		.byte	0x30
 3941 017d 9F       		.byte	0x9f
 3942 017e 00000000 		.4byte	0
 3943 0182 00000000 		.4byte	0
 3944              	.LLST11:
ARM GAS  C:\Users\RABBIT~1\AppData\Local\Temp\ccavO8bx.s 			page 107


 3945 0186 00000000 		.4byte	.LVL13
 3946 018a 02000000 		.4byte	.LVL14
 3947 018e 0100     		.2byte	0x1
 3948 0190 50       		.byte	0x50
 3949 0191 02000000 		.4byte	.LVL14
 3950 0195 B4000000 		.4byte	.LFE67
 3951 0199 0400     		.2byte	0x4
 3952 019b F3       		.byte	0xf3
 3953 019c 01       		.uleb128 0x1
 3954 019d 50       		.byte	0x50
 3955 019e 9F       		.byte	0x9f
 3956 019f 00000000 		.4byte	0
 3957 01a3 00000000 		.4byte	0
 3958              	.LLST12:
 3959 01a7 00000000 		.4byte	.LVL13
 3960 01ab 16000000 		.4byte	.LVL15
 3961 01af 0100     		.2byte	0x1
 3962 01b1 51       		.byte	0x51
 3963 01b2 16000000 		.4byte	.LVL15
 3964 01b6 20000000 		.4byte	.LVL17
 3965 01ba 0400     		.2byte	0x4
 3966 01bc F3       		.byte	0xf3
 3967 01bd 01       		.uleb128 0x1
 3968 01be 51       		.byte	0x51
 3969 01bf 9F       		.byte	0x9f
 3970 01c0 20000000 		.4byte	.LVL17
 3971 01c4 22000000 		.4byte	.LVL18
 3972 01c8 0100     		.2byte	0x1
 3973 01ca 51       		.byte	0x51
 3974 01cb 22000000 		.4byte	.LVL18
 3975 01cf 2C000000 		.4byte	.LVL20
 3976 01d3 0400     		.2byte	0x4
 3977 01d5 F3       		.byte	0xf3
 3978 01d6 01       		.uleb128 0x1
 3979 01d7 51       		.byte	0x51
 3980 01d8 9F       		.byte	0x9f
 3981 01d9 2C000000 		.4byte	.LVL20
 3982 01dd 2E000000 		.4byte	.LVL21
 3983 01e1 0100     		.2byte	0x1
 3984 01e3 51       		.byte	0x51
 3985 01e4 2E000000 		.4byte	.LVL21
 3986 01e8 38000000 		.4byte	.LVL23
 3987 01ec 0400     		.2byte	0x4
 3988 01ee F3       		.byte	0xf3
 3989 01ef 01       		.uleb128 0x1
 3990 01f0 51       		.byte	0x51
 3991 01f1 9F       		.byte	0x9f
 3992 01f2 38000000 		.4byte	.LVL23
 3993 01f6 3A000000 		.4byte	.LVL24
 3994 01fa 0100     		.2byte	0x1
 3995 01fc 51       		.byte	0x51
 3996 01fd 3A000000 		.4byte	.LVL24
 3997 0201 44000000 		.4byte	.LVL26
 3998 0205 0400     		.2byte	0x4
 3999 0207 F3       		.byte	0xf3
 4000 0208 01       		.uleb128 0x1
 4001 0209 51       		.byte	0x51
ARM GAS  C:\Users\RABBIT~1\AppData\Local\Temp\ccavO8bx.s 			page 108


 4002 020a 9F       		.byte	0x9f
 4003 020b 44000000 		.4byte	.LVL26
 4004 020f 46000000 		.4byte	.LVL27
 4005 0213 0100     		.2byte	0x1
 4006 0215 51       		.byte	0x51
 4007 0216 46000000 		.4byte	.LVL27
 4008 021a 50000000 		.4byte	.LVL29
 4009 021e 0400     		.2byte	0x4
 4010 0220 F3       		.byte	0xf3
 4011 0221 01       		.uleb128 0x1
 4012 0222 51       		.byte	0x51
 4013 0223 9F       		.byte	0x9f
 4014 0224 50000000 		.4byte	.LVL29
 4015 0228 52000000 		.4byte	.LVL30
 4016 022c 0100     		.2byte	0x1
 4017 022e 51       		.byte	0x51
 4018 022f 52000000 		.4byte	.LVL30
 4019 0233 5C000000 		.4byte	.LVL32
 4020 0237 0400     		.2byte	0x4
 4021 0239 F3       		.byte	0xf3
 4022 023a 01       		.uleb128 0x1
 4023 023b 51       		.byte	0x51
 4024 023c 9F       		.byte	0x9f
 4025 023d 5C000000 		.4byte	.LVL32
 4026 0241 5E000000 		.4byte	.LVL33
 4027 0245 0100     		.2byte	0x1
 4028 0247 51       		.byte	0x51
 4029 0248 5E000000 		.4byte	.LVL33
 4030 024c 68000000 		.4byte	.LVL35
 4031 0250 0400     		.2byte	0x4
 4032 0252 F3       		.byte	0xf3
 4033 0253 01       		.uleb128 0x1
 4034 0254 51       		.byte	0x51
 4035 0255 9F       		.byte	0x9f
 4036 0256 68000000 		.4byte	.LVL35
 4037 025a 6A000000 		.4byte	.LVL36
 4038 025e 0100     		.2byte	0x1
 4039 0260 51       		.byte	0x51
 4040 0261 6A000000 		.4byte	.LVL36
 4041 0265 74000000 		.4byte	.LVL38
 4042 0269 0400     		.2byte	0x4
 4043 026b F3       		.byte	0xf3
 4044 026c 01       		.uleb128 0x1
 4045 026d 51       		.byte	0x51
 4046 026e 9F       		.byte	0x9f
 4047 026f 74000000 		.4byte	.LVL38
 4048 0273 76000000 		.4byte	.LVL39
 4049 0277 0100     		.2byte	0x1
 4050 0279 51       		.byte	0x51
 4051 027a 76000000 		.4byte	.LVL39
 4052 027e 80000000 		.4byte	.LVL41
 4053 0282 0400     		.2byte	0x4
 4054 0284 F3       		.byte	0xf3
 4055 0285 01       		.uleb128 0x1
 4056 0286 51       		.byte	0x51
 4057 0287 9F       		.byte	0x9f
 4058 0288 80000000 		.4byte	.LVL41
ARM GAS  C:\Users\RABBIT~1\AppData\Local\Temp\ccavO8bx.s 			page 109


 4059 028c 82000000 		.4byte	.LVL42
 4060 0290 0100     		.2byte	0x1
 4061 0292 51       		.byte	0x51
 4062 0293 82000000 		.4byte	.LVL42
 4063 0297 8C000000 		.4byte	.LVL44
 4064 029b 0400     		.2byte	0x4
 4065 029d F3       		.byte	0xf3
 4066 029e 01       		.uleb128 0x1
 4067 029f 51       		.byte	0x51
 4068 02a0 9F       		.byte	0x9f
 4069 02a1 8C000000 		.4byte	.LVL44
 4070 02a5 8E000000 		.4byte	.LVL45
 4071 02a9 0100     		.2byte	0x1
 4072 02ab 51       		.byte	0x51
 4073 02ac 8E000000 		.4byte	.LVL45
 4074 02b0 B4000000 		.4byte	.LFE67
 4075 02b4 0400     		.2byte	0x4
 4076 02b6 F3       		.byte	0xf3
 4077 02b7 01       		.uleb128 0x1
 4078 02b8 51       		.byte	0x51
 4079 02b9 9F       		.byte	0x9f
 4080 02ba 00000000 		.4byte	0
 4081 02be 00000000 		.4byte	0
 4082              	.LLST13:
 4083 02c2 1E000000 		.4byte	.LVL16
 4084 02c6 20000000 		.4byte	.LVL17
 4085 02ca 0100     		.2byte	0x1
 4086 02cc 51       		.byte	0x51
 4087 02cd 2A000000 		.4byte	.LVL19
 4088 02d1 2C000000 		.4byte	.LVL20
 4089 02d5 0100     		.2byte	0x1
 4090 02d7 51       		.byte	0x51
 4091 02d8 36000000 		.4byte	.LVL22
 4092 02dc 38000000 		.4byte	.LVL23
 4093 02e0 0100     		.2byte	0x1
 4094 02e2 51       		.byte	0x51
 4095 02e3 42000000 		.4byte	.LVL25
 4096 02e7 44000000 		.4byte	.LVL26
 4097 02eb 0100     		.2byte	0x1
 4098 02ed 51       		.byte	0x51
 4099 02ee 4E000000 		.4byte	.LVL28
 4100 02f2 50000000 		.4byte	.LVL29
 4101 02f6 0100     		.2byte	0x1
 4102 02f8 51       		.byte	0x51
 4103 02f9 5A000000 		.4byte	.LVL31
 4104 02fd 5C000000 		.4byte	.LVL32
 4105 0301 0100     		.2byte	0x1
 4106 0303 51       		.byte	0x51
 4107 0304 66000000 		.4byte	.LVL34
 4108 0308 68000000 		.4byte	.LVL35
 4109 030c 0100     		.2byte	0x1
 4110 030e 51       		.byte	0x51
 4111 030f 72000000 		.4byte	.LVL37
 4112 0313 74000000 		.4byte	.LVL38
 4113 0317 0100     		.2byte	0x1
 4114 0319 51       		.byte	0x51
 4115 031a 7E000000 		.4byte	.LVL40
ARM GAS  C:\Users\RABBIT~1\AppData\Local\Temp\ccavO8bx.s 			page 110


 4116 031e 80000000 		.4byte	.LVL41
 4117 0322 0100     		.2byte	0x1
 4118 0324 51       		.byte	0x51
 4119 0325 8A000000 		.4byte	.LVL43
 4120 0329 8C000000 		.4byte	.LVL44
 4121 032d 0100     		.2byte	0x1
 4122 032f 51       		.byte	0x51
 4123 0330 8E000000 		.4byte	.LVL45
 4124 0334 B4000000 		.4byte	.LFE67
 4125 0338 0100     		.2byte	0x1
 4126 033a 51       		.byte	0x51
 4127 033b 00000000 		.4byte	0
 4128 033f 00000000 		.4byte	0
 4129              	.LLST14:
 4130 0343 00000000 		.4byte	.LVL13
 4131 0347 1E000000 		.4byte	.LVL16
 4132 034b 0200     		.2byte	0x2
 4133 034d 32       		.byte	0x32
 4134 034e 9F       		.byte	0x9f
 4135 034f 1E000000 		.4byte	.LVL16
 4136 0353 20000000 		.4byte	.LVL17
 4137 0357 0200     		.2byte	0x2
 4138 0359 31       		.byte	0x31
 4139 035a 9F       		.byte	0x9f
 4140 035b 20000000 		.4byte	.LVL17
 4141 035f 2A000000 		.4byte	.LVL19
 4142 0363 0200     		.2byte	0x2
 4143 0365 32       		.byte	0x32
 4144 0366 9F       		.byte	0x9f
 4145 0367 2A000000 		.4byte	.LVL19
 4146 036b 2C000000 		.4byte	.LVL20
 4147 036f 0200     		.2byte	0x2
 4148 0371 34       		.byte	0x34
 4149 0372 9F       		.byte	0x9f
 4150 0373 2C000000 		.4byte	.LVL20
 4151 0377 42000000 		.4byte	.LVL25
 4152 037b 0200     		.2byte	0x2
 4153 037d 32       		.byte	0x32
 4154 037e 9F       		.byte	0x9f
 4155 037f 42000000 		.4byte	.LVL25
 4156 0383 44000000 		.4byte	.LVL26
 4157 0387 0200     		.2byte	0x2
 4158 0389 34       		.byte	0x34
 4159 038a 9F       		.byte	0x9f
 4160 038b 44000000 		.4byte	.LVL26
 4161 038f 4E000000 		.4byte	.LVL28
 4162 0393 0200     		.2byte	0x2
 4163 0395 32       		.byte	0x32
 4164 0396 9F       		.byte	0x9f
 4165 0397 4E000000 		.4byte	.LVL28
 4166 039b 50000000 		.4byte	.LVL29
 4167 039f 0200     		.2byte	0x2
 4168 03a1 31       		.byte	0x31
 4169 03a2 9F       		.byte	0x9f
 4170 03a3 50000000 		.4byte	.LVL29
 4171 03a7 5A000000 		.4byte	.LVL31
 4172 03ab 0200     		.2byte	0x2
ARM GAS  C:\Users\RABBIT~1\AppData\Local\Temp\ccavO8bx.s 			page 111


 4173 03ad 32       		.byte	0x32
 4174 03ae 9F       		.byte	0x9f
 4175 03af 5A000000 		.4byte	.LVL31
 4176 03b3 5C000000 		.4byte	.LVL32
 4177 03b7 0200     		.2byte	0x2
 4178 03b9 31       		.byte	0x31
 4179 03ba 9F       		.byte	0x9f
 4180 03bb 5C000000 		.4byte	.LVL32
 4181 03bf 8A000000 		.4byte	.LVL43
 4182 03c3 0200     		.2byte	0x2
 4183 03c5 32       		.byte	0x32
 4184 03c6 9F       		.byte	0x9f
 4185 03c7 8A000000 		.4byte	.LVL43
 4186 03cb 8C000000 		.4byte	.LVL44
 4187 03cf 0200     		.2byte	0x2
 4188 03d1 34       		.byte	0x34
 4189 03d2 9F       		.byte	0x9f
 4190 03d3 8C000000 		.4byte	.LVL44
 4191 03d7 98000000 		.4byte	.LVL48
 4192 03db 0200     		.2byte	0x2
 4193 03dd 32       		.byte	0x32
 4194 03de 9F       		.byte	0x9f
 4195 03df 98000000 		.4byte	.LVL48
 4196 03e3 9E000000 		.4byte	.LVL50
 4197 03e7 0200     		.2byte	0x2
 4198 03e9 31       		.byte	0x31
 4199 03ea 9F       		.byte	0x9f
 4200 03eb 9E000000 		.4byte	.LVL50
 4201 03ef B4000000 		.4byte	.LFE67
 4202 03f3 0200     		.2byte	0x2
 4203 03f5 34       		.byte	0x34
 4204 03f6 9F       		.byte	0x9f
 4205 03f7 00000000 		.4byte	0
 4206 03fb 00000000 		.4byte	0
 4207              	.LLST15:
 4208 03ff 00000000 		.4byte	.LVL13
 4209 0403 90000000 		.4byte	.LVL46
 4210 0407 0200     		.2byte	0x2
 4211 0409 30       		.byte	0x30
 4212 040a 9F       		.byte	0x9f
 4213 040b 90000000 		.4byte	.LVL46
 4214 040f 96000000 		.4byte	.LVL47
 4215 0413 0100     		.2byte	0x1
 4216 0415 53       		.byte	0x53
 4217 0416 96000000 		.4byte	.LVL47
 4218 041a 98000000 		.4byte	.LVL48
 4219 041e 0100     		.2byte	0x1
 4220 0420 50       		.byte	0x50
 4221 0421 98000000 		.4byte	.LVL48
 4222 0425 9C000000 		.4byte	.LVL49
 4223 0429 0200     		.2byte	0x2
 4224 042b 30       		.byte	0x30
 4225 042c 9F       		.byte	0x9f
 4226 042d 9C000000 		.4byte	.LVL49
 4227 0431 9E000000 		.4byte	.LVL50
 4228 0435 0100     		.2byte	0x1
 4229 0437 50       		.byte	0x50
ARM GAS  C:\Users\RABBIT~1\AppData\Local\Temp\ccavO8bx.s 			page 112


 4230 0438 9E000000 		.4byte	.LVL50
 4231 043c A0000000 		.4byte	.LVL51
 4232 0440 0200     		.2byte	0x2
 4233 0442 30       		.byte	0x30
 4234 0443 9F       		.byte	0x9f
 4235 0444 A0000000 		.4byte	.LVL51
 4236 0448 A2000000 		.4byte	.LVL52
 4237 044c 0100     		.2byte	0x1
 4238 044e 53       		.byte	0x53
 4239 044f A2000000 		.4byte	.LVL52
 4240 0453 AC000000 		.4byte	.LVL53
 4241 0457 0800     		.2byte	0x8
 4242 0459 72       		.byte	0x72
 4243 045a 00       		.sleb128 0
 4244 045b 38       		.byte	0x38
 4245 045c 24       		.byte	0x24
 4246 045d 73       		.byte	0x73
 4247 045e 00       		.sleb128 0
 4248 045f 21       		.byte	0x21
 4249 0460 9F       		.byte	0x9f
 4250 0461 AC000000 		.4byte	.LVL53
 4251 0465 B4000000 		.4byte	.LFE67
 4252 0469 0100     		.2byte	0x1
 4253 046b 50       		.byte	0x50
 4254 046c 00000000 		.4byte	0
 4255 0470 00000000 		.4byte	0
 4256              	.LLST16:
 4257 0474 00000000 		.4byte	.LVL58
 4258 0478 08000000 		.4byte	.LVL59
 4259 047c 0100     		.2byte	0x1
 4260 047e 50       		.byte	0x50
 4261 047f 08000000 		.4byte	.LVL59
 4262 0483 B0000000 		.4byte	.LFE63
 4263 0487 0400     		.2byte	0x4
 4264 0489 F3       		.byte	0xf3
 4265 048a 01       		.uleb128 0x1
 4266 048b 50       		.byte	0x50
 4267 048c 9F       		.byte	0x9f
 4268 048d 00000000 		.4byte	0
 4269 0491 00000000 		.4byte	0
 4270              	.LLST17:
 4271 0495 3A000000 		.4byte	.LVL68
 4272 0499 42000000 		.4byte	.LVL69
 4273 049d 0100     		.2byte	0x1
 4274 049f 50       		.byte	0x50
 4275 04a0 42000000 		.4byte	.LVL69
 4276 04a4 50000000 		.4byte	.LVL72
 4277 04a8 0300     		.2byte	0x3
 4278 04aa 70       		.byte	0x70
 4279 04ab 7F       		.sleb128 -1
 4280 04ac 9F       		.byte	0x9f
 4281 04ad 50000000 		.4byte	.LVL72
 4282 04b1 56000000 		.4byte	.LVL74
 4283 04b5 0100     		.2byte	0x1
 4284 04b7 50       		.byte	0x50
 4285 04b8 68000000 		.4byte	.LVL76
 4286 04bc 7C000000 		.4byte	.LVL78
ARM GAS  C:\Users\RABBIT~1\AppData\Local\Temp\ccavO8bx.s 			page 113


 4287 04c0 0100     		.2byte	0x1
 4288 04c2 50       		.byte	0x50
 4289 04c3 7C000000 		.4byte	.LVL78
 4290 04c7 80000000 		.4byte	.LVL80
 4291 04cb 0300     		.2byte	0x3
 4292 04cd 70       		.byte	0x70
 4293 04ce 7F       		.sleb128 -1
 4294 04cf 9F       		.byte	0x9f
 4295 04d0 80000000 		.4byte	.LVL80
 4296 04d4 86000000 		.4byte	.LVL82
 4297 04d8 0100     		.2byte	0x1
 4298 04da 50       		.byte	0x50
 4299 04db 00000000 		.4byte	0
 4300 04df 00000000 		.4byte	0
 4301              	.LLST18:
 4302 04e3 1A000000 		.4byte	.LVL62
 4303 04e7 1C000000 		.4byte	.LVL63
 4304 04eb 0800     		.2byte	0x8
 4305 04ed 74       		.byte	0x74
 4306 04ee 01       		.sleb128 1
 4307 04ef 38       		.byte	0x38
 4308 04f0 24       		.byte	0x24
 4309 04f1 70       		.byte	0x70
 4310 04f2 00       		.sleb128 0
 4311 04f3 22       		.byte	0x22
 4312 04f4 9F       		.byte	0x9f
 4313 04f5 1C000000 		.4byte	.LVL63
 4314 04f9 2A000000 		.4byte	.LVL65
 4315 04fd 0800     		.2byte	0x8
 4316 04ff 74       		.byte	0x74
 4317 0500 01       		.sleb128 1
 4318 0501 38       		.byte	0x38
 4319 0502 24       		.byte	0x24
 4320 0503 76       		.byte	0x76
 4321 0504 00       		.sleb128 0
 4322 0505 22       		.byte	0x22
 4323 0506 9F       		.byte	0x9f
 4324 0507 2A000000 		.4byte	.LVL65
 4325 050b 32000000 		.4byte	.LVL67
 4326 050f 0800     		.2byte	0x8
 4327 0511 74       		.byte	0x74
 4328 0512 00       		.sleb128 0
 4329 0513 38       		.byte	0x38
 4330 0514 24       		.byte	0x24
 4331 0515 76       		.byte	0x76
 4332 0516 00       		.sleb128 0
 4333 0517 22       		.byte	0x22
 4334 0518 9F       		.byte	0x9f
 4335 0519 70000000 		.4byte	.LVL77
 4336 051d A4000000 		.4byte	.LVL85
 4337 0521 0100     		.2byte	0x1
 4338 0523 56       		.byte	0x56
 4339 0524 A8000000 		.4byte	.LVL86
 4340 0528 AC000000 		.4byte	.LVL87
 4341 052c 0100     		.2byte	0x1
 4342 052e 56       		.byte	0x56
 4343 052f 00000000 		.4byte	0
ARM GAS  C:\Users\RABBIT~1\AppData\Local\Temp\ccavO8bx.s 			page 114


 4344 0533 00000000 		.4byte	0
 4345              	.LLST19:
 4346 0537 1A000000 		.4byte	.LVL62
 4347 053b 3A000000 		.4byte	.LVL68
 4348 053f 0200     		.2byte	0x2
 4349 0541 30       		.byte	0x30
 4350 0542 9F       		.byte	0x9f
 4351 0543 3A000000 		.4byte	.LVL68
 4352 0547 A4000000 		.4byte	.LVL85
 4353 054b 0100     		.2byte	0x1
 4354 054d 57       		.byte	0x57
 4355 054e A8000000 		.4byte	.LVL86
 4356 0552 AC000000 		.4byte	.LVL87
 4357 0556 0100     		.2byte	0x1
 4358 0558 57       		.byte	0x57
 4359 0559 00000000 		.4byte	0
 4360 055d 00000000 		.4byte	0
 4361              	.LLST20:
 4362 0561 1A000000 		.4byte	.LVL62
 4363 0565 3A000000 		.4byte	.LVL68
 4364 0569 0200     		.2byte	0x2
 4365 056b 30       		.byte	0x30
 4366 056c 9F       		.byte	0x9f
 4367 056d 3A000000 		.4byte	.LVL68
 4368 0571 4A000000 		.4byte	.LVL70
 4369 0575 0100     		.2byte	0x1
 4370 0577 54       		.byte	0x54
 4371 0578 50000000 		.4byte	.LVL72
 4372 057c 7E000000 		.4byte	.LVL79
 4373 0580 0100     		.2byte	0x1
 4374 0582 54       		.byte	0x54
 4375 0583 80000000 		.4byte	.LVL80
 4376 0587 82000000 		.4byte	.LVL81
 4377 058b 0100     		.2byte	0x1
 4378 058d 54       		.byte	0x54
 4379 058e 82000000 		.4byte	.LVL81
 4380 0592 8C000000 		.4byte	.LVL84
 4381 0596 0400     		.2byte	0x4
 4382 0598 74       		.byte	0x74
 4383 0599 00       		.sleb128 0
 4384 059a 1F       		.byte	0x1f
 4385 059b 9F       		.byte	0x9f
 4386 059c 00000000 		.4byte	0
 4387 05a0 00000000 		.4byte	0
 4388              	.LLST21:
 4389 05a4 42000000 		.4byte	.LVL69
 4390 05a8 52000000 		.4byte	.LVL73
 4391 05ac 0100     		.2byte	0x1
 4392 05ae 53       		.byte	0x53
 4393 05af 00000000 		.4byte	0
 4394 05b3 00000000 		.4byte	0
 4395              	.LLST22:
 4396 05b7 00000000 		.4byte	.LVL88
 4397 05bb 0D000000 		.4byte	.LVL89-1
 4398 05bf 0100     		.2byte	0x1
 4399 05c1 50       		.byte	0x50
 4400 05c2 0D000000 		.4byte	.LVL89-1
ARM GAS  C:\Users\RABBIT~1\AppData\Local\Temp\ccavO8bx.s 			page 115


 4401 05c6 34000000 		.4byte	.LFE60
 4402 05ca 0400     		.2byte	0x4
 4403 05cc F3       		.byte	0xf3
 4404 05cd 01       		.uleb128 0x1
 4405 05ce 50       		.byte	0x50
 4406 05cf 9F       		.byte	0x9f
 4407 05d0 00000000 		.4byte	0
 4408 05d4 00000000 		.4byte	0
 4409              	.LLST23:
 4410 05d8 10000000 		.4byte	.LVL90
 4411 05dc 1C000000 		.4byte	.LVL91
 4412 05e0 0200     		.2byte	0x2
 4413 05e2 30       		.byte	0x30
 4414 05e3 9F       		.byte	0x9f
 4415 05e4 1C000000 		.4byte	.LVL91
 4416 05e8 20000000 		.4byte	.LVL92
 4417 05ec 0200     		.2byte	0x2
 4418 05ee 31       		.byte	0x31
 4419 05ef 9F       		.byte	0x9f
 4420 05f0 00000000 		.4byte	0
 4421 05f4 00000000 		.4byte	0
 4422              	.LLST24:
 4423 05f8 7C000000 		.4byte	.LVL108
 4424 05fc C4000000 		.4byte	.LVL119
 4425 0600 0100     		.2byte	0x1
 4426 0602 51       		.byte	0x51
 4427 0603 C4000000 		.4byte	.LVL119
 4428 0607 CA000000 		.4byte	.LVL120
 4429 060b 0300     		.2byte	0x3
 4430 060d 91       		.byte	0x91
 4431 060e F678     		.sleb128 -906
 4432 0610 CA000000 		.4byte	.LVL120
 4433 0614 D1000000 		.4byte	.LVL122-1
 4434 0618 0200     		.2byte	0x2
 4435 061a 72       		.byte	0x72
 4436 061b 00       		.sleb128 0
 4437 061c D8000000 		.4byte	.LVL125
 4438 0620 DA000000 		.4byte	.LVL126
 4439 0624 0200     		.2byte	0x2
 4440 0626 30       		.byte	0x30
 4441 0627 9F       		.byte	0x9f
 4442 0628 DE000000 		.4byte	.LVL127
 4443 062c 38010000 		.4byte	.LVL130
 4444 0630 0200     		.2byte	0x2
 4445 0632 30       		.byte	0x30
 4446 0633 9F       		.byte	0x9f
 4447 0634 38010000 		.4byte	.LVL130
 4448 0638 3C010000 		.4byte	.LVL131
 4449 063c 0200     		.2byte	0x2
 4450 063e 31       		.byte	0x31
 4451 063f 9F       		.byte	0x9f
 4452 0640 3C010000 		.4byte	.LVL131
 4453 0644 7C010000 		.4byte	.LVL138
 4454 0648 0200     		.2byte	0x2
 4455 064a 30       		.byte	0x30
 4456 064b 9F       		.byte	0x9f
 4457 064c 7C010000 		.4byte	.LVL138
ARM GAS  C:\Users\RABBIT~1\AppData\Local\Temp\ccavO8bx.s 			page 116


 4458 0650 80010000 		.4byte	.LVL139
 4459 0654 0200     		.2byte	0x2
 4460 0656 34       		.byte	0x34
 4461 0657 9F       		.byte	0x9f
 4462 0658 80010000 		.4byte	.LVL139
 4463 065c 88020000 		.4byte	.LVL172
 4464 0660 0200     		.2byte	0x2
 4465 0662 30       		.byte	0x30
 4466 0663 9F       		.byte	0x9f
 4467 0664 88020000 		.4byte	.LVL172
 4468 0668 92020000 		.4byte	.LVL174
 4469 066c 0200     		.2byte	0x2
 4470 066e 38       		.byte	0x38
 4471 066f 9F       		.byte	0x9f
 4472 0670 92020000 		.4byte	.LVL174
 4473 0674 1A030000 		.4byte	.LVL196
 4474 0678 0200     		.2byte	0x2
 4475 067a 30       		.byte	0x30
 4476 067b 9F       		.byte	0x9f
 4477 067c 1A030000 		.4byte	.LVL196
 4478 0680 20030000 		.4byte	.LVL197
 4479 0684 0200     		.2byte	0x2
 4480 0686 31       		.byte	0x31
 4481 0687 9F       		.byte	0x9f
 4482 0688 20030000 		.4byte	.LVL197
 4483 068c 5C030000 		.4byte	.LFE68
 4484 0690 0200     		.2byte	0x2
 4485 0692 30       		.byte	0x30
 4486 0693 9F       		.byte	0x9f
 4487 0694 00000000 		.4byte	0
 4488 0698 00000000 		.4byte	0
 4489              	.LLST25:
 4490 069c 7C000000 		.4byte	.LVL108
 4491 06a0 9C000000 		.4byte	.LVL111
 4492 06a4 0100     		.2byte	0x1
 4493 06a6 54       		.byte	0x54
 4494 06a7 9C000000 		.4byte	.LVL111
 4495 06ab B2000000 		.4byte	.LVL118
 4496 06af 0300     		.2byte	0x3
 4497 06b1 91       		.byte	0x91
 4498 06b2 997B     		.sleb128 -615
 4499 06b4 D8000000 		.4byte	.LVL125
 4500 06b8 DA000000 		.4byte	.LVL126
 4501 06bc 0200     		.2byte	0x2
 4502 06be 34       		.byte	0x34
 4503 06bf 9F       		.byte	0x9f
 4504 06c0 DE000000 		.4byte	.LVL127
 4505 06c4 E6000000 		.4byte	.LVL128
 4506 06c8 0200     		.2byte	0x2
 4507 06ca 30       		.byte	0x30
 4508 06cb 9F       		.byte	0x9f
 4509 06cc E6000000 		.4byte	.LVL128
 4510 06d0 38010000 		.4byte	.LVL130
 4511 06d4 0200     		.2byte	0x2
 4512 06d6 34       		.byte	0x34
 4513 06d7 9F       		.byte	0x9f
 4514 06d8 38010000 		.4byte	.LVL130
ARM GAS  C:\Users\RABBIT~1\AppData\Local\Temp\ccavO8bx.s 			page 117


 4515 06dc 3C010000 		.4byte	.LVL131
 4516 06e0 0200     		.2byte	0x2
 4517 06e2 30       		.byte	0x30
 4518 06e3 9F       		.byte	0x9f
 4519 06e4 3C010000 		.4byte	.LVL131
 4520 06e8 7C010000 		.4byte	.LVL138
 4521 06ec 0200     		.2byte	0x2
 4522 06ee 34       		.byte	0x34
 4523 06ef 9F       		.byte	0x9f
 4524 06f0 7C010000 		.4byte	.LVL138
 4525 06f4 80010000 		.4byte	.LVL139
 4526 06f8 0200     		.2byte	0x2
 4527 06fa 30       		.byte	0x30
 4528 06fb 9F       		.byte	0x9f
 4529 06fc 80010000 		.4byte	.LVL139
 4530 0700 38020000 		.4byte	.LVL160
 4531 0704 0200     		.2byte	0x2
 4532 0706 34       		.byte	0x34
 4533 0707 9F       		.byte	0x9f
 4534 0708 38020000 		.4byte	.LVL160
 4535 070c 42020000 		.4byte	.LVL162
 4536 0710 0100     		.2byte	0x1
 4537 0712 54       		.byte	0x54
 4538 0713 42020000 		.4byte	.LVL162
 4539 0717 4A020000 		.4byte	.LVL163
 4540 071b 0200     		.2byte	0x2
 4541 071d 34       		.byte	0x34
 4542 071e 9F       		.byte	0x9f
 4543 071f 4A020000 		.4byte	.LVL163
 4544 0723 4C020000 		.4byte	.LVL164
 4545 0727 0200     		.2byte	0x2
 4546 0729 30       		.byte	0x30
 4547 072a 9F       		.byte	0x9f
 4548 072b 4C020000 		.4byte	.LVL164
 4549 072f 5E020000 		.4byte	.LVL166
 4550 0733 0200     		.2byte	0x2
 4551 0735 34       		.byte	0x34
 4552 0736 9F       		.byte	0x9f
 4553 0737 5E020000 		.4byte	.LVL166
 4554 073b 74020000 		.4byte	.LVL171
 4555 073f 0200     		.2byte	0x2
 4556 0741 30       		.byte	0x30
 4557 0742 9F       		.byte	0x9f
 4558 0743 74020000 		.4byte	.LVL171
 4559 0747 8C020000 		.4byte	.LVL173
 4560 074b 0200     		.2byte	0x2
 4561 074d 34       		.byte	0x34
 4562 074e 9F       		.byte	0x9f
 4563 074f 8C020000 		.4byte	.LVL173
 4564 0753 92020000 		.4byte	.LVL174
 4565 0757 0200     		.2byte	0x2
 4566 0759 30       		.byte	0x30
 4567 075a 9F       		.byte	0x9f
 4568 075b 92020000 		.4byte	.LVL174
 4569 075f 1A030000 		.4byte	.LVL196
 4570 0763 0200     		.2byte	0x2
 4571 0765 34       		.byte	0x34
ARM GAS  C:\Users\RABBIT~1\AppData\Local\Temp\ccavO8bx.s 			page 118


 4572 0766 9F       		.byte	0x9f
 4573 0767 1A030000 		.4byte	.LVL196
 4574 076b 20030000 		.4byte	.LVL197
 4575 076f 0200     		.2byte	0x2
 4576 0771 30       		.byte	0x30
 4577 0772 9F       		.byte	0x9f
 4578 0773 20030000 		.4byte	.LVL197
 4579 0777 42030000 		.4byte	.LVL204
 4580 077b 0200     		.2byte	0x2
 4581 077d 34       		.byte	0x34
 4582 077e 9F       		.byte	0x9f
 4583 077f 46030000 		.4byte	.LVL205
 4584 0783 5C030000 		.4byte	.LFE68
 4585 0787 0200     		.2byte	0x2
 4586 0789 34       		.byte	0x34
 4587 078a 9F       		.byte	0x9f
 4588 078b 00000000 		.4byte	0
 4589 078f 00000000 		.4byte	0
 4590              	.LLST26:
 4591 0793 3E000000 		.4byte	.LVL98
 4592 0797 50000000 		.4byte	.LVL99
 4593 079b 2000     		.2byte	0x20
 4594 079d 91       		.byte	0x91
 4595 079e 00       		.sleb128 0
 4596 079f 74       		.byte	0x74
 4597 07a0 00       		.sleb128 0
 4598 07a1 22       		.byte	0x22
 4599 07a2 0A       		.byte	0xa
 4600 07a3 6302     		.2byte	0x263
 4601 07a5 1C       		.byte	0x1c
 4602 07a6 94       		.byte	0x94
 4603 07a7 01       		.byte	0x1
 4604 07a8 08       		.byte	0x8
 4605 07a9 FF       		.byte	0xff
 4606 07aa 1A       		.byte	0x1a
 4607 07ab 38       		.byte	0x38
 4608 07ac 24       		.byte	0x24
 4609 07ad 91       		.byte	0x91
 4610 07ae 00       		.sleb128 0
 4611 07af 74       		.byte	0x74
 4612 07b0 00       		.sleb128 0
 4613 07b1 22       		.byte	0x22
 4614 07b2 0A       		.byte	0xa
 4615 07b3 6402     		.2byte	0x264
 4616 07b5 1C       		.byte	0x1c
 4617 07b6 94       		.byte	0x94
 4618 07b7 01       		.byte	0x1
 4619 07b8 08       		.byte	0x8
 4620 07b9 FF       		.byte	0xff
 4621 07ba 1A       		.byte	0x1a
 4622 07bb 21       		.byte	0x21
 4623 07bc 9F       		.byte	0x9f
 4624 07bd 50000000 		.4byte	.LVL99
 4625 07c1 52000000 		.4byte	.LVL100
 4626 07c5 2000     		.2byte	0x20
 4627 07c7 91       		.byte	0x91
 4628 07c8 00       		.sleb128 0
ARM GAS  C:\Users\RABBIT~1\AppData\Local\Temp\ccavO8bx.s 			page 119


 4629 07c9 74       		.byte	0x74
 4630 07ca 00       		.sleb128 0
 4631 07cb 22       		.byte	0x22
 4632 07cc 0A       		.byte	0xa
 4633 07cd 6302     		.2byte	0x263
 4634 07cf 1C       		.byte	0x1c
 4635 07d0 94       		.byte	0x94
 4636 07d1 01       		.byte	0x1
 4637 07d2 08       		.byte	0x8
 4638 07d3 FF       		.byte	0xff
 4639 07d4 1A       		.byte	0x1a
 4640 07d5 38       		.byte	0x38
 4641 07d6 24       		.byte	0x24
 4642 07d7 91       		.byte	0x91
 4643 07d8 00       		.sleb128 0
 4644 07d9 73       		.byte	0x73
 4645 07da 00       		.sleb128 0
 4646 07db 22       		.byte	0x22
 4647 07dc 0A       		.byte	0xa
 4648 07dd 6802     		.2byte	0x268
 4649 07df 1C       		.byte	0x1c
 4650 07e0 94       		.byte	0x94
 4651 07e1 01       		.byte	0x1
 4652 07e2 08       		.byte	0x8
 4653 07e3 FF       		.byte	0xff
 4654 07e4 1A       		.byte	0x1a
 4655 07e5 21       		.byte	0x21
 4656 07e6 9F       		.byte	0x9f
 4657 07e7 52000000 		.4byte	.LVL100
 4658 07eb 7A000000 		.4byte	.LVL107
 4659 07ef 2000     		.2byte	0x20
 4660 07f1 91       		.byte	0x91
 4661 07f2 00       		.sleb128 0
 4662 07f3 74       		.byte	0x74
 4663 07f4 00       		.sleb128 0
 4664 07f5 22       		.byte	0x22
 4665 07f6 0A       		.byte	0xa
 4666 07f7 6302     		.2byte	0x263
 4667 07f9 1C       		.byte	0x1c
 4668 07fa 94       		.byte	0x94
 4669 07fb 01       		.byte	0x1
 4670 07fc 08       		.byte	0x8
 4671 07fd FF       		.byte	0xff
 4672 07fe 1A       		.byte	0x1a
 4673 07ff 38       		.byte	0x38
 4674 0800 24       		.byte	0x24
 4675 0801 91       		.byte	0x91
 4676 0802 00       		.sleb128 0
 4677 0803 74       		.byte	0x74
 4678 0804 00       		.sleb128 0
 4679 0805 22       		.byte	0x22
 4680 0806 0A       		.byte	0xa
 4681 0807 6402     		.2byte	0x264
 4682 0809 1C       		.byte	0x1c
 4683 080a 94       		.byte	0x94
 4684 080b 01       		.byte	0x1
 4685 080c 08       		.byte	0x8
ARM GAS  C:\Users\RABBIT~1\AppData\Local\Temp\ccavO8bx.s 			page 120


 4686 080d FF       		.byte	0xff
 4687 080e 1A       		.byte	0x1a
 4688 080f 21       		.byte	0x21
 4689 0810 9F       		.byte	0x9f
 4690 0811 D4000000 		.4byte	.LVL123
 4691 0815 D6000000 		.4byte	.LVL124
 4692 0819 2000     		.2byte	0x20
 4693 081b 91       		.byte	0x91
 4694 081c 00       		.sleb128 0
 4695 081d 74       		.byte	0x74
 4696 081e 00       		.sleb128 0
 4697 081f 22       		.byte	0x22
 4698 0820 0A       		.byte	0xa
 4699 0821 6302     		.2byte	0x263
 4700 0823 1C       		.byte	0x1c
 4701 0824 94       		.byte	0x94
 4702 0825 01       		.byte	0x1
 4703 0826 08       		.byte	0x8
 4704 0827 FF       		.byte	0xff
 4705 0828 1A       		.byte	0x1a
 4706 0829 38       		.byte	0x38
 4707 082a 24       		.byte	0x24
 4708 082b 91       		.byte	0x91
 4709 082c 00       		.sleb128 0
 4710 082d 74       		.byte	0x74
 4711 082e 00       		.sleb128 0
 4712 082f 22       		.byte	0x22
 4713 0830 0A       		.byte	0xa
 4714 0831 6402     		.2byte	0x264
 4715 0833 1C       		.byte	0x1c
 4716 0834 94       		.byte	0x94
 4717 0835 01       		.byte	0x1
 4718 0836 08       		.byte	0x8
 4719 0837 FF       		.byte	0xff
 4720 0838 1A       		.byte	0x1a
 4721 0839 21       		.byte	0x21
 4722 083a 9F       		.byte	0x9f
 4723 083b D6000000 		.4byte	.LVL124
 4724 083f D8000000 		.4byte	.LVL125
 4725 0843 2E00     		.2byte	0x2e
 4726 0845 91       		.byte	0x91
 4727 0846 9A7B     		.sleb128 -614
 4728 0848 94       		.byte	0x94
 4729 0849 02       		.byte	0x2
 4730 084a 0A       		.byte	0xa
 4731 084b FFFF     		.2byte	0xffff
 4732 084d 1A       		.byte	0x1a
 4733 084e 91       		.byte	0x91
 4734 084f 00       		.sleb128 0
 4735 0850 22       		.byte	0x22
 4736 0851 0A       		.byte	0xa
 4737 0852 6302     		.2byte	0x263
 4738 0854 1C       		.byte	0x1c
 4739 0855 94       		.byte	0x94
 4740 0856 01       		.byte	0x1
 4741 0857 08       		.byte	0x8
 4742 0858 FF       		.byte	0xff
ARM GAS  C:\Users\RABBIT~1\AppData\Local\Temp\ccavO8bx.s 			page 121


 4743 0859 1A       		.byte	0x1a
 4744 085a 38       		.byte	0x38
 4745 085b 24       		.byte	0x24
 4746 085c 91       		.byte	0x91
 4747 085d 9A7B     		.sleb128 -614
 4748 085f 94       		.byte	0x94
 4749 0860 02       		.byte	0x2
 4750 0861 0A       		.byte	0xa
 4751 0862 FFFF     		.2byte	0xffff
 4752 0864 1A       		.byte	0x1a
 4753 0865 91       		.byte	0x91
 4754 0866 00       		.sleb128 0
 4755 0867 22       		.byte	0x22
 4756 0868 0A       		.byte	0xa
 4757 0869 6402     		.2byte	0x264
 4758 086b 1C       		.byte	0x1c
 4759 086c 94       		.byte	0x94
 4760 086d 01       		.byte	0x1
 4761 086e 08       		.byte	0x8
 4762 086f FF       		.byte	0xff
 4763 0870 1A       		.byte	0x1a
 4764 0871 21       		.byte	0x21
 4765 0872 9F       		.byte	0x9f
 4766 0873 D8000000 		.4byte	.LVL125
 4767 0877 DA000000 		.4byte	.LVL126
 4768 087b 2000     		.2byte	0x20
 4769 087d 91       		.byte	0x91
 4770 087e 00       		.sleb128 0
 4771 087f 74       		.byte	0x74
 4772 0880 00       		.sleb128 0
 4773 0881 22       		.byte	0x22
 4774 0882 0A       		.byte	0xa
 4775 0883 6302     		.2byte	0x263
 4776 0885 1C       		.byte	0x1c
 4777 0886 94       		.byte	0x94
 4778 0887 01       		.byte	0x1
 4779 0888 08       		.byte	0x8
 4780 0889 FF       		.byte	0xff
 4781 088a 1A       		.byte	0x1a
 4782 088b 38       		.byte	0x38
 4783 088c 24       		.byte	0x24
 4784 088d 91       		.byte	0x91
 4785 088e 00       		.sleb128 0
 4786 088f 74       		.byte	0x74
 4787 0890 00       		.sleb128 0
 4788 0891 22       		.byte	0x22
 4789 0892 0A       		.byte	0xa
 4790 0893 6402     		.2byte	0x264
 4791 0895 1C       		.byte	0x1c
 4792 0896 94       		.byte	0x94
 4793 0897 01       		.byte	0x1
 4794 0898 08       		.byte	0x8
 4795 0899 FF       		.byte	0xff
 4796 089a 1A       		.byte	0x1a
 4797 089b 21       		.byte	0x21
 4798 089c 9F       		.byte	0x9f
 4799 089d DE000000 		.4byte	.LVL127
ARM GAS  C:\Users\RABBIT~1\AppData\Local\Temp\ccavO8bx.s 			page 122


 4800 08a1 2D010000 		.4byte	.LVL129-1
 4801 08a5 2000     		.2byte	0x20
 4802 08a7 91       		.byte	0x91
 4803 08a8 00       		.sleb128 0
 4804 08a9 74       		.byte	0x74
 4805 08aa 00       		.sleb128 0
 4806 08ab 22       		.byte	0x22
 4807 08ac 0A       		.byte	0xa
 4808 08ad 6302     		.2byte	0x263
 4809 08af 1C       		.byte	0x1c
 4810 08b0 94       		.byte	0x94
 4811 08b1 01       		.byte	0x1
 4812 08b2 08       		.byte	0x8
 4813 08b3 FF       		.byte	0xff
 4814 08b4 1A       		.byte	0x1a
 4815 08b5 38       		.byte	0x38
 4816 08b6 24       		.byte	0x24
 4817 08b7 91       		.byte	0x91
 4818 08b8 00       		.sleb128 0
 4819 08b9 74       		.byte	0x74
 4820 08ba 00       		.sleb128 0
 4821 08bb 22       		.byte	0x22
 4822 08bc 0A       		.byte	0xa
 4823 08bd 6402     		.2byte	0x264
 4824 08bf 1C       		.byte	0x1c
 4825 08c0 94       		.byte	0x94
 4826 08c1 01       		.byte	0x1
 4827 08c2 08       		.byte	0x8
 4828 08c3 FF       		.byte	0xff
 4829 08c4 1A       		.byte	0x1a
 4830 08c5 21       		.byte	0x21
 4831 08c6 9F       		.byte	0x9f
 4832 08c7 3C010000 		.4byte	.LVL131
 4833 08cb 6A010000 		.4byte	.LVL136
 4834 08cf 2000     		.2byte	0x20
 4835 08d1 91       		.byte	0x91
 4836 08d2 00       		.sleb128 0
 4837 08d3 74       		.byte	0x74
 4838 08d4 00       		.sleb128 0
 4839 08d5 22       		.byte	0x22
 4840 08d6 0A       		.byte	0xa
 4841 08d7 6302     		.2byte	0x263
 4842 08d9 1C       		.byte	0x1c
 4843 08da 94       		.byte	0x94
 4844 08db 01       		.byte	0x1
 4845 08dc 08       		.byte	0x8
 4846 08dd FF       		.byte	0xff
 4847 08de 1A       		.byte	0x1a
 4848 08df 38       		.byte	0x38
 4849 08e0 24       		.byte	0x24
 4850 08e1 91       		.byte	0x91
 4851 08e2 00       		.sleb128 0
 4852 08e3 74       		.byte	0x74
 4853 08e4 00       		.sleb128 0
 4854 08e5 22       		.byte	0x22
 4855 08e6 0A       		.byte	0xa
 4856 08e7 6402     		.2byte	0x264
ARM GAS  C:\Users\RABBIT~1\AppData\Local\Temp\ccavO8bx.s 			page 123


 4857 08e9 1C       		.byte	0x1c
 4858 08ea 94       		.byte	0x94
 4859 08eb 01       		.byte	0x1
 4860 08ec 08       		.byte	0x8
 4861 08ed FF       		.byte	0xff
 4862 08ee 1A       		.byte	0x1a
 4863 08ef 21       		.byte	0x21
 4864 08f0 9F       		.byte	0x9f
 4865 08f1 80010000 		.4byte	.LVL139
 4866 08f5 A3010000 		.4byte	.LVL141-1
 4867 08f9 2000     		.2byte	0x20
 4868 08fb 91       		.byte	0x91
 4869 08fc 00       		.sleb128 0
 4870 08fd 74       		.byte	0x74
 4871 08fe 00       		.sleb128 0
 4872 08ff 22       		.byte	0x22
 4873 0900 0A       		.byte	0xa
 4874 0901 6302     		.2byte	0x263
 4875 0903 1C       		.byte	0x1c
 4876 0904 94       		.byte	0x94
 4877 0905 01       		.byte	0x1
 4878 0906 08       		.byte	0x8
 4879 0907 FF       		.byte	0xff
 4880 0908 1A       		.byte	0x1a
 4881 0909 38       		.byte	0x38
 4882 090a 24       		.byte	0x24
 4883 090b 91       		.byte	0x91
 4884 090c 00       		.sleb128 0
 4885 090d 74       		.byte	0x74
 4886 090e 00       		.sleb128 0
 4887 090f 22       		.byte	0x22
 4888 0910 0A       		.byte	0xa
 4889 0911 6402     		.2byte	0x264
 4890 0913 1C       		.byte	0x1c
 4891 0914 94       		.byte	0x94
 4892 0915 01       		.byte	0x1
 4893 0916 08       		.byte	0x8
 4894 0917 FF       		.byte	0xff
 4895 0918 1A       		.byte	0x1a
 4896 0919 21       		.byte	0x21
 4897 091a 9F       		.byte	0x9f
 4898 091b A6010000 		.4byte	.LVL142
 4899 091f AE010000 		.4byte	.LVL143
 4900 0923 2000     		.2byte	0x20
 4901 0925 91       		.byte	0x91
 4902 0926 00       		.sleb128 0
 4903 0927 74       		.byte	0x74
 4904 0928 00       		.sleb128 0
 4905 0929 22       		.byte	0x22
 4906 092a 0A       		.byte	0xa
 4907 092b 6302     		.2byte	0x263
 4908 092d 1C       		.byte	0x1c
 4909 092e 94       		.byte	0x94
 4910 092f 01       		.byte	0x1
 4911 0930 08       		.byte	0x8
 4912 0931 FF       		.byte	0xff
 4913 0932 1A       		.byte	0x1a
ARM GAS  C:\Users\RABBIT~1\AppData\Local\Temp\ccavO8bx.s 			page 124


 4914 0933 38       		.byte	0x38
 4915 0934 24       		.byte	0x24
 4916 0935 91       		.byte	0x91
 4917 0936 00       		.sleb128 0
 4918 0937 74       		.byte	0x74
 4919 0938 00       		.sleb128 0
 4920 0939 22       		.byte	0x22
 4921 093a 0A       		.byte	0xa
 4922 093b 6402     		.2byte	0x264
 4923 093d 1C       		.byte	0x1c
 4924 093e 94       		.byte	0x94
 4925 093f 01       		.byte	0x1
 4926 0940 08       		.byte	0x8
 4927 0941 FF       		.byte	0xff
 4928 0942 1A       		.byte	0x1a
 4929 0943 21       		.byte	0x21
 4930 0944 9F       		.byte	0x9f
 4931 0945 42020000 		.4byte	.LVL162
 4932 0949 68020000 		.4byte	.LVL168
 4933 094d 2000     		.2byte	0x20
 4934 094f 91       		.byte	0x91
 4935 0950 00       		.sleb128 0
 4936 0951 74       		.byte	0x74
 4937 0952 00       		.sleb128 0
 4938 0953 22       		.byte	0x22
 4939 0954 0A       		.byte	0xa
 4940 0955 6302     		.2byte	0x263
 4941 0957 1C       		.byte	0x1c
 4942 0958 94       		.byte	0x94
 4943 0959 01       		.byte	0x1
 4944 095a 08       		.byte	0x8
 4945 095b FF       		.byte	0xff
 4946 095c 1A       		.byte	0x1a
 4947 095d 38       		.byte	0x38
 4948 095e 24       		.byte	0x24
 4949 095f 91       		.byte	0x91
 4950 0960 00       		.sleb128 0
 4951 0961 74       		.byte	0x74
 4952 0962 00       		.sleb128 0
 4953 0963 22       		.byte	0x22
 4954 0964 0A       		.byte	0xa
 4955 0965 6402     		.2byte	0x264
 4956 0967 1C       		.byte	0x1c
 4957 0968 94       		.byte	0x94
 4958 0969 01       		.byte	0x1
 4959 096a 08       		.byte	0x8
 4960 096b FF       		.byte	0xff
 4961 096c 1A       		.byte	0x1a
 4962 096d 21       		.byte	0x21
 4963 096e 9F       		.byte	0x9f
 4964 096f 68020000 		.4byte	.LVL168
 4965 0973 6B020000 		.4byte	.LVL169-1
 4966 0977 2000     		.2byte	0x20
 4967 0979 91       		.byte	0x91
 4968 097a 00       		.sleb128 0
 4969 097b 72       		.byte	0x72
 4970 097c 00       		.sleb128 0
ARM GAS  C:\Users\RABBIT~1\AppData\Local\Temp\ccavO8bx.s 			page 125


 4971 097d 22       		.byte	0x22
 4972 097e 0A       		.byte	0xa
 4973 097f 6302     		.2byte	0x263
 4974 0981 1C       		.byte	0x1c
 4975 0982 94       		.byte	0x94
 4976 0983 01       		.byte	0x1
 4977 0984 08       		.byte	0x8
 4978 0985 FF       		.byte	0xff
 4979 0986 1A       		.byte	0x1a
 4980 0987 38       		.byte	0x38
 4981 0988 24       		.byte	0x24
 4982 0989 91       		.byte	0x91
 4983 098a 00       		.sleb128 0
 4984 098b 72       		.byte	0x72
 4985 098c 00       		.sleb128 0
 4986 098d 22       		.byte	0x22
 4987 098e 0A       		.byte	0xa
 4988 098f 6402     		.2byte	0x264
 4989 0991 1C       		.byte	0x1c
 4990 0992 94       		.byte	0x94
 4991 0993 01       		.byte	0x1
 4992 0994 08       		.byte	0x8
 4993 0995 FF       		.byte	0xff
 4994 0996 1A       		.byte	0x1a
 4995 0997 21       		.byte	0x21
 4996 0998 9F       		.byte	0x9f
 4997 0999 74020000 		.4byte	.LVL171
 4998 099d 8C020000 		.4byte	.LVL173
 4999 09a1 2000     		.2byte	0x20
 5000 09a3 91       		.byte	0x91
 5001 09a4 00       		.sleb128 0
 5002 09a5 74       		.byte	0x74
 5003 09a6 00       		.sleb128 0
 5004 09a7 22       		.byte	0x22
 5005 09a8 0A       		.byte	0xa
 5006 09a9 6302     		.2byte	0x263
 5007 09ab 1C       		.byte	0x1c
 5008 09ac 94       		.byte	0x94
 5009 09ad 01       		.byte	0x1
 5010 09ae 08       		.byte	0x8
 5011 09af FF       		.byte	0xff
 5012 09b0 1A       		.byte	0x1a
 5013 09b1 38       		.byte	0x38
 5014 09b2 24       		.byte	0x24
 5015 09b3 91       		.byte	0x91
 5016 09b4 00       		.sleb128 0
 5017 09b5 74       		.byte	0x74
 5018 09b6 00       		.sleb128 0
 5019 09b7 22       		.byte	0x22
 5020 09b8 0A       		.byte	0xa
 5021 09b9 6402     		.2byte	0x264
 5022 09bb 1C       		.byte	0x1c
 5023 09bc 94       		.byte	0x94
 5024 09bd 01       		.byte	0x1
 5025 09be 08       		.byte	0x8
 5026 09bf FF       		.byte	0xff
 5027 09c0 1A       		.byte	0x1a
ARM GAS  C:\Users\RABBIT~1\AppData\Local\Temp\ccavO8bx.s 			page 126


 5028 09c1 21       		.byte	0x21
 5029 09c2 9F       		.byte	0x9f
 5030 09c3 92020000 		.4byte	.LVL174
 5031 09c7 B5020000 		.4byte	.LVL177-1
 5032 09cb 2000     		.2byte	0x20
 5033 09cd 91       		.byte	0x91
 5034 09ce 00       		.sleb128 0
 5035 09cf 74       		.byte	0x74
 5036 09d0 00       		.sleb128 0
 5037 09d1 22       		.byte	0x22
 5038 09d2 0A       		.byte	0xa
 5039 09d3 6302     		.2byte	0x263
 5040 09d5 1C       		.byte	0x1c
 5041 09d6 94       		.byte	0x94
 5042 09d7 01       		.byte	0x1
 5043 09d8 08       		.byte	0x8
 5044 09d9 FF       		.byte	0xff
 5045 09da 1A       		.byte	0x1a
 5046 09db 38       		.byte	0x38
 5047 09dc 24       		.byte	0x24
 5048 09dd 91       		.byte	0x91
 5049 09de 00       		.sleb128 0
 5050 09df 74       		.byte	0x74
 5051 09e0 00       		.sleb128 0
 5052 09e1 22       		.byte	0x22
 5053 09e2 0A       		.byte	0xa
 5054 09e3 6402     		.2byte	0x264
 5055 09e5 1C       		.byte	0x1c
 5056 09e6 94       		.byte	0x94
 5057 09e7 01       		.byte	0x1
 5058 09e8 08       		.byte	0x8
 5059 09e9 FF       		.byte	0xff
 5060 09ea 1A       		.byte	0x1a
 5061 09eb 21       		.byte	0x21
 5062 09ec 9F       		.byte	0x9f
 5063 09ed BA020000 		.4byte	.LVL179
 5064 09f1 CD020000 		.4byte	.LVL182-1
 5065 09f5 2000     		.2byte	0x20
 5066 09f7 91       		.byte	0x91
 5067 09f8 00       		.sleb128 0
 5068 09f9 74       		.byte	0x74
 5069 09fa 00       		.sleb128 0
 5070 09fb 22       		.byte	0x22
 5071 09fc 0A       		.byte	0xa
 5072 09fd 6302     		.2byte	0x263
 5073 09ff 1C       		.byte	0x1c
 5074 0a00 94       		.byte	0x94
 5075 0a01 01       		.byte	0x1
 5076 0a02 08       		.byte	0x8
 5077 0a03 FF       		.byte	0xff
 5078 0a04 1A       		.byte	0x1a
 5079 0a05 38       		.byte	0x38
 5080 0a06 24       		.byte	0x24
 5081 0a07 91       		.byte	0x91
 5082 0a08 00       		.sleb128 0
 5083 0a09 74       		.byte	0x74
 5084 0a0a 00       		.sleb128 0
ARM GAS  C:\Users\RABBIT~1\AppData\Local\Temp\ccavO8bx.s 			page 127


 5085 0a0b 22       		.byte	0x22
 5086 0a0c 0A       		.byte	0xa
 5087 0a0d 6402     		.2byte	0x264
 5088 0a0f 1C       		.byte	0x1c
 5089 0a10 94       		.byte	0x94
 5090 0a11 01       		.byte	0x1
 5091 0a12 08       		.byte	0x8
 5092 0a13 FF       		.byte	0xff
 5093 0a14 1A       		.byte	0x1a
 5094 0a15 21       		.byte	0x21
 5095 0a16 9F       		.byte	0x9f
 5096 0a17 20030000 		.4byte	.LVL197
 5097 0a1b 25030000 		.4byte	.LVL198-1
 5098 0a1f 2000     		.2byte	0x20
 5099 0a21 91       		.byte	0x91
 5100 0a22 00       		.sleb128 0
 5101 0a23 74       		.byte	0x74
 5102 0a24 00       		.sleb128 0
 5103 0a25 22       		.byte	0x22
 5104 0a26 0A       		.byte	0xa
 5105 0a27 6302     		.2byte	0x263
 5106 0a29 1C       		.byte	0x1c
 5107 0a2a 94       		.byte	0x94
 5108 0a2b 01       		.byte	0x1
 5109 0a2c 08       		.byte	0x8
 5110 0a2d FF       		.byte	0xff
 5111 0a2e 1A       		.byte	0x1a
 5112 0a2f 38       		.byte	0x38
 5113 0a30 24       		.byte	0x24
 5114 0a31 91       		.byte	0x91
 5115 0a32 00       		.sleb128 0
 5116 0a33 74       		.byte	0x74
 5117 0a34 00       		.sleb128 0
 5118 0a35 22       		.byte	0x22
 5119 0a36 0A       		.byte	0xa
 5120 0a37 6402     		.2byte	0x264
 5121 0a39 1C       		.byte	0x1c
 5122 0a3a 94       		.byte	0x94
 5123 0a3b 01       		.byte	0x1
 5124 0a3c 08       		.byte	0x8
 5125 0a3d FF       		.byte	0xff
 5126 0a3e 1A       		.byte	0x1a
 5127 0a3f 21       		.byte	0x21
 5128 0a40 9F       		.byte	0x9f
 5129 0a41 46030000 		.4byte	.LVL205
 5130 0a45 48030000 		.4byte	.LVL206
 5131 0a49 2000     		.2byte	0x20
 5132 0a4b 91       		.byte	0x91
 5133 0a4c 00       		.sleb128 0
 5134 0a4d 74       		.byte	0x74
 5135 0a4e 00       		.sleb128 0
 5136 0a4f 22       		.byte	0x22
 5137 0a50 0A       		.byte	0xa
 5138 0a51 6302     		.2byte	0x263
 5139 0a53 1C       		.byte	0x1c
 5140 0a54 94       		.byte	0x94
 5141 0a55 01       		.byte	0x1
ARM GAS  C:\Users\RABBIT~1\AppData\Local\Temp\ccavO8bx.s 			page 128


 5142 0a56 08       		.byte	0x8
 5143 0a57 FF       		.byte	0xff
 5144 0a58 1A       		.byte	0x1a
 5145 0a59 38       		.byte	0x38
 5146 0a5a 24       		.byte	0x24
 5147 0a5b 91       		.byte	0x91
 5148 0a5c 00       		.sleb128 0
 5149 0a5d 74       		.byte	0x74
 5150 0a5e 00       		.sleb128 0
 5151 0a5f 22       		.byte	0x22
 5152 0a60 0A       		.byte	0xa
 5153 0a61 6402     		.2byte	0x264
 5154 0a63 1C       		.byte	0x1c
 5155 0a64 94       		.byte	0x94
 5156 0a65 01       		.byte	0x1
 5157 0a66 08       		.byte	0x8
 5158 0a67 FF       		.byte	0xff
 5159 0a68 1A       		.byte	0x1a
 5160 0a69 21       		.byte	0x21
 5161 0a6a 9F       		.byte	0x9f
 5162 0a6b 48030000 		.4byte	.LVL206
 5163 0a6f 5C030000 		.4byte	.LFE68
 5164 0a73 2E00     		.2byte	0x2e
 5165 0a75 91       		.byte	0x91
 5166 0a76 9A7B     		.sleb128 -614
 5167 0a78 94       		.byte	0x94
 5168 0a79 02       		.byte	0x2
 5169 0a7a 0A       		.byte	0xa
 5170 0a7b FFFF     		.2byte	0xffff
 5171 0a7d 1A       		.byte	0x1a
 5172 0a7e 91       		.byte	0x91
 5173 0a7f 00       		.sleb128 0
 5174 0a80 22       		.byte	0x22
 5175 0a81 0A       		.byte	0xa
 5176 0a82 6302     		.2byte	0x263
 5177 0a84 1C       		.byte	0x1c
 5178 0a85 94       		.byte	0x94
 5179 0a86 01       		.byte	0x1
 5180 0a87 08       		.byte	0x8
 5181 0a88 FF       		.byte	0xff
 5182 0a89 1A       		.byte	0x1a
 5183 0a8a 38       		.byte	0x38
 5184 0a8b 24       		.byte	0x24
 5185 0a8c 91       		.byte	0x91
 5186 0a8d 9A7B     		.sleb128 -614
 5187 0a8f 94       		.byte	0x94
 5188 0a90 02       		.byte	0x2
 5189 0a91 0A       		.byte	0xa
 5190 0a92 FFFF     		.2byte	0xffff
 5191 0a94 1A       		.byte	0x1a
 5192 0a95 91       		.byte	0x91
 5193 0a96 00       		.sleb128 0
 5194 0a97 22       		.byte	0x22
 5195 0a98 0A       		.byte	0xa
 5196 0a99 6402     		.2byte	0x264
 5197 0a9b 1C       		.byte	0x1c
 5198 0a9c 94       		.byte	0x94
ARM GAS  C:\Users\RABBIT~1\AppData\Local\Temp\ccavO8bx.s 			page 129


 5199 0a9d 01       		.byte	0x1
 5200 0a9e 08       		.byte	0x8
 5201 0a9f FF       		.byte	0xff
 5202 0aa0 1A       		.byte	0x1a
 5203 0aa1 21       		.byte	0x21
 5204 0aa2 9F       		.byte	0x9f
 5205 0aa3 00000000 		.4byte	0
 5206 0aa7 00000000 		.4byte	0
 5207              	.LLST27:
 5208 0aab 26000000 		.4byte	.LVL97
 5209 0aaf 56000000 		.4byte	.LVL101
 5210 0ab3 0100     		.2byte	0x1
 5211 0ab5 50       		.byte	0x50
 5212 0ab6 00000000 		.4byte	0
 5213 0aba 00000000 		.4byte	0
 5214              	.LLST28:
 5215 0abe 00000000 		.4byte	.LVL94
 5216 0ac2 18000000 		.4byte	.LVL96
 5217 0ac6 0200     		.2byte	0x2
 5218 0ac8 30       		.byte	0x30
 5219 0ac9 9F       		.byte	0x9f
 5220 0aca 3E000000 		.4byte	.LVL98
 5221 0ace 7A000000 		.4byte	.LVL107
 5222 0ad2 1400     		.2byte	0x14
 5223 0ad4 91       		.byte	0x91
 5224 0ad5 9B7B     		.sleb128 -613
 5225 0ad7 94       		.byte	0x94
 5226 0ad8 01       		.byte	0x1
 5227 0ad9 08       		.byte	0x8
 5228 0ada FF       		.byte	0xff
 5229 0adb 1A       		.byte	0x1a
 5230 0adc 38       		.byte	0x38
 5231 0add 24       		.byte	0x24
 5232 0ade 91       		.byte	0x91
 5233 0adf 9A7B     		.sleb128 -614
 5234 0ae1 94       		.byte	0x94
 5235 0ae2 01       		.byte	0x1
 5236 0ae3 08       		.byte	0x8
 5237 0ae4 FF       		.byte	0xff
 5238 0ae5 1A       		.byte	0x1a
 5239 0ae6 21       		.byte	0x21
 5240 0ae7 9F       		.byte	0x9f
 5241 0ae8 D4000000 		.4byte	.LVL123
 5242 0aec DA000000 		.4byte	.LVL126
 5243 0af0 1400     		.2byte	0x14
 5244 0af2 91       		.byte	0x91
 5245 0af3 9B7B     		.sleb128 -613
 5246 0af5 94       		.byte	0x94
 5247 0af6 01       		.byte	0x1
 5248 0af7 08       		.byte	0x8
 5249 0af8 FF       		.byte	0xff
 5250 0af9 1A       		.byte	0x1a
 5251 0afa 38       		.byte	0x38
 5252 0afb 24       		.byte	0x24
 5253 0afc 91       		.byte	0x91
 5254 0afd 9A7B     		.sleb128 -614
 5255 0aff 94       		.byte	0x94
ARM GAS  C:\Users\RABBIT~1\AppData\Local\Temp\ccavO8bx.s 			page 130


 5256 0b00 01       		.byte	0x1
 5257 0b01 08       		.byte	0x8
 5258 0b02 FF       		.byte	0xff
 5259 0b03 1A       		.byte	0x1a
 5260 0b04 21       		.byte	0x21
 5261 0b05 9F       		.byte	0x9f
 5262 0b06 DE000000 		.4byte	.LVL127
 5263 0b0a 2D010000 		.4byte	.LVL129-1
 5264 0b0e 1400     		.2byte	0x14
 5265 0b10 91       		.byte	0x91
 5266 0b11 9B7B     		.sleb128 -613
 5267 0b13 94       		.byte	0x94
 5268 0b14 01       		.byte	0x1
 5269 0b15 08       		.byte	0x8
 5270 0b16 FF       		.byte	0xff
 5271 0b17 1A       		.byte	0x1a
 5272 0b18 38       		.byte	0x38
 5273 0b19 24       		.byte	0x24
 5274 0b1a 91       		.byte	0x91
 5275 0b1b 9A7B     		.sleb128 -614
 5276 0b1d 94       		.byte	0x94
 5277 0b1e 01       		.byte	0x1
 5278 0b1f 08       		.byte	0x8
 5279 0b20 FF       		.byte	0xff
 5280 0b21 1A       		.byte	0x1a
 5281 0b22 21       		.byte	0x21
 5282 0b23 9F       		.byte	0x9f
 5283 0b24 3C010000 		.4byte	.LVL131
 5284 0b28 A3010000 		.4byte	.LVL141-1
 5285 0b2c 1400     		.2byte	0x14
 5286 0b2e 91       		.byte	0x91
 5287 0b2f 9B7B     		.sleb128 -613
 5288 0b31 94       		.byte	0x94
 5289 0b32 01       		.byte	0x1
 5290 0b33 08       		.byte	0x8
 5291 0b34 FF       		.byte	0xff
 5292 0b35 1A       		.byte	0x1a
 5293 0b36 38       		.byte	0x38
 5294 0b37 24       		.byte	0x24
 5295 0b38 91       		.byte	0x91
 5296 0b39 9A7B     		.sleb128 -614
 5297 0b3b 94       		.byte	0x94
 5298 0b3c 01       		.byte	0x1
 5299 0b3d 08       		.byte	0x8
 5300 0b3e FF       		.byte	0xff
 5301 0b3f 1A       		.byte	0x1a
 5302 0b40 21       		.byte	0x21
 5303 0b41 9F       		.byte	0x9f
 5304 0b42 A6010000 		.4byte	.LVL142
 5305 0b46 AE010000 		.4byte	.LVL143
 5306 0b4a 1400     		.2byte	0x14
 5307 0b4c 91       		.byte	0x91
 5308 0b4d 9B7B     		.sleb128 -613
 5309 0b4f 94       		.byte	0x94
 5310 0b50 01       		.byte	0x1
 5311 0b51 08       		.byte	0x8
 5312 0b52 FF       		.byte	0xff
ARM GAS  C:\Users\RABBIT~1\AppData\Local\Temp\ccavO8bx.s 			page 131


 5313 0b53 1A       		.byte	0x1a
 5314 0b54 38       		.byte	0x38
 5315 0b55 24       		.byte	0x24
 5316 0b56 91       		.byte	0x91
 5317 0b57 9A7B     		.sleb128 -614
 5318 0b59 94       		.byte	0x94
 5319 0b5a 01       		.byte	0x1
 5320 0b5b 08       		.byte	0x8
 5321 0b5c FF       		.byte	0xff
 5322 0b5d 1A       		.byte	0x1a
 5323 0b5e 21       		.byte	0x21
 5324 0b5f 9F       		.byte	0x9f
 5325 0b60 CE010000 		.4byte	.LVL146
 5326 0b64 D2010000 		.4byte	.LVL147
 5327 0b68 0200     		.2byte	0x2
 5328 0b6a 40       		.byte	0x40
 5329 0b6b 9F       		.byte	0x9f
 5330 0b6c D6010000 		.4byte	.LVL148
 5331 0b70 E8010000 		.4byte	.LVL150
 5332 0b74 0100     		.2byte	0x1
 5333 0b76 53       		.byte	0x53
 5334 0b77 42020000 		.4byte	.LVL162
 5335 0b7b 4A020000 		.4byte	.LVL163
 5336 0b7f 1400     		.2byte	0x14
 5337 0b81 91       		.byte	0x91
 5338 0b82 9B7B     		.sleb128 -613
 5339 0b84 94       		.byte	0x94
 5340 0b85 01       		.byte	0x1
 5341 0b86 08       		.byte	0x8
 5342 0b87 FF       		.byte	0xff
 5343 0b88 1A       		.byte	0x1a
 5344 0b89 38       		.byte	0x38
 5345 0b8a 24       		.byte	0x24
 5346 0b8b 91       		.byte	0x91
 5347 0b8c 9A7B     		.sleb128 -614
 5348 0b8e 94       		.byte	0x94
 5349 0b8f 01       		.byte	0x1
 5350 0b90 08       		.byte	0x8
 5351 0b91 FF       		.byte	0xff
 5352 0b92 1A       		.byte	0x1a
 5353 0b93 21       		.byte	0x21
 5354 0b94 9F       		.byte	0x9f
 5355 0b95 4C020000 		.4byte	.LVL164
 5356 0b99 6B020000 		.4byte	.LVL169-1
 5357 0b9d 1400     		.2byte	0x14
 5358 0b9f 91       		.byte	0x91
 5359 0ba0 9B7B     		.sleb128 -613
 5360 0ba2 94       		.byte	0x94
 5361 0ba3 01       		.byte	0x1
 5362 0ba4 08       		.byte	0x8
 5363 0ba5 FF       		.byte	0xff
 5364 0ba6 1A       		.byte	0x1a
 5365 0ba7 38       		.byte	0x38
 5366 0ba8 24       		.byte	0x24
 5367 0ba9 91       		.byte	0x91
 5368 0baa 9A7B     		.sleb128 -614
 5369 0bac 94       		.byte	0x94
ARM GAS  C:\Users\RABBIT~1\AppData\Local\Temp\ccavO8bx.s 			page 132


 5370 0bad 01       		.byte	0x1
 5371 0bae 08       		.byte	0x8
 5372 0baf FF       		.byte	0xff
 5373 0bb0 1A       		.byte	0x1a
 5374 0bb1 21       		.byte	0x21
 5375 0bb2 9F       		.byte	0x9f
 5376 0bb3 74020000 		.4byte	.LVL171
 5377 0bb7 B5020000 		.4byte	.LVL177-1
 5378 0bbb 1400     		.2byte	0x14
 5379 0bbd 91       		.byte	0x91
 5380 0bbe 9B7B     		.sleb128 -613
 5381 0bc0 94       		.byte	0x94
 5382 0bc1 01       		.byte	0x1
 5383 0bc2 08       		.byte	0x8
 5384 0bc3 FF       		.byte	0xff
 5385 0bc4 1A       		.byte	0x1a
 5386 0bc5 38       		.byte	0x38
 5387 0bc6 24       		.byte	0x24
 5388 0bc7 91       		.byte	0x91
 5389 0bc8 9A7B     		.sleb128 -614
 5390 0bca 94       		.byte	0x94
 5391 0bcb 01       		.byte	0x1
 5392 0bcc 08       		.byte	0x8
 5393 0bcd FF       		.byte	0xff
 5394 0bce 1A       		.byte	0x1a
 5395 0bcf 21       		.byte	0x21
 5396 0bd0 9F       		.byte	0x9f
 5397 0bd1 BA020000 		.4byte	.LVL179
 5398 0bd5 CD020000 		.4byte	.LVL182-1
 5399 0bd9 1400     		.2byte	0x14
 5400 0bdb 91       		.byte	0x91
 5401 0bdc 9B7B     		.sleb128 -613
 5402 0bde 94       		.byte	0x94
 5403 0bdf 01       		.byte	0x1
 5404 0be0 08       		.byte	0x8
 5405 0be1 FF       		.byte	0xff
 5406 0be2 1A       		.byte	0x1a
 5407 0be3 38       		.byte	0x38
 5408 0be4 24       		.byte	0x24
 5409 0be5 91       		.byte	0x91
 5410 0be6 9A7B     		.sleb128 -614
 5411 0be8 94       		.byte	0x94
 5412 0be9 01       		.byte	0x1
 5413 0bea 08       		.byte	0x8
 5414 0beb FF       		.byte	0xff
 5415 0bec 1A       		.byte	0x1a
 5416 0bed 21       		.byte	0x21
 5417 0bee 9F       		.byte	0x9f
 5418 0bef 20030000 		.4byte	.LVL197
 5419 0bf3 25030000 		.4byte	.LVL198-1
 5420 0bf7 1400     		.2byte	0x14
 5421 0bf9 91       		.byte	0x91
 5422 0bfa 9B7B     		.sleb128 -613
 5423 0bfc 94       		.byte	0x94
 5424 0bfd 01       		.byte	0x1
 5425 0bfe 08       		.byte	0x8
 5426 0bff FF       		.byte	0xff
ARM GAS  C:\Users\RABBIT~1\AppData\Local\Temp\ccavO8bx.s 			page 133


 5427 0c00 1A       		.byte	0x1a
 5428 0c01 38       		.byte	0x38
 5429 0c02 24       		.byte	0x24
 5430 0c03 91       		.byte	0x91
 5431 0c04 9A7B     		.sleb128 -614
 5432 0c06 94       		.byte	0x94
 5433 0c07 01       		.byte	0x1
 5434 0c08 08       		.byte	0x8
 5435 0c09 FF       		.byte	0xff
 5436 0c0a 1A       		.byte	0x1a
 5437 0c0b 21       		.byte	0x21
 5438 0c0c 9F       		.byte	0x9f
 5439 0c0d 34030000 		.4byte	.LVL200
 5440 0c11 3C030000 		.4byte	.LVL203
 5441 0c15 0100     		.2byte	0x1
 5442 0c17 53       		.byte	0x53
 5443 0c18 46030000 		.4byte	.LVL205
 5444 0c1c 5C030000 		.4byte	.LFE68
 5445 0c20 1400     		.2byte	0x14
 5446 0c22 91       		.byte	0x91
 5447 0c23 9B7B     		.sleb128 -613
 5448 0c25 94       		.byte	0x94
 5449 0c26 01       		.byte	0x1
 5450 0c27 08       		.byte	0x8
 5451 0c28 FF       		.byte	0xff
 5452 0c29 1A       		.byte	0x1a
 5453 0c2a 38       		.byte	0x38
 5454 0c2b 24       		.byte	0x24
 5455 0c2c 91       		.byte	0x91
 5456 0c2d 9A7B     		.sleb128 -614
 5457 0c2f 94       		.byte	0x94
 5458 0c30 01       		.byte	0x1
 5459 0c31 08       		.byte	0x8
 5460 0c32 FF       		.byte	0xff
 5461 0c33 1A       		.byte	0x1a
 5462 0c34 21       		.byte	0x21
 5463 0c35 9F       		.byte	0x9f
 5464 0c36 00000000 		.4byte	0
 5465 0c3a 00000000 		.4byte	0
 5466              	.LLST29:
 5467 0c3e 00000000 		.4byte	.LVL94
 5468 0c42 18000000 		.4byte	.LVL96
 5469 0c46 0200     		.2byte	0x2
 5470 0c48 30       		.byte	0x30
 5471 0c49 9F       		.byte	0x9f
 5472 0c4a 7C000000 		.4byte	.LVL108
 5473 0c4e D4000000 		.4byte	.LVL123
 5474 0c52 0100     		.2byte	0x1
 5475 0c54 56       		.byte	0x56
 5476 0c55 9A010000 		.4byte	.LVL140
 5477 0c59 E4010000 		.4byte	.LVL149
 5478 0c5d 0100     		.2byte	0x1
 5479 0c5f 56       		.byte	0x56
 5480 0c60 E4010000 		.4byte	.LVL149
 5481 0c64 13020000 		.4byte	.LVL156-1
 5482 0c68 1400     		.2byte	0x14
 5483 0c6a 91       		.byte	0x91
ARM GAS  C:\Users\RABBIT~1\AppData\Local\Temp\ccavO8bx.s 			page 134


 5484 0c6b 9E7B     		.sleb128 -610
 5485 0c6d 94       		.byte	0x94
 5486 0c6e 01       		.byte	0x1
 5487 0c6f 08       		.byte	0x8
 5488 0c70 FF       		.byte	0xff
 5489 0c71 1A       		.byte	0x1a
 5490 0c72 38       		.byte	0x38
 5491 0c73 24       		.byte	0x24
 5492 0c74 91       		.byte	0x91
 5493 0c75 9D7B     		.sleb128 -611
 5494 0c77 94       		.byte	0x94
 5495 0c78 01       		.byte	0x1
 5496 0c79 08       		.byte	0x8
 5497 0c7a FF       		.byte	0xff
 5498 0c7b 1A       		.byte	0x1a
 5499 0c7c 21       		.byte	0x21
 5500 0c7d 9F       		.byte	0x9f
 5501 0c7e 4A020000 		.4byte	.LVL163
 5502 0c82 4C020000 		.4byte	.LVL164
 5503 0c86 0100     		.2byte	0x1
 5504 0c88 56       		.byte	0x56
 5505 0c89 70020000 		.4byte	.LVL170
 5506 0c8d 74020000 		.4byte	.LVL171
 5507 0c91 0100     		.2byte	0x1
 5508 0c93 56       		.byte	0x56
 5509 0c94 34030000 		.4byte	.LVL200
 5510 0c98 38030000 		.4byte	.LVL201
 5511 0c9c 0100     		.2byte	0x1
 5512 0c9e 56       		.byte	0x56
 5513 0c9f 38030000 		.4byte	.LVL201
 5514 0ca3 3A030000 		.4byte	.LVL202
 5515 0ca7 0100     		.2byte	0x1
 5516 0ca9 54       		.byte	0x54
 5517 0caa 3C030000 		.4byte	.LVL203
 5518 0cae 42030000 		.4byte	.LVL204
 5519 0cb2 1400     		.2byte	0x14
 5520 0cb4 91       		.byte	0x91
 5521 0cb5 9E7B     		.sleb128 -610
 5522 0cb7 94       		.byte	0x94
 5523 0cb8 01       		.byte	0x1
 5524 0cb9 08       		.byte	0x8
 5525 0cba FF       		.byte	0xff
 5526 0cbb 1A       		.byte	0x1a
 5527 0cbc 38       		.byte	0x38
 5528 0cbd 24       		.byte	0x24
 5529 0cbe 91       		.byte	0x91
 5530 0cbf 9D7B     		.sleb128 -611
 5531 0cc1 94       		.byte	0x94
 5532 0cc2 01       		.byte	0x1
 5533 0cc3 08       		.byte	0x8
 5534 0cc4 FF       		.byte	0xff
 5535 0cc5 1A       		.byte	0x1a
 5536 0cc6 21       		.byte	0x21
 5537 0cc7 9F       		.byte	0x9f
 5538 0cc8 00000000 		.4byte	0
 5539 0ccc 00000000 		.4byte	0
 5540              	.LLST30:
ARM GAS  C:\Users\RABBIT~1\AppData\Local\Temp\ccavO8bx.s 			page 135


 5541 0cd0 00000000 		.4byte	.LVL94
 5542 0cd4 18000000 		.4byte	.LVL96
 5543 0cd8 0200     		.2byte	0x2
 5544 0cda 30       		.byte	0x30
 5545 0cdb 9F       		.byte	0x9f
 5546 0cdc 7C000000 		.4byte	.LVL108
 5547 0ce0 D4000000 		.4byte	.LVL123
 5548 0ce4 0100     		.2byte	0x1
 5549 0ce6 57       		.byte	0x57
 5550 0ce7 22020000 		.4byte	.LVL157
 5551 0ceb 24020000 		.4byte	.LVL158
 5552 0cef 0200     		.2byte	0x2
 5553 0cf1 31       		.byte	0x31
 5554 0cf2 9F       		.byte	0x9f
 5555 0cf3 24020000 		.4byte	.LVL158
 5556 0cf7 42020000 		.4byte	.LVL162
 5557 0cfb 0100     		.2byte	0x1
 5558 0cfd 57       		.byte	0x57
 5559 0cfe 4A020000 		.4byte	.LVL163
 5560 0d02 4C020000 		.4byte	.LVL164
 5561 0d06 0100     		.2byte	0x1
 5562 0d08 57       		.byte	0x57
 5563 0d09 00000000 		.4byte	0
 5564 0d0d 00000000 		.4byte	0
 5565              	.LLST31:
 5566 0d11 00000000 		.4byte	.LVL94
 5567 0d15 18000000 		.4byte	.LVL96
 5568 0d19 0200     		.2byte	0x2
 5569 0d1b 30       		.byte	0x30
 5570 0d1c 9F       		.byte	0x9f
 5571 0d1d 7C000000 		.4byte	.LVL108
 5572 0d21 D4000000 		.4byte	.LVL123
 5573 0d25 0100     		.2byte	0x1
 5574 0d27 55       		.byte	0x55
 5575 0d28 4A020000 		.4byte	.LVL163
 5576 0d2c 4C020000 		.4byte	.LVL164
 5577 0d30 0100     		.2byte	0x1
 5578 0d32 55       		.byte	0x55
 5579 0d33 88020000 		.4byte	.LVL172
 5580 0d37 92020000 		.4byte	.LVL174
 5581 0d3b 0200     		.2byte	0x2
 5582 0d3d 31       		.byte	0x31
 5583 0d3e 9F       		.byte	0x9f
 5584 0d3f 00000000 		.4byte	0
 5585 0d43 00000000 		.4byte	0
 5586              	.LLST32:
 5587 0d47 D8000000 		.4byte	.LVL125
 5588 0d4b DA000000 		.4byte	.LVL126
 5589 0d4f 0100     		.2byte	0x1
 5590 0d51 59       		.byte	0x59
 5591 0d52 E6000000 		.4byte	.LVL128
 5592 0d56 56020000 		.4byte	.LVL165
 5593 0d5a 0100     		.2byte	0x1
 5594 0d5c 59       		.byte	0x59
 5595 0d5d 56020000 		.4byte	.LVL165
 5596 0d61 64020000 		.4byte	.LVL167
 5597 0d65 0300     		.2byte	0x3
ARM GAS  C:\Users\RABBIT~1\AppData\Local\Temp\ccavO8bx.s 			page 136


 5598 0d67 91       		.byte	0x91
 5599 0d68 9C7B     		.sleb128 -612
 5600 0d6a 64020000 		.4byte	.LVL167
 5601 0d6e 6B020000 		.4byte	.LVL169-1
 5602 0d72 0200     		.2byte	0x2
 5603 0d74 71       		.byte	0x71
 5604 0d75 00       		.sleb128 0
 5605 0d76 74020000 		.4byte	.LVL171
 5606 0d7a 5C030000 		.4byte	.LFE68
 5607 0d7e 0100     		.2byte	0x1
 5608 0d80 59       		.byte	0x59
 5609 0d81 00000000 		.4byte	0
 5610 0d85 00000000 		.4byte	0
 5611              	.LLST33:
 5612 0d89 5C010000 		.4byte	.LVL133
 5613 0d8d 5E010000 		.4byte	.LVL134
 5614 0d91 0100     		.2byte	0x1
 5615 0d93 53       		.byte	0x53
 5616 0d94 66010000 		.4byte	.LVL135
 5617 0d98 6C010000 		.4byte	.LVL137
 5618 0d9c 0100     		.2byte	0x1
 5619 0d9e 53       		.byte	0x53
 5620 0d9f 00000000 		.4byte	0
 5621 0da3 00000000 		.4byte	0
 5622              	.LLST34:
 5623 0da7 54010000 		.4byte	.LVL132
 5624 0dab 80010000 		.4byte	.LVL139
 5625 0daf 0100     		.2byte	0x1
 5626 0db1 52       		.byte	0x52
 5627 0db2 00000000 		.4byte	0
 5628 0db6 00000000 		.4byte	0
 5629              	.LLST35:
 5630 0dba F0010000 		.4byte	.LVL151
 5631 0dbe 0E020000 		.4byte	.LVL155
 5632 0dc2 0100     		.2byte	0x1
 5633 0dc4 52       		.byte	0x52
 5634 0dc5 0E020000 		.4byte	.LVL155
 5635 0dc9 24020000 		.4byte	.LVL158
 5636 0dcd 0800     		.2byte	0x8
 5637 0dcf 79       		.byte	0x79
 5638 0dd0 00       		.sleb128 0
 5639 0dd1 38       		.byte	0x38
 5640 0dd2 24       		.byte	0x24
 5641 0dd3 74       		.byte	0x74
 5642 0dd4 00       		.sleb128 0
 5643 0dd5 22       		.byte	0x22
 5644 0dd6 9F       		.byte	0x9f
 5645 0dd7 3C030000 		.4byte	.LVL203
 5646 0ddb 42030000 		.4byte	.LVL204
 5647 0ddf 0100     		.2byte	0x1
 5648 0de1 52       		.byte	0x52
 5649 0de2 00000000 		.4byte	0
 5650 0de6 00000000 		.4byte	0
 5651              	.LLST36:
 5652 0dea F6010000 		.4byte	.LVL152
 5653 0dee FE010000 		.4byte	.LVL153
 5654 0df2 0100     		.2byte	0x1
ARM GAS  C:\Users\RABBIT~1\AppData\Local\Temp\ccavO8bx.s 			page 137


 5655 0df4 53       		.byte	0x53
 5656 0df5 FE010000 		.4byte	.LVL153
 5657 0df9 00020000 		.4byte	.LVL154
 5658 0dfd 0900     		.2byte	0x9
 5659 0dff 71       		.byte	0x71
 5660 0e00 00       		.sleb128 0
 5661 0e01 09       		.byte	0x9
 5662 0e02 EC       		.byte	0xec
 5663 0e03 24       		.byte	0x24
 5664 0e04 09       		.byte	0x9
 5665 0e05 F4       		.byte	0xf4
 5666 0e06 25       		.byte	0x25
 5667 0e07 9F       		.byte	0x9f
 5668 0e08 00020000 		.4byte	.LVL154
 5669 0e0c 13020000 		.4byte	.LVL156-1
 5670 0e10 0100     		.2byte	0x1
 5671 0e12 53       		.byte	0x53
 5672 0e13 3C030000 		.4byte	.LVL203
 5673 0e17 42030000 		.4byte	.LVL204
 5674 0e1b 0100     		.2byte	0x1
 5675 0e1d 53       		.byte	0x53
 5676 0e1e 00000000 		.4byte	0
 5677 0e22 00000000 		.4byte	0
 5678              	.LLST37:
 5679 0e26 14020000 		.4byte	.LVL156
 5680 0e2a 24020000 		.4byte	.LVL158
 5681 0e2e 0200     		.2byte	0x2
 5682 0e30 30       		.byte	0x30
 5683 0e31 9F       		.byte	0x9f
 5684 0e32 00000000 		.4byte	0
 5685 0e36 00000000 		.4byte	0
 5686              	.LLST38:
 5687 0e3a A8020000 		.4byte	.LVL175
 5688 0e3e B5020000 		.4byte	.LVL177-1
 5689 0e42 1400     		.2byte	0x14
 5690 0e44 91       		.byte	0x91
 5691 0e45 9E7B     		.sleb128 -610
 5692 0e47 94       		.byte	0x94
 5693 0e48 01       		.byte	0x1
 5694 0e49 08       		.byte	0x8
 5695 0e4a FF       		.byte	0xff
 5696 0e4b 1A       		.byte	0x1a
 5697 0e4c 38       		.byte	0x38
 5698 0e4d 24       		.byte	0x24
 5699 0e4e 91       		.byte	0x91
 5700 0e4f 9D7B     		.sleb128 -611
 5701 0e51 94       		.byte	0x94
 5702 0e52 01       		.byte	0x1
 5703 0e53 08       		.byte	0x8
 5704 0e54 FF       		.byte	0xff
 5705 0e55 1A       		.byte	0x1a
 5706 0e56 21       		.byte	0x21
 5707 0e57 9F       		.byte	0x9f
 5708 0e58 BA020000 		.4byte	.LVL179
 5709 0e5c CD020000 		.4byte	.LVL182-1
 5710 0e60 1400     		.2byte	0x14
 5711 0e62 91       		.byte	0x91
ARM GAS  C:\Users\RABBIT~1\AppData\Local\Temp\ccavO8bx.s 			page 138


 5712 0e63 9E7B     		.sleb128 -610
 5713 0e65 94       		.byte	0x94
 5714 0e66 01       		.byte	0x1
 5715 0e67 08       		.byte	0x8
 5716 0e68 FF       		.byte	0xff
 5717 0e69 1A       		.byte	0x1a
 5718 0e6a 38       		.byte	0x38
 5719 0e6b 24       		.byte	0x24
 5720 0e6c 91       		.byte	0x91
 5721 0e6d 9D7B     		.sleb128 -611
 5722 0e6f 94       		.byte	0x94
 5723 0e70 01       		.byte	0x1
 5724 0e71 08       		.byte	0x8
 5725 0e72 FF       		.byte	0xff
 5726 0e73 1A       		.byte	0x1a
 5727 0e74 21       		.byte	0x21
 5728 0e75 9F       		.byte	0x9f
 5729 0e76 00000000 		.4byte	0
 5730 0e7a 00000000 		.4byte	0
 5731              	.LLST39:
 5732 0e7e BE020000 		.4byte	.LVL180
 5733 0e82 C8020000 		.4byte	.LVL181
 5734 0e86 0800     		.2byte	0x8
 5735 0e88 7A       		.byte	0x7a
 5736 0e89 00       		.sleb128 0
 5737 0e8a 7B       		.byte	0x7b
 5738 0e8b 00       		.sleb128 0
 5739 0e8c 22       		.byte	0x22
 5740 0e8d 38       		.byte	0x38
 5741 0e8e 24       		.byte	0x24
 5742 0e8f 9F       		.byte	0x9f
 5743 0e90 C8020000 		.4byte	.LVL181
 5744 0e94 CD020000 		.4byte	.LVL182-1
 5745 0e98 0100     		.2byte	0x1
 5746 0e9a 51       		.byte	0x51
 5747 0e9b CD020000 		.4byte	.LVL182-1
 5748 0e9f DA020000 		.4byte	.LVL184
 5749 0ea3 0800     		.2byte	0x8
 5750 0ea5 7A       		.byte	0x7a
 5751 0ea6 00       		.sleb128 0
 5752 0ea7 7B       		.byte	0x7b
 5753 0ea8 00       		.sleb128 0
 5754 0ea9 22       		.byte	0x22
 5755 0eaa 38       		.byte	0x38
 5756 0eab 24       		.byte	0x24
 5757 0eac 9F       		.byte	0x9f
 5758 0ead DA020000 		.4byte	.LVL184
 5759 0eb1 DC020000 		.4byte	.LVL185
 5760 0eb5 0C00     		.2byte	0xc
 5761 0eb7 7A       		.byte	0x7a
 5762 0eb8 00       		.sleb128 0
 5763 0eb9 7B       		.byte	0x7b
 5764 0eba 00       		.sleb128 0
 5765 0ebb 22       		.byte	0x22
 5766 0ebc 42       		.byte	0x42
 5767 0ebd 45       		.byte	0x45
 5768 0ebe 24       		.byte	0x24
ARM GAS  C:\Users\RABBIT~1\AppData\Local\Temp\ccavO8bx.s 			page 139


 5769 0ebf 1C       		.byte	0x1c
 5770 0ec0 38       		.byte	0x38
 5771 0ec1 24       		.byte	0x24
 5772 0ec2 9F       		.byte	0x9f
 5773 0ec3 DC020000 		.4byte	.LVL185
 5774 0ec7 E0020000 		.4byte	.LVL186
 5775 0ecb 0A00     		.2byte	0xa
 5776 0ecd 79       		.byte	0x79
 5777 0ece 00       		.sleb128 0
 5778 0ecf 38       		.byte	0x38
 5779 0ed0 24       		.byte	0x24
 5780 0ed1 7B       		.byte	0x7b
 5781 0ed2 00       		.sleb128 0
 5782 0ed3 22       		.byte	0x22
 5783 0ed4 38       		.byte	0x38
 5784 0ed5 24       		.byte	0x24
 5785 0ed6 9F       		.byte	0x9f
 5786 0ed7 E0020000 		.4byte	.LVL186
 5787 0edb 14030000 		.4byte	.LVL194
 5788 0edf 0100     		.2byte	0x1
 5789 0ee1 5A       		.byte	0x5a
 5790 0ee2 00000000 		.4byte	0
 5791 0ee6 00000000 		.4byte	0
 5792              	.LLST40:
 5793 0eea B8020000 		.4byte	.LVL178
 5794 0eee BA020000 		.4byte	.LVL179
 5795 0ef2 0100     		.2byte	0x1
 5796 0ef4 54       		.byte	0x54
 5797 0ef5 D4020000 		.4byte	.LVL183
 5798 0ef9 EA020000 		.4byte	.LVL189
 5799 0efd 0100     		.2byte	0x1
 5800 0eff 54       		.byte	0x54
 5801 0f00 EE020000 		.4byte	.LVL190
 5802 0f04 16030000 		.4byte	.LVL195
 5803 0f08 0100     		.2byte	0x1
 5804 0f0a 54       		.byte	0x54
 5805 0f0b 00000000 		.4byte	0
 5806 0f0f 00000000 		.4byte	0
 5807              	.LLST41:
 5808 0f13 E0020000 		.4byte	.LVL186
 5809 0f17 E2020000 		.4byte	.LVL187
 5810 0f1b 0200     		.2byte	0x2
 5811 0f1d 30       		.byte	0x30
 5812 0f1e 9F       		.byte	0x9f
 5813 0f1f E2020000 		.4byte	.LVL187
 5814 0f23 E8020000 		.4byte	.LVL188
 5815 0f27 0100     		.2byte	0x1
 5816 0f29 53       		.byte	0x53
 5817 0f2a 00000000 		.4byte	0
 5818 0f2e 00000000 		.4byte	0
 5819              	.LLST42:
 5820 0f32 52000000 		.4byte	.LVL100
 5821 0f36 5C000000 		.4byte	.LVL102
 5822 0f3a 0100     		.2byte	0x1
 5823 0f3c 53       		.byte	0x53
 5824 0f3d 62000000 		.4byte	.LVL105
 5825 0f41 64000000 		.4byte	.LVL106
ARM GAS  C:\Users\RABBIT~1\AppData\Local\Temp\ccavO8bx.s 			page 140


 5826 0f45 0100     		.2byte	0x1
 5827 0f47 53       		.byte	0x53
 5828 0f48 00000000 		.4byte	0
 5829 0f4c 00000000 		.4byte	0
 5830              	.LLST43:
 5831 0f50 52000000 		.4byte	.LVL100
 5832 0f54 64000000 		.4byte	.LVL106
 5833 0f58 0400     		.2byte	0x4
 5834 0f5a 91       		.byte	0x91
 5835 0f5b 987B     		.sleb128 -616
 5836 0f5d 9F       		.byte	0x9f
 5837 0f5e 00000000 		.4byte	0
 5838 0f62 00000000 		.4byte	0
 5839              	.LLST44:
 5840 0f66 52000000 		.4byte	.LVL100
 5841 0f6a 56000000 		.4byte	.LVL101
 5842 0f6e 0200     		.2byte	0x2
 5843 0f70 30       		.byte	0x30
 5844 0f71 9F       		.byte	0x9f
 5845 0f72 56000000 		.4byte	.LVL101
 5846 0f76 5E000000 		.4byte	.LVL103
 5847 0f7a 0100     		.2byte	0x1
 5848 0f7c 50       		.byte	0x50
 5849 0f7d 60000000 		.4byte	.LVL104
 5850 0f81 64000000 		.4byte	.LVL106
 5851 0f85 0100     		.2byte	0x1
 5852 0f87 50       		.byte	0x50
 5853 0f88 00000000 		.4byte	0
 5854 0f8c 00000000 		.4byte	0
 5855              	.LLST45:
 5856 0f90 8E000000 		.4byte	.LVL109
 5857 0f94 C4000000 		.4byte	.LVL119
 5858 0f98 0100     		.2byte	0x1
 5859 0f9a 51       		.byte	0x51
 5860 0f9b C4000000 		.4byte	.LVL119
 5861 0f9f CA000000 		.4byte	.LVL120
 5862 0fa3 0300     		.2byte	0x3
 5863 0fa5 91       		.byte	0x91
 5864 0fa6 F678     		.sleb128 -906
 5865 0fa8 CA000000 		.4byte	.LVL120
 5866 0fac D1000000 		.4byte	.LVL122-1
 5867 0fb0 0200     		.2byte	0x2
 5868 0fb2 72       		.byte	0x72
 5869 0fb3 00       		.sleb128 0
 5870 0fb4 D1000000 		.4byte	.LVL122-1
 5871 0fb8 D4000000 		.4byte	.LVL123
 5872 0fbc 0300     		.2byte	0x3
 5873 0fbe 91       		.byte	0x91
 5874 0fbf F678     		.sleb128 -906
 5875 0fc1 00000000 		.4byte	0
 5876 0fc5 00000000 		.4byte	0
 5877              	.LLST46:
 5878 0fc9 7C000000 		.4byte	.LVL108
 5879 0fcd CE000000 		.4byte	.LVL121
 5880 0fd1 0400     		.2byte	0x4
 5881 0fd3 91       		.byte	0x91
 5882 0fd4 987B     		.sleb128 -616
ARM GAS  C:\Users\RABBIT~1\AppData\Local\Temp\ccavO8bx.s 			page 141


 5883 0fd6 9F       		.byte	0x9f
 5884 0fd7 CE000000 		.4byte	.LVL121
 5885 0fdb D1000000 		.4byte	.LVL122-1
 5886 0fdf 0100     		.2byte	0x1
 5887 0fe1 50       		.byte	0x50
 5888 0fe2 D1000000 		.4byte	.LVL122-1
 5889 0fe6 D4000000 		.4byte	.LVL123
 5890 0fea 0400     		.2byte	0x4
 5891 0fec 91       		.byte	0x91
 5892 0fed 987B     		.sleb128 -616
 5893 0fef 9F       		.byte	0x9f
 5894 0ff0 00000000 		.4byte	0
 5895 0ff4 00000000 		.4byte	0
 5896              	.LLST47:
 5897 0ff8 7C000000 		.4byte	.LVL108
 5898 0ffc 9C000000 		.4byte	.LVL111
 5899 1000 0100     		.2byte	0x1
 5900 1002 54       		.byte	0x54
 5901 1003 9C000000 		.4byte	.LVL111
 5902 1007 B2000000 		.4byte	.LVL118
 5903 100b 0300     		.2byte	0x3
 5904 100d 91       		.byte	0x91
 5905 100e 997B     		.sleb128 -615
 5906 1010 00000000 		.4byte	0
 5907 1014 00000000 		.4byte	0
 5908              	.LLST48:
 5909 1018 98000000 		.4byte	.LVL110
 5910 101c A0000000 		.4byte	.LVL112
 5911 1020 0100     		.2byte	0x1
 5912 1022 52       		.byte	0x52
 5913 1023 A6000000 		.4byte	.LVL114
 5914 1027 AE000000 		.4byte	.LVL116
 5915 102b 0100     		.2byte	0x1
 5916 102d 52       		.byte	0x52
 5917 102e 00000000 		.4byte	0
 5918 1032 00000000 		.4byte	0
 5919              	.LLST49:
 5920 1036 98000000 		.4byte	.LVL110
 5921 103a B0000000 		.4byte	.LVL117
 5922 103e 0400     		.2byte	0x4
 5923 1040 91       		.byte	0x91
 5924 1041 987B     		.sleb128 -616
 5925 1043 9F       		.byte	0x9f
 5926 1044 00000000 		.4byte	0
 5927 1048 00000000 		.4byte	0
 5928              	.LLST50:
 5929 104c 98000000 		.4byte	.LVL110
 5930 1050 9C000000 		.4byte	.LVL111
 5931 1054 0200     		.2byte	0x2
 5932 1056 30       		.byte	0x30
 5933 1057 9F       		.byte	0x9f
 5934 1058 9C000000 		.4byte	.LVL111
 5935 105c A2000000 		.4byte	.LVL113
 5936 1060 0100     		.2byte	0x1
 5937 1062 53       		.byte	0x53
 5938 1063 A6000000 		.4byte	.LVL114
 5939 1067 AC000000 		.4byte	.LVL115
ARM GAS  C:\Users\RABBIT~1\AppData\Local\Temp\ccavO8bx.s 			page 142


 5940 106b 0100     		.2byte	0x1
 5941 106d 53       		.byte	0x53
 5942 106e AC000000 		.4byte	.LVL115
 5943 1072 B0000000 		.4byte	.LVL117
 5944 1076 0400     		.2byte	0x4
 5945 1078 73       		.byte	0x73
 5946 1079 00       		.sleb128 0
 5947 107a 1F       		.byte	0x1f
 5948 107b 9F       		.byte	0x9f
 5949 107c 00000000 		.4byte	0
 5950 1080 00000000 		.4byte	0
 5951              	.LLST51:
 5952 1084 2C000000 		.4byte	.LVL212
 5953 1088 30000000 		.4byte	.LVL213
 5954 108c 0100     		.2byte	0x1
 5955 108e 50       		.byte	0x50
 5956 108f 30000000 		.4byte	.LVL213
 5957 1093 32000000 		.4byte	.LVL214
 5958 1097 0700     		.2byte	0x7
 5959 1099 70       		.byte	0x70
 5960 109a 00       		.sleb128 0
 5961 109b 73       		.byte	0x73
 5962 109c 00       		.sleb128 0
 5963 109d 1C       		.byte	0x1c
 5964 109e 1F       		.byte	0x1f
 5965 109f 9F       		.byte	0x9f
 5966 10a0 00000000 		.4byte	0
 5967 10a4 00000000 		.4byte	0
 5968              	.LLST52:
 5969 10a8 00000000 		.4byte	.LVL207
 5970 10ac 10000000 		.4byte	.LVL209
 5971 10b0 0200     		.2byte	0x2
 5972 10b2 36       		.byte	0x36
 5973 10b3 9F       		.byte	0x9f
 5974 10b4 10000000 		.4byte	.LVL209
 5975 10b8 62000000 		.4byte	.LVL217
 5976 10bc 0100     		.2byte	0x1
 5977 10be 55       		.byte	0x55
 5978 10bf 00000000 		.4byte	0
 5979 10c3 00000000 		.4byte	0
 5980              		.section	.debug_aranges,"",%progbits
 5981 0000 5C000000 		.4byte	0x5c
 5982 0004 0200     		.2byte	0x2
 5983 0006 00000000 		.4byte	.Ldebug_info0
 5984 000a 04       		.byte	0x4
 5985 000b 00       		.byte	0
 5986 000c 0000     		.2byte	0
 5987 000e 0000     		.2byte	0
 5988 0010 00000000 		.4byte	.LFB62
 5989 0014 02000000 		.4byte	.LFE62-.LFB62
 5990 0018 00000000 		.4byte	.LFB57
 5991 001c 14000000 		.4byte	.LFE57-.LFB57
 5992 0020 00000000 		.4byte	.LFB66
 5993 0024 3A000000 		.4byte	.LFE66-.LFB66
 5994 0028 00000000 		.4byte	.LFB67
 5995 002c B4000000 		.4byte	.LFE67-.LFB67
 5996 0030 00000000 		.4byte	.LFB61
ARM GAS  C:\Users\RABBIT~1\AppData\Local\Temp\ccavO8bx.s 			page 143


 5997 0034 34000000 		.4byte	.LFE61-.LFB61
 5998 0038 00000000 		.4byte	.LFB63
 5999 003c B0000000 		.4byte	.LFE63-.LFB63
 6000 0040 00000000 		.4byte	.LFB60
 6001 0044 34000000 		.4byte	.LFE60-.LFB60
 6002 0048 00000000 		.4byte	.LFB68
 6003 004c 5C030000 		.4byte	.LFE68-.LFB68
 6004 0050 00000000 		.4byte	.LFB58
 6005 0054 70000000 		.4byte	.LFE58-.LFB58
 6006 0058 00000000 		.4byte	0
 6007 005c 00000000 		.4byte	0
 6008              		.section	.debug_ranges,"",%progbits
 6009              	.Ldebug_ranges0:
 6010 0000 14000000 		.4byte	.LBB24
 6011 0004 18000000 		.4byte	.LBE24
 6012 0008 D8000000 		.4byte	.LBB40
 6013 000c DA000000 		.4byte	.LBE40
 6014 0010 DE000000 		.4byte	.LBB41
 6015 0014 70020000 		.4byte	.LBE41
 6016 0018 74020000 		.4byte	.LBB42
 6017 001c 42030000 		.4byte	.LBE42
 6018 0020 46030000 		.4byte	.LBB43
 6019 0024 5C030000 		.4byte	.LBE43
 6020 0028 00000000 		.4byte	0
 6021 002c 00000000 		.4byte	0
 6022 0030 DC010000 		.4byte	.LBB26
 6023 0034 3E020000 		.4byte	.LBE26
 6024 0038 3C030000 		.4byte	.LBB31
 6025 003c 42030000 		.4byte	.LBE31
 6026 0040 00000000 		.4byte	0
 6027 0044 00000000 		.4byte	0
 6028 0048 98000000 		.4byte	.LBB36
 6029 004c AC000000 		.4byte	.LBE36
 6030 0050 AE000000 		.4byte	.LBB39
 6031 0054 B0000000 		.4byte	.LBE39
 6032 0058 00000000 		.4byte	0
 6033 005c 00000000 		.4byte	0
 6034 0060 5A000000 		.4byte	.LBB46
 6035 0064 5E000000 		.4byte	.LBE46
 6036 0068 62000000 		.4byte	.LBB49
 6037 006c 70000000 		.4byte	.LBE49
 6038 0070 00000000 		.4byte	0
 6039 0074 00000000 		.4byte	0
 6040 0078 00000000 		.4byte	.LFB62
 6041 007c 02000000 		.4byte	.LFE62
 6042 0080 00000000 		.4byte	.LFB57
 6043 0084 14000000 		.4byte	.LFE57
 6044 0088 00000000 		.4byte	.LFB66
 6045 008c 3A000000 		.4byte	.LFE66
 6046 0090 00000000 		.4byte	.LFB67
 6047 0094 B4000000 		.4byte	.LFE67
 6048 0098 00000000 		.4byte	.LFB61
 6049 009c 34000000 		.4byte	.LFE61
 6050 00a0 00000000 		.4byte	.LFB63
 6051 00a4 B0000000 		.4byte	.LFE63
 6052 00a8 00000000 		.4byte	.LFB60
 6053 00ac 34000000 		.4byte	.LFE60
ARM GAS  C:\Users\RABBIT~1\AppData\Local\Temp\ccavO8bx.s 			page 144


 6054 00b0 00000000 		.4byte	.LFB68
 6055 00b4 5C030000 		.4byte	.LFE68
 6056 00b8 00000000 		.4byte	.LFB58
 6057 00bc 70000000 		.4byte	.LFE58
 6058 00c0 00000000 		.4byte	0
 6059 00c4 00000000 		.4byte	0
 6060              		.section	.debug_line,"",%progbits
 6061              	.Ldebug_line0:
 6062 0000 2B040000 		.section	.debug_str,"MS",%progbits,1
 6062      02007901 
 6062      00000201 
 6062      FB0E0D00 
 6062      01010101 
 6063              	.LASF67:
 6064 0000 76616C69 		.ascii	"valid\000"
 6064      6400
 6065              	.LASF74:
 6066 0006 424C5F57 		.ascii	"BL_WritePacket\000"
 6066      72697465 
 6066      5061636B 
 6066      657400
 6067              	.LASF60:
 6068 0015 61707049 		.ascii	"appId\000"
 6068      6400
 6069              	.LASF63:
 6070 001b 72657375 		.ascii	"result\000"
 6070      6C7400
 6071              	.LASF49:
 6072 0022 62617365 		.ascii	"baseAddr\000"
 6072      41646472 
 6072      00
 6073              	.LASF97:
 6074 002b 433A5C55 		.ascii	"C:\\Users\\Rabbit Hole Shipping\\Google Drive\\SCSI"
 6074      73657273 
 6074      5C526162 
 6074      62697420 
 6074      486F6C65 
 6075 005a 3253445C 		.ascii	"2SD\\software\\SCSI2SD\\v5.2-eth\\USB_Bootloader.cy"
 6075      736F6674 
 6075      77617265 
 6075      5C534353 
 6075      49325344 
 6076 0089 64736E00 		.ascii	"dsn\000"
 6077              	.LASF85:
 6078 008d 4379536F 		.ascii	"CySoftwareReset\000"
 6078      66747761 
 6078      72655265 
 6078      73657400 
 6079              	.LASF30:
 6080 009d 706B7453 		.ascii	"pktSize\000"
 6080      697A6500 
 6081              	.LASF48:
 6082 00a5 61707041 		.ascii	"appAddr\000"
 6082      64647200 
 6083              	.LASF55:
 6084 00ad 726F7744 		.ascii	"rowData\000"
 6084      61746100 
ARM GAS  C:\Users\RABBIT~1\AppData\Local\Temp\ccavO8bx.s 			page 145


 6085              	.LASF2:
 6086 00b5 73686F72 		.ascii	"short int\000"
 6086      7420696E 
 6086      7400
 6087              	.LASF27:
 6088 00bf 61636B43 		.ascii	"ackCode\000"
 6088      6F646500 
 6089              	.LASF20:
 6090 00c7 73697A65 		.ascii	"sizetype\000"
 6090      74797065 
 6090      00
 6091              	.LASF70:
 6092 00d0 424C5F45 		.ascii	"BL_Exit\000"
 6092      78697400 
 6093              	.LASF38:
 6094 00d8 73746172 		.ascii	"startRow\000"
 6094      74526F77 
 6094      00
 6095              	.LASF37:
 6096 00e1 62746C64 		.ascii	"btldrData\000"
 6096      72446174 
 6096      6100
 6097              	.LASF31:
 6098 00eb 64617461 		.ascii	"dataOffset\000"
 6098      4F666673 
 6098      657400
 6099              	.LASF81:
 6100 00f6 424C5F53 		.ascii	"BL_SizeBytesAccess\000"
 6100      697A6542 
 6100      79746573 
 6100      41636365 
 6100      737300
 6101              	.LASF43:
 6102 0109 42746C64 		.ascii	"BtldrVersion\000"
 6102      72566572 
 6102      73696F6E 
 6102      00
 6103              	.LASF90:
 6104 0116 55534246 		.ascii	"USBFS_CyBtldrCommWrite\000"
 6104      535F4379 
 6104      42746C64 
 6104      72436F6D 
 6104      6D577269 
 6105              	.LASF88:
 6106 012d 6D656D63 		.ascii	"memcpy\000"
 6106      707900
 6107              	.LASF53:
 6108 0134 72756E54 		.ascii	"runType\000"
 6108      79706500 
 6109              	.LASF12:
 6110 013c 75696E74 		.ascii	"uint16\000"
 6110      313600
 6111              	.LASF46:
 6112 0143 63686563 		.ascii	"checksum\000"
 6112      6B73756D 
 6112      00
 6113              	.LASF66:
ARM GAS  C:\Users\RABBIT~1\AppData\Local\Temp\ccavO8bx.s 			page 146


 6114 014c 424C5F56 		.ascii	"BL_ValidateBootloadable\000"
 6114      616C6964 
 6114      61746542 
 6114      6F6F746C 
 6114      6F616461 
 6115              	.LASF11:
 6116 0164 75696E74 		.ascii	"uint8\000"
 6116      3800
 6117              	.LASF93:
 6118 016a 43795365 		.ascii	"CySetTemp\000"
 6118      7454656D 
 6118      7000
 6119              	.LASF76:
 6120 0174 424C5F53 		.ascii	"BL_Start\000"
 6120      74617274 
 6120      00
 6121              	.LASF57:
 6122 017d 424C5F43 		.ascii	"BL_Calc8BitSum\000"
 6122      616C6338 
 6122      42697453 
 6122      756D00
 6123              	.LASF23:
 6124 018c 426F6F74 		.ascii	"BootLoaderVersion\000"
 6124      4C6F6164 
 6124      65725665 
 6124      7273696F 
 6124      6E00
 6125              	.LASF0:
 6126 019e 7369676E 		.ascii	"signed char\000"
 6126      65642063 
 6126      68617200 
 6127              	.LASF14:
 6128 01aa 666C6F61 		.ascii	"float\000"
 6128      7400
 6129              	.LASF6:
 6130 01b0 6C6F6E67 		.ascii	"long long int\000"
 6130      206C6F6E 
 6130      6720696E 
 6130      7400
 6131              	.LASF50:
 6132 01be 73746172 		.ascii	"start\000"
 6132      7400
 6133              	.LASF87:
 6134 01c4 6D656D73 		.ascii	"memset\000"
 6134      657400
 6135              	.LASF54:
 6136 01cb 666C7341 		.ascii	"flsAddr\000"
 6136      64647200 
 6137              	.LASF52:
 6138 01d3 61646472 		.ascii	"address\000"
 6138      65737300 
 6139              	.LASF69:
 6140 01db 63757242 		.ascii	"curByte\000"
 6140      79746500 
 6141              	.LASF47:
 6142 01e3 746D7049 		.ascii	"tmpIndex\000"
 6142      6E646578 
ARM GAS  C:\Users\RABBIT~1\AppData\Local\Temp\ccavO8bx.s 			page 147


 6142      00
 6143              	.LASF25:
 6144 01ec 6E756D62 		.ascii	"numberRead\000"
 6144      65725265 
 6144      616400
 6145              	.LASF68:
 6146 01f7 63616C63 		.ascii	"calcedChecksum\000"
 6146      65644368 
 6146      65636B73 
 6146      756D00
 6147              	.LASF98:
 6148 0206 424C5F48 		.ascii	"BL_HostLink\000"
 6148      6F73744C 
 6148      696E6B00 
 6149              	.LASF96:
 6150 0212 47656E65 		.ascii	"Generated_Source\\PSoC5\\BL.c\000"
 6150      72617465 
 6150      645F536F 
 6150      75726365 
 6150      5C50536F 
 6151              	.LASF34:
 6152 022e 636F6D6D 		.ascii	"communicationState\000"
 6152      756E6963 
 6152      6174696F 
 6152      6E537461 
 6152      746500
 6153              	.LASF80:
 6154 0241 424C5F53 		.ascii	"BL_SizeBytes\000"
 6154      697A6542 
 6154      79746573 
 6154      00
 6155              	.LASF33:
 6156 024e 636C6561 		.ascii	"clearedMetaData\000"
 6156      7265644D 
 6156      65746144 
 6156      61746100 
 6157              	.LASF42:
 6158 025e 424C5F6E 		.ascii	"BL_notActiveApp\000"
 6158      6F744163 
 6158      74697665 
 6158      41707000 
 6159              	.LASF32:
 6160 026e 74696D65 		.ascii	"timeOutCnt\000"
 6160      4F757443 
 6160      6E7400
 6161              	.LASF100:
 6162 0279 424C5F4C 		.ascii	"BL_LaunchApplication\000"
 6162      61756E63 
 6162      68417070 
 6162      6C696361 
 6162      74696F6E 
 6163              	.LASF39:
 6164 028e 41727261 		.ascii	"ArrayIdBtlderEnds\000"
 6164      79496442 
 6164      746C6465 
 6164      72456E64 
 6164      7300
ARM GAS  C:\Users\RABBIT~1\AppData\Local\Temp\ccavO8bx.s 			page 148


 6165              	.LASF1:
 6166 02a0 756E7369 		.ascii	"unsigned char\000"
 6166      676E6564 
 6166      20636861 
 6166      7200
 6167              	.LASF36:
 6168 02ae 64617461 		.ascii	"dataBuffer\000"
 6168      42756666 
 6168      657200
 6169              	.LASF89:
 6170 02b9 43794545 		.ascii	"CyEEPROM_Start\000"
 6170      50524F4D 
 6170      5F537461 
 6170      727400
 6171              	.LASF94:
 6172 02c8 43794861 		.ascii	"CyHalt\000"
 6172      6C7400
 6173              	.LASF10:
 6174 02cf 696E7433 		.ascii	"int32_t\000"
 6174      325F7400 
 6175              	.LASF7:
 6176 02d7 6C6F6E67 		.ascii	"long long unsigned int\000"
 6176      206C6F6E 
 6176      6720756E 
 6176      7369676E 
 6176      65642069 
 6177              	.LASF28:
 6178 02ee 706B7443 		.ascii	"pktChecksum\000"
 6178      6865636B 
 6178      73756D00 
 6179              	.LASF65:
 6180 02fa 43794274 		.ascii	"CyBtldr_CheckLaunch\000"
 6180      6C64725F 
 6180      43686563 
 6180      6B4C6175 
 6180      6E636800 
 6181              	.LASF59:
 6182 030e 6669656C 		.ascii	"field\000"
 6182      6400
 6183              	.LASF17:
 6184 0314 63797374 		.ascii	"cystatus\000"
 6184      61747573 
 6184      00
 6185              	.LASF99:
 6186 031d 424C5F4C 		.ascii	"BL_LaunchBootloadable\000"
 6186      61756E63 
 6186      68426F6F 
 6186      746C6F61 
 6186      6461626C 
 6187              	.LASF95:
 6188 0333 474E5520 		.ascii	"GNU C11 5.4.1 20160609 (release) [ARM/embedded-5-br"
 6188      43313120 
 6188      352E342E 
 6188      31203230 
 6188      31363036 
 6189 0366 616E6368 		.ascii	"anch revision 237715] -mcpu=cortex-m3 -mthumb -g -O"
 6189      20726576 
ARM GAS  C:\Users\RABBIT~1\AppData\Local\Temp\ccavO8bx.s 			page 149


 6189      6973696F 
 6189      6E203233 
 6189      37373135 
 6190 0399 73202D66 		.ascii	"s -ffunction-sections -ffat-lto-objects\000"
 6190      66756E63 
 6190      74696F6E 
 6190      2D736563 
 6190      74696F6E 
 6191              	.LASF73:
 6192 03c1 424C5F43 		.ascii	"BL_CalcPacketChecksum\000"
 6192      616C6350 
 6192      61636B65 
 6192      74436865 
 6192      636B7375 
 6193              	.LASF62:
 6194 03d7 6669656C 		.ascii	"fieldSize\000"
 6194      6453697A 
 6194      6500
 6195              	.LASF75:
 6196 03e1 73746174 		.ascii	"status\000"
 6196      757300
 6197              	.LASF44:
 6198 03e8 726F774E 		.ascii	"rowNum\000"
 6198      756D00
 6199              	.LASF35:
 6200 03ef 7061636B 		.ascii	"packetBuffer\000"
 6200      65744275 
 6200      66666572 
 6200      00
 6201              	.LASF16:
 6202 03fc 63686172 		.ascii	"char\000"
 6202      00
 6203              	.LASF84:
 6204 0401 4379466C 		.ascii	"CyFlushCache\000"
 6204      75736843 
 6204      61636865 
 6204      00
 6205              	.LASF4:
 6206 040e 6C6F6E67 		.ascii	"long int\000"
 6206      20696E74 
 6206      00
 6207              	.LASF29:
 6208 0417 72656164 		.ascii	"readStat\000"
 6208      53746174 
 6208      00
 6209              	.LASF58:
 6210 0420 424C5F47 		.ascii	"BL_GetMetadata\000"
 6210      65744D65 
 6210      74616461 
 6210      746100
 6211              	.LASF79:
 6212 042f 424C5F43 		.ascii	"BL_ChecksumAccess\000"
 6212      6865636B 
 6212      73756D41 
 6212      63636573 
 6212      7300
 6213              	.LASF3:
ARM GAS  C:\Users\RABBIT~1\AppData\Local\Temp\ccavO8bx.s 			page 150


 6214 0441 73686F72 		.ascii	"short unsigned int\000"
 6214      7420756E 
 6214      7369676E 
 6214      65642069 
 6214      6E7400
 6215              	.LASF71:
 6216 0454 74696D65 		.ascii	"timeOut\000"
 6216      4F757400 
 6217              	.LASF77:
 6218 045c 76616C69 		.ascii	"validApp\000"
 6218      64417070 
 6218      00
 6219              	.LASF26:
 6220 0465 72737053 		.ascii	"rspSize\000"
 6220      697A6500 
 6221              	.LASF19:
 6222 046d 6C6F6E67 		.ascii	"long double\000"
 6222      20646F75 
 6222      626C6500 
 6223              	.LASF21:
 6224 0479 53696C69 		.ascii	"SiliconId\000"
 6224      636F6E49 
 6224      6400
 6225              	.LASF92:
 6226 0483 55534246 		.ascii	"USBFS_CyBtldrCommRead\000"
 6226      535F4379 
 6226      42746C64 
 6226      72436F6D 
 6226      6D526561 
 6227              	.LASF72:
 6228 0499 62756666 		.ascii	"buffer\000"
 6228      657200
 6229              	.LASF91:
 6230 04a0 55534246 		.ascii	"USBFS_CyBtldrCommStart\000"
 6230      535F4379 
 6230      42746C64 
 6230      72436F6D 
 6230      6D537461 
 6231              	.LASF13:
 6232 04b7 75696E74 		.ascii	"uint32\000"
 6232      333200
 6233              	.LASF18:
 6234 04be 72656738 		.ascii	"reg8\000"
 6234      00
 6235              	.LASF5:
 6236 04c3 6C6F6E67 		.ascii	"long unsigned int\000"
 6236      20756E73 
 6236      69676E65 
 6236      6420696E 
 6236      7400
 6237              	.LASF45:
 6238 04d5 726F7741 		.ascii	"rowAddr\000"
 6238      64647200 
 6239              	.LASF15:
 6240 04dd 646F7562 		.ascii	"double\000"
 6240      6C6500
 6241              	.LASF78:
ARM GAS  C:\Users\RABBIT~1\AppData\Local\Temp\ccavO8bx.s 			page 151


 6242 04e4 424C5F43 		.ascii	"BL_Checksum\000"
 6242      6865636B 
 6242      73756D00 
 6243              	.LASF51:
 6244 04f0 73697A65 		.ascii	"size\000"
 6244      00
 6245              	.LASF9:
 6246 04f5 5F5F696E 		.ascii	"__int32_t\000"
 6246      7433325F 
 6246      7400
 6247              	.LASF61:
 6248 04ff 6669656C 		.ascii	"fieldPtr\000"
 6248      64507472 
 6248      00
 6249              	.LASF83:
 6250 0508 43795772 		.ascii	"CyWriteRowData\000"
 6250      69746552 
 6250      6F774461 
 6250      746100
 6251              	.LASF56:
 6252 0517 61727261 		.ascii	"arrayId\000"
 6252      79496400 
 6253              	.LASF41:
 6254 051f 65726173 		.ascii	"erase\000"
 6254      6500
 6255              	.LASF24:
 6256 0525 424C5F45 		.ascii	"BL_ENTER\000"
 6256      4E544552 
 6256      00
 6257              	.LASF22:
 6258 052e 52657669 		.ascii	"Revision\000"
 6258      73696F6E 
 6258      00
 6259              	.LASF40:
 6260 0537 66697273 		.ascii	"firstRow\000"
 6260      74526F77 
 6260      00
 6261              	.LASF82:
 6262 0540 49544D5F 		.ascii	"ITM_RxBuffer\000"
 6262      52784275 
 6262      66666572 
 6262      00
 6263              	.LASF8:
 6264 054d 756E7369 		.ascii	"unsigned int\000"
 6264      676E6564 
 6264      20696E74 
 6264      00
 6265              	.LASF86:
 6266 055a 43795772 		.ascii	"CyWriteRowFull\000"
 6266      69746552 
 6266      6F774675 
 6266      6C6C00
 6267              	.LASF64:
 6268 0569 424C5F53 		.ascii	"BL_SetFlashByte\000"
 6268      6574466C 
 6268      61736842 
 6268      79746500 
ARM GAS  C:\Users\RABBIT~1\AppData\Local\Temp\ccavO8bx.s 			page 152


 6269              		.ident	"GCC: (GNU Tools for ARM Embedded Processors) 5.4.1 20160609 (release) [ARM/embedded-5-bran
