ARM GAS  C:\Users\RABBIT~1\AppData\Local\Temp\ccgw4IdU.s 			page 1


   1              		.syntax unified
   2              		.cpu cortex-m3
   3              		.fpu softvfp
   4              		.eabi_attribute 20, 1
   5              		.eabi_attribute 21, 1
   6              		.eabi_attribute 23, 3
   7              		.eabi_attribute 24, 1
   8              		.eabi_attribute 25, 1
   9              		.eabi_attribute 26, 1
  10              		.eabi_attribute 30, 4
  11              		.eabi_attribute 34, 1
  12              		.eabi_attribute 18, 4
  13              		.thumb
  14              		.syntax unified
  15              		.file	"cy_em_eeprom.c"
  16              		.text
  17              	.Ltext0:
  18              		.cfi_sections	.debug_frame
  19              		.section	.text.FindLastWrittenRow,"ax",%progbits
  20              		.align	1
  21              		.thumb
  22              		.thumb_func
  23              		.type	FindLastWrittenRow, %function
  24              	FindLastWrittenRow:
  25              	.LFB5:
  26              		.file 1 "Generated_Source\\PSoC5\\cy_em_eeprom.c"
   1:Generated_Source\PSoC5/cy_em_eeprom.c **** /***************************************************************************//**
   2:Generated_Source\PSoC5/cy_em_eeprom.c **** * \file cy_em_eeprom.c
   3:Generated_Source\PSoC5/cy_em_eeprom.c **** * \version 2.20
   4:Generated_Source\PSoC5/cy_em_eeprom.c **** *
   5:Generated_Source\PSoC5/cy_em_eeprom.c **** * \brief
   6:Generated_Source\PSoC5/cy_em_eeprom.c **** *  This file provides source code of the API for the Emulated EEPROM library.
   7:Generated_Source\PSoC5/cy_em_eeprom.c **** *  The Emulated EEPROM API allows creating of an emulated EEPROM in flash that
   8:Generated_Source\PSoC5/cy_em_eeprom.c **** *  has the ability to do wear leveling and restore corrupted data from a
   9:Generated_Source\PSoC5/cy_em_eeprom.c **** *  redundant copy.
  10:Generated_Source\PSoC5/cy_em_eeprom.c **** *
  11:Generated_Source\PSoC5/cy_em_eeprom.c **** ********************************************************************************
  12:Generated_Source\PSoC5/cy_em_eeprom.c **** * \copyright
  13:Generated_Source\PSoC5/cy_em_eeprom.c **** * Copyright 2017, Cypress Semiconductor Corporation.  All rights reserved.
  14:Generated_Source\PSoC5/cy_em_eeprom.c **** * You may use this file only in accordance with the license, terms, conditions,
  15:Generated_Source\PSoC5/cy_em_eeprom.c **** * disclaimers, and limitations in the end user license agreement accompanying
  16:Generated_Source\PSoC5/cy_em_eeprom.c **** * the software package with which this file was provided.
  17:Generated_Source\PSoC5/cy_em_eeprom.c **** *******************************************************************************/
  18:Generated_Source\PSoC5/cy_em_eeprom.c **** 
  19:Generated_Source\PSoC5/cy_em_eeprom.c **** 
  20:Generated_Source\PSoC5/cy_em_eeprom.c **** #include "cytypes.h"
  21:Generated_Source\PSoC5/cy_em_eeprom.c **** #include <string.h>
  22:Generated_Source\PSoC5/cy_em_eeprom.c **** 
  23:Generated_Source\PSoC5/cy_em_eeprom.c **** #if (CYDEV_CHIP_FAMILY_USED == CYDEV_CHIP_FAMILY_PSOC6)
  24:Generated_Source\PSoC5/cy_em_eeprom.c ****     #include "em_eeprom/cy_em_eeprom.h"
  25:Generated_Source\PSoC5/cy_em_eeprom.c **** #else
  26:Generated_Source\PSoC5/cy_em_eeprom.c ****     #include "cy_em_eeprom.h"
  27:Generated_Source\PSoC5/cy_em_eeprom.c **** #endif /* (CYDEV_CHIP_FAMILY_USED == CYDEV_CHIP_FAMILY_PSOC6) */
  28:Generated_Source\PSoC5/cy_em_eeprom.c **** 
  29:Generated_Source\PSoC5/cy_em_eeprom.c **** 
  30:Generated_Source\PSoC5/cy_em_eeprom.c **** #if defined(__cplusplus)
  31:Generated_Source\PSoC5/cy_em_eeprom.c **** extern "C" {
ARM GAS  C:\Users\RABBIT~1\AppData\Local\Temp\ccgw4IdU.s 			page 2


  32:Generated_Source\PSoC5/cy_em_eeprom.c **** #endif
  33:Generated_Source\PSoC5/cy_em_eeprom.c **** 
  34:Generated_Source\PSoC5/cy_em_eeprom.c **** 
  35:Generated_Source\PSoC5/cy_em_eeprom.c **** /***************************************
  36:Generated_Source\PSoC5/cy_em_eeprom.c **** * Private Function Prototypes
  37:Generated_Source\PSoC5/cy_em_eeprom.c **** ***************************************/
  38:Generated_Source\PSoC5/cy_em_eeprom.c **** static void FindLastWrittenRow(uint32 * lastWrRowPtr, cy_stc_eeprom_context_t * context);
  39:Generated_Source\PSoC5/cy_em_eeprom.c **** static uint32 GetRowAddrBySeqNum(uint32 seqNum, cy_stc_eeprom_context_t * context);
  40:Generated_Source\PSoC5/cy_em_eeprom.c **** static uint8 CalcChecksum(uint8 rowData[], uint32 len);
  41:Generated_Source\PSoC5/cy_em_eeprom.c **** static void GetNextRowToWrite(uint32 seqNum,
  42:Generated_Source\PSoC5/cy_em_eeprom.c ****                             uint32 * rowToWrPtr,
  43:Generated_Source\PSoC5/cy_em_eeprom.c ****                             uint32 * rowToRdPtr,
  44:Generated_Source\PSoC5/cy_em_eeprom.c ****                             cy_stc_eeprom_context_t * context);
  45:Generated_Source\PSoC5/cy_em_eeprom.c **** static cy_en_em_eeprom_status_t CheckRanges(cy_stc_eeprom_config_t* config);
  46:Generated_Source\PSoC5/cy_em_eeprom.c **** static cy_en_em_eeprom_status_t WriteRow(uint32 rowAddr, uint32 *rowData, cy_stc_eeprom_context_t *
  47:Generated_Source\PSoC5/cy_em_eeprom.c **** static cy_en_em_eeprom_status_t EraseRow(uint32 rowAddr, uint32 ramBuffAddr, cy_stc_eeprom_context_
  48:Generated_Source\PSoC5/cy_em_eeprom.c **** static cy_en_em_eeprom_status_t CheckCrcAndCopy(uint32 startAddr,
  49:Generated_Source\PSoC5/cy_em_eeprom.c ****                                                 uint32 dstAddr,
  50:Generated_Source\PSoC5/cy_em_eeprom.c ****                                                 uint32 rowOffset,
  51:Generated_Source\PSoC5/cy_em_eeprom.c ****                                                 uint32 numBytes,
  52:Generated_Source\PSoC5/cy_em_eeprom.c ****                                                 cy_stc_eeprom_context_t * context);
  53:Generated_Source\PSoC5/cy_em_eeprom.c **** static uint32 GetAddresses(uint32 *startAddr, uint32 *endAddr, uint32 *offset, uint32 rowNum, uint3
  54:Generated_Source\PSoC5/cy_em_eeprom.c **** static cy_en_em_eeprom_status_t FillChecksum(cy_stc_eeprom_context_t * context);
  55:Generated_Source\PSoC5/cy_em_eeprom.c **** 
  56:Generated_Source\PSoC5/cy_em_eeprom.c **** /**
  57:Generated_Source\PSoC5/cy_em_eeprom.c **** * \addtogroup group_em_eeprom_functions
  58:Generated_Source\PSoC5/cy_em_eeprom.c **** * \{
  59:Generated_Source\PSoC5/cy_em_eeprom.c **** */
  60:Generated_Source\PSoC5/cy_em_eeprom.c **** 
  61:Generated_Source\PSoC5/cy_em_eeprom.c **** /*******************************************************************************
  62:Generated_Source\PSoC5/cy_em_eeprom.c **** * Function Name: Cy_Em_EEPROM_Init
  63:Generated_Source\PSoC5/cy_em_eeprom.c **** ****************************************************************************//**
  64:Generated_Source\PSoC5/cy_em_eeprom.c **** *
  65:Generated_Source\PSoC5/cy_em_eeprom.c **** * Initializes the Emulated EEPROM library by filling the context structure. 
  66:Generated_Source\PSoC5/cy_em_eeprom.c **** *
  67:Generated_Source\PSoC5/cy_em_eeprom.c **** * \param config
  68:Generated_Source\PSoC5/cy_em_eeprom.c **** * The pointer to a configuration structure. See \ref cy_stc_eeprom_config_t.
  69:Generated_Source\PSoC5/cy_em_eeprom.c **** *
  70:Generated_Source\PSoC5/cy_em_eeprom.c **** * \param context
  71:Generated_Source\PSoC5/cy_em_eeprom.c **** * The pointer to the EEPROM context structure to be filled by the function.
  72:Generated_Source\PSoC5/cy_em_eeprom.c **** * \ref cy_stc_eeprom_context_t.
  73:Generated_Source\PSoC5/cy_em_eeprom.c **** *
  74:Generated_Source\PSoC5/cy_em_eeprom.c **** * \return
  75:Generated_Source\PSoC5/cy_em_eeprom.c **** * error / status code. See \ref cy_en_em_eeprom_status_t.
  76:Generated_Source\PSoC5/cy_em_eeprom.c **** *
  77:Generated_Source\PSoC5/cy_em_eeprom.c **** * \note
  78:Generated_Source\PSoC5/cy_em_eeprom.c **** * The context structure should not be modified by the user after it is filled
  79:Generated_Source\PSoC5/cy_em_eeprom.c **** * with this function. Modification of context structure may cause the 
  80:Generated_Source\PSoC5/cy_em_eeprom.c **** * unexpected behavior of the Cy_Em_EEPROM API functions which rely on it.
  81:Generated_Source\PSoC5/cy_em_eeprom.c **** *
  82:Generated_Source\PSoC5/cy_em_eeprom.c **** * \note
  83:Generated_Source\PSoC5/cy_em_eeprom.c **** * This function uses a buffer of the flash row size to perform read
  84:Generated_Source\PSoC5/cy_em_eeprom.c **** * operation. For the size of the row refer to the specific PSoC device
  85:Generated_Source\PSoC5/cy_em_eeprom.c **** * datasheet.
  86:Generated_Source\PSoC5/cy_em_eeprom.c **** *
  87:Generated_Source\PSoC5/cy_em_eeprom.c **** * \sideeffect 
  88:Generated_Source\PSoC5/cy_em_eeprom.c **** * If the "Redundant Copy" option is used, the function performs a number of 
ARM GAS  C:\Users\RABBIT~1\AppData\Local\Temp\ccgw4IdU.s 			page 3


  89:Generated_Source\PSoC5/cy_em_eeprom.c **** * write operations to the EEPROM to initialize flash rows checksums. Therefore,
  90:Generated_Source\PSoC5/cy_em_eeprom.c **** * Cy_Em_EEPROM_NumWrites(), when it is called right after Cy_Em_EEPROM_Init(), 
  91:Generated_Source\PSoC5/cy_em_eeprom.c **** * will return a non-zero value that identifies the number of writes performed 
  92:Generated_Source\PSoC5/cy_em_eeprom.c **** * by Cy_Em_EEPROM_Init().
  93:Generated_Source\PSoC5/cy_em_eeprom.c **** *
  94:Generated_Source\PSoC5/cy_em_eeprom.c **** *******************************************************************************/
  95:Generated_Source\PSoC5/cy_em_eeprom.c **** cy_en_em_eeprom_status_t Cy_Em_EEPROM_Init(cy_stc_eeprom_config_t* config, cy_stc_eeprom_context_t 
  96:Generated_Source\PSoC5/cy_em_eeprom.c **** {
  97:Generated_Source\PSoC5/cy_em_eeprom.c ****     cy_en_em_eeprom_status_t ret = CY_EM_EEPROM_BAD_PARAM;
  98:Generated_Source\PSoC5/cy_em_eeprom.c **** 
  99:Generated_Source\PSoC5/cy_em_eeprom.c ****     if((NULL != context) && (NULL != config) && (NULL != ((uint32 *)config->userFlashStartAddr)) &&
 100:Generated_Source\PSoC5/cy_em_eeprom.c ****         (config->wearLevelingFactor <= CY_EM_EEPROM_MAX_WEAR_LEVELING_FACTOR) && (config->eepromSiz
 101:Generated_Source\PSoC5/cy_em_eeprom.c ****     {
 102:Generated_Source\PSoC5/cy_em_eeprom.c ****         ret = CheckRanges(config);
 103:Generated_Source\PSoC5/cy_em_eeprom.c **** 
 104:Generated_Source\PSoC5/cy_em_eeprom.c ****         if(CY_EM_EEPROM_SUCCESS == ret)
 105:Generated_Source\PSoC5/cy_em_eeprom.c ****         {
 106:Generated_Source\PSoC5/cy_em_eeprom.c ****             /* Copy the user config structure fields into context */
 107:Generated_Source\PSoC5/cy_em_eeprom.c ****             context->eepromSize = config->eepromSize;
 108:Generated_Source\PSoC5/cy_em_eeprom.c ****             context->wearLevelingFactor = config->wearLevelingFactor;
 109:Generated_Source\PSoC5/cy_em_eeprom.c ****             context->redundantCopy = config->redundantCopy;
 110:Generated_Source\PSoC5/cy_em_eeprom.c ****             context->blockingWrite = config->blockingWrite;
 111:Generated_Source\PSoC5/cy_em_eeprom.c ****             context->userFlashStartAddr = config->userFlashStartAddr;
 112:Generated_Source\PSoC5/cy_em_eeprom.c ****             /* Store frequently used data for internal use */
 113:Generated_Source\PSoC5/cy_em_eeprom.c ****             context->numberOfRows = CY_EM_EEPROM_GET_NUM_ROWS_IN_EEPROM(config->eepromSize);
 114:Generated_Source\PSoC5/cy_em_eeprom.c ****             context->wlEndAddr = ((CY_EM_EEPROM_GET_EEPROM_SIZE(context->numberOfRows) * config->we
 115:Generated_Source\PSoC5/cy_em_eeprom.c ****                     config->userFlashStartAddr);
 116:Generated_Source\PSoC5/cy_em_eeprom.c ****             /* Find last written EEPROM row and store it for quick access */
 117:Generated_Source\PSoC5/cy_em_eeprom.c ****             FindLastWrittenRow(&context->lastWrRowAddr, context);
 118:Generated_Source\PSoC5/cy_em_eeprom.c **** 
 119:Generated_Source\PSoC5/cy_em_eeprom.c ****             if((0u == CY_EM_EEPROM_GET_SEQ_NUM(context->lastWrRowAddr)) && (0u != context->redundan
 120:Generated_Source\PSoC5/cy_em_eeprom.c ****             {
 121:Generated_Source\PSoC5/cy_em_eeprom.c ****                 /* Call the function only after device reprogramming in case
 122:Generated_Source\PSoC5/cy_em_eeprom.c ****                 * if redundant copy is enabled.
 123:Generated_Source\PSoC5/cy_em_eeprom.c ****                 */
 124:Generated_Source\PSoC5/cy_em_eeprom.c ****                 ret = FillChecksum(context);
 125:Generated_Source\PSoC5/cy_em_eeprom.c ****                 
 126:Generated_Source\PSoC5/cy_em_eeprom.c ****                 /* Update the last written EEPROM row for Cy_Em_EEPROM_NumWrites() */
 127:Generated_Source\PSoC5/cy_em_eeprom.c ****                 FindLastWrittenRow(&context->lastWrRowAddr, context);
 128:Generated_Source\PSoC5/cy_em_eeprom.c ****             }
 129:Generated_Source\PSoC5/cy_em_eeprom.c ****         }
 130:Generated_Source\PSoC5/cy_em_eeprom.c ****     }
 131:Generated_Source\PSoC5/cy_em_eeprom.c **** 
 132:Generated_Source\PSoC5/cy_em_eeprom.c ****     return(ret);
 133:Generated_Source\PSoC5/cy_em_eeprom.c **** }
 134:Generated_Source\PSoC5/cy_em_eeprom.c **** 
 135:Generated_Source\PSoC5/cy_em_eeprom.c **** 
 136:Generated_Source\PSoC5/cy_em_eeprom.c **** /*******************************************************************************
 137:Generated_Source\PSoC5/cy_em_eeprom.c **** * Function Name: Cy_Em_EEPROM_Read
 138:Generated_Source\PSoC5/cy_em_eeprom.c **** ****************************************************************************//**
 139:Generated_Source\PSoC5/cy_em_eeprom.c **** *
 140:Generated_Source\PSoC5/cy_em_eeprom.c **** * This function takes the logical EEPROM address, converts it to the actual
 141:Generated_Source\PSoC5/cy_em_eeprom.c **** * physical address where the data is stored and returns the data to the user.
 142:Generated_Source\PSoC5/cy_em_eeprom.c **** *
 143:Generated_Source\PSoC5/cy_em_eeprom.c **** * \param addr
 144:Generated_Source\PSoC5/cy_em_eeprom.c **** * The logical start address in EEPROM to start reading data from.
 145:Generated_Source\PSoC5/cy_em_eeprom.c **** *
ARM GAS  C:\Users\RABBIT~1\AppData\Local\Temp\ccgw4IdU.s 			page 4


 146:Generated_Source\PSoC5/cy_em_eeprom.c **** * \param eepromData
 147:Generated_Source\PSoC5/cy_em_eeprom.c **** * The pointer to a user array to write data to.
 148:Generated_Source\PSoC5/cy_em_eeprom.c **** *
 149:Generated_Source\PSoC5/cy_em_eeprom.c **** * \param size
 150:Generated_Source\PSoC5/cy_em_eeprom.c **** * The amount of data to read.
 151:Generated_Source\PSoC5/cy_em_eeprom.c **** *
 152:Generated_Source\PSoC5/cy_em_eeprom.c **** * \param context
 153:Generated_Source\PSoC5/cy_em_eeprom.c **** * The pointer to the EEPROM context structure \ref cy_stc_eeprom_context_t.
 154:Generated_Source\PSoC5/cy_em_eeprom.c **** *
 155:Generated_Source\PSoC5/cy_em_eeprom.c **** * \return
 156:Generated_Source\PSoC5/cy_em_eeprom.c **** * This function returns \ref cy_en_em_eeprom_status_t.
 157:Generated_Source\PSoC5/cy_em_eeprom.c **** *
 158:Generated_Source\PSoC5/cy_em_eeprom.c **** * \note
 159:Generated_Source\PSoC5/cy_em_eeprom.c **** * This function uses a buffer of the flash row size to perform read
 160:Generated_Source\PSoC5/cy_em_eeprom.c **** * operation. For the size of the row refer to the specific PSoC device
 161:Generated_Source\PSoC5/cy_em_eeprom.c **** * datasheet.
 162:Generated_Source\PSoC5/cy_em_eeprom.c **** *
 163:Generated_Source\PSoC5/cy_em_eeprom.c **** * \note
 164:Generated_Source\PSoC5/cy_em_eeprom.c **** * In case if redundant copy option is enabled the function may perform writes
 165:Generated_Source\PSoC5/cy_em_eeprom.c **** * to EEPROM. This is done in case if the data in the EEPPROM is corrupted and
 166:Generated_Source\PSoC5/cy_em_eeprom.c **** * the data in redundant copy is valid based on CRC-8 data integrity check.
 167:Generated_Source\PSoC5/cy_em_eeprom.c **** *
 168:Generated_Source\PSoC5/cy_em_eeprom.c **** *******************************************************************************/
 169:Generated_Source\PSoC5/cy_em_eeprom.c **** cy_en_em_eeprom_status_t Cy_Em_EEPROM_Read(uint32 addr, 
 170:Generated_Source\PSoC5/cy_em_eeprom.c ****                                         void * eepromData, 
 171:Generated_Source\PSoC5/cy_em_eeprom.c ****                                         uint32 size,
 172:Generated_Source\PSoC5/cy_em_eeprom.c ****                                         cy_stc_eeprom_context_t * context)
 173:Generated_Source\PSoC5/cy_em_eeprom.c **** {
 174:Generated_Source\PSoC5/cy_em_eeprom.c ****     cy_en_em_eeprom_status_t ret = CY_EM_EEPROM_BAD_PARAM;
 175:Generated_Source\PSoC5/cy_em_eeprom.c ****     uint32 i;
 176:Generated_Source\PSoC5/cy_em_eeprom.c ****     uint32 numBytesToRead;
 177:Generated_Source\PSoC5/cy_em_eeprom.c ****     uint32 curEepromBaseAddr;
 178:Generated_Source\PSoC5/cy_em_eeprom.c ****     uint32 curRowOffset;
 179:Generated_Source\PSoC5/cy_em_eeprom.c ****     uint32 startRowAddr;
 180:Generated_Source\PSoC5/cy_em_eeprom.c ****     uint32 actEepromRowNum;
 181:Generated_Source\PSoC5/cy_em_eeprom.c ****     uint32 curRdEepromRowNum = 0u;
 182:Generated_Source\PSoC5/cy_em_eeprom.c ****     uint32 dataStartEepromRowNum = 0u;
 183:Generated_Source\PSoC5/cy_em_eeprom.c ****     uint32 eeData = (uint32) eepromData; /* To avoid the pointer arithmetic with void */
 184:Generated_Source\PSoC5/cy_em_eeprom.c **** 
 185:Generated_Source\PSoC5/cy_em_eeprom.c ****     /* Validate input parameters */
 186:Generated_Source\PSoC5/cy_em_eeprom.c ****     if((0u != size) && ((addr + size) <= (context->eepromSize)) && (NULL != eepromData))
 187:Generated_Source\PSoC5/cy_em_eeprom.c ****     {
 188:Generated_Source\PSoC5/cy_em_eeprom.c ****         uint32 rdAddr = addr;
 189:Generated_Source\PSoC5/cy_em_eeprom.c ****         uint32 rdSize = size;
 190:Generated_Source\PSoC5/cy_em_eeprom.c ****         /* Get the sequence number of the last written row */
 191:Generated_Source\PSoC5/cy_em_eeprom.c ****         uint32 seqNum = CY_EM_EEPROM_GET_SEQ_NUM(context->lastWrRowAddr);
 192:Generated_Source\PSoC5/cy_em_eeprom.c ****         uint32 updateAddrFlag = 0u;
 193:Generated_Source\PSoC5/cy_em_eeprom.c **** 
 194:Generated_Source\PSoC5/cy_em_eeprom.c ****         /* Calculate the number of the row read operations. Currently this only concerns
 195:Generated_Source\PSoC5/cy_em_eeprom.c ****         * the reads from the EEPROM data locations.
 196:Generated_Source\PSoC5/cy_em_eeprom.c ****         */
 197:Generated_Source\PSoC5/cy_em_eeprom.c ****         uint32 numRowReads = ((((rdAddr + rdSize) - 1u) / CY_EM_EEPROM_EEPROM_DATA_LEN) -
 198:Generated_Source\PSoC5/cy_em_eeprom.c ****                               (rdAddr / CY_EM_EEPROM_EEPROM_DATA_LEN)) + 1u;
 199:Generated_Source\PSoC5/cy_em_eeprom.c **** 
 200:Generated_Source\PSoC5/cy_em_eeprom.c ****         /* Get the address of the first row of the currently active EEPROM sector. If
 201:Generated_Source\PSoC5/cy_em_eeprom.c ****         * no wear leveling is used - the EEPROM has only one sector, so use the base
 202:Generated_Source\PSoC5/cy_em_eeprom.c ****         * addr stored in "context->userFlashStartAddr".
ARM GAS  C:\Users\RABBIT~1\AppData\Local\Temp\ccgw4IdU.s 			page 5


 203:Generated_Source\PSoC5/cy_em_eeprom.c ****         */
 204:Generated_Source\PSoC5/cy_em_eeprom.c ****         curEepromBaseAddr = (((context->lastWrRowAddr - context->userFlashStartAddr) /
 205:Generated_Source\PSoC5/cy_em_eeprom.c ****                               (CY_EM_EEPROM_FLASH_SIZEOF_ROW * context->numberOfRows)) *
 206:Generated_Source\PSoC5/cy_em_eeprom.c ****                               (CY_EM_EEPROM_FLASH_SIZEOF_ROW * context->numberOfRows)) +
 207:Generated_Source\PSoC5/cy_em_eeprom.c ****                                context->userFlashStartAddr;
 208:Generated_Source\PSoC5/cy_em_eeprom.c **** 
 209:Generated_Source\PSoC5/cy_em_eeprom.c ****         /* Find the number of the row that contains the start address of the data */
 210:Generated_Source\PSoC5/cy_em_eeprom.c ****         for(i = 0u; i < context->numberOfRows; i++)
 211:Generated_Source\PSoC5/cy_em_eeprom.c ****         {
 212:Generated_Source\PSoC5/cy_em_eeprom.c ****             if(0u != CY_EM_EEPROM_IS_ADDR_IN_ROW_RANGE(rdAddr, i))
 213:Generated_Source\PSoC5/cy_em_eeprom.c ****             {
 214:Generated_Source\PSoC5/cy_em_eeprom.c ****                 dataStartEepromRowNum = i;
 215:Generated_Source\PSoC5/cy_em_eeprom.c ****                 curRdEepromRowNum = dataStartEepromRowNum;
 216:Generated_Source\PSoC5/cy_em_eeprom.c ****                 break;
 217:Generated_Source\PSoC5/cy_em_eeprom.c ****             }
 218:Generated_Source\PSoC5/cy_em_eeprom.c ****         }
 219:Generated_Source\PSoC5/cy_em_eeprom.c **** 
 220:Generated_Source\PSoC5/cy_em_eeprom.c ****         /* Find the row number of the last written row */
 221:Generated_Source\PSoC5/cy_em_eeprom.c ****         actEepromRowNum = (context->lastWrRowAddr - curEepromBaseAddr) / CY_EM_EEPROM_FLASH_SIZEOF_
 222:Generated_Source\PSoC5/cy_em_eeprom.c **** 
 223:Generated_Source\PSoC5/cy_em_eeprom.c ****         /* Check if wear leveling is used */
 224:Generated_Source\PSoC5/cy_em_eeprom.c ****         if(context->wearLevelingFactor > 1u)
 225:Generated_Source\PSoC5/cy_em_eeprom.c ****         {
 226:Generated_Source\PSoC5/cy_em_eeprom.c ****             uint32 dataEndEepromRowNum = dataStartEepromRowNum + (numRowReads - 1u);
 227:Generated_Source\PSoC5/cy_em_eeprom.c **** 
 228:Generated_Source\PSoC5/cy_em_eeprom.c ****             /* Check if the future validation of the read address is required. */
 229:Generated_Source\PSoC5/cy_em_eeprom.c ****             updateAddrFlag = (dataStartEepromRowNum > actEepromRowNum) ? 1u :
 230:Generated_Source\PSoC5/cy_em_eeprom.c ****                               ((dataEndEepromRowNum > actEepromRowNum) ? 1u : 0u);
 231:Generated_Source\PSoC5/cy_em_eeprom.c ****         }
 232:Generated_Source\PSoC5/cy_em_eeprom.c **** 
 233:Generated_Source\PSoC5/cy_em_eeprom.c ****         /* Copy data from the EEPROM data locations to the user buffer */
 234:Generated_Source\PSoC5/cy_em_eeprom.c ****         for(i = 0u; i < numRowReads; i++)
 235:Generated_Source\PSoC5/cy_em_eeprom.c ****         {
 236:Generated_Source\PSoC5/cy_em_eeprom.c ****             startRowAddr = curEepromBaseAddr + (curRdEepromRowNum * CY_EM_EEPROM_FLASH_SIZEOF_ROW);
 237:Generated_Source\PSoC5/cy_em_eeprom.c ****             curRowOffset = CY_EM_EEPROM_EEPROM_DATA_LEN + (rdAddr % CY_EM_EEPROM_EEPROM_DATA_LEN);
 238:Generated_Source\PSoC5/cy_em_eeprom.c **** 
 239:Generated_Source\PSoC5/cy_em_eeprom.c ****             /* Check if there are more reads pending and update the number of the
 240:Generated_Source\PSoC5/cy_em_eeprom.c ****             * remaining bytes to read respectively.
 241:Generated_Source\PSoC5/cy_em_eeprom.c ****             */
 242:Generated_Source\PSoC5/cy_em_eeprom.c ****             if((i + 1u) < numRowReads)
 243:Generated_Source\PSoC5/cy_em_eeprom.c ****             {
 244:Generated_Source\PSoC5/cy_em_eeprom.c ****                 numBytesToRead = CY_EM_EEPROM_EEPROM_DATA_LEN - (rdAddr % CY_EM_EEPROM_EEPROM_DATA_
 245:Generated_Source\PSoC5/cy_em_eeprom.c ****             }
 246:Generated_Source\PSoC5/cy_em_eeprom.c ****             else
 247:Generated_Source\PSoC5/cy_em_eeprom.c ****             {
 248:Generated_Source\PSoC5/cy_em_eeprom.c ****                 numBytesToRead = rdSize;
 249:Generated_Source\PSoC5/cy_em_eeprom.c ****             }
 250:Generated_Source\PSoC5/cy_em_eeprom.c **** 
 251:Generated_Source\PSoC5/cy_em_eeprom.c ****             /* Check if the read address needs to be updated to point to the correct
 252:Generated_Source\PSoC5/cy_em_eeprom.c ****             * EEPROM sector.
 253:Generated_Source\PSoC5/cy_em_eeprom.c ****             */
 254:Generated_Source\PSoC5/cy_em_eeprom.c ****             if((0u != updateAddrFlag) && (curRdEepromRowNum > actEepromRowNum))
 255:Generated_Source\PSoC5/cy_em_eeprom.c ****             {
 256:Generated_Source\PSoC5/cy_em_eeprom.c ****                 startRowAddr -= context->numberOfRows * CY_EM_EEPROM_FLASH_SIZEOF_ROW;
 257:Generated_Source\PSoC5/cy_em_eeprom.c **** 
 258:Generated_Source\PSoC5/cy_em_eeprom.c ****                 if(startRowAddr < context->userFlashStartAddr)
 259:Generated_Source\PSoC5/cy_em_eeprom.c ****                 {
ARM GAS  C:\Users\RABBIT~1\AppData\Local\Temp\ccgw4IdU.s 			page 6


 260:Generated_Source\PSoC5/cy_em_eeprom.c ****                     startRowAddr = context->wlEndAddr -
 261:Generated_Source\PSoC5/cy_em_eeprom.c ****                         ((context->numberOfRows - curRdEepromRowNum) * CY_EM_EEPROM_FLASH_SIZEOF_RO
 262:Generated_Source\PSoC5/cy_em_eeprom.c ****                 }
 263:Generated_Source\PSoC5/cy_em_eeprom.c ****             }
 264:Generated_Source\PSoC5/cy_em_eeprom.c **** 
 265:Generated_Source\PSoC5/cy_em_eeprom.c ****             if(0u != context->redundantCopy)
 266:Generated_Source\PSoC5/cy_em_eeprom.c ****             {
 267:Generated_Source\PSoC5/cy_em_eeprom.c ****                 /* Check a checksum of the EEPROM row and if it is bad, check a checksum in
 268:Generated_Source\PSoC5/cy_em_eeprom.c ****                 * the corresponding row in redundant copy, otherwise return failure.
 269:Generated_Source\PSoC5/cy_em_eeprom.c ****                 */
 270:Generated_Source\PSoC5/cy_em_eeprom.c ****                 ret = CheckCrcAndCopy(startRowAddr, eeData, curRowOffset, numBytesToRead, context);
 271:Generated_Source\PSoC5/cy_em_eeprom.c **** 
 272:Generated_Source\PSoC5/cy_em_eeprom.c ****                 if(CY_EM_EEPROM_SUCCESS != ret)
 273:Generated_Source\PSoC5/cy_em_eeprom.c ****                 {
 274:Generated_Source\PSoC5/cy_em_eeprom.c ****                     break;
 275:Generated_Source\PSoC5/cy_em_eeprom.c ****                 }
 276:Generated_Source\PSoC5/cy_em_eeprom.c ****             }
 277:Generated_Source\PSoC5/cy_em_eeprom.c ****             else
 278:Generated_Source\PSoC5/cy_em_eeprom.c ****             {
 279:Generated_Source\PSoC5/cy_em_eeprom.c ****                 /* Copy the data to the user buffer */
 280:Generated_Source\PSoC5/cy_em_eeprom.c ****                 (void)memcpy((void *)(eeData),
 281:Generated_Source\PSoC5/cy_em_eeprom.c ****                              (void *)(startRowAddr + curRowOffset),
 282:Generated_Source\PSoC5/cy_em_eeprom.c ****                              numBytesToRead);
 283:Generated_Source\PSoC5/cy_em_eeprom.c **** 
 284:Generated_Source\PSoC5/cy_em_eeprom.c ****                 /* Indicate success to be able to execute next code block */
 285:Generated_Source\PSoC5/cy_em_eeprom.c ****                 ret = CY_EM_EEPROM_SUCCESS;
 286:Generated_Source\PSoC5/cy_em_eeprom.c ****             }
 287:Generated_Source\PSoC5/cy_em_eeprom.c **** 
 288:Generated_Source\PSoC5/cy_em_eeprom.c ****             /* Update variables anticipated in the read operation */
 289:Generated_Source\PSoC5/cy_em_eeprom.c ****             rdAddr += numBytesToRead;
 290:Generated_Source\PSoC5/cy_em_eeprom.c ****             rdSize -= numBytesToRead;
 291:Generated_Source\PSoC5/cy_em_eeprom.c ****             eeData += numBytesToRead;
 292:Generated_Source\PSoC5/cy_em_eeprom.c ****             curRdEepromRowNum++;
 293:Generated_Source\PSoC5/cy_em_eeprom.c ****         }
 294:Generated_Source\PSoC5/cy_em_eeprom.c **** 
 295:Generated_Source\PSoC5/cy_em_eeprom.c ****         /* This code block will copy the latest data from the EEPROM headers into the
 296:Generated_Source\PSoC5/cy_em_eeprom.c ****         * user buffer. The data previously copied into the user buffer may be updated
 297:Generated_Source\PSoC5/cy_em_eeprom.c ****         * as the EEPROM headers contain more recent data. 
 298:Generated_Source\PSoC5/cy_em_eeprom.c ****         * The code block is executed when two following conditions are true:
 299:Generated_Source\PSoC5/cy_em_eeprom.c ****         *  1) The reads from "historic" data locations were successful;
 300:Generated_Source\PSoC5/cy_em_eeprom.c ****         *  2) The user performed at least one write operation to Em_EEPROM (0u !=
 301:Generated_Source\PSoC5/cy_em_eeprom.c ****         *     seqNum).        
 302:Generated_Source\PSoC5/cy_em_eeprom.c ****         */
 303:Generated_Source\PSoC5/cy_em_eeprom.c ****         if((CY_EM_EEPROM_SUCCESS == ret) && (0u != seqNum))
 304:Generated_Source\PSoC5/cy_em_eeprom.c ****         {
 305:Generated_Source\PSoC5/cy_em_eeprom.c ****             numRowReads = (context->numberOfRows <= seqNum) ? (context->numberOfRows) : (seqNum);
 306:Generated_Source\PSoC5/cy_em_eeprom.c ****             numRowReads--;
 307:Generated_Source\PSoC5/cy_em_eeprom.c **** 
 308:Generated_Source\PSoC5/cy_em_eeprom.c ****             for(i = (seqNum - numRowReads); i <= seqNum; i++)
 309:Generated_Source\PSoC5/cy_em_eeprom.c ****             {
 310:Generated_Source\PSoC5/cy_em_eeprom.c ****                 startRowAddr = GetRowAddrBySeqNum(i, context);
 311:Generated_Source\PSoC5/cy_em_eeprom.c **** 
 312:Generated_Source\PSoC5/cy_em_eeprom.c ****                 if (0u != startRowAddr)
 313:Generated_Source\PSoC5/cy_em_eeprom.c ****                 {
 314:Generated_Source\PSoC5/cy_em_eeprom.c ****                     /* The following variables are introduced to increase code readability. */
 315:Generated_Source\PSoC5/cy_em_eeprom.c ****                     uint32 startAddr  = *(uint32 *)(startRowAddr + CY_EM_EEPROM_HEADER_ADDR_OFFSET)
 316:Generated_Source\PSoC5/cy_em_eeprom.c ****                     uint32 endAddr    = startAddr + (*(uint32 *)(startRowAddr + CY_EM_EEPROM_HEADER
ARM GAS  C:\Users\RABBIT~1\AppData\Local\Temp\ccgw4IdU.s 			page 7


 317:Generated_Source\PSoC5/cy_em_eeprom.c **** 
 318:Generated_Source\PSoC5/cy_em_eeprom.c ****                     /* Check if the current row EEPROM header contains the data requested for read 
 319:Generated_Source\PSoC5/cy_em_eeprom.c ****                     if(0u != CY_EM_EEPROM_IS_ADDRESES_CROSSING(startAddr, endAddr, addr, addr + siz
 320:Generated_Source\PSoC5/cy_em_eeprom.c ****                     {
 321:Generated_Source\PSoC5/cy_em_eeprom.c ****                         uint32 srcOffset = (startAddr > addr) ? (0u) : (addr - startAddr);
 322:Generated_Source\PSoC5/cy_em_eeprom.c ****                         uint32 dstOffset = (startAddr > addr) ? (startAddr - addr): (0u);
 323:Generated_Source\PSoC5/cy_em_eeprom.c ****                         rdAddr = (startAddr > addr) ? (startAddr) : (addr);
 324:Generated_Source\PSoC5/cy_em_eeprom.c **** 
 325:Generated_Source\PSoC5/cy_em_eeprom.c ****                         srcOffset += CY_EM_EEPROM_HEADER_DATA_OFFSET;
 326:Generated_Source\PSoC5/cy_em_eeprom.c **** 
 327:Generated_Source\PSoC5/cy_em_eeprom.c ****                         /* Calculate the number of bytes to be read from the current row's EEPROM h
 328:Generated_Source\PSoC5/cy_em_eeprom.c ****                         numBytesToRead = ((endAddr < (addr + size)) ? endAddr : (addr + size)) - rd
 329:Generated_Source\PSoC5/cy_em_eeprom.c **** 
 330:Generated_Source\PSoC5/cy_em_eeprom.c ****                         /* Calculate the offset in the user buffer from which the data will be upda
 331:Generated_Source\PSoC5/cy_em_eeprom.c ****                         eeData = ((uint32)eepromData) + dstOffset;
 332:Generated_Source\PSoC5/cy_em_eeprom.c **** 
 333:Generated_Source\PSoC5/cy_em_eeprom.c ****                         /* Check a checksum of the EEPROM row and if it is bad, check a checksum in
 334:Generated_Source\PSoC5/cy_em_eeprom.c ****                         * corresponding row in redundant copy, otherwise return failure. Copy the d
 335:Generated_Source\PSoC5/cy_em_eeprom.c ****                         * from the recent EEPROM headers to the user buffer. This will overwrite th
 336:Generated_Source\PSoC5/cy_em_eeprom.c ****                         * data copied form EEPROM data locations as the data in EEPROM headers is n
 337:Generated_Source\PSoC5/cy_em_eeprom.c ****                         */
 338:Generated_Source\PSoC5/cy_em_eeprom.c ****                         if(0u != context->redundantCopy)
 339:Generated_Source\PSoC5/cy_em_eeprom.c ****                         {
 340:Generated_Source\PSoC5/cy_em_eeprom.c ****                             ret = CheckCrcAndCopy(startRowAddr, eeData, srcOffset, numBytesToRead, 
 341:Generated_Source\PSoC5/cy_em_eeprom.c **** 
 342:Generated_Source\PSoC5/cy_em_eeprom.c ****                             if(CY_EM_EEPROM_SUCCESS != ret)
 343:Generated_Source\PSoC5/cy_em_eeprom.c ****                             {
 344:Generated_Source\PSoC5/cy_em_eeprom.c ****                                 break;
 345:Generated_Source\PSoC5/cy_em_eeprom.c ****                             }
 346:Generated_Source\PSoC5/cy_em_eeprom.c ****                         }
 347:Generated_Source\PSoC5/cy_em_eeprom.c ****                         else
 348:Generated_Source\PSoC5/cy_em_eeprom.c ****                         {
 349:Generated_Source\PSoC5/cy_em_eeprom.c ****                             (void)memcpy((void *)(eeData), (void *)(startRowAddr + srcOffset), numB
 350:Generated_Source\PSoC5/cy_em_eeprom.c ****                         }
 351:Generated_Source\PSoC5/cy_em_eeprom.c ****                     }
 352:Generated_Source\PSoC5/cy_em_eeprom.c ****                 }
 353:Generated_Source\PSoC5/cy_em_eeprom.c ****             }
 354:Generated_Source\PSoC5/cy_em_eeprom.c ****         }
 355:Generated_Source\PSoC5/cy_em_eeprom.c ****     }
 356:Generated_Source\PSoC5/cy_em_eeprom.c **** 
 357:Generated_Source\PSoC5/cy_em_eeprom.c ****     return(ret);
 358:Generated_Source\PSoC5/cy_em_eeprom.c **** }
 359:Generated_Source\PSoC5/cy_em_eeprom.c **** 
 360:Generated_Source\PSoC5/cy_em_eeprom.c **** 
 361:Generated_Source\PSoC5/cy_em_eeprom.c **** /*******************************************************************************
 362:Generated_Source\PSoC5/cy_em_eeprom.c **** * Function Name: Cy_Em_EEPROM_Write
 363:Generated_Source\PSoC5/cy_em_eeprom.c **** ****************************************************************************//**
 364:Generated_Source\PSoC5/cy_em_eeprom.c **** *
 365:Generated_Source\PSoC5/cy_em_eeprom.c **** * This function takes the logical EEPROM address and converts it to the actual
 366:Generated_Source\PSoC5/cy_em_eeprom.c **** * physical address and writes data there. If wear leveling is implemented, the
 367:Generated_Source\PSoC5/cy_em_eeprom.c **** * writing process will use the wear leveling techniques. This is a blocking
 368:Generated_Source\PSoC5/cy_em_eeprom.c **** * function and it does not return until the write operation is completed. The
 369:Generated_Source\PSoC5/cy_em_eeprom.c **** * user firmware should not enter Hibernate mode until write is completed. The
 370:Generated_Source\PSoC5/cy_em_eeprom.c **** * write operation is allowed in Sleep and Deep-Sleep modes. During the flash
 371:Generated_Source\PSoC5/cy_em_eeprom.c **** * operation, the device should not be reset, including the XRES pin, a software
 372:Generated_Source\PSoC5/cy_em_eeprom.c **** * reset, and watchdog reset sources. Also, low-voltage detect circuits should
 373:Generated_Source\PSoC5/cy_em_eeprom.c **** * be configured to generate an interrupt instead of a reset. Otherwise, portions
ARM GAS  C:\Users\RABBIT~1\AppData\Local\Temp\ccgw4IdU.s 			page 8


 374:Generated_Source\PSoC5/cy_em_eeprom.c **** * of flash may undergo unexpected changes.
 375:Generated_Source\PSoC5/cy_em_eeprom.c **** *
 376:Generated_Source\PSoC5/cy_em_eeprom.c **** * \param addr
 377:Generated_Source\PSoC5/cy_em_eeprom.c **** * The logical start address in EEPROM to start writing data from.
 378:Generated_Source\PSoC5/cy_em_eeprom.c **** *
 379:Generated_Source\PSoC5/cy_em_eeprom.c **** * \param eepromData
 380:Generated_Source\PSoC5/cy_em_eeprom.c **** * Data to write to EEPROM.
 381:Generated_Source\PSoC5/cy_em_eeprom.c **** *
 382:Generated_Source\PSoC5/cy_em_eeprom.c **** * \param size
 383:Generated_Source\PSoC5/cy_em_eeprom.c **** * The amount of data to write to EEPROM.
 384:Generated_Source\PSoC5/cy_em_eeprom.c **** *
 385:Generated_Source\PSoC5/cy_em_eeprom.c **** * \param context
 386:Generated_Source\PSoC5/cy_em_eeprom.c **** * The pointer to the EEPROM context structure \ref cy_stc_eeprom_context_t.
 387:Generated_Source\PSoC5/cy_em_eeprom.c **** *
 388:Generated_Source\PSoC5/cy_em_eeprom.c **** * \return
 389:Generated_Source\PSoC5/cy_em_eeprom.c **** * This function returns \ref cy_en_em_eeprom_status_t.
 390:Generated_Source\PSoC5/cy_em_eeprom.c **** *
 391:Generated_Source\PSoC5/cy_em_eeprom.c **** * \note
 392:Generated_Source\PSoC5/cy_em_eeprom.c **** * This function uses a buffer of the flash row size to perform write
 393:Generated_Source\PSoC5/cy_em_eeprom.c **** * operation. For the size of the row refer to the specific PSoC device
 394:Generated_Source\PSoC5/cy_em_eeprom.c **** * datasheet.
 395:Generated_Source\PSoC5/cy_em_eeprom.c **** *
 396:Generated_Source\PSoC5/cy_em_eeprom.c **** * \sideeffect
 397:Generated_Source\PSoC5/cy_em_eeprom.c **** * In case when blocking write option is used, if this function is called by
 398:Generated_Source\PSoC5/cy_em_eeprom.c **** * the CM4 the user code on CM0P and the user code on CM4 are blocked until erase
 399:Generated_Source\PSoC5/cy_em_eeprom.c **** * flash row operation is finished. If this function is called by the CM0P the
 400:Generated_Source\PSoC5/cy_em_eeprom.c **** * user code on CM4 is not blocked and the user code on CM0P is blocked until
 401:Generated_Source\PSoC5/cy_em_eeprom.c **** * erase flash row operation is finished. Plan your task allocation accordingly.
 402:Generated_Source\PSoC5/cy_em_eeprom.c **** *
 403:Generated_Source\PSoC5/cy_em_eeprom.c **** * \sideeffect
 404:Generated_Source\PSoC5/cy_em_eeprom.c **** * In case if non-blocking write option is used and when user flash is used as
 405:Generated_Source\PSoC5/cy_em_eeprom.c **** * an EEPROM storage care should be taken to prevent the read while write (RWW)
 406:Generated_Source\PSoC5/cy_em_eeprom.c **** * exception. To prevent the RWW exception the user flash macro that includes
 407:Generated_Source\PSoC5/cy_em_eeprom.c **** * the EEPROM storage should not be read while the EEPROM write is not completed.
 408:Generated_Source\PSoC5/cy_em_eeprom.c **** * The read also means the user code execution from the respective flash macro.
 409:Generated_Source\PSoC5/cy_em_eeprom.c **** *
 410:Generated_Source\PSoC5/cy_em_eeprom.c **** *******************************************************************************/
 411:Generated_Source\PSoC5/cy_em_eeprom.c **** cy_en_em_eeprom_status_t Cy_Em_EEPROM_Write(uint32 addr,
 412:Generated_Source\PSoC5/cy_em_eeprom.c ****                                             void * eepromData,
 413:Generated_Source\PSoC5/cy_em_eeprom.c ****                                             uint32 size,
 414:Generated_Source\PSoC5/cy_em_eeprom.c ****                                             cy_stc_eeprom_context_t * context)
 415:Generated_Source\PSoC5/cy_em_eeprom.c **** {
 416:Generated_Source\PSoC5/cy_em_eeprom.c ****     cy_en_em_eeprom_status_t ret = CY_EM_EEPROM_BAD_PARAM;
 417:Generated_Source\PSoC5/cy_em_eeprom.c ****     uint32 i;
 418:Generated_Source\PSoC5/cy_em_eeprom.c ****     uint32 wrCnt;
 419:Generated_Source\PSoC5/cy_em_eeprom.c ****     uint32 actEmEepromRowNum;
 420:Generated_Source\PSoC5/cy_em_eeprom.c ****     uint32 writeRamBuffer[CY_EM_EEPROM_FLASH_SIZEOF_ROW / CY_EM_EEPROM_U32_DIV];
 421:Generated_Source\PSoC5/cy_em_eeprom.c ****     uint32 startAddr = 0u;
 422:Generated_Source\PSoC5/cy_em_eeprom.c ****     uint32 endAddr = 0u;
 423:Generated_Source\PSoC5/cy_em_eeprom.c ****     uint32 tmpRowAddr;
 424:Generated_Source\PSoC5/cy_em_eeprom.c ****     uint32 emEepromRowAddr = context->lastWrRowAddr;
 425:Generated_Source\PSoC5/cy_em_eeprom.c ****     uint32 emEepromRowRdAddr;
 426:Generated_Source\PSoC5/cy_em_eeprom.c ****     void * tmpData;
 427:Generated_Source\PSoC5/cy_em_eeprom.c ****     uint32 eeData = (uint32) eepromData; /* To avoid the pointer arithmetic with void */
 428:Generated_Source\PSoC5/cy_em_eeprom.c **** 
 429:Generated_Source\PSoC5/cy_em_eeprom.c ****     /* Check if the EEPROM data does not exceed the EEPROM capacity */
 430:Generated_Source\PSoC5/cy_em_eeprom.c ****     if((0u != size) && ((addr + size) <= (context->eepromSize)) && (NULL != eepromData))
ARM GAS  C:\Users\RABBIT~1\AppData\Local\Temp\ccgw4IdU.s 			page 9


 431:Generated_Source\PSoC5/cy_em_eeprom.c ****     {
 432:Generated_Source\PSoC5/cy_em_eeprom.c ****         uint32 numWrites = ((size - 1u) / CY_EM_EEPROM_HEADER_DATA_LEN) + 1u;
 433:Generated_Source\PSoC5/cy_em_eeprom.c ****         uint32 eeHeaderDataOffset = 0u;
 434:Generated_Source\PSoC5/cy_em_eeprom.c **** 
 435:Generated_Source\PSoC5/cy_em_eeprom.c ****         for(wrCnt = 0u; wrCnt < numWrites; wrCnt++)
 436:Generated_Source\PSoC5/cy_em_eeprom.c ****         {
 437:Generated_Source\PSoC5/cy_em_eeprom.c ****             uint32 skipOperation = 0u;
 438:Generated_Source\PSoC5/cy_em_eeprom.c ****             /* Get the sequence number of the last written row */
 439:Generated_Source\PSoC5/cy_em_eeprom.c ****             uint32 seqNum = CY_EM_EEPROM_GET_SEQ_NUM(emEepromRowAddr);
 440:Generated_Source\PSoC5/cy_em_eeprom.c **** 
 441:Generated_Source\PSoC5/cy_em_eeprom.c ****             /* Get the address of the row to be written. The "emEepromRowAddr" may be
 442:Generated_Source\PSoC5/cy_em_eeprom.c ****             * updated with the proper address (if wear leveling is used). The
 443:Generated_Source\PSoC5/cy_em_eeprom.c ****             * "emEepromRowRdAddr" will point to the row address from which the historic
 444:Generated_Source\PSoC5/cy_em_eeprom.c ****             * data will be read into the RAM buffer.
 445:Generated_Source\PSoC5/cy_em_eeprom.c ****             */
 446:Generated_Source\PSoC5/cy_em_eeprom.c ****             GetNextRowToWrite(seqNum, &emEepromRowAddr, &emEepromRowRdAddr, context);
 447:Generated_Source\PSoC5/cy_em_eeprom.c **** 
 448:Generated_Source\PSoC5/cy_em_eeprom.c ****             /* Clear the RAM buffer so to not put junk into flash */
 449:Generated_Source\PSoC5/cy_em_eeprom.c ****             (void)memset(writeRamBuffer, 0, CY_EM_EEPROM_FLASH_SIZEOF_ROW);
 450:Generated_Source\PSoC5/cy_em_eeprom.c **** 
 451:Generated_Source\PSoC5/cy_em_eeprom.c ****             /* Fill the EM_EEPROM header info for the row in the RAM buffer */
 452:Generated_Source\PSoC5/cy_em_eeprom.c ****             seqNum++;
 453:Generated_Source\PSoC5/cy_em_eeprom.c ****             writeRamBuffer[CY_EM_EEPROM_HEADER_SEQ_NUM_OFFSET_U32] = seqNum;
 454:Generated_Source\PSoC5/cy_em_eeprom.c ****             writeRamBuffer[CY_EM_EEPROM_HEADER_ADDR_OFFSET_U32] = addr;
 455:Generated_Source\PSoC5/cy_em_eeprom.c ****             tmpData = (void *) eeData;
 456:Generated_Source\PSoC5/cy_em_eeprom.c **** 
 457:Generated_Source\PSoC5/cy_em_eeprom.c ****             /* Check if this is the last row to write */
 458:Generated_Source\PSoC5/cy_em_eeprom.c ****             if(wrCnt == (numWrites - 1u))
 459:Generated_Source\PSoC5/cy_em_eeprom.c ****             {
 460:Generated_Source\PSoC5/cy_em_eeprom.c ****                 /* Fill in the remaining size value to the EEPROM header. */
 461:Generated_Source\PSoC5/cy_em_eeprom.c ****                 writeRamBuffer[CY_EM_EEPROM_HEADER_LEN_OFFSET_U32] = size;
 462:Generated_Source\PSoC5/cy_em_eeprom.c ****             }
 463:Generated_Source\PSoC5/cy_em_eeprom.c ****             else
 464:Generated_Source\PSoC5/cy_em_eeprom.c ****             {
 465:Generated_Source\PSoC5/cy_em_eeprom.c ****                 /* This is not the last row to write in the current EEPROM write operation.
 466:Generated_Source\PSoC5/cy_em_eeprom.c ****                 * Write the maximum possible data size to the EEPROM header. Update the
 467:Generated_Source\PSoC5/cy_em_eeprom.c ****                 * size, eeData and addr respectively.
 468:Generated_Source\PSoC5/cy_em_eeprom.c ****                 */
 469:Generated_Source\PSoC5/cy_em_eeprom.c ****                 writeRamBuffer[CY_EM_EEPROM_HEADER_LEN_OFFSET_U32] = CY_EM_EEPROM_HEADER_DATA_LEN;
 470:Generated_Source\PSoC5/cy_em_eeprom.c ****                 size -= CY_EM_EEPROM_HEADER_DATA_LEN;
 471:Generated_Source\PSoC5/cy_em_eeprom.c ****                 addr += CY_EM_EEPROM_HEADER_DATA_LEN;
 472:Generated_Source\PSoC5/cy_em_eeprom.c ****                 eeData += CY_EM_EEPROM_HEADER_DATA_LEN;
 473:Generated_Source\PSoC5/cy_em_eeprom.c ****             }
 474:Generated_Source\PSoC5/cy_em_eeprom.c **** 
 475:Generated_Source\PSoC5/cy_em_eeprom.c ****             /* Write the data to the EEPROM header */
 476:Generated_Source\PSoC5/cy_em_eeprom.c ****             (void)memcpy((void *)&writeRamBuffer[CY_EM_EEPROM_HEADER_DATA_OFFSET_U32],
 477:Generated_Source\PSoC5/cy_em_eeprom.c ****                          tmpData,
 478:Generated_Source\PSoC5/cy_em_eeprom.c ****                          writeRamBuffer[CY_EM_EEPROM_HEADER_LEN_OFFSET_U32]);
 479:Generated_Source\PSoC5/cy_em_eeprom.c **** 
 480:Generated_Source\PSoC5/cy_em_eeprom.c ****             if(emEepromRowRdAddr != 0UL)
 481:Generated_Source\PSoC5/cy_em_eeprom.c ****             {
 482:Generated_Source\PSoC5/cy_em_eeprom.c ****                 /* Copy the EEPROM historic data for this row from flash to RAM */
 483:Generated_Source\PSoC5/cy_em_eeprom.c ****                 (void)memcpy((void *)&writeRamBuffer[CY_EM_EEPROM_EEPROM_DATA_OFFSET_U32],
 484:Generated_Source\PSoC5/cy_em_eeprom.c ****                              (void *)(emEepromRowRdAddr + CY_EM_EEPROM_EEPROM_DATA_LEN),
 485:Generated_Source\PSoC5/cy_em_eeprom.c ****                              CY_EM_EEPROM_EEPROM_DATA_LEN);
 486:Generated_Source\PSoC5/cy_em_eeprom.c ****             }
 487:Generated_Source\PSoC5/cy_em_eeprom.c **** 
ARM GAS  C:\Users\RABBIT~1\AppData\Local\Temp\ccgw4IdU.s 			page 10


 488:Generated_Source\PSoC5/cy_em_eeprom.c ****             /* Check if there is data for this location in other EEPROM headers:
 489:Generated_Source\PSoC5/cy_em_eeprom.c ****             * find out the row with the lowest possible sequence number which
 490:Generated_Source\PSoC5/cy_em_eeprom.c ****             * may contain the data for the current row.
 491:Generated_Source\PSoC5/cy_em_eeprom.c ****             */
 492:Generated_Source\PSoC5/cy_em_eeprom.c ****             i = (seqNum > context->numberOfRows) ? ((seqNum - (context->numberOfRows)) + 1u) : 1u;
 493:Generated_Source\PSoC5/cy_em_eeprom.c **** 
 494:Generated_Source\PSoC5/cy_em_eeprom.c ****             for(; i <= seqNum; i++)
 495:Generated_Source\PSoC5/cy_em_eeprom.c ****             {
 496:Generated_Source\PSoC5/cy_em_eeprom.c ****                 if(i == seqNum)
 497:Generated_Source\PSoC5/cy_em_eeprom.c ****                 {
 498:Generated_Source\PSoC5/cy_em_eeprom.c ****                     /* The code reached the row that is about to be written. Analyze the recently
 499:Generated_Source\PSoC5/cy_em_eeprom.c ****                     * created EEPROM header (stored in the RAM buffer currently): if it contains
 500:Generated_Source\PSoC5/cy_em_eeprom.c ****                     * the data for EEPROM data locations in the row that is about to be written.
 501:Generated_Source\PSoC5/cy_em_eeprom.c ****                     */
 502:Generated_Source\PSoC5/cy_em_eeprom.c ****                     tmpRowAddr = (uint32) writeRamBuffer;
 503:Generated_Source\PSoC5/cy_em_eeprom.c ****                 }
 504:Generated_Source\PSoC5/cy_em_eeprom.c ****                 else
 505:Generated_Source\PSoC5/cy_em_eeprom.c ****                 {
 506:Generated_Source\PSoC5/cy_em_eeprom.c ****                     /* Retrieve the address of the previously written row by its sequence number.
 507:Generated_Source\PSoC5/cy_em_eeprom.c ****                     * The pointer will be used to get data from the respective EEPROM header.
 508:Generated_Source\PSoC5/cy_em_eeprom.c ****                     */
 509:Generated_Source\PSoC5/cy_em_eeprom.c ****                     tmpRowAddr = GetRowAddrBySeqNum(i, context);
 510:Generated_Source\PSoC5/cy_em_eeprom.c ****                 }
 511:Generated_Source\PSoC5/cy_em_eeprom.c **** 
 512:Generated_Source\PSoC5/cy_em_eeprom.c ****                 actEmEepromRowNum = CY_EM_EEPROM_GET_ACT_ROW_NUM_FROM_ADDR(emEepromRowAddr,
 513:Generated_Source\PSoC5/cy_em_eeprom.c ****                                                                            context->numberOfRows,
 514:Generated_Source\PSoC5/cy_em_eeprom.c ****                                                                            context->userFlashStartA
 515:Generated_Source\PSoC5/cy_em_eeprom.c ****                 if(0UL != tmpRowAddr)
 516:Generated_Source\PSoC5/cy_em_eeprom.c ****                 {
 517:Generated_Source\PSoC5/cy_em_eeprom.c ****                     /* Calculate the required addressed for the later EEPROM historic data update *
 518:Generated_Source\PSoC5/cy_em_eeprom.c ****                     skipOperation = GetAddresses(
 519:Generated_Source\PSoC5/cy_em_eeprom.c ****                                               &startAddr,
 520:Generated_Source\PSoC5/cy_em_eeprom.c ****                                               &endAddr,
 521:Generated_Source\PSoC5/cy_em_eeprom.c ****                                               &eeHeaderDataOffset,
 522:Generated_Source\PSoC5/cy_em_eeprom.c ****                                               actEmEepromRowNum,
 523:Generated_Source\PSoC5/cy_em_eeprom.c ****                                               *(uint32 *)(tmpRowAddr + CY_EM_EEPROM_HEADER_ADDR_OFF
 524:Generated_Source\PSoC5/cy_em_eeprom.c ****                                               *(uint32 *)(tmpRowAddr + CY_EM_EEPROM_HEADER_LEN_OFFS
 525:Generated_Source\PSoC5/cy_em_eeprom.c ****                 }
 526:Generated_Source\PSoC5/cy_em_eeprom.c ****                 else
 527:Generated_Source\PSoC5/cy_em_eeprom.c ****                 {
 528:Generated_Source\PSoC5/cy_em_eeprom.c ****                     /* Skip writes to the RAM buffer */
 529:Generated_Source\PSoC5/cy_em_eeprom.c ****                     skipOperation++;
 530:Generated_Source\PSoC5/cy_em_eeprom.c ****                 }
 531:Generated_Source\PSoC5/cy_em_eeprom.c **** 
 532:Generated_Source\PSoC5/cy_em_eeprom.c ****                 /* Write data to the RAM buffer */
 533:Generated_Source\PSoC5/cy_em_eeprom.c ****                 if(0u == skipOperation)
 534:Generated_Source\PSoC5/cy_em_eeprom.c ****                 {
 535:Generated_Source\PSoC5/cy_em_eeprom.c ****                     uint32 dataAddr = ((uint32)((uint8 *)&writeRamBuffer)) + startAddr;
 536:Generated_Source\PSoC5/cy_em_eeprom.c **** 
 537:Generated_Source\PSoC5/cy_em_eeprom.c ****                     /* Update the address to point to the EEPROM header data and not to
 538:Generated_Source\PSoC5/cy_em_eeprom.c ****                     * the start of the row.
 539:Generated_Source\PSoC5/cy_em_eeprom.c ****                     */
 540:Generated_Source\PSoC5/cy_em_eeprom.c ****                     tmpRowAddr = tmpRowAddr + CY_EM_EEPROM_HEADER_DATA_OFFSET + eeHeaderDataOffset;
 541:Generated_Source\PSoC5/cy_em_eeprom.c ****                     (void)memcpy((void *)(dataAddr), (void *)(tmpRowAddr), endAddr - startAddr);
 542:Generated_Source\PSoC5/cy_em_eeprom.c ****                 }
 543:Generated_Source\PSoC5/cy_em_eeprom.c **** 
 544:Generated_Source\PSoC5/cy_em_eeprom.c ****                 /* Calculate the checksum if redundant copy is enabled */
ARM GAS  C:\Users\RABBIT~1\AppData\Local\Temp\ccgw4IdU.s 			page 11


 545:Generated_Source\PSoC5/cy_em_eeprom.c ****                 if(0u != context->redundantCopy)
 546:Generated_Source\PSoC5/cy_em_eeprom.c ****                 {
 547:Generated_Source\PSoC5/cy_em_eeprom.c ****                     writeRamBuffer[CY_EM_EEPROM_HEADER_CHECKSUM_OFFSET_U32] = (uint32)
 548:Generated_Source\PSoC5/cy_em_eeprom.c ****                         CalcChecksum((uint8 *) &writeRamBuffer[CY_EM_EEPROM_EEPROM_DATA_OFFSET_U32]
 549:Generated_Source\PSoC5/cy_em_eeprom.c ****                                                   CY_EM_EEPROM_EEPROM_DATA_LEN);
 550:Generated_Source\PSoC5/cy_em_eeprom.c ****                 }
 551:Generated_Source\PSoC5/cy_em_eeprom.c ****             }
 552:Generated_Source\PSoC5/cy_em_eeprom.c **** 
 553:Generated_Source\PSoC5/cy_em_eeprom.c ****             /* Write the data to the specified flash row */
 554:Generated_Source\PSoC5/cy_em_eeprom.c ****             ret = WriteRow(emEepromRowAddr, writeRamBuffer, context);
 555:Generated_Source\PSoC5/cy_em_eeprom.c ****             tmpRowAddr = emEepromRowAddr;
 556:Generated_Source\PSoC5/cy_em_eeprom.c **** 
 557:Generated_Source\PSoC5/cy_em_eeprom.c ****             /* Check if redundant copy is used */
 558:Generated_Source\PSoC5/cy_em_eeprom.c ****             if((0u != context->redundantCopy) && (CY_EM_EEPROM_SUCCESS == ret))
 559:Generated_Source\PSoC5/cy_em_eeprom.c ****             {
 560:Generated_Source\PSoC5/cy_em_eeprom.c ****                 /* Update the row address to point to the row in the redundant EEPROM's copy */
 561:Generated_Source\PSoC5/cy_em_eeprom.c ****                 tmpRowAddr = (emEepromRowAddr - context->userFlashStartAddr) + context->wlEndAddr;
 562:Generated_Source\PSoC5/cy_em_eeprom.c **** 
 563:Generated_Source\PSoC5/cy_em_eeprom.c ****                 /* Write the data to the specified flash row */
 564:Generated_Source\PSoC5/cy_em_eeprom.c ****                 ret = WriteRow(tmpRowAddr, writeRamBuffer, context);
 565:Generated_Source\PSoC5/cy_em_eeprom.c ****             }
 566:Generated_Source\PSoC5/cy_em_eeprom.c **** 
 567:Generated_Source\PSoC5/cy_em_eeprom.c ****             if(CY_EM_EEPROM_SUCCESS == ret)
 568:Generated_Source\PSoC5/cy_em_eeprom.c ****             {
 569:Generated_Source\PSoC5/cy_em_eeprom.c ****                 /* Store last written row address only when EEPROM and redundant
 570:Generated_Source\PSoC5/cy_em_eeprom.c ****                 * copy writes were successful.
 571:Generated_Source\PSoC5/cy_em_eeprom.c ****                 */
 572:Generated_Source\PSoC5/cy_em_eeprom.c ****                 context->lastWrRowAddr = emEepromRowAddr;
 573:Generated_Source\PSoC5/cy_em_eeprom.c ****             }
 574:Generated_Source\PSoC5/cy_em_eeprom.c ****             else
 575:Generated_Source\PSoC5/cy_em_eeprom.c ****             {
 576:Generated_Source\PSoC5/cy_em_eeprom.c ****                 break;
 577:Generated_Source\PSoC5/cy_em_eeprom.c ****             }
 578:Generated_Source\PSoC5/cy_em_eeprom.c ****         }
 579:Generated_Source\PSoC5/cy_em_eeprom.c ****     }
 580:Generated_Source\PSoC5/cy_em_eeprom.c ****     return(ret);
 581:Generated_Source\PSoC5/cy_em_eeprom.c **** }
 582:Generated_Source\PSoC5/cy_em_eeprom.c **** 
 583:Generated_Source\PSoC5/cy_em_eeprom.c **** 
 584:Generated_Source\PSoC5/cy_em_eeprom.c **** /*******************************************************************************
 585:Generated_Source\PSoC5/cy_em_eeprom.c **** * Function Name: Cy_Em_EEPROM_Erase
 586:Generated_Source\PSoC5/cy_em_eeprom.c **** ****************************************************************************//**
 587:Generated_Source\PSoC5/cy_em_eeprom.c **** *
 588:Generated_Source\PSoC5/cy_em_eeprom.c **** * This function erases the entire contents of the EEPROM. Erased values are all
 589:Generated_Source\PSoC5/cy_em_eeprom.c **** * zeros. This is a blocking function and it does not return until the write
 590:Generated_Source\PSoC5/cy_em_eeprom.c **** * operation is completed. The user firmware should not enter Hibernate mode until
 591:Generated_Source\PSoC5/cy_em_eeprom.c **** * erase is completed. The erase operation is allowed in Sleep and Deep-Sleep modes.
 592:Generated_Source\PSoC5/cy_em_eeprom.c **** * During the flash operation, the device should not be reset, including the
 593:Generated_Source\PSoC5/cy_em_eeprom.c **** * XRES pin, a software reset, and watchdog reset sources. Also, low-voltage
 594:Generated_Source\PSoC5/cy_em_eeprom.c **** * detect circuits should be configured to generate an interrupt instead of a
 595:Generated_Source\PSoC5/cy_em_eeprom.c **** * reset. Otherwise, portions of flash may undergo unexpected changes.
 596:Generated_Source\PSoC5/cy_em_eeprom.c **** *
 597:Generated_Source\PSoC5/cy_em_eeprom.c **** * \param context
 598:Generated_Source\PSoC5/cy_em_eeprom.c **** * The pointer to the EEPROM context structure \ref cy_stc_eeprom_context_t.
 599:Generated_Source\PSoC5/cy_em_eeprom.c **** *
 600:Generated_Source\PSoC5/cy_em_eeprom.c **** * \return
 601:Generated_Source\PSoC5/cy_em_eeprom.c **** * This function returns \ref cy_en_em_eeprom_status_t.
ARM GAS  C:\Users\RABBIT~1\AppData\Local\Temp\ccgw4IdU.s 			page 12


 602:Generated_Source\PSoC5/cy_em_eeprom.c **** *
 603:Generated_Source\PSoC5/cy_em_eeprom.c **** * \note
 604:Generated_Source\PSoC5/cy_em_eeprom.c **** * For all non PSoC 6 devices the erase operation is performed by clearing
 605:Generated_Source\PSoC5/cy_em_eeprom.c **** * the EEPROM data using flash write. This affects the flash durability.
 606:Generated_Source\PSoC5/cy_em_eeprom.c **** * So it is recommended to use this function in utmost case to prolongate
 607:Generated_Source\PSoC5/cy_em_eeprom.c **** * flash life.
 608:Generated_Source\PSoC5/cy_em_eeprom.c **** *
 609:Generated_Source\PSoC5/cy_em_eeprom.c **** * \note
 610:Generated_Source\PSoC5/cy_em_eeprom.c **** * This function uses a buffer of the flash row size to perform erase
 611:Generated_Source\PSoC5/cy_em_eeprom.c **** * operation. For the size of the row refer to the specific PSoC device
 612:Generated_Source\PSoC5/cy_em_eeprom.c **** * datasheet.
 613:Generated_Source\PSoC5/cy_em_eeprom.c **** *
 614:Generated_Source\PSoC5/cy_em_eeprom.c **** * \sideeffect
 615:Generated_Source\PSoC5/cy_em_eeprom.c **** * In case when blocking write option is used, if this function is called by
 616:Generated_Source\PSoC5/cy_em_eeprom.c **** * the CM4 the user code on CM0P and the user code on CM4 are blocked until erase
 617:Generated_Source\PSoC5/cy_em_eeprom.c **** * flash row operation is finished. If this function is called by the CM0P the
 618:Generated_Source\PSoC5/cy_em_eeprom.c **** * user code on CM4 is not blocked and the user code on CM0P is blocked until
 619:Generated_Source\PSoC5/cy_em_eeprom.c **** * erase flash row operation is finished. Plan your task allocation accordingly.
 620:Generated_Source\PSoC5/cy_em_eeprom.c **** *
 621:Generated_Source\PSoC5/cy_em_eeprom.c **** * \sideeffect
 622:Generated_Source\PSoC5/cy_em_eeprom.c **** * In case if non-blocking write option is used and when user flash is used as
 623:Generated_Source\PSoC5/cy_em_eeprom.c **** * an EEPROM storage care should be taken to prevent the read while write (RWW)
 624:Generated_Source\PSoC5/cy_em_eeprom.c **** * exception. To prevent the RWW exception the user flash macro that includes
 625:Generated_Source\PSoC5/cy_em_eeprom.c **** * the EEPROM storage should not be read while the EEPROM erase is not completed.
 626:Generated_Source\PSoC5/cy_em_eeprom.c **** * The read also means the user code execution from the respective flash macro.
 627:Generated_Source\PSoC5/cy_em_eeprom.c **** *
 628:Generated_Source\PSoC5/cy_em_eeprom.c **** *******************************************************************************/
 629:Generated_Source\PSoC5/cy_em_eeprom.c **** cy_en_em_eeprom_status_t Cy_Em_EEPROM_Erase(cy_stc_eeprom_context_t * context)
 630:Generated_Source\PSoC5/cy_em_eeprom.c **** {
 631:Generated_Source\PSoC5/cy_em_eeprom.c ****     uint32 i;
 632:Generated_Source\PSoC5/cy_em_eeprom.c ****     uint32 seqNum;
 633:Generated_Source\PSoC5/cy_em_eeprom.c ****     uint32 emEepromRowAddr = context->lastWrRowAddr;
 634:Generated_Source\PSoC5/cy_em_eeprom.c ****     uint32 emEepromRowRdAddr;
 635:Generated_Source\PSoC5/cy_em_eeprom.c ****     cy_en_em_eeprom_status_t ret = CY_EM_EEPROM_WRITE_FAIL;
 636:Generated_Source\PSoC5/cy_em_eeprom.c ****     uint32 writeRamBuffer[CY_EM_EEPROM_FLASH_SIZEOF_ROW / CY_EM_EEPROM_U32_DIV] = {0u};
 637:Generated_Source\PSoC5/cy_em_eeprom.c **** #if (CY_PSOC6)
 638:Generated_Source\PSoC5/cy_em_eeprom.c ****     uint32 emEepromStoredRowAddr = context->lastWrRowAddr;
 639:Generated_Source\PSoC5/cy_em_eeprom.c ****     uint32 storedSeqNum;
 640:Generated_Source\PSoC5/cy_em_eeprom.c **** #endif /* (!CY_PSOC6) */
 641:Generated_Source\PSoC5/cy_em_eeprom.c **** 
 642:Generated_Source\PSoC5/cy_em_eeprom.c ****     /* Get the sequence number of the last written row */
 643:Generated_Source\PSoC5/cy_em_eeprom.c ****     seqNum = CY_EM_EEPROM_GET_SEQ_NUM(emEepromRowAddr);
 644:Generated_Source\PSoC5/cy_em_eeprom.c **** 
 645:Generated_Source\PSoC5/cy_em_eeprom.c ****     /* If there were no writes to EEPROM - nothing to erase */
 646:Generated_Source\PSoC5/cy_em_eeprom.c ****     if(0u != seqNum)
 647:Generated_Source\PSoC5/cy_em_eeprom.c ****     {
 648:Generated_Source\PSoC5/cy_em_eeprom.c ****         /* Calculate the number of row erase operations required */
 649:Generated_Source\PSoC5/cy_em_eeprom.c ****         uint32 numWrites = context->numberOfRows * context->wearLevelingFactor;
 650:Generated_Source\PSoC5/cy_em_eeprom.c **** 
 651:Generated_Source\PSoC5/cy_em_eeprom.c ****     #if (CY_PSOC6)
 652:Generated_Source\PSoC5/cy_em_eeprom.c ****         GetNextRowToWrite(seqNum, &emEepromStoredRowAddr, &emEepromRowRdAddr, context);
 653:Generated_Source\PSoC5/cy_em_eeprom.c ****         storedSeqNum = seqNum + 1u;
 654:Generated_Source\PSoC5/cy_em_eeprom.c ****     #endif /* (CY_PSOC6) */
 655:Generated_Source\PSoC5/cy_em_eeprom.c **** 
 656:Generated_Source\PSoC5/cy_em_eeprom.c ****         if(0u != context->redundantCopy)
 657:Generated_Source\PSoC5/cy_em_eeprom.c ****         {
 658:Generated_Source\PSoC5/cy_em_eeprom.c ****             writeRamBuffer[CY_EM_EEPROM_HEADER_CHECKSUM_OFFSET_U32] = (uint32)
ARM GAS  C:\Users\RABBIT~1\AppData\Local\Temp\ccgw4IdU.s 			page 13


 659:Generated_Source\PSoC5/cy_em_eeprom.c ****                         CalcChecksum((uint8 *) &writeRamBuffer[CY_EM_EEPROM_EEPROM_DATA_OFFSET_U32]
 660:Generated_Source\PSoC5/cy_em_eeprom.c ****                                                   CY_EM_EEPROM_EEPROM_DATA_LEN);
 661:Generated_Source\PSoC5/cy_em_eeprom.c ****         }
 662:Generated_Source\PSoC5/cy_em_eeprom.c **** 
 663:Generated_Source\PSoC5/cy_em_eeprom.c ****         for(i = 0u; i < numWrites; i++)
 664:Generated_Source\PSoC5/cy_em_eeprom.c ****         {
 665:Generated_Source\PSoC5/cy_em_eeprom.c ****         #if (CY_PSOC6)
 666:Generated_Source\PSoC5/cy_em_eeprom.c ****             /* For PSoC 6 the erase operation moves backwards. From last written row
 667:Generated_Source\PSoC5/cy_em_eeprom.c ****             * identified by "seqNum" down to "seqNum" - "numWrites". If "emEepromRowAddr"
 668:Generated_Source\PSoC5/cy_em_eeprom.c ****             * is zero this means that the row identified by "seqNum" was previously 
 669:Generated_Source\PSoC5/cy_em_eeprom.c ****             * erased.
 670:Generated_Source\PSoC5/cy_em_eeprom.c ****             */
 671:Generated_Source\PSoC5/cy_em_eeprom.c ****             if(0u != emEepromRowAddr)
 672:Generated_Source\PSoC5/cy_em_eeprom.c ****             {
 673:Generated_Source\PSoC5/cy_em_eeprom.c ****                 ret = EraseRow(emEepromRowAddr, (uint32)writeRamBuffer, context);
 674:Generated_Source\PSoC5/cy_em_eeprom.c ****             }
 675:Generated_Source\PSoC5/cy_em_eeprom.c **** 
 676:Generated_Source\PSoC5/cy_em_eeprom.c ****             seqNum--;
 677:Generated_Source\PSoC5/cy_em_eeprom.c **** 
 678:Generated_Source\PSoC5/cy_em_eeprom.c ****             if(0u == seqNum)
 679:Generated_Source\PSoC5/cy_em_eeprom.c ****             {
 680:Generated_Source\PSoC5/cy_em_eeprom.c ****                 /* Exit the loop as there is no more row is EEPROM to be erased */
 681:Generated_Source\PSoC5/cy_em_eeprom.c ****                 break;
 682:Generated_Source\PSoC5/cy_em_eeprom.c ****             }
 683:Generated_Source\PSoC5/cy_em_eeprom.c ****             emEepromRowAddr = GetRowAddrBySeqNum(seqNum, context);
 684:Generated_Source\PSoC5/cy_em_eeprom.c ****         #else
 685:Generated_Source\PSoC5/cy_em_eeprom.c ****             seqNum = CY_EM_EEPROM_GET_SEQ_NUM(emEepromRowAddr);
 686:Generated_Source\PSoC5/cy_em_eeprom.c ****             /* Get the address of the row to be erased. "emEepromRowAddr" may be updated
 687:Generated_Source\PSoC5/cy_em_eeprom.c ****             * with the proper address (if wear leveling is used).
 688:Generated_Source\PSoC5/cy_em_eeprom.c ****             */
 689:Generated_Source\PSoC5/cy_em_eeprom.c ****             GetNextRowToWrite(seqNum, &emEepromRowAddr, &emEepromRowRdAddr, context);
 690:Generated_Source\PSoC5/cy_em_eeprom.c ****             seqNum++;
 691:Generated_Source\PSoC5/cy_em_eeprom.c ****             writeRamBuffer[0u] = seqNum;
 692:Generated_Source\PSoC5/cy_em_eeprom.c ****             ret = EraseRow(emEepromRowAddr, (uint32)writeRamBuffer, context);
 693:Generated_Source\PSoC5/cy_em_eeprom.c ****         #endif /* (CY_PSOC6) */
 694:Generated_Source\PSoC5/cy_em_eeprom.c ****         }
 695:Generated_Source\PSoC5/cy_em_eeprom.c **** 
 696:Generated_Source\PSoC5/cy_em_eeprom.c ****     #if (CY_PSOC6)
 697:Generated_Source\PSoC5/cy_em_eeprom.c ****         if(CY_EM_EEPROM_SUCCESS == ret)
 698:Generated_Source\PSoC5/cy_em_eeprom.c ****         {
 699:Generated_Source\PSoC5/cy_em_eeprom.c ****             writeRamBuffer[0u] = storedSeqNum;
 700:Generated_Source\PSoC5/cy_em_eeprom.c **** 
 701:Generated_Source\PSoC5/cy_em_eeprom.c ****             /* Write the previously stored sequence number to the flash row which would be
 702:Generated_Source\PSoC5/cy_em_eeprom.c ****             * written next if the erase wouldn't happen. In this case the write to
 703:Generated_Source\PSoC5/cy_em_eeprom.c ****             * redundant copy can be skipped as it does not add any value.
 704:Generated_Source\PSoC5/cy_em_eeprom.c ****             */
 705:Generated_Source\PSoC5/cy_em_eeprom.c ****             ret = WriteRow(emEepromStoredRowAddr, writeRamBuffer, context);
 706:Generated_Source\PSoC5/cy_em_eeprom.c **** 
 707:Generated_Source\PSoC5/cy_em_eeprom.c ****             if(CY_EM_EEPROM_SUCCESS == ret)
 708:Generated_Source\PSoC5/cy_em_eeprom.c ****             {
 709:Generated_Source\PSoC5/cy_em_eeprom.c ****                 context->lastWrRowAddr = emEepromStoredRowAddr;
 710:Generated_Source\PSoC5/cy_em_eeprom.c ****             }
 711:Generated_Source\PSoC5/cy_em_eeprom.c ****         }
 712:Generated_Source\PSoC5/cy_em_eeprom.c ****     #endif /* (CY_PSOC6) */
 713:Generated_Source\PSoC5/cy_em_eeprom.c **** 
 714:Generated_Source\PSoC5/cy_em_eeprom.c ****     }
 715:Generated_Source\PSoC5/cy_em_eeprom.c ****     return(ret);
ARM GAS  C:\Users\RABBIT~1\AppData\Local\Temp\ccgw4IdU.s 			page 14


 716:Generated_Source\PSoC5/cy_em_eeprom.c **** }
 717:Generated_Source\PSoC5/cy_em_eeprom.c **** 
 718:Generated_Source\PSoC5/cy_em_eeprom.c **** 
 719:Generated_Source\PSoC5/cy_em_eeprom.c **** /*******************************************************************************
 720:Generated_Source\PSoC5/cy_em_eeprom.c **** * Function Name: Cy_Em_EEPROM_NumWrites
 721:Generated_Source\PSoC5/cy_em_eeprom.c **** ****************************************************************************//**
 722:Generated_Source\PSoC5/cy_em_eeprom.c **** *
 723:Generated_Source\PSoC5/cy_em_eeprom.c **** * Returns the number of the EEPROM writes completed so far.
 724:Generated_Source\PSoC5/cy_em_eeprom.c **** *
 725:Generated_Source\PSoC5/cy_em_eeprom.c **** * \param context
 726:Generated_Source\PSoC5/cy_em_eeprom.c **** * The pointer to the EEPROM context structure \ref cy_stc_eeprom_context_t.
 727:Generated_Source\PSoC5/cy_em_eeprom.c **** *
 728:Generated_Source\PSoC5/cy_em_eeprom.c **** * \return
 729:Generated_Source\PSoC5/cy_em_eeprom.c **** * The number of writes performed to the EEPROM.
 730:Generated_Source\PSoC5/cy_em_eeprom.c **** *
 731:Generated_Source\PSoC5/cy_em_eeprom.c **** *******************************************************************************/
 732:Generated_Source\PSoC5/cy_em_eeprom.c **** uint32 Cy_Em_EEPROM_NumWrites(cy_stc_eeprom_context_t * context)
 733:Generated_Source\PSoC5/cy_em_eeprom.c **** {
 734:Generated_Source\PSoC5/cy_em_eeprom.c ****     return(CY_EM_EEPROM_GET_SEQ_NUM(context->lastWrRowAddr));
 735:Generated_Source\PSoC5/cy_em_eeprom.c **** }
 736:Generated_Source\PSoC5/cy_em_eeprom.c **** 
 737:Generated_Source\PSoC5/cy_em_eeprom.c **** /** \} */
 738:Generated_Source\PSoC5/cy_em_eeprom.c **** 
 739:Generated_Source\PSoC5/cy_em_eeprom.c **** /** \cond INTERNAL */
 740:Generated_Source\PSoC5/cy_em_eeprom.c **** 
 741:Generated_Source\PSoC5/cy_em_eeprom.c **** 
 742:Generated_Source\PSoC5/cy_em_eeprom.c **** /*******************************************************************************
 743:Generated_Source\PSoC5/cy_em_eeprom.c **** * Function Name: FindLastWrittenRow
 744:Generated_Source\PSoC5/cy_em_eeprom.c **** ****************************************************************************//**
 745:Generated_Source\PSoC5/cy_em_eeprom.c **** *
 746:Generated_Source\PSoC5/cy_em_eeprom.c **** * Performs a search of the last written row address of the EEPROM associated
 747:Generated_Source\PSoC5/cy_em_eeprom.c **** * with the context structure. If there were no writes to the EEPROM the
 748:Generated_Source\PSoC5/cy_em_eeprom.c **** * function returns the start address of the EEPROM. The row address is returned
 749:Generated_Source\PSoC5/cy_em_eeprom.c **** * in the input parameter.
 750:Generated_Source\PSoC5/cy_em_eeprom.c **** *
 751:Generated_Source\PSoC5/cy_em_eeprom.c **** * \param lastWrRowPtr
 752:Generated_Source\PSoC5/cy_em_eeprom.c **** * The pointer to a memory where the last written row will be returned.
 753:Generated_Source\PSoC5/cy_em_eeprom.c **** *
 754:Generated_Source\PSoC5/cy_em_eeprom.c **** * \param context
 755:Generated_Source\PSoC5/cy_em_eeprom.c **** * The pointer to the EEPROM context structure \ref cy_stc_eeprom_context_t.
 756:Generated_Source\PSoC5/cy_em_eeprom.c **** *
 757:Generated_Source\PSoC5/cy_em_eeprom.c **** *******************************************************************************/
 758:Generated_Source\PSoC5/cy_em_eeprom.c **** static void FindLastWrittenRow(uint32 * lastWrRowPtr, cy_stc_eeprom_context_t * context)
 759:Generated_Source\PSoC5/cy_em_eeprom.c **** {
  27              		.loc 1 759 0
  28              		.cfi_startproc
  29              		@ args = 0, pretend = 0, frame = 0
  30              		@ frame_needed = 0, uses_anonymous_args = 0
  31              	.LVL0:
 760:Generated_Source\PSoC5/cy_em_eeprom.c ****     uint32 seqNum = 0u;
 761:Generated_Source\PSoC5/cy_em_eeprom.c ****     uint32 prevSeqNum = 0u;
 762:Generated_Source\PSoC5/cy_em_eeprom.c ****     uint32 numRows;
 763:Generated_Source\PSoC5/cy_em_eeprom.c ****     uint32 emEepromAddr = context->userFlashStartAddr;
 764:Generated_Source\PSoC5/cy_em_eeprom.c **** 
 765:Generated_Source\PSoC5/cy_em_eeprom.c ****     *lastWrRowPtr = emEepromAddr;
 766:Generated_Source\PSoC5/cy_em_eeprom.c **** 
 767:Generated_Source\PSoC5/cy_em_eeprom.c ****     for(numRows = 0u; numRows < (context->numberOfRows * context->wearLevelingFactor); numRows++)
ARM GAS  C:\Users\RABBIT~1\AppData\Local\Temp\ccgw4IdU.s 			page 15


  32              		.loc 1 767 0
  33 0000 0022     		movs	r2, #0
 759:Generated_Source\PSoC5/cy_em_eeprom.c ****     uint32 seqNum = 0u;
  34              		.loc 1 759 0
  35 0002 70B5     		push	{r4, r5, r6, lr}
  36              		.cfi_def_cfa_offset 16
  37              		.cfi_offset 4, -16
  38              		.cfi_offset 5, -12
  39              		.cfi_offset 6, -8
  40              		.cfi_offset 14, -4
 761:Generated_Source\PSoC5/cy_em_eeprom.c ****     uint32 numRows;
  41              		.loc 1 761 0
  42 0004 1546     		mov	r5, r2
 763:Generated_Source\PSoC5/cy_em_eeprom.c **** 
  43              		.loc 1 763 0
  44 0006 8B69     		ldr	r3, [r1, #24]
  45              	.LVL1:
 765:Generated_Source\PSoC5/cy_em_eeprom.c **** 
  46              		.loc 1 765 0
  47 0008 0360     		str	r3, [r0]
  48              	.LVL2:
  49              	.L2:
  50              		.loc 1 767 0 discriminator 1
  51 000a 4E68     		ldr	r6, [r1, #4]
  52 000c 0C69     		ldr	r4, [r1, #16]
  53 000e 7443     		muls	r4, r6, r4
  54 0010 A242     		cmp	r2, r4
  55 0012 09D2     		bcs	.L9
 768:Generated_Source\PSoC5/cy_em_eeprom.c ****     {
 769:Generated_Source\PSoC5/cy_em_eeprom.c ****         seqNum = CY_EM_EEPROM_GET_SEQ_NUM(emEepromAddr);
  56              		.loc 1 769 0
  57 0014 1C68     		ldr	r4, [r3]
  58              	.LVL3:
 770:Generated_Source\PSoC5/cy_em_eeprom.c ****         if((0u != seqNum) && (seqNum > prevSeqNum))
  59              		.loc 1 770 0
  60 0016 1CB1     		cbz	r4, .L3
  61              		.loc 1 770 0 is_stmt 0 discriminator 1
  62 0018 A542     		cmp	r5, r4
  63              	.LVL4:
 771:Generated_Source\PSoC5/cy_em_eeprom.c ****         {
 772:Generated_Source\PSoC5/cy_em_eeprom.c ****             /* Some record in EEPROM was found. Store found sequence
 773:Generated_Source\PSoC5/cy_em_eeprom.c ****             * number and row address.
 774:Generated_Source\PSoC5/cy_em_eeprom.c ****             */
 775:Generated_Source\PSoC5/cy_em_eeprom.c ****             prevSeqNum = seqNum;
 776:Generated_Source\PSoC5/cy_em_eeprom.c ****             *lastWrRowPtr = emEepromAddr;
  64              		.loc 1 776 0 is_stmt 1 discriminator 1
  65 001a 3CBF     		itt	cc
  66 001c 2546     		movcc	r5, r4
  67 001e 0360     		strcc	r3, [r0]
  68              	.LVL5:
  69              	.L3:
 777:Generated_Source\PSoC5/cy_em_eeprom.c ****         }
 778:Generated_Source\PSoC5/cy_em_eeprom.c **** 
 779:Generated_Source\PSoC5/cy_em_eeprom.c ****         /* Switch to the next row */
 780:Generated_Source\PSoC5/cy_em_eeprom.c ****         emEepromAddr = emEepromAddr + CY_EM_EEPROM_FLASH_SIZEOF_ROW;
  70              		.loc 1 780 0 discriminator 2
  71 0020 03F58073 		add	r3, r3, #256
ARM GAS  C:\Users\RABBIT~1\AppData\Local\Temp\ccgw4IdU.s 			page 16


  72              	.LVL6:
 767:Generated_Source\PSoC5/cy_em_eeprom.c ****     {
  73              		.loc 1 767 0 discriminator 2
  74 0024 0132     		adds	r2, r2, #1
  75              	.LVL7:
  76 0026 F0E7     		b	.L2
  77              	.LVL8:
  78              	.L9:
 781:Generated_Source\PSoC5/cy_em_eeprom.c ****     }
 782:Generated_Source\PSoC5/cy_em_eeprom.c **** }
  79              		.loc 1 782 0
  80 0028 70BD     		pop	{r4, r5, r6, pc}
  81              		.cfi_endproc
  82              	.LFE5:
  83              		.size	FindLastWrittenRow, .-FindLastWrittenRow
  84              		.section	.text.GetNextRowToWrite,"ax",%progbits
  85              		.align	1
  86              		.thumb
  87              		.thumb_func
  88              		.type	GetNextRowToWrite, %function
  89              	GetNextRowToWrite:
  90              	.LFB7:
 783:Generated_Source\PSoC5/cy_em_eeprom.c **** 
 784:Generated_Source\PSoC5/cy_em_eeprom.c **** 
 785:Generated_Source\PSoC5/cy_em_eeprom.c **** /*******************************************************************************
 786:Generated_Source\PSoC5/cy_em_eeprom.c **** * Function Name: GetRowAddrBySeqNum
 787:Generated_Source\PSoC5/cy_em_eeprom.c **** ****************************************************************************//**
 788:Generated_Source\PSoC5/cy_em_eeprom.c **** *
 789:Generated_Source\PSoC5/cy_em_eeprom.c **** * Returns the address of the row in EEPROM using its sequence number.
 790:Generated_Source\PSoC5/cy_em_eeprom.c **** *
 791:Generated_Source\PSoC5/cy_em_eeprom.c **** * \param seqNum
 792:Generated_Source\PSoC5/cy_em_eeprom.c **** * The sequence number of the row.
 793:Generated_Source\PSoC5/cy_em_eeprom.c **** *
 794:Generated_Source\PSoC5/cy_em_eeprom.c **** * \param context
 795:Generated_Source\PSoC5/cy_em_eeprom.c **** * The pointer to the EEPROM context structure.
 796:Generated_Source\PSoC5/cy_em_eeprom.c **** *
 797:Generated_Source\PSoC5/cy_em_eeprom.c **** * \return
 798:Generated_Source\PSoC5/cy_em_eeprom.c **** * The address of the row or zero if the row with the sequence number was not
 799:Generated_Source\PSoC5/cy_em_eeprom.c **** * found.
 800:Generated_Source\PSoC5/cy_em_eeprom.c **** *
 801:Generated_Source\PSoC5/cy_em_eeprom.c **** *******************************************************************************/
 802:Generated_Source\PSoC5/cy_em_eeprom.c **** static uint32 GetRowAddrBySeqNum(uint32 seqNum, cy_stc_eeprom_context_t * context)
 803:Generated_Source\PSoC5/cy_em_eeprom.c **** {
 804:Generated_Source\PSoC5/cy_em_eeprom.c ****     uint32 emEepromAddr = context->userFlashStartAddr;
 805:Generated_Source\PSoC5/cy_em_eeprom.c **** 
 806:Generated_Source\PSoC5/cy_em_eeprom.c ****     while(CY_EM_EEPROM_GET_SEQ_NUM(emEepromAddr) != seqNum)
 807:Generated_Source\PSoC5/cy_em_eeprom.c ****     {
 808:Generated_Source\PSoC5/cy_em_eeprom.c ****         /* Switch to the next row */
 809:Generated_Source\PSoC5/cy_em_eeprom.c ****         emEepromAddr = emEepromAddr + CY_EM_EEPROM_FLASH_SIZEOF_ROW;
 810:Generated_Source\PSoC5/cy_em_eeprom.c **** 
 811:Generated_Source\PSoC5/cy_em_eeprom.c ****         if (CY_EM_EEPROM_ADDR_IN_RANGE !=
 812:Generated_Source\PSoC5/cy_em_eeprom.c ****             CY_EM_EEPROM_IS_ADDR_EXCEED_RANGE(emEepromAddr, context->wlEndAddr))
 813:Generated_Source\PSoC5/cy_em_eeprom.c ****         {
 814:Generated_Source\PSoC5/cy_em_eeprom.c ****             emEepromAddr = 0u;
 815:Generated_Source\PSoC5/cy_em_eeprom.c ****             /* Exit the loop as we reached the end of EEPROM */
 816:Generated_Source\PSoC5/cy_em_eeprom.c ****             break;
 817:Generated_Source\PSoC5/cy_em_eeprom.c ****         }
ARM GAS  C:\Users\RABBIT~1\AppData\Local\Temp\ccgw4IdU.s 			page 17


 818:Generated_Source\PSoC5/cy_em_eeprom.c ****     }
 819:Generated_Source\PSoC5/cy_em_eeprom.c **** 
 820:Generated_Source\PSoC5/cy_em_eeprom.c ****     return (emEepromAddr);
 821:Generated_Source\PSoC5/cy_em_eeprom.c **** }
 822:Generated_Source\PSoC5/cy_em_eeprom.c **** 
 823:Generated_Source\PSoC5/cy_em_eeprom.c **** 
 824:Generated_Source\PSoC5/cy_em_eeprom.c **** /*******************************************************************************
 825:Generated_Source\PSoC5/cy_em_eeprom.c **** * Function Name: GetNextRowToWrite
 826:Generated_Source\PSoC5/cy_em_eeprom.c **** ****************************************************************************//**
 827:Generated_Source\PSoC5/cy_em_eeprom.c **** *
 828:Generated_Source\PSoC5/cy_em_eeprom.c **** * Performs a range check of the row that should be written and updates the
 829:Generated_Source\PSoC5/cy_em_eeprom.c **** * address to the row respectively. The similar actions are done for the read
 830:Generated_Source\PSoC5/cy_em_eeprom.c **** * address.
 831:Generated_Source\PSoC5/cy_em_eeprom.c **** *
 832:Generated_Source\PSoC5/cy_em_eeprom.c **** * \param seqNum
 833:Generated_Source\PSoC5/cy_em_eeprom.c **** * The sequence number of the last written row.
 834:Generated_Source\PSoC5/cy_em_eeprom.c **** *
 835:Generated_Source\PSoC5/cy_em_eeprom.c **** * \param rowToWrPtr
 836:Generated_Source\PSoC5/cy_em_eeprom.c **** * The address of the last written row (input). The address of the row to be 
 837:Generated_Source\PSoC5/cy_em_eeprom.c **** * written (output).
 838:Generated_Source\PSoC5/cy_em_eeprom.c **** *
 839:Generated_Source\PSoC5/cy_em_eeprom.c **** * \param rowToRdPtr
 840:Generated_Source\PSoC5/cy_em_eeprom.c **** * The address of the row from which the data should be read into the RAM buffer
 841:Generated_Source\PSoC5/cy_em_eeprom.c **** * in a later write operation. Out parameter.
 842:Generated_Source\PSoC5/cy_em_eeprom.c **** *
 843:Generated_Source\PSoC5/cy_em_eeprom.c **** * \param context
 844:Generated_Source\PSoC5/cy_em_eeprom.c **** * The pointer to the EEPROM context structure \ref cy_stc_eeprom_context_t.
 845:Generated_Source\PSoC5/cy_em_eeprom.c **** *
 846:Generated_Source\PSoC5/cy_em_eeprom.c **** *******************************************************************************/
 847:Generated_Source\PSoC5/cy_em_eeprom.c **** static void GetNextRowToWrite(uint32 seqNum,
 848:Generated_Source\PSoC5/cy_em_eeprom.c ****                             uint32 * rowToWrPtr,
 849:Generated_Source\PSoC5/cy_em_eeprom.c ****                             uint32 * rowToRdPtr,
 850:Generated_Source\PSoC5/cy_em_eeprom.c ****                             cy_stc_eeprom_context_t * context)
 851:Generated_Source\PSoC5/cy_em_eeprom.c **** {
  91              		.loc 1 851 0
  92              		.cfi_startproc
  93              		@ args = 0, pretend = 0, frame = 0
  94              		@ frame_needed = 0, uses_anonymous_args = 0
  95              	.LVL9:
  96 0000 30B5     		push	{r4, r5, lr}
  97              		.cfi_def_cfa_offset 12
  98              		.cfi_offset 4, -12
  99              		.cfi_offset 5, -8
 100              		.cfi_offset 14, -4
 852:Generated_Source\PSoC5/cy_em_eeprom.c ****     /* Switch to the next row to be written if the current sequence number is
 853:Generated_Source\PSoC5/cy_em_eeprom.c ****     * not zero.
 854:Generated_Source\PSoC5/cy_em_eeprom.c ****     */
 855:Generated_Source\PSoC5/cy_em_eeprom.c ****     if(0u != seqNum)
 101              		.loc 1 855 0
 102 0002 18B1     		cbz	r0, .L11
 856:Generated_Source\PSoC5/cy_em_eeprom.c ****     {
 857:Generated_Source\PSoC5/cy_em_eeprom.c ****         *rowToWrPtr = (*rowToWrPtr + CY_EM_EEPROM_FLASH_SIZEOF_ROW);
 103              		.loc 1 857 0
 104 0004 0C68     		ldr	r4, [r1]
 105 0006 04F58074 		add	r4, r4, #256
 106 000a 0C60     		str	r4, [r1]
 107              	.L11:
ARM GAS  C:\Users\RABBIT~1\AppData\Local\Temp\ccgw4IdU.s 			page 18


 858:Generated_Source\PSoC5/cy_em_eeprom.c ****     }
 859:Generated_Source\PSoC5/cy_em_eeprom.c **** 
 860:Generated_Source\PSoC5/cy_em_eeprom.c ****     /* If the resulting row address is out of EEPROM, then switch to the base
 861:Generated_Source\PSoC5/cy_em_eeprom.c ****     * EEPROM address (Row#0).
 862:Generated_Source\PSoC5/cy_em_eeprom.c ****     */
 863:Generated_Source\PSoC5/cy_em_eeprom.c ****     if(CY_EM_EEPROM_ADDR_IN_RANGE !=
 108              		.loc 1 863 0
 109 000c 1C68     		ldr	r4, [r3]
 110 000e 0D68     		ldr	r5, [r1]
 111 0010 A542     		cmp	r5, r4
 864:Generated_Source\PSoC5/cy_em_eeprom.c ****             CY_EM_EEPROM_IS_ADDR_EXCEED_RANGE(*rowToWrPtr, context->wlEndAddr))
 865:Generated_Source\PSoC5/cy_em_eeprom.c ****     {
 866:Generated_Source\PSoC5/cy_em_eeprom.c ****         *rowToWrPtr = context->userFlashStartAddr;
 112              		.loc 1 866 0
 113 0012 24BF     		itt	cs
 114 0014 9C69     		ldrcs	r4, [r3, #24]
 115 0016 0C60     		strcs	r4, [r1]
 867:Generated_Source\PSoC5/cy_em_eeprom.c ****     }
 868:Generated_Source\PSoC5/cy_em_eeprom.c **** 
 869:Generated_Source\PSoC5/cy_em_eeprom.c ****     *rowToRdPtr = 0u;
 116              		.loc 1 869 0
 117 0018 0024     		movs	r4, #0
 118 001a 1460     		str	r4, [r2]
 870:Generated_Source\PSoC5/cy_em_eeprom.c **** 
 871:Generated_Source\PSoC5/cy_em_eeprom.c ****     /* Check if the sequence number is larger than the number of rows in the EEPROM.
 872:Generated_Source\PSoC5/cy_em_eeprom.c ****     * If not, do not update the row read address because there is no historic
 873:Generated_Source\PSoC5/cy_em_eeprom.c ****     * data to be read.
 874:Generated_Source\PSoC5/cy_em_eeprom.c ****     */
 875:Generated_Source\PSoC5/cy_em_eeprom.c ****     if(context->numberOfRows <= seqNum)
 119              		.loc 1 875 0
 120 001c 5C68     		ldr	r4, [r3, #4]
 121 001e A042     		cmp	r0, r4
 122 0020 13D3     		bcc	.L10
 876:Generated_Source\PSoC5/cy_em_eeprom.c ****     {
 877:Generated_Source\PSoC5/cy_em_eeprom.c ****         /* Check if wear leveling is used in EEPROM */
 878:Generated_Source\PSoC5/cy_em_eeprom.c ****         if(context->wearLevelingFactor > 1u)
 123              		.loc 1 878 0
 124 0022 1869     		ldr	r0, [r3, #16]
 125              	.LVL10:
 126 0024 0D68     		ldr	r5, [r1]
 127 0026 0128     		cmp	r0, #1
 128 0028 0ED9     		bls	.L14
 879:Generated_Source\PSoC5/cy_em_eeprom.c ****         {
 880:Generated_Source\PSoC5/cy_em_eeprom.c ****             /* The read row address should be taken from an EEPROM copy that became
 881:Generated_Source\PSoC5/cy_em_eeprom.c ****             * inactive recently. This condition check handles that.
 882:Generated_Source\PSoC5/cy_em_eeprom.c ****             */
 883:Generated_Source\PSoC5/cy_em_eeprom.c ****             if((*rowToWrPtr - (context->numberOfRows * CY_EM_EEPROM_FLASH_SIZEOF_ROW)) <
 129              		.loc 1 883 0
 130 002a 9B69     		ldr	r3, [r3, #24]
 131              	.LVL11:
 132 002c 2102     		lsls	r1, r4, #8
 133              	.LVL12:
 134 002e 6C1A     		subs	r4, r5, r1
 135 0030 9C42     		cmp	r4, r3
 884:Generated_Source\PSoC5/cy_em_eeprom.c ****                 context->userFlashStartAddr)
 885:Generated_Source\PSoC5/cy_em_eeprom.c ****             {
 886:Generated_Source\PSoC5/cy_em_eeprom.c ****                 *rowToRdPtr = context->userFlashStartAddr +
ARM GAS  C:\Users\RABBIT~1\AppData\Local\Temp\ccgw4IdU.s 			page 19


 136              		.loc 1 886 0
 137 0032 3DBF     		ittte	cc
 138 0034 00F1FF13 		addcc	r3, r0, #16711935
 139 0038 03F57F43 		addcc	r3, r3, #65280
 140 003c 01FB0353 		mlacc	r3, r1, r3, r5
 887:Generated_Source\PSoC5/cy_em_eeprom.c ****                     (context->numberOfRows * (context->wearLevelingFactor - 1u) *
 888:Generated_Source\PSoC5/cy_em_eeprom.c ****                         CY_EM_EEPROM_FLASH_SIZEOF_ROW) + (*rowToWrPtr - context->userFlashStartAddr
 889:Generated_Source\PSoC5/cy_em_eeprom.c ****             }
 890:Generated_Source\PSoC5/cy_em_eeprom.c ****             else
 891:Generated_Source\PSoC5/cy_em_eeprom.c ****             {
 892:Generated_Source\PSoC5/cy_em_eeprom.c ****                 *rowToRdPtr = *rowToWrPtr - (context->numberOfRows * CY_EM_EEPROM_FLASH_SIZEOF_ROW)
 141              		.loc 1 892 0
 142 0040 1460     		strcs	r4, [r2]
 886:Generated_Source\PSoC5/cy_em_eeprom.c ****                     (context->numberOfRows * (context->wearLevelingFactor - 1u) *
 143              		.loc 1 886 0
 144 0042 38BF     		it	cc
 145 0044 1360     		strcc	r3, [r2]
 146 0046 30BD     		pop	{r4, r5, pc}
 147              	.LVL13:
 148              	.L14:
 893:Generated_Source\PSoC5/cy_em_eeprom.c ****             }
 894:Generated_Source\PSoC5/cy_em_eeprom.c ****         }
 895:Generated_Source\PSoC5/cy_em_eeprom.c ****         else
 896:Generated_Source\PSoC5/cy_em_eeprom.c ****         {
 897:Generated_Source\PSoC5/cy_em_eeprom.c ****             /* If no wear leveling, always read from the same flash row that
 898:Generated_Source\PSoC5/cy_em_eeprom.c ****             * should be written.
 899:Generated_Source\PSoC5/cy_em_eeprom.c ****             */
 900:Generated_Source\PSoC5/cy_em_eeprom.c ****             *rowToRdPtr = *rowToWrPtr;
 149              		.loc 1 900 0
 150 0048 1560     		str	r5, [r2]
 151              	.L10:
 152 004a 30BD     		pop	{r4, r5, pc}
 153              		.cfi_endproc
 154              	.LFE7:
 155              		.size	GetNextRowToWrite, .-GetNextRowToWrite
 156              		.section	.text.WriteRow.isra.0,"ax",%progbits
 157              		.align	1
 158              		.thumb
 159              		.thumb_func
 160              		.type	WriteRow.isra.0, %function
 161              	WriteRow.isra.0:
 162              	.LFB15:
 901:Generated_Source\PSoC5/cy_em_eeprom.c ****         }
 902:Generated_Source\PSoC5/cy_em_eeprom.c ****     }
 903:Generated_Source\PSoC5/cy_em_eeprom.c **** }
 904:Generated_Source\PSoC5/cy_em_eeprom.c **** 
 905:Generated_Source\PSoC5/cy_em_eeprom.c **** 
 906:Generated_Source\PSoC5/cy_em_eeprom.c **** /*******************************************************************************
 907:Generated_Source\PSoC5/cy_em_eeprom.c **** * Function Name: CalcChecksum
 908:Generated_Source\PSoC5/cy_em_eeprom.c **** ****************************************************************************//**
 909:Generated_Source\PSoC5/cy_em_eeprom.c **** *
 910:Generated_Source\PSoC5/cy_em_eeprom.c **** * Implements CRC-8 that is used in checksum calculation for the redundant copy
 911:Generated_Source\PSoC5/cy_em_eeprom.c **** * algorithm.
 912:Generated_Source\PSoC5/cy_em_eeprom.c **** *
 913:Generated_Source\PSoC5/cy_em_eeprom.c **** * \param rowData
 914:Generated_Source\PSoC5/cy_em_eeprom.c **** * The row data to be used to calculate the checksum.
 915:Generated_Source\PSoC5/cy_em_eeprom.c **** *
ARM GAS  C:\Users\RABBIT~1\AppData\Local\Temp\ccgw4IdU.s 			page 20


 916:Generated_Source\PSoC5/cy_em_eeprom.c **** * \param len
 917:Generated_Source\PSoC5/cy_em_eeprom.c **** * The length of rowData.
 918:Generated_Source\PSoC5/cy_em_eeprom.c **** *
 919:Generated_Source\PSoC5/cy_em_eeprom.c **** * \return
 920:Generated_Source\PSoC5/cy_em_eeprom.c **** * The calculated value of CRC-8.
 921:Generated_Source\PSoC5/cy_em_eeprom.c **** *
 922:Generated_Source\PSoC5/cy_em_eeprom.c **** *******************************************************************************/
 923:Generated_Source\PSoC5/cy_em_eeprom.c **** static uint8 CalcChecksum(uint8 rowData[], uint32 len)
 924:Generated_Source\PSoC5/cy_em_eeprom.c **** {
 925:Generated_Source\PSoC5/cy_em_eeprom.c ****     uint8 crc = CY_EM_EEPROM_CRC8_SEED;
 926:Generated_Source\PSoC5/cy_em_eeprom.c ****     uint8 i;
 927:Generated_Source\PSoC5/cy_em_eeprom.c ****     uint16 cnt = 0u;
 928:Generated_Source\PSoC5/cy_em_eeprom.c **** 
 929:Generated_Source\PSoC5/cy_em_eeprom.c ****     while(cnt != len)
 930:Generated_Source\PSoC5/cy_em_eeprom.c ****     {
 931:Generated_Source\PSoC5/cy_em_eeprom.c ****         crc ^= rowData[cnt];
 932:Generated_Source\PSoC5/cy_em_eeprom.c ****         for (i = 0u; i < CY_EM_EEPROM_CRC8_POLYNOM_LEN; i++)
 933:Generated_Source\PSoC5/cy_em_eeprom.c ****         {
 934:Generated_Source\PSoC5/cy_em_eeprom.c ****             crc = CY_EM_EEPROM_CALCULATE_CRC8(crc);
 935:Generated_Source\PSoC5/cy_em_eeprom.c ****         }
 936:Generated_Source\PSoC5/cy_em_eeprom.c ****         cnt++;
 937:Generated_Source\PSoC5/cy_em_eeprom.c ****     }
 938:Generated_Source\PSoC5/cy_em_eeprom.c **** 
 939:Generated_Source\PSoC5/cy_em_eeprom.c ****     return (crc);
 940:Generated_Source\PSoC5/cy_em_eeprom.c **** }
 941:Generated_Source\PSoC5/cy_em_eeprom.c **** 
 942:Generated_Source\PSoC5/cy_em_eeprom.c **** 
 943:Generated_Source\PSoC5/cy_em_eeprom.c **** /*******************************************************************************
 944:Generated_Source\PSoC5/cy_em_eeprom.c **** * Function Name: CheckRanges
 945:Generated_Source\PSoC5/cy_em_eeprom.c **** ****************************************************************************//**
 946:Generated_Source\PSoC5/cy_em_eeprom.c **** *
 947:Generated_Source\PSoC5/cy_em_eeprom.c **** * Checks if the EEPROM of the requested size can be placed in flash.
 948:Generated_Source\PSoC5/cy_em_eeprom.c **** *
 949:Generated_Source\PSoC5/cy_em_eeprom.c **** * \param config
 950:Generated_Source\PSoC5/cy_em_eeprom.c **** * The pointer to a configuration structure. See \ref cy_stc_eeprom_config_t.
 951:Generated_Source\PSoC5/cy_em_eeprom.c **** *
 952:Generated_Source\PSoC5/cy_em_eeprom.c **** * \return
 953:Generated_Source\PSoC5/cy_em_eeprom.c **** * error / status code. See \ref cy_en_em_eeprom_status_t.
 954:Generated_Source\PSoC5/cy_em_eeprom.c **** *
 955:Generated_Source\PSoC5/cy_em_eeprom.c **** *******************************************************************************/
 956:Generated_Source\PSoC5/cy_em_eeprom.c **** static cy_en_em_eeprom_status_t CheckRanges(cy_stc_eeprom_config_t* config)
 957:Generated_Source\PSoC5/cy_em_eeprom.c **** {
 958:Generated_Source\PSoC5/cy_em_eeprom.c ****     cy_en_em_eeprom_status_t ret = CY_EM_EEPROM_BAD_DATA;
 959:Generated_Source\PSoC5/cy_em_eeprom.c ****     uint32 startAddr = config->userFlashStartAddr;
 960:Generated_Source\PSoC5/cy_em_eeprom.c ****     uint32 endAddr = startAddr + CY_EM_EEPROM_GET_PHYSICAL_SIZE(config->eepromSize,
 961:Generated_Source\PSoC5/cy_em_eeprom.c ****             config->wearLevelingFactor, config->redundantCopy);
 962:Generated_Source\PSoC5/cy_em_eeprom.c **** 
 963:Generated_Source\PSoC5/cy_em_eeprom.c ****     /* Range check if there is enough flash for EEPROM */
 964:Generated_Source\PSoC5/cy_em_eeprom.c ****     if (CY_EM_EEPROM_IS_IN_FLASH_RANGE(startAddr, endAddr))
 965:Generated_Source\PSoC5/cy_em_eeprom.c ****     {
 966:Generated_Source\PSoC5/cy_em_eeprom.c ****         ret = CY_EM_EEPROM_SUCCESS;
 967:Generated_Source\PSoC5/cy_em_eeprom.c ****     }
 968:Generated_Source\PSoC5/cy_em_eeprom.c ****     return (ret);
 969:Generated_Source\PSoC5/cy_em_eeprom.c **** }
 970:Generated_Source\PSoC5/cy_em_eeprom.c **** 
 971:Generated_Source\PSoC5/cy_em_eeprom.c **** 
 972:Generated_Source\PSoC5/cy_em_eeprom.c **** /*******************************************************************************
ARM GAS  C:\Users\RABBIT~1\AppData\Local\Temp\ccgw4IdU.s 			page 21


 973:Generated_Source\PSoC5/cy_em_eeprom.c **** * Function Name: WriteRow
 974:Generated_Source\PSoC5/cy_em_eeprom.c **** ****************************************************************************//**
 975:Generated_Source\PSoC5/cy_em_eeprom.c **** *
 976:Generated_Source\PSoC5/cy_em_eeprom.c **** * Writes one flash row starting from the specified row address.
 977:Generated_Source\PSoC5/cy_em_eeprom.c **** *
 978:Generated_Source\PSoC5/cy_em_eeprom.c **** * \param rowAdd
 979:Generated_Source\PSoC5/cy_em_eeprom.c **** * The address of the flash row.
 980:Generated_Source\PSoC5/cy_em_eeprom.c **** *
 981:Generated_Source\PSoC5/cy_em_eeprom.c **** * \param rowData
 982:Generated_Source\PSoC5/cy_em_eeprom.c **** * The pointer to the data to be written to the row.
 983:Generated_Source\PSoC5/cy_em_eeprom.c **** *
 984:Generated_Source\PSoC5/cy_em_eeprom.c **** * \param context
 985:Generated_Source\PSoC5/cy_em_eeprom.c **** * The pointer to the EEPROM context structure \ref cy_stc_eeprom_context_t.
 986:Generated_Source\PSoC5/cy_em_eeprom.c **** *
 987:Generated_Source\PSoC5/cy_em_eeprom.c **** * \return
 988:Generated_Source\PSoC5/cy_em_eeprom.c **** * error / status code. See \ref cy_en_em_eeprom_status_t.
 989:Generated_Source\PSoC5/cy_em_eeprom.c **** *
 990:Generated_Source\PSoC5/cy_em_eeprom.c **** *******************************************************************************/
 991:Generated_Source\PSoC5/cy_em_eeprom.c **** static cy_en_em_eeprom_status_t WriteRow(uint32 rowAddr,
 163              		.loc 1 991 0
 164              		.cfi_startproc
 165              		@ args = 0, pretend = 0, frame = 0
 166              		@ frame_needed = 0, uses_anonymous_args = 0
 167              	.LVL14:
 168 0000 38B5     		push	{r3, r4, r5, lr}
 169              		.cfi_def_cfa_offset 16
 170              		.cfi_offset 3, -16
 171              		.cfi_offset 4, -12
 172              		.cfi_offset 5, -8
 173              		.cfi_offset 14, -4
 174              		.loc 1 991 0
 175 0002 0446     		mov	r4, r0
 176              	.LVL15:
 177 0004 0D46     		mov	r5, r1
 992:Generated_Source\PSoC5/cy_em_eeprom.c ****                                         uint32 *rowData,
 993:Generated_Source\PSoC5/cy_em_eeprom.c ****                                         cy_stc_eeprom_context_t * context)
 994:Generated_Source\PSoC5/cy_em_eeprom.c **** {
 995:Generated_Source\PSoC5/cy_em_eeprom.c ****     cy_en_em_eeprom_status_t ret = CY_EM_EEPROM_WRITE_FAIL;
 996:Generated_Source\PSoC5/cy_em_eeprom.c **** #if (!CY_PSOC6)
 997:Generated_Source\PSoC5/cy_em_eeprom.c ****     cystatus rc;
 998:Generated_Source\PSoC5/cy_em_eeprom.c ****     #if ((CY_PSOC3) || (CY_PSOC5))
 999:Generated_Source\PSoC5/cy_em_eeprom.c ****         uint32 arrayId;
1000:Generated_Source\PSoC5/cy_em_eeprom.c ****         uint32 rowId;
1001:Generated_Source\PSoC5/cy_em_eeprom.c ****     #else
1002:Generated_Source\PSoC5/cy_em_eeprom.c ****         uint32 rowNum;
1003:Generated_Source\PSoC5/cy_em_eeprom.c ****     #endif /* (CY_PSOC3) */
1004:Generated_Source\PSoC5/cy_em_eeprom.c ****     
1005:Generated_Source\PSoC5/cy_em_eeprom.c ****     #if (CY_PSOC3)
1006:Generated_Source\PSoC5/cy_em_eeprom.c ****         rowAddr &= CY_EM_EEPROM_CODE_ADDR_MASK;
1007:Generated_Source\PSoC5/cy_em_eeprom.c ****         context = context;      /* To avoid compiler warning generation */
1008:Generated_Source\PSoC5/cy_em_eeprom.c ****     #else
1009:Generated_Source\PSoC5/cy_em_eeprom.c ****         (void)context;          /* To avoid compiler warning generation */
1010:Generated_Source\PSoC5/cy_em_eeprom.c ****     #endif /* ((CY_PSOC3) */
1011:Generated_Source\PSoC5/cy_em_eeprom.c ****     
1012:Generated_Source\PSoC5/cy_em_eeprom.c ****     /* Write the flash row */
1013:Generated_Source\PSoC5/cy_em_eeprom.c ****     #if (CY_PSOC4)
1014:Generated_Source\PSoC5/cy_em_eeprom.c ****         /* For PSoC 4 devices, the array ID is included in the row number */
ARM GAS  C:\Users\RABBIT~1\AppData\Local\Temp\ccgw4IdU.s 			page 22


1015:Generated_Source\PSoC5/cy_em_eeprom.c ****         rowNum = rowAddr / CY_EM_EEPROM_FLASH_SIZEOF_ROW;
1016:Generated_Source\PSoC5/cy_em_eeprom.c ****         
1017:Generated_Source\PSoC5/cy_em_eeprom.c ****         rc = CySysFlashWriteRow(rowNum, (uint8 *)rowData);
1018:Generated_Source\PSoC5/cy_em_eeprom.c ****     #else
1019:Generated_Source\PSoC5/cy_em_eeprom.c ****         /* For PSoC 3/5 devices, the array ID and row ID needed to write the row */
1020:Generated_Source\PSoC5/cy_em_eeprom.c ****         rowId = (rowAddr / CY_EM_EEPROM_FLASH_SIZEOF_ROW) % CY_EM_EEPROM_ROWS_IN_ARRAY;
1021:Generated_Source\PSoC5/cy_em_eeprom.c ****         
1022:Generated_Source\PSoC5/cy_em_eeprom.c ****         #ifndef CY_EM_EEPROM_SKIP_TEMP_MEASUREMENT
1023:Generated_Source\PSoC5/cy_em_eeprom.c ****             (void)CySetTemp();
 178              		.loc 1 1023 0
 179 0006 FFF7FEFF 		bl	CySetTemp
 180              	.LVL16:
1024:Generated_Source\PSoC5/cy_em_eeprom.c ****         #endif /* (CY_EM_EEPROM_SKIP_TEMP_MEASUREMENT) */
1025:Generated_Source\PSoC5/cy_em_eeprom.c **** 
1026:Generated_Source\PSoC5/cy_em_eeprom.c ****         arrayId = rowAddr / CY_FLASH_SIZEOF_ARRAY;
1027:Generated_Source\PSoC5/cy_em_eeprom.c ****         rc = CyWriteRowData((uint8)arrayId, (uint16)rowId, (uint8 *)rowData);
 181              		.loc 1 1027 0
 182 000a C4F30721 		ubfx	r1, r4, #8, #8
 183 000e 2A46     		mov	r2, r5
 184 0010 C4F30740 		ubfx	r0, r4, #16, #8
 185 0014 FFF7FEFF 		bl	CyWriteRowData
 186              	.LVL17:
 187 0018 0446     		mov	r4, r0
 188              	.LVL18:
1028:Generated_Source\PSoC5/cy_em_eeprom.c ****         
1029:Generated_Source\PSoC5/cy_em_eeprom.c ****         #if (CY_PSOC5)
1030:Generated_Source\PSoC5/cy_em_eeprom.c ****             CyFlushCache();
 189              		.loc 1 1030 0
 190 001a FFF7FEFF 		bl	CyFlushCache
 191              	.LVL19:
1031:Generated_Source\PSoC5/cy_em_eeprom.c ****         #endif /* (CY_PSOC5) */
1032:Generated_Source\PSoC5/cy_em_eeprom.c ****     #endif /* (CY_PSOC4) */
1033:Generated_Source\PSoC5/cy_em_eeprom.c **** 
1034:Generated_Source\PSoC5/cy_em_eeprom.c ****     if(CYRET_SUCCESS == rc)
 192              		.loc 1 1034 0
 193 001e 002C     		cmp	r4, #0
 194              	.LVL20:
1035:Generated_Source\PSoC5/cy_em_eeprom.c ****     {
1036:Generated_Source\PSoC5/cy_em_eeprom.c ****         ret = CY_EM_EEPROM_SUCCESS;
1037:Generated_Source\PSoC5/cy_em_eeprom.c ****     }
1038:Generated_Source\PSoC5/cy_em_eeprom.c **** #else /* PSoC 6 */
1039:Generated_Source\PSoC5/cy_em_eeprom.c ****     if(0u != context->blockingWrite)
1040:Generated_Source\PSoC5/cy_em_eeprom.c ****     {
1041:Generated_Source\PSoC5/cy_em_eeprom.c ****         /* Do blocking write */
1042:Generated_Source\PSoC5/cy_em_eeprom.c ****         if(CY_FLASH_DRV_SUCCESS == Cy_Flash_WriteRow(rowAddr, (const uint32 *)rowData))
1043:Generated_Source\PSoC5/cy_em_eeprom.c ****         {
1044:Generated_Source\PSoC5/cy_em_eeprom.c ****             ret = CY_EM_EEPROM_SUCCESS;
1045:Generated_Source\PSoC5/cy_em_eeprom.c ****         }
1046:Generated_Source\PSoC5/cy_em_eeprom.c ****     }
1047:Generated_Source\PSoC5/cy_em_eeprom.c ****     else
1048:Generated_Source\PSoC5/cy_em_eeprom.c ****     {
1049:Generated_Source\PSoC5/cy_em_eeprom.c ****         /* Initiate write */
1050:Generated_Source\PSoC5/cy_em_eeprom.c ****         if(CY_FLASH_DRV_OPERATION_STARTED == Cy_Flash_StartWrite(rowAddr, (const uint32 *)rowData))
1051:Generated_Source\PSoC5/cy_em_eeprom.c ****         {
1052:Generated_Source\PSoC5/cy_em_eeprom.c ****             uint32 countMs = CY_EM_EEPROM_MAX_WRITE_DURATION_MS;
1053:Generated_Source\PSoC5/cy_em_eeprom.c ****             cy_en_flashdrv_status_t rc;
1054:Generated_Source\PSoC5/cy_em_eeprom.c **** 
ARM GAS  C:\Users\RABBIT~1\AppData\Local\Temp\ccgw4IdU.s 			page 23


1055:Generated_Source\PSoC5/cy_em_eeprom.c ****             do
1056:Generated_Source\PSoC5/cy_em_eeprom.c ****             {
1057:Generated_Source\PSoC5/cy_em_eeprom.c ****                 CyDelay(1u);                         /* Wait 1ms */
1058:Generated_Source\PSoC5/cy_em_eeprom.c ****                 rc = Cy_Flash_IsWriteComplete();     /* Check if write completed */
1059:Generated_Source\PSoC5/cy_em_eeprom.c ****                 countMs--;
1060:Generated_Source\PSoC5/cy_em_eeprom.c ****             }
1061:Generated_Source\PSoC5/cy_em_eeprom.c ****             while ((rc == CY_FLASH_DRV_OPCODE_BUSY) && (0u != countMs));
1062:Generated_Source\PSoC5/cy_em_eeprom.c **** 
1063:Generated_Source\PSoC5/cy_em_eeprom.c ****             if(CY_FLASH_DRV_SUCCESS == rc)
1064:Generated_Source\PSoC5/cy_em_eeprom.c ****             {
1065:Generated_Source\PSoC5/cy_em_eeprom.c ****                 ret = CY_EM_EEPROM_SUCCESS;
1066:Generated_Source\PSoC5/cy_em_eeprom.c ****             }
1067:Generated_Source\PSoC5/cy_em_eeprom.c ****         }
1068:Generated_Source\PSoC5/cy_em_eeprom.c ****     }
1069:Generated_Source\PSoC5/cy_em_eeprom.c **** #endif /* (CY_PSOC6) */
1070:Generated_Source\PSoC5/cy_em_eeprom.c **** 
1071:Generated_Source\PSoC5/cy_em_eeprom.c ****     return (ret);
1072:Generated_Source\PSoC5/cy_em_eeprom.c **** }
 195              		.loc 1 1072 0
 196 0020 14BF     		ite	ne
 197 0022 0420     		movne	r0, #4
 198 0024 0020     		moveq	r0, #0
 199 0026 38BD     		pop	{r3, r4, r5, pc}
 200              		.cfi_endproc
 201              	.LFE15:
 202              		.size	WriteRow.isra.0, .-WriteRow.isra.0
 203              		.section	.text.CalcChecksum.constprop.1,"ax",%progbits
 204              		.align	1
 205              		.thumb
 206              		.thumb_func
 207              		.type	CalcChecksum.constprop.1, %function
 208              	CalcChecksum.constprop.1:
 209              	.LFB16:
 923:Generated_Source\PSoC5/cy_em_eeprom.c **** {
 210              		.loc 1 923 0
 211              		.cfi_startproc
 212              		@ args = 0, pretend = 0, frame = 0
 213              		@ frame_needed = 0, uses_anonymous_args = 0
 214              		@ link register save eliminated.
 215              	.LVL21:
 216 0000 411E     		subs	r1, r0, #1
 217 0002 00F17F02 		add	r2, r0, #127
 925:Generated_Source\PSoC5/cy_em_eeprom.c ****     uint8 i;
 218              		.loc 1 925 0
 219 0006 FF20     		movs	r0, #255
 220              	.LVL22:
 221              	.L23:
 929:Generated_Source\PSoC5/cy_em_eeprom.c ****     {
 222              		.loc 1 929 0
 223 0008 9142     		cmp	r1, r2
 224 000a 11D0     		beq	.L29
 931:Generated_Source\PSoC5/cy_em_eeprom.c ****         for (i = 0u; i < CY_EM_EEPROM_CRC8_POLYNOM_LEN; i++)
 225              		.loc 1 931 0
 226 000c 11F8013F 		ldrb	r3, [r1, #1]!	@ zero_extendqisi2
 227              	.LVL23:
 228 0010 5840     		eors	r0, r0, r3
 229              	.LVL24:
ARM GAS  C:\Users\RABBIT~1\AppData\Local\Temp\ccgw4IdU.s 			page 24


 230 0012 0823     		movs	r3, #8
 231              	.LVL25:
 232              	.L26:
 934:Generated_Source\PSoC5/cy_em_eeprom.c ****         }
 233              		.loc 1 934 0
 234 0014 10F0800F 		tst	r0, #128
 235 0018 4FEA4000 		lsl	r0, r0, #1
 236              	.LVL26:
 237 001c C0B2     		uxtb	r0, r0
 238 001e 03F1FF33 		add	r3, r3, #-1
 239              	.LVL27:
 240 0022 18BF     		it	ne
 241 0024 80F03100 		eorne	r0, r0, #49
 242              	.LVL28:
 932:Generated_Source\PSoC5/cy_em_eeprom.c ****         {
 243              		.loc 1 932 0
 244 0028 13F0FF03 		ands	r3, r3, #255
 245 002c F2D1     		bne	.L26
 246 002e EBE7     		b	.L23
 247              	.LVL29:
 248              	.L29:
 940:Generated_Source\PSoC5/cy_em_eeprom.c **** 
 249              		.loc 1 940 0
 250 0030 7047     		bx	lr
 251              		.cfi_endproc
 252              	.LFE16:
 253              		.size	CalcChecksum.constprop.1, .-CalcChecksum.constprop.1
 254              		.section	.text.CheckCrcAndCopy,"ax",%progbits
 255              		.align	1
 256              		.thumb
 257              		.thumb_func
 258              		.type	CheckCrcAndCopy, %function
 259              	CheckCrcAndCopy:
 260              	.LFB12:
1073:Generated_Source\PSoC5/cy_em_eeprom.c **** 
1074:Generated_Source\PSoC5/cy_em_eeprom.c **** 
1075:Generated_Source\PSoC5/cy_em_eeprom.c **** /*******************************************************************************
1076:Generated_Source\PSoC5/cy_em_eeprom.c **** * Function Name: EraseRow
1077:Generated_Source\PSoC5/cy_em_eeprom.c **** ****************************************************************************//**
1078:Generated_Source\PSoC5/cy_em_eeprom.c **** *
1079:Generated_Source\PSoC5/cy_em_eeprom.c **** * Erases one flash row starting from the specified row address. If the redundant
1080:Generated_Source\PSoC5/cy_em_eeprom.c **** * copy option is enabled the corresponding row in the redundant copy will also
1081:Generated_Source\PSoC5/cy_em_eeprom.c **** * be erased.
1082:Generated_Source\PSoC5/cy_em_eeprom.c **** *
1083:Generated_Source\PSoC5/cy_em_eeprom.c **** * \param rowAdd
1084:Generated_Source\PSoC5/cy_em_eeprom.c **** * The address of the flash row.
1085:Generated_Source\PSoC5/cy_em_eeprom.c **** *
1086:Generated_Source\PSoC5/cy_em_eeprom.c **** * \param ramBuffAddr
1087:Generated_Source\PSoC5/cy_em_eeprom.c **** * The address of the RAM buffer that contains zeroed data (used only for
1088:Generated_Source\PSoC5/cy_em_eeprom.c **** * non-PSoC 6 devices).
1089:Generated_Source\PSoC5/cy_em_eeprom.c **** *
1090:Generated_Source\PSoC5/cy_em_eeprom.c **** * \param context
1091:Generated_Source\PSoC5/cy_em_eeprom.c **** * The pointer to the EEPROM context structure \ref cy_stc_eeprom_context_t.
1092:Generated_Source\PSoC5/cy_em_eeprom.c **** *
1093:Generated_Source\PSoC5/cy_em_eeprom.c **** * \return
1094:Generated_Source\PSoC5/cy_em_eeprom.c **** * error / status code. See \ref cy_en_em_eeprom_status_t.
1095:Generated_Source\PSoC5/cy_em_eeprom.c **** *
ARM GAS  C:\Users\RABBIT~1\AppData\Local\Temp\ccgw4IdU.s 			page 25


1096:Generated_Source\PSoC5/cy_em_eeprom.c **** *******************************************************************************/
1097:Generated_Source\PSoC5/cy_em_eeprom.c **** static cy_en_em_eeprom_status_t EraseRow(uint32 rowAddr,
1098:Generated_Source\PSoC5/cy_em_eeprom.c ****                                         uint32 ramBuffAddr,
1099:Generated_Source\PSoC5/cy_em_eeprom.c ****                                         cy_stc_eeprom_context_t * context)
1100:Generated_Source\PSoC5/cy_em_eeprom.c **** {
1101:Generated_Source\PSoC5/cy_em_eeprom.c ****     uint32 emEepromRowAddr = rowAddr;
1102:Generated_Source\PSoC5/cy_em_eeprom.c ****     cy_en_em_eeprom_status_t ret = CY_EM_EEPROM_WRITE_FAIL;
1103:Generated_Source\PSoC5/cy_em_eeprom.c **** #if (CY_PSOC6)
1104:Generated_Source\PSoC5/cy_em_eeprom.c ****     uint32 i = 1u;
1105:Generated_Source\PSoC5/cy_em_eeprom.c **** 
1106:Generated_Source\PSoC5/cy_em_eeprom.c ****     (void)ramBuffAddr; /* To avoid compiler warning */
1107:Generated_Source\PSoC5/cy_em_eeprom.c **** 
1108:Generated_Source\PSoC5/cy_em_eeprom.c ****     if(0u != context->redundantCopy)
1109:Generated_Source\PSoC5/cy_em_eeprom.c ****     {
1110:Generated_Source\PSoC5/cy_em_eeprom.c ****         i++;
1111:Generated_Source\PSoC5/cy_em_eeprom.c ****     }
1112:Generated_Source\PSoC5/cy_em_eeprom.c **** 
1113:Generated_Source\PSoC5/cy_em_eeprom.c ****     do
1114:Generated_Source\PSoC5/cy_em_eeprom.c ****     {
1115:Generated_Source\PSoC5/cy_em_eeprom.c ****         if(0u != context->blockingWrite)
1116:Generated_Source\PSoC5/cy_em_eeprom.c ****         {
1117:Generated_Source\PSoC5/cy_em_eeprom.c ****             /* Erase the flash row */
1118:Generated_Source\PSoC5/cy_em_eeprom.c ****             if(CY_FLASH_DRV_SUCCESS == Cy_Flash_EraseRow(emEepromRowAddr))
1119:Generated_Source\PSoC5/cy_em_eeprom.c ****             {
1120:Generated_Source\PSoC5/cy_em_eeprom.c ****                 ret = CY_EM_EEPROM_SUCCESS;
1121:Generated_Source\PSoC5/cy_em_eeprom.c ****             }
1122:Generated_Source\PSoC5/cy_em_eeprom.c ****         }
1123:Generated_Source\PSoC5/cy_em_eeprom.c ****         else
1124:Generated_Source\PSoC5/cy_em_eeprom.c ****         {
1125:Generated_Source\PSoC5/cy_em_eeprom.c ****             /* Initiate erase */
1126:Generated_Source\PSoC5/cy_em_eeprom.c ****             if(CY_FLASH_DRV_OPERATION_STARTED == Cy_Flash_StartErase(emEepromRowAddr))
1127:Generated_Source\PSoC5/cy_em_eeprom.c ****             {
1128:Generated_Source\PSoC5/cy_em_eeprom.c ****                 uint32 countMs = CY_EM_EEPROM_MAX_WRITE_DURATION_MS;
1129:Generated_Source\PSoC5/cy_em_eeprom.c ****                 cy_en_flashdrv_status_t rc;
1130:Generated_Source\PSoC5/cy_em_eeprom.c **** 
1131:Generated_Source\PSoC5/cy_em_eeprom.c ****                 do
1132:Generated_Source\PSoC5/cy_em_eeprom.c ****                 {
1133:Generated_Source\PSoC5/cy_em_eeprom.c ****                     CyDelay(1u);                         /* Wait 1ms */
1134:Generated_Source\PSoC5/cy_em_eeprom.c ****                     rc = Cy_Flash_IsWriteComplete();     /* Check if erase completed */
1135:Generated_Source\PSoC5/cy_em_eeprom.c ****                     countMs--;
1136:Generated_Source\PSoC5/cy_em_eeprom.c ****                 }
1137:Generated_Source\PSoC5/cy_em_eeprom.c ****                 while ((rc == CY_FLASH_DRV_OPCODE_BUSY) && (0u != countMs));
1138:Generated_Source\PSoC5/cy_em_eeprom.c **** 
1139:Generated_Source\PSoC5/cy_em_eeprom.c ****                 if(CY_FLASH_DRV_SUCCESS == rc)
1140:Generated_Source\PSoC5/cy_em_eeprom.c ****                 {
1141:Generated_Source\PSoC5/cy_em_eeprom.c ****                     ret = CY_EM_EEPROM_SUCCESS;
1142:Generated_Source\PSoC5/cy_em_eeprom.c ****                 }
1143:Generated_Source\PSoC5/cy_em_eeprom.c ****             }
1144:Generated_Source\PSoC5/cy_em_eeprom.c ****         }
1145:Generated_Source\PSoC5/cy_em_eeprom.c **** 
1146:Generated_Source\PSoC5/cy_em_eeprom.c ****         if(CY_EM_EEPROM_SUCCESS == ret)
1147:Generated_Source\PSoC5/cy_em_eeprom.c ****         {
1148:Generated_Source\PSoC5/cy_em_eeprom.c ****             /* Update the address to point to the redundant copy row */
1149:Generated_Source\PSoC5/cy_em_eeprom.c ****             emEepromRowAddr = (emEepromRowAddr - context->userFlashStartAddr) + context->wlEndAddr;
1150:Generated_Source\PSoC5/cy_em_eeprom.c ****         }
1151:Generated_Source\PSoC5/cy_em_eeprom.c ****         else
1152:Generated_Source\PSoC5/cy_em_eeprom.c ****         {
ARM GAS  C:\Users\RABBIT~1\AppData\Local\Temp\ccgw4IdU.s 			page 26


1153:Generated_Source\PSoC5/cy_em_eeprom.c ****             break;
1154:Generated_Source\PSoC5/cy_em_eeprom.c ****         }
1155:Generated_Source\PSoC5/cy_em_eeprom.c ****         i--;
1156:Generated_Source\PSoC5/cy_em_eeprom.c ****     } while (0u != i);
1157:Generated_Source\PSoC5/cy_em_eeprom.c **** #else
1158:Generated_Source\PSoC5/cy_em_eeprom.c ****     /* Write the data to the specified flash row */
1159:Generated_Source\PSoC5/cy_em_eeprom.c ****     ret = WriteRow(emEepromRowAddr, (uint32 *)ramBuffAddr, context);
1160:Generated_Source\PSoC5/cy_em_eeprom.c **** 
1161:Generated_Source\PSoC5/cy_em_eeprom.c ****     if((CY_EM_EEPROM_SUCCESS == ret) && (0u != context->redundantCopy))
1162:Generated_Source\PSoC5/cy_em_eeprom.c ****     {
1163:Generated_Source\PSoC5/cy_em_eeprom.c ****         /* Update the address to point to the redundant copy row */
1164:Generated_Source\PSoC5/cy_em_eeprom.c ****         emEepromRowAddr = (emEepromRowAddr - context->userFlashStartAddr) + context->wlEndAddr;
1165:Generated_Source\PSoC5/cy_em_eeprom.c ****         ret = WriteRow(emEepromRowAddr, (uint32 *)ramBuffAddr, context);
1166:Generated_Source\PSoC5/cy_em_eeprom.c ****     }
1167:Generated_Source\PSoC5/cy_em_eeprom.c **** 
1168:Generated_Source\PSoC5/cy_em_eeprom.c ****     if(CY_EM_EEPROM_SUCCESS == ret)
1169:Generated_Source\PSoC5/cy_em_eeprom.c ****     {
1170:Generated_Source\PSoC5/cy_em_eeprom.c ****         context->lastWrRowAddr = rowAddr;
1171:Generated_Source\PSoC5/cy_em_eeprom.c ****     }
1172:Generated_Source\PSoC5/cy_em_eeprom.c **** #endif /* (CY_PSOC6) */
1173:Generated_Source\PSoC5/cy_em_eeprom.c **** 
1174:Generated_Source\PSoC5/cy_em_eeprom.c ****     return(ret);
1175:Generated_Source\PSoC5/cy_em_eeprom.c **** }
1176:Generated_Source\PSoC5/cy_em_eeprom.c **** 
1177:Generated_Source\PSoC5/cy_em_eeprom.c **** 
1178:Generated_Source\PSoC5/cy_em_eeprom.c **** /*******************************************************************************
1179:Generated_Source\PSoC5/cy_em_eeprom.c **** * Function Name: CheckCrcAndCopy
1180:Generated_Source\PSoC5/cy_em_eeprom.c **** ****************************************************************************//**
1181:Generated_Source\PSoC5/cy_em_eeprom.c **** *
1182:Generated_Source\PSoC5/cy_em_eeprom.c **** * Checks the checksum of the specific row in EEPROM. If the CRC matches - copies
1183:Generated_Source\PSoC5/cy_em_eeprom.c **** * the data to the "datAddr" from EEPROM. f the CRC does not match checks the
1184:Generated_Source\PSoC5/cy_em_eeprom.c **** * CRC of the corresponding row in the EEPROM's redundant copy. If the CRC
1185:Generated_Source\PSoC5/cy_em_eeprom.c **** * matches - copies the data to the "datAddr" from EEPROM redundant copy. If the
1186:Generated_Source\PSoC5/cy_em_eeprom.c **** * CRC of the redundant copy does not match - returns bad checksum.
1187:Generated_Source\PSoC5/cy_em_eeprom.c **** *
1188:Generated_Source\PSoC5/cy_em_eeprom.c **** * \param startAddr
1189:Generated_Source\PSoC5/cy_em_eeprom.c **** * The address that points to the start of the specified row.
1190:Generated_Source\PSoC5/cy_em_eeprom.c **** *
1191:Generated_Source\PSoC5/cy_em_eeprom.c **** * \param datAddr
1192:Generated_Source\PSoC5/cy_em_eeprom.c **** * The start address of where the row data will be copied if the CRC check
1193:Generated_Source\PSoC5/cy_em_eeprom.c **** * will succeed.
1194:Generated_Source\PSoC5/cy_em_eeprom.c **** *
1195:Generated_Source\PSoC5/cy_em_eeprom.c **** * \param rowOffset
1196:Generated_Source\PSoC5/cy_em_eeprom.c **** * The offset in the row from which the data should be copied.
1197:Generated_Source\PSoC5/cy_em_eeprom.c **** *
1198:Generated_Source\PSoC5/cy_em_eeprom.c **** * \param numBytes
1199:Generated_Source\PSoC5/cy_em_eeprom.c **** * The number of bytes to be copied.
1200:Generated_Source\PSoC5/cy_em_eeprom.c **** *
1201:Generated_Source\PSoC5/cy_em_eeprom.c **** * \param context
1202:Generated_Source\PSoC5/cy_em_eeprom.c **** * The pointer to the EEPROM context structure \ref cy_stc_eeprom_context_t.
1203:Generated_Source\PSoC5/cy_em_eeprom.c **** *
1204:Generated_Source\PSoC5/cy_em_eeprom.c **** * \return
1205:Generated_Source\PSoC5/cy_em_eeprom.c **** * error / status code. See \ref cy_en_em_eeprom_status_t.
1206:Generated_Source\PSoC5/cy_em_eeprom.c **** *
1207:Generated_Source\PSoC5/cy_em_eeprom.c **** * \note
1208:Generated_Source\PSoC5/cy_em_eeprom.c **** * This function uses a buffer of the flash row size to perform read
1209:Generated_Source\PSoC5/cy_em_eeprom.c **** * operation. For the size of the row refer to the specific PSoC device
ARM GAS  C:\Users\RABBIT~1\AppData\Local\Temp\ccgw4IdU.s 			page 27


1210:Generated_Source\PSoC5/cy_em_eeprom.c **** * datasheet.
1211:Generated_Source\PSoC5/cy_em_eeprom.c **** *
1212:Generated_Source\PSoC5/cy_em_eeprom.c **** *******************************************************************************/
1213:Generated_Source\PSoC5/cy_em_eeprom.c **** static cy_en_em_eeprom_status_t CheckCrcAndCopy(uint32 startAddr,
1214:Generated_Source\PSoC5/cy_em_eeprom.c ****                                                 uint32 dstAddr,
1215:Generated_Source\PSoC5/cy_em_eeprom.c ****                                                 uint32 rowOffset,
1216:Generated_Source\PSoC5/cy_em_eeprom.c ****                                                 uint32 numBytes,
1217:Generated_Source\PSoC5/cy_em_eeprom.c ****                                                 cy_stc_eeprom_context_t * context)
1218:Generated_Source\PSoC5/cy_em_eeprom.c **** {
 261              		.loc 1 1218 0
 262              		.cfi_startproc
 263              		@ args = 4, pretend = 0, frame = 256
 264              		@ frame_needed = 0, uses_anonymous_args = 0
 265              	.LVL30:
 266 0000 2DE9F041 		push	{r4, r5, r6, r7, r8, lr}
 267              		.cfi_def_cfa_offset 24
 268              		.cfi_offset 4, -24
 269              		.cfi_offset 5, -20
 270              		.cfi_offset 6, -16
 271              		.cfi_offset 7, -12
 272              		.cfi_offset 8, -8
 273              		.cfi_offset 14, -4
 274 0004 C0B0     		sub	sp, sp, #256
 275              		.cfi_def_cfa_offset 280
 276              		.loc 1 1218 0
 277 0006 1746     		mov	r7, r2
 278 0008 469A     		ldr	r2, [sp, #280]
 279              	.LVL31:
 280 000a 9846     		mov	r8, r3
1219:Generated_Source\PSoC5/cy_em_eeprom.c ****     cy_en_em_eeprom_status_t ret;
1220:Generated_Source\PSoC5/cy_em_eeprom.c ****     uint32 writeRamBuffer[CY_EM_EEPROM_FLASH_SIZEOF_ROW / CY_EM_EEPROM_U32_DIV];
1221:Generated_Source\PSoC5/cy_em_eeprom.c **** 
1222:Generated_Source\PSoC5/cy_em_eeprom.c ****     /* Calculate the row address in the EEPROM's redundant copy */
1223:Generated_Source\PSoC5/cy_em_eeprom.c ****     uint32 rcStartRowAddr = (startAddr - context->userFlashStartAddr) + context->wlEndAddr;
 281              		.loc 1 1223 0
 282 000c 9469     		ldr	r4, [r2, #24]
 283 000e 1368     		ldr	r3, [r2]
 284              	.LVL32:
1218:Generated_Source\PSoC5/cy_em_eeprom.c ****     cy_en_em_eeprom_status_t ret;
 285              		.loc 1 1218 0
 286 0010 0546     		mov	r5, r0
 287              		.loc 1 1223 0
 288 0012 1C1B     		subs	r4, r3, r4
 289 0014 0444     		add	r4, r4, r0
 290              	.LVL33:
1224:Generated_Source\PSoC5/cy_em_eeprom.c **** 
1225:Generated_Source\PSoC5/cy_em_eeprom.c ****     /* Check the row data CRC in the EEPROM */
1226:Generated_Source\PSoC5/cy_em_eeprom.c ****     if((*(uint32 *)(startAddr + CY_EM_EEPROM_HEADER_CHECKSUM_OFFSET)) ==
1227:Generated_Source\PSoC5/cy_em_eeprom.c ****         ((uint32) CalcChecksum((uint8 *)(startAddr + CY_EM_EEPROM_EEPROM_DATA_OFFSET),
 291              		.loc 1 1227 0
 292 0016 8030     		adds	r0, r0, #128
 293              	.LVL34:
1218:Generated_Source\PSoC5/cy_em_eeprom.c ****     cy_en_em_eeprom_status_t ret;
 294              		.loc 1 1218 0
 295 0018 0E46     		mov	r6, r1
 296              		.loc 1 1227 0
 297 001a FFF7FEFF 		bl	CalcChecksum.constprop.1
ARM GAS  C:\Users\RABBIT~1\AppData\Local\Temp\ccgw4IdU.s 			page 28


 298              	.LVL35:
1226:Generated_Source\PSoC5/cy_em_eeprom.c ****         ((uint32) CalcChecksum((uint8 *)(startAddr + CY_EM_EEPROM_EEPROM_DATA_OFFSET),
 299              		.loc 1 1226 0
 300 001e EB6F     		ldr	r3, [r5, #124]
 301 0020 8342     		cmp	r3, r0
 302 0022 06D1     		bne	.L31
1228:Generated_Source\PSoC5/cy_em_eeprom.c ****             CY_EM_EEPROM_EEPROM_DATA_LEN)))
1229:Generated_Source\PSoC5/cy_em_eeprom.c ****     {
1230:Generated_Source\PSoC5/cy_em_eeprom.c ****         (void)memcpy((void *)(dstAddr), (void *)(startAddr + rowOffset), numBytes);
 303              		.loc 1 1230 0
 304 0024 4246     		mov	r2, r8
 305 0026 E919     		adds	r1, r5, r7
 306 0028 3046     		mov	r0, r6
 307 002a FFF7FEFF 		bl	memcpy
 308              	.LVL36:
1231:Generated_Source\PSoC5/cy_em_eeprom.c **** 
1232:Generated_Source\PSoC5/cy_em_eeprom.c ****         ret = CY_EM_EEPROM_SUCCESS;
 309              		.loc 1 1232 0
 310 002e 0024     		movs	r4, #0
 311              	.LVL37:
 312 0030 1AE0     		b	.L32
 313              	.LVL38:
 314              	.L31:
1233:Generated_Source\PSoC5/cy_em_eeprom.c ****     }
1234:Generated_Source\PSoC5/cy_em_eeprom.c ****     /* Check the row data CRC in the EEPROM's redundant copy */
1235:Generated_Source\PSoC5/cy_em_eeprom.c ****     else if((*(uint32 *)(rcStartRowAddr + CY_EM_EEPROM_HEADER_CHECKSUM_OFFSET)) ==
1236:Generated_Source\PSoC5/cy_em_eeprom.c ****             ((uint32) CalcChecksum((uint8 *)(rcStartRowAddr + CY_EM_EEPROM_EEPROM_DATA_OFFSET),
 315              		.loc 1 1236 0
 316 0032 04F18000 		add	r0, r4, #128
 317 0036 FFF7FEFF 		bl	CalcChecksum.constprop.1
 318              	.LVL39:
1235:Generated_Source\PSoC5/cy_em_eeprom.c ****             ((uint32) CalcChecksum((uint8 *)(rcStartRowAddr + CY_EM_EEPROM_EEPROM_DATA_OFFSET),
 319              		.loc 1 1235 0
 320 003a E36F     		ldr	r3, [r4, #124]
 321 003c 8342     		cmp	r3, r0
 322 003e 12D1     		bne	.L33
1237:Generated_Source\PSoC5/cy_em_eeprom.c ****                 CY_EM_EEPROM_EEPROM_DATA_LEN)))
1238:Generated_Source\PSoC5/cy_em_eeprom.c ****     {
1239:Generated_Source\PSoC5/cy_em_eeprom.c ****         /* Copy the redundant copy row to RAM buffer to avoid read while write (RWW)
1240:Generated_Source\PSoC5/cy_em_eeprom.c ****         * flash exception. The RWW occurs while trying to write and read the data from
1241:Generated_Source\PSoC5/cy_em_eeprom.c ****         * same flash macro.
1242:Generated_Source\PSoC5/cy_em_eeprom.c ****         */
1243:Generated_Source\PSoC5/cy_em_eeprom.c ****         (void)memcpy((void *)(writeRamBuffer), (void *)(rcStartRowAddr), CY_EM_EEPROM_FLASH_SIZEOF_
 323              		.loc 1 1243 0
 324 0040 2146     		mov	r1, r4
 325 0042 4FF48072 		mov	r2, #256
 326 0046 6846     		mov	r0, sp
 327 0048 FFF7FEFF 		bl	memcpy
 328              	.LVL40:
1244:Generated_Source\PSoC5/cy_em_eeprom.c **** 
1245:Generated_Source\PSoC5/cy_em_eeprom.c ****         /* Restore bad row data from the RAM buffer */
1246:Generated_Source\PSoC5/cy_em_eeprom.c ****         ret = WriteRow(startAddr, (uint32 *)writeRamBuffer, context);
 329              		.loc 1 1246 0
 330 004c 6946     		mov	r1, sp
 331 004e 2846     		mov	r0, r5
 332 0050 FFF7FEFF 		bl	WriteRow.isra.0
 333              	.LVL41:
ARM GAS  C:\Users\RABBIT~1\AppData\Local\Temp\ccgw4IdU.s 			page 29


1247:Generated_Source\PSoC5/cy_em_eeprom.c **** 
1248:Generated_Source\PSoC5/cy_em_eeprom.c ****         if(CY_EM_EEPROM_SUCCESS == ret)
 334              		.loc 1 1248 0
 335 0054 0446     		mov	r4, r0
 336              	.LVL42:
 337 0056 38B9     		cbnz	r0, .L32
1249:Generated_Source\PSoC5/cy_em_eeprom.c ****         {
1250:Generated_Source\PSoC5/cy_em_eeprom.c ****             (void)memcpy((void *)(dstAddr), (void *)(writeRamBuffer + rowOffset), numBytes);
 338              		.loc 1 1250 0
 339 0058 4246     		mov	r2, r8
 340 005a 0DEB8701 		add	r1, sp, r7, lsl #2
 341 005e 3046     		mov	r0, r6
 342              	.LVL43:
 343 0060 FFF7FEFF 		bl	memcpy
 344              	.LVL44:
 345 0064 00E0     		b	.L32
 346              	.LVL45:
 347              	.L33:
1251:Generated_Source\PSoC5/cy_em_eeprom.c ****         }
1252:Generated_Source\PSoC5/cy_em_eeprom.c ****     }
1253:Generated_Source\PSoC5/cy_em_eeprom.c ****     else
1254:Generated_Source\PSoC5/cy_em_eeprom.c ****     {
1255:Generated_Source\PSoC5/cy_em_eeprom.c ****         ret = CY_EM_EEPROM_BAD_CHECKSUM;
 348              		.loc 1 1255 0
 349 0066 0224     		movs	r4, #2
 350              	.LVL46:
 351              	.L32:
1256:Generated_Source\PSoC5/cy_em_eeprom.c ****     }
1257:Generated_Source\PSoC5/cy_em_eeprom.c **** 
1258:Generated_Source\PSoC5/cy_em_eeprom.c ****     return(ret);
1259:Generated_Source\PSoC5/cy_em_eeprom.c **** }
 352              		.loc 1 1259 0
 353 0068 2046     		mov	r0, r4
 354 006a 40B0     		add	sp, sp, #256
 355              		.cfi_def_cfa_offset 24
 356              		@ sp needed
 357 006c BDE8F081 		pop	{r4, r5, r6, r7, r8, pc}
 358              		.cfi_endproc
 359              	.LFE12:
 360              		.size	CheckCrcAndCopy, .-CheckCrcAndCopy
 361              		.section	.text.FillChecksum,"ax",%progbits
 362              		.align	1
 363              		.thumb
 364              		.thumb_func
 365              		.type	FillChecksum, %function
 366              	FillChecksum:
 367              	.LFB14:
1260:Generated_Source\PSoC5/cy_em_eeprom.c **** 
1261:Generated_Source\PSoC5/cy_em_eeprom.c **** 
1262:Generated_Source\PSoC5/cy_em_eeprom.c **** /*******************************************************************************
1263:Generated_Source\PSoC5/cy_em_eeprom.c **** * Function Name: GetAddresses
1264:Generated_Source\PSoC5/cy_em_eeprom.c **** ****************************************************************************//**
1265:Generated_Source\PSoC5/cy_em_eeprom.c **** *
1266:Generated_Source\PSoC5/cy_em_eeprom.c **** * Calculates the start and end address of the row's EEPROM data to be updated.
1267:Generated_Source\PSoC5/cy_em_eeprom.c **** * The start and end are not absolute addresses but a relative addresses in a
1268:Generated_Source\PSoC5/cy_em_eeprom.c **** * flash row.
1269:Generated_Source\PSoC5/cy_em_eeprom.c **** *
ARM GAS  C:\Users\RABBIT~1\AppData\Local\Temp\ccgw4IdU.s 			page 30


1270:Generated_Source\PSoC5/cy_em_eeprom.c **** * \param startAddr
1271:Generated_Source\PSoC5/cy_em_eeprom.c **** * The pointer the address where the EEPROM data start address will be returned.
1272:Generated_Source\PSoC5/cy_em_eeprom.c **** *
1273:Generated_Source\PSoC5/cy_em_eeprom.c **** * \param endAddr
1274:Generated_Source\PSoC5/cy_em_eeprom.c **** * The pointer the address where the EEPROM data end address will be returned.
1275:Generated_Source\PSoC5/cy_em_eeprom.c **** *
1276:Generated_Source\PSoC5/cy_em_eeprom.c **** * \param offset
1277:Generated_Source\PSoC5/cy_em_eeprom.c **** * The pointer the address where the calculated offset of the EEPROM header data
1278:Generated_Source\PSoC5/cy_em_eeprom.c **** * will be returned.
1279:Generated_Source\PSoC5/cy_em_eeprom.c **** *
1280:Generated_Source\PSoC5/cy_em_eeprom.c **** * \param rowNum
1281:Generated_Source\PSoC5/cy_em_eeprom.c **** * The row number that is about to be written.
1282:Generated_Source\PSoC5/cy_em_eeprom.c **** *
1283:Generated_Source\PSoC5/cy_em_eeprom.c **** * \param addr
1284:Generated_Source\PSoC5/cy_em_eeprom.c **** * The address of the EEPROM header data in the currently analyzed row that may
1285:Generated_Source\PSoC5/cy_em_eeprom.c **** * concern to the row about to be written.
1286:Generated_Source\PSoC5/cy_em_eeprom.c **** *
1287:Generated_Source\PSoC5/cy_em_eeprom.c **** * \param len
1288:Generated_Source\PSoC5/cy_em_eeprom.c **** * The length of the EEPROM header data in the currently analyzed row that may
1289:Generated_Source\PSoC5/cy_em_eeprom.c **** * concern to the row about to be written.
1290:Generated_Source\PSoC5/cy_em_eeprom.c **** *
1291:Generated_Source\PSoC5/cy_em_eeprom.c **** * \return
1292:Generated_Source\PSoC5/cy_em_eeprom.c **** * Zero indicates that the currently analyzed row has the data to be written to
1293:Generated_Source\PSoC5/cy_em_eeprom.c **** * the active EEPROM row data locations. Non zero value indicates that there is
1294:Generated_Source\PSoC5/cy_em_eeprom.c **** * no data to be written
1295:Generated_Source\PSoC5/cy_em_eeprom.c **** *
1296:Generated_Source\PSoC5/cy_em_eeprom.c **** *******************************************************************************/
1297:Generated_Source\PSoC5/cy_em_eeprom.c **** static uint32 GetAddresses(uint32 *startAddr, 
1298:Generated_Source\PSoC5/cy_em_eeprom.c ****                         uint32 *endAddr, 
1299:Generated_Source\PSoC5/cy_em_eeprom.c ****                         uint32 *offset,
1300:Generated_Source\PSoC5/cy_em_eeprom.c ****                         uint32 rowNum,
1301:Generated_Source\PSoC5/cy_em_eeprom.c ****                         uint32 addr,
1302:Generated_Source\PSoC5/cy_em_eeprom.c ****                         uint32 len)
1303:Generated_Source\PSoC5/cy_em_eeprom.c **** {
1304:Generated_Source\PSoC5/cy_em_eeprom.c ****     uint32 skip = 0u;
1305:Generated_Source\PSoC5/cy_em_eeprom.c **** 
1306:Generated_Source\PSoC5/cy_em_eeprom.c ****     *offset =0u;
1307:Generated_Source\PSoC5/cy_em_eeprom.c **** 
1308:Generated_Source\PSoC5/cy_em_eeprom.c ****     if(0u != CY_EM_EEPROM_IS_ADDR_IN_ROW_RANGE(addr, rowNum))
1309:Generated_Source\PSoC5/cy_em_eeprom.c ****     {
1310:Generated_Source\PSoC5/cy_em_eeprom.c ****         *startAddr = CY_EM_EEPROM_EEPROM_DATA_LEN + (addr % CY_EM_EEPROM_EEPROM_DATA_LEN);
1311:Generated_Source\PSoC5/cy_em_eeprom.c **** 
1312:Generated_Source\PSoC5/cy_em_eeprom.c ****         if(0u != CY_EM_EEPROM_IS_ADDR_IN_ROW_RANGE(addr + len, rowNum))
1313:Generated_Source\PSoC5/cy_em_eeprom.c ****         {
1314:Generated_Source\PSoC5/cy_em_eeprom.c ****             *endAddr = *startAddr + len;
1315:Generated_Source\PSoC5/cy_em_eeprom.c ****         }
1316:Generated_Source\PSoC5/cy_em_eeprom.c ****         else
1317:Generated_Source\PSoC5/cy_em_eeprom.c ****         {
1318:Generated_Source\PSoC5/cy_em_eeprom.c ****             *endAddr = CY_EM_EEPROM_FLASH_SIZEOF_ROW;
1319:Generated_Source\PSoC5/cy_em_eeprom.c ****         }
1320:Generated_Source\PSoC5/cy_em_eeprom.c ****     }
1321:Generated_Source\PSoC5/cy_em_eeprom.c ****     else
1322:Generated_Source\PSoC5/cy_em_eeprom.c ****     {
1323:Generated_Source\PSoC5/cy_em_eeprom.c **** 
1324:Generated_Source\PSoC5/cy_em_eeprom.c ****         if(0u != CY_EM_EEPROM_IS_ADDR_IN_ROW_RANGE(addr + len, rowNum))
1325:Generated_Source\PSoC5/cy_em_eeprom.c ****         {
1326:Generated_Source\PSoC5/cy_em_eeprom.c ****             *startAddr = CY_EM_EEPROM_EEPROM_DATA_LEN;
ARM GAS  C:\Users\RABBIT~1\AppData\Local\Temp\ccgw4IdU.s 			page 31


1327:Generated_Source\PSoC5/cy_em_eeprom.c ****             *endAddr = (*startAddr + len) - (*startAddr - (addr % CY_EM_EEPROM_EEPROM_DATA_LEN));
1328:Generated_Source\PSoC5/cy_em_eeprom.c ****             *offset = len - (*endAddr - *startAddr);
1329:Generated_Source\PSoC5/cy_em_eeprom.c ****         }
1330:Generated_Source\PSoC5/cy_em_eeprom.c ****         else
1331:Generated_Source\PSoC5/cy_em_eeprom.c ****         {
1332:Generated_Source\PSoC5/cy_em_eeprom.c ****             skip++;
1333:Generated_Source\PSoC5/cy_em_eeprom.c ****         }
1334:Generated_Source\PSoC5/cy_em_eeprom.c ****     }
1335:Generated_Source\PSoC5/cy_em_eeprom.c **** 
1336:Generated_Source\PSoC5/cy_em_eeprom.c ****     return (skip);
1337:Generated_Source\PSoC5/cy_em_eeprom.c **** }
1338:Generated_Source\PSoC5/cy_em_eeprom.c **** 
1339:Generated_Source\PSoC5/cy_em_eeprom.c **** 
1340:Generated_Source\PSoC5/cy_em_eeprom.c **** /*******************************************************************************
1341:Generated_Source\PSoC5/cy_em_eeprom.c **** * Function Name: FillChecksum
1342:Generated_Source\PSoC5/cy_em_eeprom.c **** ****************************************************************************//**
1343:Generated_Source\PSoC5/cy_em_eeprom.c **** *
1344:Generated_Source\PSoC5/cy_em_eeprom.c **** * Performs calculation of the checksum on each row in the Em_EEPROM and fills
1345:Generated_Source\PSoC5/cy_em_eeprom.c **** * the Em_EEPROM headers checksum field with the calculated checksums.
1346:Generated_Source\PSoC5/cy_em_eeprom.c **** *
1347:Generated_Source\PSoC5/cy_em_eeprom.c **** * \param context
1348:Generated_Source\PSoC5/cy_em_eeprom.c **** * The pointer to the EEPROM context structure.
1349:Generated_Source\PSoC5/cy_em_eeprom.c **** *
1350:Generated_Source\PSoC5/cy_em_eeprom.c **** * \return
1351:Generated_Source\PSoC5/cy_em_eeprom.c **** * error / status code. See \ref cy_en_em_eeprom_status_t.
1352:Generated_Source\PSoC5/cy_em_eeprom.c **** *
1353:Generated_Source\PSoC5/cy_em_eeprom.c **** * \theory 
1354:Generated_Source\PSoC5/cy_em_eeprom.c **** * In case if redundant copy option is used the Em_EEPROM would return bad 
1355:Generated_Source\PSoC5/cy_em_eeprom.c **** * checksum while trying to read the EEPROM rows which were not yet written by 
1356:Generated_Source\PSoC5/cy_em_eeprom.c **** * the user. E.g. any read after device reprogramming without previous Write() 
1357:Generated_Source\PSoC5/cy_em_eeprom.c **** * operation to the EEPROM would fail. This would happen because the Em_EEPROM 
1358:Generated_Source\PSoC5/cy_em_eeprom.c **** * headers checksum field values (which is zero at the moment) would not be 
1359:Generated_Source\PSoC5/cy_em_eeprom.c **** * equal to the actual data checksum. This function allows to avoid read failure
1360:Generated_Source\PSoC5/cy_em_eeprom.c **** * after device reprogramming. 
1361:Generated_Source\PSoC5/cy_em_eeprom.c **** *
1362:Generated_Source\PSoC5/cy_em_eeprom.c **** * \note
1363:Generated_Source\PSoC5/cy_em_eeprom.c **** * This function uses a buffer of the flash row size to perform read
1364:Generated_Source\PSoC5/cy_em_eeprom.c **** * operation. For the size of the row refer to the specific PSoC device
1365:Generated_Source\PSoC5/cy_em_eeprom.c **** * datasheet.
1366:Generated_Source\PSoC5/cy_em_eeprom.c **** *
1367:Generated_Source\PSoC5/cy_em_eeprom.c **** *******************************************************************************/
1368:Generated_Source\PSoC5/cy_em_eeprom.c **** static cy_en_em_eeprom_status_t FillChecksum(cy_stc_eeprom_context_t * context)
1369:Generated_Source\PSoC5/cy_em_eeprom.c **** {
 368              		.loc 1 1369 0
 369              		.cfi_startproc
 370              		@ args = 0, pretend = 0, frame = 264
 371              		@ frame_needed = 0, uses_anonymous_args = 0
 372              	.LVL47:
 373 0000 F0B5     		push	{r4, r5, r6, r7, lr}
 374              		.cfi_def_cfa_offset 20
 375              		.cfi_offset 4, -20
 376              		.cfi_offset 5, -16
 377              		.cfi_offset 6, -12
 378              		.cfi_offset 7, -8
 379              		.cfi_offset 14, -4
1370:Generated_Source\PSoC5/cy_em_eeprom.c ****     uint32 i;
1371:Generated_Source\PSoC5/cy_em_eeprom.c ****     uint32 rdAddr;
ARM GAS  C:\Users\RABBIT~1\AppData\Local\Temp\ccgw4IdU.s 			page 32


1372:Generated_Source\PSoC5/cy_em_eeprom.c ****     uint32 writeRamBuffer[CY_EM_EEPROM_FLASH_SIZEOF_ROW / CY_EM_EEPROM_U32_DIV];
1373:Generated_Source\PSoC5/cy_em_eeprom.c ****     uint32 wrAddr = context->lastWrRowAddr;
 380              		.loc 1 1373 0
 381 0002 8368     		ldr	r3, [r0, #8]
1369:Generated_Source\PSoC5/cy_em_eeprom.c ****     uint32 i;
 382              		.loc 1 1369 0
 383 0004 C3B0     		sub	sp, sp, #268
 384              		.cfi_def_cfa_offset 288
 385              		.loc 1 1373 0
 386 0006 0193     		str	r3, [sp, #4]
1374:Generated_Source\PSoC5/cy_em_eeprom.c ****     uint32 tmpRowAddr;
1375:Generated_Source\PSoC5/cy_em_eeprom.c ****     /* Get the sequence number (number of writes) */
1376:Generated_Source\PSoC5/cy_em_eeprom.c ****     uint32 seqNum = CY_EM_EEPROM_GET_SEQ_NUM(wrAddr);
 387              		.loc 1 1376 0
 388 0008 1E68     		ldr	r6, [r3]
 389              	.LVL48:
1369:Generated_Source\PSoC5/cy_em_eeprom.c ****     uint32 i;
 390              		.loc 1 1369 0
 391 000a 0446     		mov	r4, r0
 392              		.loc 1 1376 0
 393 000c 3546     		mov	r5, r6
1377:Generated_Source\PSoC5/cy_em_eeprom.c ****     cy_en_em_eeprom_status_t ret = CY_EM_EEPROM_BAD_PARAM;
 394              		.loc 1 1377 0
 395 000e 0127     		movs	r7, #1
 396              	.LVL49:
 397              	.L35:
1378:Generated_Source\PSoC5/cy_em_eeprom.c **** 
1379:Generated_Source\PSoC5/cy_em_eeprom.c ****     for(i = 0u; i < (context->numberOfRows * context->wearLevelingFactor); i++)
 398              		.loc 1 1379 0 discriminator 1
 399 0010 6168     		ldr	r1, [r4, #4]
 400 0012 2369     		ldr	r3, [r4, #16]
 401 0014 AA1B     		subs	r2, r5, r6
 402              	.LVL50:
 403 0016 4B43     		muls	r3, r1, r3
 404 0018 9A42     		cmp	r2, r3
 405 001a 20D2     		bcs	.L37
1380:Generated_Source\PSoC5/cy_em_eeprom.c ****     {
1381:Generated_Source\PSoC5/cy_em_eeprom.c ****         /* Copy the EEPROM row from Flash to RAM */
1382:Generated_Source\PSoC5/cy_em_eeprom.c ****         (void)memcpy((void *)&writeRamBuffer[0u], (void *)(wrAddr), CY_EM_EEPROM_FLASH_SIZEOF_ROW);
 406              		.loc 1 1382 0 discriminator 3
 407 001c 019F     		ldr	r7, [sp, #4]
 408 001e 4FF48072 		mov	r2, #256
 409              	.LVL51:
 410 0022 3946     		mov	r1, r7
 411 0024 02A8     		add	r0, sp, #8
 412 0026 FFF7FEFF 		bl	memcpy
 413              	.LVL52:
1383:Generated_Source\PSoC5/cy_em_eeprom.c **** 
1384:Generated_Source\PSoC5/cy_em_eeprom.c ****         /* Increment the sequence number */
1385:Generated_Source\PSoC5/cy_em_eeprom.c ****         seqNum++;
 414              		.loc 1 1385 0 discriminator 3
 415 002a 0135     		adds	r5, r5, #1
 416              	.LVL53:
1386:Generated_Source\PSoC5/cy_em_eeprom.c ****         writeRamBuffer[CY_EM_EEPROM_HEADER_SEQ_NUM_OFFSET_U32] = seqNum;
1387:Generated_Source\PSoC5/cy_em_eeprom.c **** 
1388:Generated_Source\PSoC5/cy_em_eeprom.c ****         /* Calculate and fill the checksum to the Em_EEPROM header */
1389:Generated_Source\PSoC5/cy_em_eeprom.c ****         writeRamBuffer[CY_EM_EEPROM_HEADER_CHECKSUM_OFFSET_U32] = (uint32)
ARM GAS  C:\Users\RABBIT~1\AppData\Local\Temp\ccgw4IdU.s 			page 33


1390:Generated_Source\PSoC5/cy_em_eeprom.c ****                     CalcChecksum((uint8 *) &writeRamBuffer[CY_EM_EEPROM_EEPROM_DATA_OFFSET_U32],
 417              		.loc 1 1390 0 discriminator 3
 418 002c 22A8     		add	r0, sp, #136
1386:Generated_Source\PSoC5/cy_em_eeprom.c ****         writeRamBuffer[CY_EM_EEPROM_HEADER_SEQ_NUM_OFFSET_U32] = seqNum;
 419              		.loc 1 1386 0 discriminator 3
 420 002e 0295     		str	r5, [sp, #8]
 421              		.loc 1 1390 0 discriminator 3
 422 0030 FFF7FEFF 		bl	CalcChecksum.constprop.1
 423              	.LVL54:
1391:Generated_Source\PSoC5/cy_em_eeprom.c ****                                               CY_EM_EEPROM_EEPROM_DATA_LEN);
1392:Generated_Source\PSoC5/cy_em_eeprom.c **** 
1393:Generated_Source\PSoC5/cy_em_eeprom.c ****         /* Write the data to the specified flash row */
1394:Generated_Source\PSoC5/cy_em_eeprom.c ****         ret = WriteRow(wrAddr, writeRamBuffer, context);
 424              		.loc 1 1394 0 discriminator 3
 425 0034 02A9     		add	r1, sp, #8
1389:Generated_Source\PSoC5/cy_em_eeprom.c ****                     CalcChecksum((uint8 *) &writeRamBuffer[CY_EM_EEPROM_EEPROM_DATA_OFFSET_U32],
 426              		.loc 1 1389 0 discriminator 3
 427 0036 2190     		str	r0, [sp, #132]
 428              		.loc 1 1394 0 discriminator 3
 429 0038 3846     		mov	r0, r7
 430 003a FFF7FEFF 		bl	WriteRow.isra.0
 431              	.LVL55:
1395:Generated_Source\PSoC5/cy_em_eeprom.c **** 
1396:Generated_Source\PSoC5/cy_em_eeprom.c ****         /* Update the row address to point to the relevant row in the redundant 
1397:Generated_Source\PSoC5/cy_em_eeprom.c ****         * EEPROM's copy.
1398:Generated_Source\PSoC5/cy_em_eeprom.c ****         */
1399:Generated_Source\PSoC5/cy_em_eeprom.c ****         tmpRowAddr = (wrAddr - context->userFlashStartAddr) + context->wlEndAddr;
1400:Generated_Source\PSoC5/cy_em_eeprom.c **** 
1401:Generated_Source\PSoC5/cy_em_eeprom.c ****         /* Write the data to the specified flash row */
1402:Generated_Source\PSoC5/cy_em_eeprom.c ****         ret = WriteRow(tmpRowAddr, writeRamBuffer, context);
 432              		.loc 1 1402 0 discriminator 3
 433 003e 0198     		ldr	r0, [sp, #4]
 434 0040 2368     		ldr	r3, [r4]
 435 0042 02A9     		add	r1, sp, #8
 436 0044 0344     		add	r3, r3, r0
 437 0046 A069     		ldr	r0, [r4, #24]
 438 0048 181A     		subs	r0, r3, r0
 439              	.LVL56:
 440 004a FFF7FEFF 		bl	WriteRow.isra.0
 441              	.LVL57:
1403:Generated_Source\PSoC5/cy_em_eeprom.c **** 
1404:Generated_Source\PSoC5/cy_em_eeprom.c ****         /* Get the address of the next row to be written. 
1405:Generated_Source\PSoC5/cy_em_eeprom.c ****         * "rdAddr" is not used in this function but provided to prevent NULL 
1406:Generated_Source\PSoC5/cy_em_eeprom.c ****         * pointer exception in GetNextRowToWrite().
1407:Generated_Source\PSoC5/cy_em_eeprom.c ****         */
1408:Generated_Source\PSoC5/cy_em_eeprom.c ****         GetNextRowToWrite(seqNum, &wrAddr, &rdAddr, context);
 442              		.loc 1 1408 0 discriminator 3
 443 004e 2346     		mov	r3, r4
1402:Generated_Source\PSoC5/cy_em_eeprom.c **** 
 444              		.loc 1 1402 0 discriminator 3
 445 0050 0746     		mov	r7, r0
 446              	.LVL58:
 447              		.loc 1 1408 0 discriminator 3
 448 0052 6A46     		mov	r2, sp
 449 0054 01A9     		add	r1, sp, #4
 450 0056 2846     		mov	r0, r5
 451              	.LVL59:
ARM GAS  C:\Users\RABBIT~1\AppData\Local\Temp\ccgw4IdU.s 			page 34


 452 0058 FFF7FEFF 		bl	GetNextRowToWrite
 453              	.LVL60:
 454 005c D8E7     		b	.L35
 455              	.LVL61:
 456              	.L37:
1409:Generated_Source\PSoC5/cy_em_eeprom.c ****     }
1410:Generated_Source\PSoC5/cy_em_eeprom.c ****     
1411:Generated_Source\PSoC5/cy_em_eeprom.c ****     return(ret);
1412:Generated_Source\PSoC5/cy_em_eeprom.c **** }
 457              		.loc 1 1412 0
 458 005e 3846     		mov	r0, r7
 459 0060 43B0     		add	sp, sp, #268
 460              		.cfi_def_cfa_offset 20
 461              		@ sp needed
 462 0062 F0BD     		pop	{r4, r5, r6, r7, pc}
 463              		.cfi_endproc
 464              	.LFE14:
 465              		.size	FillChecksum, .-FillChecksum
 466              		.section	.text.Cy_Em_EEPROM_Init,"ax",%progbits
 467              		.align	1
 468              		.global	Cy_Em_EEPROM_Init
 469              		.thumb
 470              		.thumb_func
 471              		.type	Cy_Em_EEPROM_Init, %function
 472              	Cy_Em_EEPROM_Init:
 473              	.LFB0:
  96:Generated_Source\PSoC5/cy_em_eeprom.c ****     cy_en_em_eeprom_status_t ret = CY_EM_EEPROM_BAD_PARAM;
 474              		.loc 1 96 0
 475              		.cfi_startproc
 476              		@ args = 0, pretend = 0, frame = 0
 477              		@ frame_needed = 0, uses_anonymous_args = 0
 478              	.LVL62:
 479 0000 F8B5     		push	{r3, r4, r5, r6, r7, lr}
 480              		.cfi_def_cfa_offset 24
 481              		.cfi_offset 3, -24
 482              		.cfi_offset 4, -20
 483              		.cfi_offset 5, -16
 484              		.cfi_offset 6, -12
 485              		.cfi_offset 7, -8
 486              		.cfi_offset 14, -4
  99:Generated_Source\PSoC5/cy_em_eeprom.c ****         (config->wearLevelingFactor <= CY_EM_EEPROM_MAX_WEAR_LEVELING_FACTOR) && (config->eepromSiz
 487              		.loc 1 99 0
 488 0002 0D46     		mov	r5, r1
 489 0004 C1B1     		cbz	r1, .L46
  99:Generated_Source\PSoC5/cy_em_eeprom.c ****         (config->wearLevelingFactor <= CY_EM_EEPROM_MAX_WEAR_LEVELING_FACTOR) && (config->eepromSiz
 490              		.loc 1 99 0 is_stmt 0 discriminator 1
 491 0006 B8B1     		cbz	r0, .L46
  99:Generated_Source\PSoC5/cy_em_eeprom.c ****         (config->wearLevelingFactor <= CY_EM_EEPROM_MAX_WEAR_LEVELING_FACTOR) && (config->eepromSiz
 492              		.loc 1 99 0 discriminator 2
 493 0008 C768     		ldr	r7, [r0, #12]
 494 000a AFB1     		cbz	r7, .L46
 100:Generated_Source\PSoC5/cy_em_eeprom.c ****     {
 495              		.loc 1 100 0 is_stmt 1 discriminator 3
 496 000c 4668     		ldr	r6, [r0, #4]
  99:Generated_Source\PSoC5/cy_em_eeprom.c ****         (config->wearLevelingFactor <= CY_EM_EEPROM_MAX_WEAR_LEVELING_FACTOR) && (config->eepromSiz
 497              		.loc 1 99 0 discriminator 3
 498 000e 0A2E     		cmp	r6, #10
ARM GAS  C:\Users\RABBIT~1\AppData\Local\Temp\ccgw4IdU.s 			page 35


 499 0010 12D8     		bhi	.L46
 100:Generated_Source\PSoC5/cy_em_eeprom.c ****     {
 500              		.loc 1 100 0
 501 0012 0268     		ldr	r2, [r0]
 502 0014 82B1     		cbz	r2, .L46
 503              	.LVL63:
 504              	.LBB4:
 505              	.LBB5:
 964:Generated_Source\PSoC5/cy_em_eeprom.c ****     {
 506              		.loc 1 964 0
 507 0016 047A     		ldrb	r4, [r0, #8]	@ zero_extendqisi2
 508 0018 3302     		lsls	r3, r6, #8
 509              	.LVL64:
 510 001a 04FB0333 		mla	r3, r4, r3, r3
 511              	.LVL65:
 512 001e 12F07F04 		ands	r4, r2, #127
 513              	.LVL66:
 514 0022 18BF     		it	ne
 515 0024 0124     		movne	r4, #1
 516              	.LVL67:
 517 0026 04EBD214 		add	r4, r4, r2, lsr #7
 518 002a 04FB0373 		mla	r3, r4, r3, r7
 519 002e B3F5003F 		cmp	r3, #131072
 520 0032 03D9     		bls	.L40
 521 0034 0324     		movs	r4, #3
 522 0036 2AE0     		b	.L49
 523              	.LVL68:
 524              	.L46:
 525              	.LBE5:
 526              	.LBE4:
  97:Generated_Source\PSoC5/cy_em_eeprom.c **** 
 527              		.loc 1 97 0
 528 0038 0124     		movs	r4, #1
 529 003a 28E0     		b	.L49
 530              	.LVL69:
 531              	.L40:
 108:Generated_Source\PSoC5/cy_em_eeprom.c ****             context->redundantCopy = config->redundantCopy;
 532              		.loc 1 108 0
 533 003c 0E61     		str	r6, [r1, #16]
 114:Generated_Source\PSoC5/cy_em_eeprom.c ****                     config->userFlashStartAddr);
 534              		.loc 1 114 0
 535 003e 0E46     		mov	r6, r1
 107:Generated_Source\PSoC5/cy_em_eeprom.c ****             context->wearLevelingFactor = config->wearLevelingFactor;
 536              		.loc 1 107 0
 537 0040 CA60     		str	r2, [r1, #12]
 109:Generated_Source\PSoC5/cy_em_eeprom.c ****             context->blockingWrite = config->blockingWrite;
 538              		.loc 1 109 0
 539 0042 037A     		ldrb	r3, [r0, #8]	@ zero_extendqisi2
 540 0044 0B75     		strb	r3, [r1, #20]
 110:Generated_Source\PSoC5/cy_em_eeprom.c ****             context->userFlashStartAddr = config->userFlashStartAddr;
 541              		.loc 1 110 0
 542 0046 437A     		ldrb	r3, [r0, #9]	@ zero_extendqisi2
 543 0048 4B75     		strb	r3, [r1, #21]
 113:Generated_Source\PSoC5/cy_em_eeprom.c ****             context->wlEndAddr = ((CY_EM_EEPROM_GET_EEPROM_SIZE(context->numberOfRows) * config->we
 544              		.loc 1 113 0
 545 004a 0268     		ldr	r2, [r0]
 111:Generated_Source\PSoC5/cy_em_eeprom.c ****             /* Store frequently used data for internal use */
ARM GAS  C:\Users\RABBIT~1\AppData\Local\Temp\ccgw4IdU.s 			page 36


 546              		.loc 1 111 0
 547 004c C468     		ldr	r4, [r0, #12]
 113:Generated_Source\PSoC5/cy_em_eeprom.c ****             context->wlEndAddr = ((CY_EM_EEPROM_GET_EEPROM_SIZE(context->numberOfRows) * config->we
 548              		.loc 1 113 0
 549 004e 12F07F03 		ands	r3, r2, #127
 550 0052 18BF     		it	ne
 551 0054 0123     		movne	r3, #1
 552 0056 03EBD213 		add	r3, r3, r2, lsr #7
 114:Generated_Source\PSoC5/cy_em_eeprom.c ****                     config->userFlashStartAddr);
 553              		.loc 1 114 0
 554 005a 4268     		ldr	r2, [r0, #4]
 113:Generated_Source\PSoC5/cy_em_eeprom.c ****             context->wlEndAddr = ((CY_EM_EEPROM_GET_EEPROM_SIZE(context->numberOfRows) * config->we
 555              		.loc 1 113 0
 556 005c 4B60     		str	r3, [r1, #4]
 114:Generated_Source\PSoC5/cy_em_eeprom.c ****                     config->userFlashStartAddr);
 557              		.loc 1 114 0
 558 005e 1202     		lsls	r2, r2, #8
 559 0060 03FB0243 		mla	r3, r3, r2, r4
 111:Generated_Source\PSoC5/cy_em_eeprom.c ****             /* Store frequently used data for internal use */
 560              		.loc 1 111 0
 561 0064 8C61     		str	r4, [r1, #24]
 114:Generated_Source\PSoC5/cy_em_eeprom.c ****                     config->userFlashStartAddr);
 562              		.loc 1 114 0
 563 0066 46F8083B 		str	r3, [r6], #8
 117:Generated_Source\PSoC5/cy_em_eeprom.c **** 
 564              		.loc 1 117 0
 565 006a 3046     		mov	r0, r6
 566              	.LVL70:
 567 006c FFF7FEFF 		bl	FindLastWrittenRow
 568              	.LVL71:
 119:Generated_Source\PSoC5/cy_em_eeprom.c ****             {
 569              		.loc 1 119 0
 570 0070 8B68     		ldr	r3, [r1, #8]
 571 0072 1B68     		ldr	r3, [r3]
 572 0074 53B9     		cbnz	r3, .L50
 119:Generated_Source\PSoC5/cy_em_eeprom.c ****             {
 573              		.loc 1 119 0 is_stmt 0 discriminator 1
 574 0076 2C7D     		ldrb	r4, [r5, #20]	@ zero_extendqisi2
 575 0078 4CB1     		cbz	r4, .L49
 124:Generated_Source\PSoC5/cy_em_eeprom.c ****                 
 576              		.loc 1 124 0 is_stmt 1
 577 007a 2846     		mov	r0, r5
 578 007c FFF7FEFF 		bl	FillChecksum
 579              	.LVL72:
 127:Generated_Source\PSoC5/cy_em_eeprom.c ****             }
 580              		.loc 1 127 0
 581 0080 2946     		mov	r1, r5
 124:Generated_Source\PSoC5/cy_em_eeprom.c ****                 
 582              		.loc 1 124 0
 583 0082 0446     		mov	r4, r0
 584              	.LVL73:
 127:Generated_Source\PSoC5/cy_em_eeprom.c ****             }
 585              		.loc 1 127 0
 586 0084 3046     		mov	r0, r6
 587 0086 FFF7FEFF 		bl	FindLastWrittenRow
 588              	.LVL74:
 589 008a 00E0     		b	.L49
ARM GAS  C:\Users\RABBIT~1\AppData\Local\Temp\ccgw4IdU.s 			page 37


 590              	.LVL75:
 591              	.L50:
 592 008c 0024     		movs	r4, #0
 593              	.LVL76:
 594              	.L49:
 133:Generated_Source\PSoC5/cy_em_eeprom.c **** 
 595              		.loc 1 133 0
 596 008e 2046     		mov	r0, r4
 597 0090 F8BD     		pop	{r3, r4, r5, r6, r7, pc}
 598              		.cfi_endproc
 599              	.LFE0:
 600              		.size	Cy_Em_EEPROM_Init, .-Cy_Em_EEPROM_Init
 601              		.section	.text.Cy_Em_EEPROM_Read,"ax",%progbits
 602              		.align	1
 603              		.global	Cy_Em_EEPROM_Read
 604              		.thumb
 605              		.thumb_func
 606              		.type	Cy_Em_EEPROM_Read, %function
 607              	Cy_Em_EEPROM_Read:
 608              	.LFB1:
 173:Generated_Source\PSoC5/cy_em_eeprom.c ****     cy_en_em_eeprom_status_t ret = CY_EM_EEPROM_BAD_PARAM;
 609              		.loc 1 173 0
 610              		.cfi_startproc
 611              		@ args = 0, pretend = 0, frame = 32
 612              		@ frame_needed = 0, uses_anonymous_args = 0
 613              	.LVL77:
 614 0000 2DE9F04F 		push	{r4, r5, r6, r7, r8, r9, r10, fp, lr}
 615              		.cfi_def_cfa_offset 36
 616              		.cfi_offset 4, -36
 617              		.cfi_offset 5, -32
 618              		.cfi_offset 6, -28
 619              		.cfi_offset 7, -24
 620              		.cfi_offset 8, -20
 621              		.cfi_offset 9, -16
 622              		.cfi_offset 10, -12
 623              		.cfi_offset 11, -8
 624              		.cfi_offset 14, -4
 625 0004 8BB0     		sub	sp, sp, #44
 626              		.cfi_def_cfa_offset 80
 627              	.LVL78:
 173:Generated_Source\PSoC5/cy_em_eeprom.c ****     cy_en_em_eeprom_status_t ret = CY_EM_EEPROM_BAD_PARAM;
 628              		.loc 1 173 0
 629 0006 0546     		mov	r5, r0
 630 0008 0891     		str	r1, [sp, #32]
 631              	.LVL79:
 632 000a 1C46     		mov	r4, r3
 186:Generated_Source\PSoC5/cy_em_eeprom.c ****     {
 633              		.loc 1 186 0
 634 000c 9046     		mov	r8, r2
 635 000e 002A     		cmp	r2, #0
 636 0010 00F0D080 		beq	.L82
 186:Generated_Source\PSoC5/cy_em_eeprom.c ****     {
 637              		.loc 1 186 0 is_stmt 0 discriminator 1
 638 0014 1318     		adds	r3, r2, r0
 639              	.LVL80:
 640 0016 0293     		str	r3, [sp, #8]
 641 0018 029A     		ldr	r2, [sp, #8]
ARM GAS  C:\Users\RABBIT~1\AppData\Local\Temp\ccgw4IdU.s 			page 38


 642              	.LVL81:
 643 001a E368     		ldr	r3, [r4, #12]
 644 001c 9A42     		cmp	r2, r3
 645 001e 00F2C980 		bhi	.L82
 186:Generated_Source\PSoC5/cy_em_eeprom.c ****     {
 646              		.loc 1 186 0 discriminator 2
 647 0022 0029     		cmp	r1, #0
 648 0024 00F0C680 		beq	.L82
 649              	.LVL82:
 650              	.LBB12:
 191:Generated_Source\PSoC5/cy_em_eeprom.c ****         uint32 updateAddrFlag = 0u;
 651              		.loc 1 191 0 is_stmt 1
 652 0028 A368     		ldr	r3, [r4, #8]
 653 002a 1A68     		ldr	r2, [r3]
 654 002c 0392     		str	r2, [sp, #12]
 655              	.LVL83:
 197:Generated_Source\PSoC5/cy_em_eeprom.c ****                               (rdAddr / CY_EM_EEPROM_EEPROM_DATA_LEN)) + 1u;
 656              		.loc 1 197 0
 657 002e 029A     		ldr	r2, [sp, #8]
 658              	.LVL84:
 659 0030 511E     		subs	r1, r2, #1
 660              	.LVL85:
 661 0032 C209     		lsrs	r2, r0, #7
 662 0034 C2F10102 		rsb	r2, r2, #1
 663 0038 02EBD112 		add	r2, r2, r1, lsr #7
 204:Generated_Source\PSoC5/cy_em_eeprom.c ****                               (CY_EM_EEPROM_FLASH_SIZEOF_ROW * context->numberOfRows)) *
 664              		.loc 1 204 0
 665 003c A069     		ldr	r0, [r4, #24]
 666              	.LVL86:
 205:Generated_Source\PSoC5/cy_em_eeprom.c ****                               (CY_EM_EEPROM_FLASH_SIZEOF_ROW * context->numberOfRows)) +
 667              		.loc 1 205 0
 668 003e 6168     		ldr	r1, [r4, #4]
 197:Generated_Source\PSoC5/cy_em_eeprom.c ****                               (rdAddr / CY_EM_EEPROM_EEPROM_DATA_LEN)) + 1u;
 669              		.loc 1 197 0
 670 0040 0692     		str	r2, [sp, #24]
 671              	.LVL87:
 205:Generated_Source\PSoC5/cy_em_eeprom.c ****                               (CY_EM_EEPROM_FLASH_SIZEOF_ROW * context->numberOfRows)) +
 672              		.loc 1 205 0
 673 0042 0E02     		lsls	r6, r1, #8
 204:Generated_Source\PSoC5/cy_em_eeprom.c ****                               (CY_EM_EEPROM_FLASH_SIZEOF_ROW * context->numberOfRows)) *
 674              		.loc 1 204 0
 675 0044 1A1A     		subs	r2, r3, r0
 676              	.LVL88:
 677 0046 B2FBF6F2 		udiv	r2, r2, r6
 678 004a 06FB0202 		mla	r2, r6, r2, r0
 210:Generated_Source\PSoC5/cy_em_eeprom.c ****         {
 679              		.loc 1 210 0
 680 004e 0026     		movs	r6, #0
 204:Generated_Source\PSoC5/cy_em_eeprom.c ****                               (CY_EM_EEPROM_FLASH_SIZEOF_ROW * context->numberOfRows)) *
 681              		.loc 1 204 0
 682 0050 0992     		str	r2, [sp, #36]
 683              	.LVL89:
 684              	.L53:
 210:Generated_Source\PSoC5/cy_em_eeprom.c ****         {
 685              		.loc 1 210 0 discriminator 1
 686 0052 8E42     		cmp	r6, r1
 687 0054 08D0     		beq	.L92
ARM GAS  C:\Users\RABBIT~1\AppData\Local\Temp\ccgw4IdU.s 			page 39


 688 0056 F201     		lsls	r2, r6, #7
 212:Generated_Source\PSoC5/cy_em_eeprom.c ****             {
 689              		.loc 1 212 0
 690 0058 9542     		cmp	r5, r2
 691 005a C0F0AD80 		bcc	.L54
 212:Generated_Source\PSoC5/cy_em_eeprom.c ****             {
 692              		.loc 1 212 0 is_stmt 0 discriminator 1
 693 005e 7F32     		adds	r2, r2, #127
 694 0060 9542     		cmp	r5, r2
 695 0062 00F2A980 		bhi	.L54
 696 0066 00E0     		b	.L55
 697              	.L92:
 698              	.LBE12:
 181:Generated_Source\PSoC5/cy_em_eeprom.c ****     uint32 dataStartEepromRowNum = 0u;
 699              		.loc 1 181 0 is_stmt 1
 700 0068 0026     		movs	r6, #0
 701              	.LVL90:
 702              	.L55:
 703              	.LBB21:
 221:Generated_Source\PSoC5/cy_em_eeprom.c **** 
 704              		.loc 1 221 0
 705 006a 099A     		ldr	r2, [sp, #36]
 706 006c 9B1A     		subs	r3, r3, r2
 707              	.LVL91:
 708 006e 1B0A     		lsrs	r3, r3, #8
 709 0070 0793     		str	r3, [sp, #28]
 710              	.LVL92:
 224:Generated_Source\PSoC5/cy_em_eeprom.c ****         {
 711              		.loc 1 224 0
 712 0072 2369     		ldr	r3, [r4, #16]
 713              	.LVL93:
 714 0074 012B     		cmp	r3, #1
 715 0076 0BD9     		bls	.L79
 716              	.LVL94:
 717              	.LBB13:
 229:Generated_Source\PSoC5/cy_em_eeprom.c ****                               ((dataEndEepromRowNum > actEepromRowNum) ? 1u : 0u);
 718              		.loc 1 229 0
 719 0078 079B     		ldr	r3, [sp, #28]
 720 007a 9E42     		cmp	r6, r3
 721 007c 0AD8     		bhi	.L80
 722              	.LBE13:
 192:Generated_Source\PSoC5/cy_em_eeprom.c **** 
 723              		.loc 1 192 0 discriminator 1
 724 007e 069B     		ldr	r3, [sp, #24]
 725 0080 079A     		ldr	r2, [sp, #28]
 726 0082 013B     		subs	r3, r3, #1
 727              	.LVL95:
 728 0084 3344     		add	r3, r3, r6
 729              	.LVL96:
 730 0086 9A42     		cmp	r2, r3
 731 0088 2CBF     		ite	cs
 732 008a 0023     		movcs	r3, #0
 733 008c 0123     		movcc	r3, #1
 734 008e 02E0     		b	.L91
 735              	.LVL97:
 736              	.L79:
 192:Generated_Source\PSoC5/cy_em_eeprom.c **** 
ARM GAS  C:\Users\RABBIT~1\AppData\Local\Temp\ccgw4IdU.s 			page 40


 737              		.loc 1 192 0 is_stmt 0
 738 0090 0023     		movs	r3, #0
 739 0092 00E0     		b	.L91
 740              	.LVL98:
 741              	.L80:
 742              	.LBB14:
 229:Generated_Source\PSoC5/cy_em_eeprom.c ****                               ((dataEndEepromRowNum > actEepromRowNum) ? 1u : 0u);
 743              		.loc 1 229 0 is_stmt 1
 744 0094 0123     		movs	r3, #1
 745              	.LVL99:
 746              	.L91:
 747              	.LBE14:
 234:Generated_Source\PSoC5/cy_em_eeprom.c ****         {
 748              		.loc 1 234 0
 749 0096 B246     		mov	r10, r6
 750              	.LBE21:
 183:Generated_Source\PSoC5/cy_em_eeprom.c **** 
 751              		.loc 1 183 0
 752 0098 DDF820B0 		ldr	fp, [sp, #32]
 753              	.LBB22:
 754              	.LBB15:
 229:Generated_Source\PSoC5/cy_em_eeprom.c ****                               ((dataEndEepromRowNum > actEepromRowNum) ? 1u : 0u);
 755              		.loc 1 229 0
 756 009c 0593     		str	r3, [sp, #20]
 757              	.LVL100:
 758              	.LBE15:
 234:Generated_Source\PSoC5/cy_em_eeprom.c ****         {
 759              		.loc 1 234 0
 760 009e 0495     		str	r5, [sp, #16]
 761 00a0 4FF00009 		mov	r9, #0
 762              	.LBE22:
 174:Generated_Source\PSoC5/cy_em_eeprom.c ****     uint32 i;
 763              		.loc 1 174 0
 764 00a4 0123     		movs	r3, #1
 765              	.LVL101:
 766              	.L58:
 767              	.LBB23:
 234:Generated_Source\PSoC5/cy_em_eeprom.c ****         {
 768              		.loc 1 234 0 discriminator 1
 769 00a6 069A     		ldr	r2, [sp, #24]
 770 00a8 9145     		cmp	r9, r2
 771 00aa 3AD0     		beq	.L93
 772 00ac 099B     		ldr	r3, [sp, #36]
 773 00ae 09EB0600 		add	r0, r9, r6
 774 00b2 03EB0020 		add	r0, r3, r0, lsl #8
 775              	.LVL102:
 237:Generated_Source\PSoC5/cy_em_eeprom.c **** 
 776              		.loc 1 237 0
 777 00b6 049B     		ldr	r3, [sp, #16]
 242:Generated_Source\PSoC5/cy_em_eeprom.c ****             {
 778              		.loc 1 242 0
 779 00b8 09F10109 		add	r9, r9, #1
 780              	.LVL103:
 237:Generated_Source\PSoC5/cy_em_eeprom.c **** 
 781              		.loc 1 237 0
 782 00bc 03F07F07 		and	r7, r3, #127
 242:Generated_Source\PSoC5/cy_em_eeprom.c ****             {
ARM GAS  C:\Users\RABBIT~1\AppData\Local\Temp\ccgw4IdU.s 			page 41


 783              		.loc 1 242 0
 784 00c0 069B     		ldr	r3, [sp, #24]
 237:Generated_Source\PSoC5/cy_em_eeprom.c **** 
 785              		.loc 1 237 0
 786 00c2 07F18001 		add	r1, r7, #128
 787              	.LVL104:
 242:Generated_Source\PSoC5/cy_em_eeprom.c ****             {
 788              		.loc 1 242 0
 789 00c6 4B45     		cmp	r3, r9
 254:Generated_Source\PSoC5/cy_em_eeprom.c ****             {
 790              		.loc 1 254 0
 791 00c8 059B     		ldr	r3, [sp, #20]
 244:Generated_Source\PSoC5/cy_em_eeprom.c ****             }
 792              		.loc 1 244 0
 793 00ca 8CBF     		ite	hi
 794 00cc C7F18007 		rsbhi	r7, r7, #128
 795              	.LVL105:
 248:Generated_Source\PSoC5/cy_em_eeprom.c ****             }
 796              		.loc 1 248 0
 797 00d0 4746     		movls	r7, r8
 798              	.LVL106:
 254:Generated_Source\PSoC5/cy_em_eeprom.c ****             {
 799              		.loc 1 254 0
 800 00d2 6BB1     		cbz	r3, .L60
 254:Generated_Source\PSoC5/cy_em_eeprom.c ****             {
 801              		.loc 1 254 0 is_stmt 0 discriminator 1
 802 00d4 079B     		ldr	r3, [sp, #28]
 803 00d6 9A45     		cmp	r10, r3
 804 00d8 0AD9     		bls	.L60
 256:Generated_Source\PSoC5/cy_em_eeprom.c **** 
 805              		.loc 1 256 0 is_stmt 1
 806 00da 6368     		ldr	r3, [r4, #4]
 258:Generated_Source\PSoC5/cy_em_eeprom.c ****                 {
 807              		.loc 1 258 0
 808 00dc A269     		ldr	r2, [r4, #24]
 256:Generated_Source\PSoC5/cy_em_eeprom.c **** 
 809              		.loc 1 256 0
 810 00de A0EB0320 		sub	r0, r0, r3, lsl #8
 811              	.LVL107:
 258:Generated_Source\PSoC5/cy_em_eeprom.c ****                 {
 812              		.loc 1 258 0
 813 00e2 9042     		cmp	r0, r2
 260:Generated_Source\PSoC5/cy_em_eeprom.c ****                         ((context->numberOfRows - curRdEepromRowNum) * CY_EM_EEPROM_FLASH_SIZEOF_RO
 814              		.loc 1 260 0
 815 00e4 3EBF     		ittt	cc
 816 00e6 2068     		ldrcc	r0, [r4]
 817              	.LVL108:
 818 00e8 CAEB0303 		rsbcc	r3, r10, r3
 819              	.LVL109:
 820 00ec A0EB0320 		subcc	r0, r0, r3, lsl #8
 821              	.LVL110:
 822              	.L60:
 265:Generated_Source\PSoC5/cy_em_eeprom.c ****             {
 823              		.loc 1 265 0
 824 00f0 237D     		ldrb	r3, [r4, #20]	@ zero_extendqisi2
 825 00f2 3BB1     		cbz	r3, .L61
 270:Generated_Source\PSoC5/cy_em_eeprom.c **** 
ARM GAS  C:\Users\RABBIT~1\AppData\Local\Temp\ccgw4IdU.s 			page 42


 826              		.loc 1 270 0
 827 00f4 0A46     		mov	r2, r1
 828 00f6 0094     		str	r4, [sp]
 829 00f8 3B46     		mov	r3, r7
 830 00fa 5946     		mov	r1, fp
 831              	.LVL111:
 832 00fc FFF7FEFF 		bl	CheckCrcAndCopy
 833              	.LVL112:
 272:Generated_Source\PSoC5/cy_em_eeprom.c ****                 {
 834              		.loc 1 272 0
 835 0100 28B1     		cbz	r0, .L62
 836 0102 5BE0     		b	.L85
 837              	.LVL113:
 838              	.L61:
 280:Generated_Source\PSoC5/cy_em_eeprom.c ****                              (void *)(startRowAddr + curRowOffset),
 839              		.loc 1 280 0
 840 0104 0144     		add	r1, r1, r0
 841              	.LVL114:
 842 0106 3A46     		mov	r2, r7
 843 0108 5846     		mov	r0, fp
 844              	.LVL115:
 845 010a FFF7FEFF 		bl	memcpy
 846              	.LVL116:
 847              	.L62:
 289:Generated_Source\PSoC5/cy_em_eeprom.c ****             rdSize -= numBytesToRead;
 848              		.loc 1 289 0 discriminator 2
 849 010e 049B     		ldr	r3, [sp, #16]
 290:Generated_Source\PSoC5/cy_em_eeprom.c ****             eeData += numBytesToRead;
 850              		.loc 1 290 0 discriminator 2
 851 0110 C7EB0808 		rsb	r8, r7, r8
 852              	.LVL117:
 289:Generated_Source\PSoC5/cy_em_eeprom.c ****             rdSize -= numBytesToRead;
 853              		.loc 1 289 0 discriminator 2
 854 0114 3B44     		add	r3, r3, r7
 855 0116 0493     		str	r3, [sp, #16]
 856              	.LVL118:
 291:Generated_Source\PSoC5/cy_em_eeprom.c ****             curRdEepromRowNum++;
 857              		.loc 1 291 0 discriminator 2
 858 0118 BB44     		add	fp, fp, r7
 859              	.LVL119:
 292:Generated_Source\PSoC5/cy_em_eeprom.c ****         }
 860              		.loc 1 292 0 discriminator 2
 861 011a 0AF1010A 		add	r10, r10, #1
 862              	.LVL120:
 863 011e 0023     		movs	r3, #0
 864              	.LVL121:
 865 0120 C1E7     		b	.L58
 866              	.LVL122:
 867              	.L93:
 303:Generated_Source\PSoC5/cy_em_eeprom.c ****         {
 868              		.loc 1 303 0
 869 0122 002B     		cmp	r3, #0
 870 0124 46D1     		bne	.L82
 871              	.LVL123:
 303:Generated_Source\PSoC5/cy_em_eeprom.c ****         {
 872              		.loc 1 303 0 is_stmt 0 discriminator 1
 873 0126 039B     		ldr	r3, [sp, #12]
ARM GAS  C:\Users\RABBIT~1\AppData\Local\Temp\ccgw4IdU.s 			page 43


 874 0128 0BB9     		cbnz	r3, .L64
 875              	.LVL124:
 876              	.L75:
 877 012a 0020     		movs	r0, #0
 878 012c 46E0     		b	.L85
 879              	.LVL125:
 880              	.L64:
 308:Generated_Source\PSoC5/cy_em_eeprom.c ****             {
 881              		.loc 1 308 0 is_stmt 1
 882 012e 039B     		ldr	r3, [sp, #12]
 883 0130 039A     		ldr	r2, [sp, #12]
 884 0132 5E1C     		adds	r6, r3, #1
 885              	.LVL126:
 886 0134 6368     		ldr	r3, [r4, #4]
 887 0136 9A42     		cmp	r2, r3
 888 0138 94BF     		ite	ls
 889 013a B61A     		subls	r6, r6, r2
 890 013c F61A     		subhi	r6, r6, r3
 891              	.LVL127:
 892              	.L65:
 308:Generated_Source\PSoC5/cy_em_eeprom.c ****             {
 893              		.loc 1 308 0 is_stmt 0 discriminator 1
 894 013e 039B     		ldr	r3, [sp, #12]
 895 0140 9E42     		cmp	r6, r3
 896 0142 F2D8     		bhi	.L75
 897              	.LVL128:
 898              	.LBB16:
 899              	.LBB17:
 804:Generated_Source\PSoC5/cy_em_eeprom.c **** 
 900              		.loc 1 804 0 is_stmt 1
 901 0144 A769     		ldr	r7, [r4, #24]
 902              	.LVL129:
 903              	.L66:
 806:Generated_Source\PSoC5/cy_em_eeprom.c ****     {
 904              		.loc 1 806 0
 905 0146 3B68     		ldr	r3, [r7]
 906 0148 9E42     		cmp	r6, r3
 907 014a 05D0     		beq	.L94
 811:Generated_Source\PSoC5/cy_em_eeprom.c ****             CY_EM_EEPROM_IS_ADDR_EXCEED_RANGE(emEepromAddr, context->wlEndAddr))
 908              		.loc 1 811 0
 909 014c 2368     		ldr	r3, [r4]
 809:Generated_Source\PSoC5/cy_em_eeprom.c **** 
 910              		.loc 1 809 0
 911 014e 07F58077 		add	r7, r7, #256
 912              	.LVL130:
 811:Generated_Source\PSoC5/cy_em_eeprom.c ****             CY_EM_EEPROM_IS_ADDR_EXCEED_RANGE(emEepromAddr, context->wlEndAddr))
 913              		.loc 1 811 0
 914 0152 9F42     		cmp	r7, r3
 915 0154 F7D3     		bcc	.L66
 916 0156 2BE0     		b	.L67
 917              	.L94:
 918              	.LVL131:
 919              	.LBE17:
 920              	.LBE16:
 312:Generated_Source\PSoC5/cy_em_eeprom.c ****                 {
 921              		.loc 1 312 0
 922 0158 57B3     		cbz	r7, .L67
ARM GAS  C:\Users\RABBIT~1\AppData\Local\Temp\ccgw4IdU.s 			page 44


 923              	.LBB18:
 315:Generated_Source\PSoC5/cy_em_eeprom.c ****                     uint32 endAddr    = startAddr + (*(uint32 *)(startRowAddr + CY_EM_EEPROM_HEADER
 924              		.loc 1 315 0
 925 015a 7B68     		ldr	r3, [r7, #4]
 926              	.LVL132:
 316:Generated_Source\PSoC5/cy_em_eeprom.c **** 
 927              		.loc 1 316 0
 928 015c BA68     		ldr	r2, [r7, #8]
 319:Generated_Source\PSoC5/cy_em_eeprom.c ****                     {
 929              		.loc 1 319 0
 930 015e 9D42     		cmp	r5, r3
 316:Generated_Source\PSoC5/cy_em_eeprom.c **** 
 931              		.loc 1 316 0
 932 0160 1A44     		add	r2, r2, r3
 933              	.LVL133:
 319:Generated_Source\PSoC5/cy_em_eeprom.c ****                     {
 934              		.loc 1 319 0
 935 0162 05D2     		bcs	.L70
 319:Generated_Source\PSoC5/cy_em_eeprom.c ****                     {
 936              		.loc 1 319 0 is_stmt 0 discriminator 1
 937 0164 0299     		ldr	r1, [sp, #8]
 938 0166 9942     		cmp	r1, r3
 939 0168 22D9     		bls	.L67
 940              	.LVL134:
 941              	.LBB19:
 322:Generated_Source\PSoC5/cy_em_eeprom.c ****                         rdAddr = (startAddr > addr) ? (startAddr) : (addr);
 942              		.loc 1 322 0 is_stmt 1 discriminator 1
 943 016a 581B     		subs	r0, r3, r5
 321:Generated_Source\PSoC5/cy_em_eeprom.c ****                         uint32 dstOffset = (startAddr > addr) ? (startAddr - addr): (0u);
 944              		.loc 1 321 0 discriminator 1
 945 016c 0021     		movs	r1, #0
 946 016e 03E0     		b	.L72
 947              	.LVL135:
 948              	.L70:
 949              	.LBE19:
 319:Generated_Source\PSoC5/cy_em_eeprom.c ****                     {
 950              		.loc 1 319 0 discriminator 2
 951 0170 9542     		cmp	r5, r2
 952 0172 1DD2     		bcs	.L67
 953              	.LBB20:
 321:Generated_Source\PSoC5/cy_em_eeprom.c ****                         uint32 dstOffset = (startAddr > addr) ? (startAddr - addr): (0u);
 954              		.loc 1 321 0 discriminator 1
 955 0174 E91A     		subs	r1, r5, r3
 956              	.LVL136:
 322:Generated_Source\PSoC5/cy_em_eeprom.c ****                         rdAddr = (startAddr > addr) ? (startAddr) : (addr);
 957              		.loc 1 322 0 discriminator 1
 958 0176 0020     		movs	r0, #0
 959              	.LVL137:
 960              	.L72:
 328:Generated_Source\PSoC5/cy_em_eeprom.c **** 
 961              		.loc 1 328 0 discriminator 4
 962 0178 AB42     		cmp	r3, r5
 963 017a 38BF     		it	cc
 964 017c 2B46     		movcc	r3, r5
 965              	.LVL138:
 966 017e 9E46     		mov	lr, r3
 967 0180 029B     		ldr	r3, [sp, #8]
ARM GAS  C:\Users\RABBIT~1\AppData\Local\Temp\ccgw4IdU.s 			page 45


 325:Generated_Source\PSoC5/cy_em_eeprom.c **** 
 968              		.loc 1 325 0 discriminator 4
 969 0182 0C31     		adds	r1, r1, #12
 970              	.LVL139:
 328:Generated_Source\PSoC5/cy_em_eeprom.c **** 
 971              		.loc 1 328 0 discriminator 4
 972 0184 9342     		cmp	r3, r2
 973 0186 94BF     		ite	ls
 974 0188 CEEB0303 		rsbls	r3, lr, r3
 975 018c CEEB0203 		rsbhi	r3, lr, r2
 976              	.LVL140:
 331:Generated_Source\PSoC5/cy_em_eeprom.c **** 
 977              		.loc 1 331 0 discriminator 4
 978 0190 089A     		ldr	r2, [sp, #32]
 979              	.LVL141:
 980 0192 1044     		add	r0, r0, r2
 981              	.LVL142:
 338:Generated_Source\PSoC5/cy_em_eeprom.c ****                         {
 982              		.loc 1 338 0 discriminator 4
 983 0194 227D     		ldrb	r2, [r4, #20]	@ zero_extendqisi2
 984 0196 3AB1     		cbz	r2, .L73
 340:Generated_Source\PSoC5/cy_em_eeprom.c **** 
 985              		.loc 1 340 0
 986 0198 0A46     		mov	r2, r1
 987 019a 0094     		str	r4, [sp]
 988              	.LVL143:
 989 019c 0146     		mov	r1, r0
 990              	.LVL144:
 991 019e 3846     		mov	r0, r7
 992              	.LVL145:
 993 01a0 FFF7FEFF 		bl	CheckCrcAndCopy
 994              	.LVL146:
 342:Generated_Source\PSoC5/cy_em_eeprom.c ****                             {
 995              		.loc 1 342 0
 996 01a4 20B1     		cbz	r0, .L67
 997 01a6 09E0     		b	.L85
 998              	.LVL147:
 999              	.L73:
 349:Generated_Source\PSoC5/cy_em_eeprom.c ****                         }
 1000              		.loc 1 349 0
 1001 01a8 1A46     		mov	r2, r3
 1002 01aa 3944     		add	r1, r1, r7
 1003              	.LVL148:
 1004 01ac FFF7FEFF 		bl	memcpy
 1005              	.LVL149:
 1006              	.L67:
 1007              	.LBE20:
 1008              	.LBE18:
 308:Generated_Source\PSoC5/cy_em_eeprom.c ****             {
 1009              		.loc 1 308 0 discriminator 2
 1010 01b0 0136     		adds	r6, r6, #1
 1011              	.LVL150:
 1012 01b2 C4E7     		b	.L65
 1013              	.LVL151:
 1014              	.L82:
 1015 01b4 0120     		movs	r0, #1
 1016              	.LVL152:
ARM GAS  C:\Users\RABBIT~1\AppData\Local\Temp\ccgw4IdU.s 			page 46


 1017              	.LBE23:
 357:Generated_Source\PSoC5/cy_em_eeprom.c **** }
 1018              		.loc 1 357 0
 1019 01b6 01E0     		b	.L85
 1020              	.LVL153:
 1021              	.L54:
 1022              	.LBB24:
 210:Generated_Source\PSoC5/cy_em_eeprom.c ****         {
 1023              		.loc 1 210 0
 1024 01b8 0136     		adds	r6, r6, #1
 1025              	.LVL154:
 1026 01ba 4AE7     		b	.L53
 1027              	.LVL155:
 1028              	.L85:
 1029              	.LBE24:
 358:Generated_Source\PSoC5/cy_em_eeprom.c **** 
 1030              		.loc 1 358 0
 1031 01bc 0BB0     		add	sp, sp, #44
 1032              		.cfi_def_cfa_offset 36
 1033              		@ sp needed
 1034 01be BDE8F08F 		pop	{r4, r5, r6, r7, r8, r9, r10, fp, pc}
 1035              		.cfi_endproc
 1036              	.LFE1:
 1037              		.size	Cy_Em_EEPROM_Read, .-Cy_Em_EEPROM_Read
 1038              		.section	.text.Cy_Em_EEPROM_Write,"ax",%progbits
 1039              		.align	1
 1040              		.global	Cy_Em_EEPROM_Write
 1041              		.thumb
 1042              		.thumb_func
 1043              		.type	Cy_Em_EEPROM_Write, %function
 1044              	Cy_Em_EEPROM_Write:
 1045              	.LFB2:
 415:Generated_Source\PSoC5/cy_em_eeprom.c ****     cy_en_em_eeprom_status_t ret = CY_EM_EEPROM_BAD_PARAM;
 1046              		.loc 1 415 0
 1047              		.cfi_startproc
 1048              		@ args = 0, pretend = 0, frame = 288
 1049              		@ frame_needed = 0, uses_anonymous_args = 0
 1050              	.LVL156:
 1051 0000 2DE9F04F 		push	{r4, r5, r6, r7, r8, r9, r10, fp, lr}
 1052              		.cfi_def_cfa_offset 36
 1053              		.cfi_offset 4, -36
 1054              		.cfi_offset 5, -32
 1055              		.cfi_offset 6, -28
 1056              		.cfi_offset 7, -24
 1057              		.cfi_offset 8, -20
 1058              		.cfi_offset 9, -16
 1059              		.cfi_offset 10, -12
 1060              		.cfi_offset 11, -8
 1061              		.cfi_offset 14, -4
 1062 0004 1D46     		mov	r5, r3
 424:Generated_Source\PSoC5/cy_em_eeprom.c ****     uint32 emEepromRowRdAddr;
 1063              		.loc 1 424 0
 1064 0006 9B68     		ldr	r3, [r3, #8]
 1065              	.LVL157:
 415:Generated_Source\PSoC5/cy_em_eeprom.c ****     cy_en_em_eeprom_status_t ret = CY_EM_EEPROM_BAD_PARAM;
 1066              		.loc 1 415 0
 1067 0008 C9B0     		sub	sp, sp, #292
ARM GAS  C:\Users\RABBIT~1\AppData\Local\Temp\ccgw4IdU.s 			page 47


 1068              		.cfi_def_cfa_offset 328
 415:Generated_Source\PSoC5/cy_em_eeprom.c ****     cy_en_em_eeprom_status_t ret = CY_EM_EEPROM_BAD_PARAM;
 1069              		.loc 1 415 0
 1070 000a 8346     		mov	fp, r0
 424:Generated_Source\PSoC5/cy_em_eeprom.c ****     uint32 emEepromRowRdAddr;
 1071              		.loc 1 424 0
 1072 000c 0693     		str	r3, [sp, #24]
 1073              	.LVL158:
 430:Generated_Source\PSoC5/cy_em_eeprom.c ****     {
 1074              		.loc 1 430 0
 1075 000e 9046     		mov	r8, r2
 1076 0010 002A     		cmp	r2, #0
 1077 0012 00F0A380 		beq	.L122
 430:Generated_Source\PSoC5/cy_em_eeprom.c ****     {
 1078              		.loc 1 430 0 is_stmt 0 discriminator 1
 1079 0016 1318     		adds	r3, r2, r0
 1080 0018 EA68     		ldr	r2, [r5, #12]
 1081              	.LVL159:
 1082 001a 9342     		cmp	r3, r2
 1083 001c 00F29E80 		bhi	.L122
 430:Generated_Source\PSoC5/cy_em_eeprom.c ****     {
 1084              		.loc 1 430 0 discriminator 2
 1085 0020 0029     		cmp	r1, #0
 1086 0022 00F09B80 		beq	.L122
 1087              	.LBB32:
 432:Generated_Source\PSoC5/cy_em_eeprom.c ****         uint32 eeHeaderDataOffset = 0u;
 1088              		.loc 1 432 0 is_stmt 1
 1089 0026 08F1FF32 		add	r2, r8, #-1
 1090 002a 7023     		movs	r3, #112
 1091 002c B2FBF3F3 		udiv	r3, r2, r3
 1092              	.LBE32:
 421:Generated_Source\PSoC5/cy_em_eeprom.c ****     uint32 endAddr = 0u;
 1093              		.loc 1 421 0
 1094 0030 0026     		movs	r6, #0
 422:Generated_Source\PSoC5/cy_em_eeprom.c ****     uint32 tmpRowAddr;
 1095              		.loc 1 422 0
 1096 0032 B146     		mov	r9, r6
 1097              	.LBB49:
 433:Generated_Source\PSoC5/cy_em_eeprom.c **** 
 1098              		.loc 1 433 0
 1099 0034 3446     		mov	r4, r6
 435:Generated_Source\PSoC5/cy_em_eeprom.c ****         {
 1100              		.loc 1 435 0
 1101 0036 B246     		mov	r10, r6
 432:Generated_Source\PSoC5/cy_em_eeprom.c ****         uint32 eeHeaderDataOffset = 0u;
 1102              		.loc 1 432 0
 1103 0038 0293     		str	r3, [sp, #8]
 1104 003a 0133     		adds	r3, r3, #1
 1105              	.LBE49:
 427:Generated_Source\PSoC5/cy_em_eeprom.c **** 
 1106              		.loc 1 427 0
 1107 003c 0191     		str	r1, [sp, #4]
 1108              	.LBB50:
 432:Generated_Source\PSoC5/cy_em_eeprom.c ****         uint32 eeHeaderDataOffset = 0u;
 1109              		.loc 1 432 0
 1110 003e 0393     		str	r3, [sp, #12]
 1111              	.LVL160:
ARM GAS  C:\Users\RABBIT~1\AppData\Local\Temp\ccgw4IdU.s 			page 48


 1112              	.L116:
 1113              	.LBB33:
 439:Generated_Source\PSoC5/cy_em_eeprom.c **** 
 1114              		.loc 1 439 0
 1115 0040 069B     		ldr	r3, [sp, #24]
 446:Generated_Source\PSoC5/cy_em_eeprom.c **** 
 1116              		.loc 1 446 0
 1117 0042 07AA     		add	r2, sp, #28
 439:Generated_Source\PSoC5/cy_em_eeprom.c **** 
 1118              		.loc 1 439 0
 1119 0044 1F68     		ldr	r7, [r3]
 1120              	.LVL161:
 446:Generated_Source\PSoC5/cy_em_eeprom.c **** 
 1121              		.loc 1 446 0
 1122 0046 06A9     		add	r1, sp, #24
 1123 0048 2B46     		mov	r3, r5
 1124 004a 3846     		mov	r0, r7
 1125 004c FFF7FEFF 		bl	GetNextRowToWrite
 1126              	.LVL162:
 449:Generated_Source\PSoC5/cy_em_eeprom.c **** 
 1127              		.loc 1 449 0
 1128 0050 4FF48072 		mov	r2, #256
 1129 0054 0021     		movs	r1, #0
 1130 0056 08A8     		add	r0, sp, #32
 1131 0058 FFF7FEFF 		bl	memset
 1132              	.LVL163:
 458:Generated_Source\PSoC5/cy_em_eeprom.c ****             {
 1133              		.loc 1 458 0
 1134 005c 029B     		ldr	r3, [sp, #8]
 454:Generated_Source\PSoC5/cy_em_eeprom.c ****             tmpData = (void *) eeData;
 1135              		.loc 1 454 0
 1136 005e CDF824B0 		str	fp, [sp, #36]
 458:Generated_Source\PSoC5/cy_em_eeprom.c ****             {
 1137              		.loc 1 458 0
 1138 0062 5345     		cmp	r3, r10
 469:Generated_Source\PSoC5/cy_em_eeprom.c ****                 size -= CY_EM_EEPROM_HEADER_DATA_LEN;
 1139              		.loc 1 469 0
 1140 0064 1FBF     		itttt	ne
 1141 0066 7023     		movne	r3, #112
 1142 0068 0A93     		strne	r3, [sp, #40]
 471:Generated_Source\PSoC5/cy_em_eeprom.c ****                 eeData += CY_EM_EEPROM_HEADER_DATA_LEN;
 1143              		.loc 1 471 0
 1144 006a 9B44     		addne	fp, fp, r3
 1145              	.LVL164:
 472:Generated_Source\PSoC5/cy_em_eeprom.c ****             }
 1146              		.loc 1 472 0
 1147 006c 019B     		ldrne	r3, [sp, #4]
 461:Generated_Source\PSoC5/cy_em_eeprom.c ****             }
 1148              		.loc 1 461 0
 1149 006e 08BF     		it	eq
 1150 0070 CDF82880 		streq	r8, [sp, #40]
 455:Generated_Source\PSoC5/cy_em_eeprom.c **** 
 1151              		.loc 1 455 0
 1152 0074 0199     		ldr	r1, [sp, #4]
 472:Generated_Source\PSoC5/cy_em_eeprom.c ****             }
 1153              		.loc 1 472 0
 1154 0076 18BF     		it	ne
ARM GAS  C:\Users\RABBIT~1\AppData\Local\Temp\ccgw4IdU.s 			page 49


 1155 0078 7033     		addne	r3, r3, #112
 452:Generated_Source\PSoC5/cy_em_eeprom.c ****             writeRamBuffer[CY_EM_EEPROM_HEADER_SEQ_NUM_OFFSET_U32] = seqNum;
 1156              		.loc 1 452 0
 1157 007a 07F10107 		add	r7, r7, #1
 1158              	.LVL165:
 476:Generated_Source\PSoC5/cy_em_eeprom.c ****                          tmpData,
 1159              		.loc 1 476 0
 1160 007e 0A9A     		ldr	r2, [sp, #40]
 1161 0080 0BA8     		add	r0, sp, #44
 453:Generated_Source\PSoC5/cy_em_eeprom.c ****             writeRamBuffer[CY_EM_EEPROM_HEADER_ADDR_OFFSET_U32] = addr;
 1162              		.loc 1 453 0
 1163 0082 0897     		str	r7, [sp, #32]
 470:Generated_Source\PSoC5/cy_em_eeprom.c ****                 addr += CY_EM_EEPROM_HEADER_DATA_LEN;
 1164              		.loc 1 470 0
 1165 0084 1CBF     		itt	ne
 1166 0086 A8F17008 		subne	r8, r8, #112
 1167              	.LVL166:
 472:Generated_Source\PSoC5/cy_em_eeprom.c ****             }
 1168              		.loc 1 472 0
 1169 008a 0193     		strne	r3, [sp, #4]
 1170              	.LVL167:
 476:Generated_Source\PSoC5/cy_em_eeprom.c ****                          tmpData,
 1171              		.loc 1 476 0
 1172 008c FFF7FEFF 		bl	memcpy
 1173              	.LVL168:
 480:Generated_Source\PSoC5/cy_em_eeprom.c ****             {
 1174              		.loc 1 480 0
 1175 0090 0799     		ldr	r1, [sp, #28]
 1176 0092 21B1     		cbz	r1, .L99
 483:Generated_Source\PSoC5/cy_em_eeprom.c ****                              (void *)(emEepromRowRdAddr + CY_EM_EEPROM_EEPROM_DATA_LEN),
 1177              		.loc 1 483 0
 1178 0094 8022     		movs	r2, #128
 1179 0096 1144     		add	r1, r1, r2
 1180 0098 28A8     		add	r0, sp, #160
 1181 009a FFF7FEFF 		bl	memcpy
 1182              	.LVL169:
 1183              	.L99:
 492:Generated_Source\PSoC5/cy_em_eeprom.c **** 
 1184              		.loc 1 492 0
 1185 009e 6B68     		ldr	r3, [r5, #4]
 1186              	.LBB34:
 1187              	.LBB35:
1324:Generated_Source\PSoC5/cy_em_eeprom.c ****         {
 1188              		.loc 1 1324 0
 1189 00a0 0022     		movs	r2, #0
 1190              	.LBE35:
 1191              	.LBE34:
 492:Generated_Source\PSoC5/cy_em_eeprom.c **** 
 1192              		.loc 1 492 0
 1193 00a2 9F42     		cmp	r7, r3
 1194 00a4 86BF     		itte	hi
 1195 00a6 C3F10103 		rsbhi	r3, r3, #1
 1196 00aa DB19     		addhi	r3, r3, r7
 1197 00ac 0123     		movls	r3, #1
 1198              	.LVL170:
 1199              	.L101:
 494:Generated_Source\PSoC5/cy_em_eeprom.c ****             {
ARM GAS  C:\Users\RABBIT~1\AppData\Local\Temp\ccgw4IdU.s 			page 50


 1200              		.loc 1 494 0 discriminator 1
 1201 00ae BB42     		cmp	r3, r7
 1202 00b0 3BD8     		bhi	.L141
 496:Generated_Source\PSoC5/cy_em_eeprom.c ****                 {
 1203              		.loc 1 496 0
 1204 00b2 01D1     		bne	.L102
 502:Generated_Source\PSoC5/cy_em_eeprom.c ****                 }
 1205              		.loc 1 502 0
 1206 00b4 08A9     		add	r1, sp, #32
 1207              	.LVL171:
 1208 00b6 09E0     		b	.L103
 1209              	.LVL172:
 1210              	.L102:
 1211              	.LBB40:
 1212              	.LBB41:
 804:Generated_Source\PSoC5/cy_em_eeprom.c **** 
 1213              		.loc 1 804 0
 1214 00b8 A969     		ldr	r1, [r5, #24]
 1215              	.LVL173:
 1216              	.L104:
 806:Generated_Source\PSoC5/cy_em_eeprom.c ****     {
 1217              		.loc 1 806 0
 1218 00ba 0868     		ldr	r0, [r1]
 1219 00bc 8342     		cmp	r3, r0
 1220 00be 05D0     		beq	.L103
 811:Generated_Source\PSoC5/cy_em_eeprom.c ****             CY_EM_EEPROM_IS_ADDR_EXCEED_RANGE(emEepromAddr, context->wlEndAddr))
 1221              		.loc 1 811 0
 1222 00c0 2868     		ldr	r0, [r5]
 809:Generated_Source\PSoC5/cy_em_eeprom.c **** 
 1223              		.loc 1 809 0
 1224 00c2 01F58071 		add	r1, r1, #256
 1225              	.LVL174:
 811:Generated_Source\PSoC5/cy_em_eeprom.c ****             CY_EM_EEPROM_IS_ADDR_EXCEED_RANGE(emEepromAddr, context->wlEndAddr))
 1226              		.loc 1 811 0
 1227 00c6 8142     		cmp	r1, r0
 1228 00c8 F7D3     		bcc	.L104
 1229 00ca 14E0     		b	.L105
 1230              	.LVL175:
 1231              	.L103:
 1232              	.LBE41:
 1233              	.LBE40:
 515:Generated_Source\PSoC5/cy_em_eeprom.c ****                 {
 1234              		.loc 1 515 0
 1235 00cc 99B1     		cbz	r1, .L105
 1236              	.LBB42:
 1237              	.LBB36:
1308:Generated_Source\PSoC5/cy_em_eeprom.c ****     {
 1238              		.loc 1 1308 0
 1239 00ce A869     		ldr	r0, [r5, #24]
 1240 00d0 069A     		ldr	r2, [sp, #24]
 1241              	.LVL176:
 1242              	.LBE36:
 1243              	.LBE42:
 518:Generated_Source\PSoC5/cy_em_eeprom.c ****                                               &startAddr,
 1244              		.loc 1 518 0
 1245 00d2 4C68     		ldr	r4, [r1, #4]
 1246              	.LVL177:
ARM GAS  C:\Users\RABBIT~1\AppData\Local\Temp\ccgw4IdU.s 			page 51


 1247              	.LBB43:
 1248              	.LBB37:
1308:Generated_Source\PSoC5/cy_em_eeprom.c ****     {
 1249              		.loc 1 1308 0
 1250 00d4 121A     		subs	r2, r2, r0
 1251 00d6 6868     		ldr	r0, [r5, #4]
 1252 00d8 120A     		lsrs	r2, r2, #8
 1253 00da B2FBF0FE 		udiv	lr, r2, r0
 1254 00de 00FB1E22 		mls	r2, r0, lr, r2
 1255 00e2 D201     		lsls	r2, r2, #7
 1256 00e4 9442     		cmp	r4, r2
 1257              	.LBE37:
 1258              	.LBE43:
 518:Generated_Source\PSoC5/cy_em_eeprom.c ****                                               &startAddr,
 1259              		.loc 1 518 0
 1260 00e6 D1F808C0 		ldr	ip, [r1, #8]
 1261              	.LVL178:
 1262              	.LBB44:
 1263              	.LBB38:
1308:Generated_Source\PSoC5/cy_em_eeprom.c ****     {
 1264              		.loc 1 1308 0
 1265 00ea 39D3     		bcc	.L107
 1266 00ec 02F17F00 		add	r0, r2, #127
 1267 00f0 8442     		cmp	r4, r0
 1268 00f2 3FD9     		bls	.L108
 1269 00f4 34E0     		b	.L107
 1270              	.LVL179:
 1271              	.L105:
 1272              	.LBE38:
 1273              	.LBE44:
 533:Generated_Source\PSoC5/cy_em_eeprom.c ****                 {
 1274              		.loc 1 533 0
 1275 00f6 0132     		adds	r2, r2, #1
 1276              	.LVL180:
 1277 00f8 0BD1     		bne	.L112
 1278 00fa 1146     		mov	r1, r2
 1279              	.LVL181:
 1280              	.L110:
 1281 00fc 0493     		str	r3, [sp, #16]
 1282              	.LVL182:
 1283 00fe 0C31     		adds	r1, r1, #12
 1284              	.LVL183:
 1285              	.LBB45:
 541:Generated_Source\PSoC5/cy_em_eeprom.c ****                 }
 1286              		.loc 1 541 0
 1287 0100 08AB     		add	r3, sp, #32
 1288              	.LVL184:
 1289 0102 C6EB0902 		rsb	r2, r6, r9
 1290 0106 9819     		adds	r0, r3, r6
 1291 0108 2144     		add	r1, r1, r4
 1292              	.LVL185:
 1293 010a FFF7FEFF 		bl	memcpy
 1294              	.LVL186:
 1295 010e 049B     		ldr	r3, [sp, #16]
 1296 0110 0022     		movs	r2, #0
 1297              	.LVL187:
 1298              	.L112:
ARM GAS  C:\Users\RABBIT~1\AppData\Local\Temp\ccgw4IdU.s 			page 52


 1299              	.LBE45:
 545:Generated_Source\PSoC5/cy_em_eeprom.c ****                 {
 1300              		.loc 1 545 0
 1301 0112 297D     		ldrb	r1, [r5, #20]	@ zero_extendqisi2
 1302 0114 39B1     		cbz	r1, .L113
 548:Generated_Source\PSoC5/cy_em_eeprom.c ****                                                   CY_EM_EEPROM_EEPROM_DATA_LEN);
 1303              		.loc 1 548 0
 1304 0116 28A8     		add	r0, sp, #160
 1305 0118 0592     		str	r2, [sp, #20]
 1306 011a 0493     		str	r3, [sp, #16]
 1307 011c FFF7FEFF 		bl	CalcChecksum.constprop.1
 1308              	.LVL188:
 547:Generated_Source\PSoC5/cy_em_eeprom.c ****                         CalcChecksum((uint8 *) &writeRamBuffer[CY_EM_EEPROM_EEPROM_DATA_OFFSET_U32]
 1309              		.loc 1 547 0
 1310 0120 059A     		ldr	r2, [sp, #20]
 1311 0122 049B     		ldr	r3, [sp, #16]
 1312 0124 2790     		str	r0, [sp, #156]
 1313              	.L113:
 494:Generated_Source\PSoC5/cy_em_eeprom.c ****             {
 1314              		.loc 1 494 0
 1315 0126 0133     		adds	r3, r3, #1
 1316              	.LVL189:
 1317 0128 C1E7     		b	.L101
 1318              	.LVL190:
 1319              	.L141:
 554:Generated_Source\PSoC5/cy_em_eeprom.c ****             tmpRowAddr = emEepromRowAddr;
 1320              		.loc 1 554 0
 1321 012a 08A9     		add	r1, sp, #32
 1322 012c 0698     		ldr	r0, [sp, #24]
 1323 012e FFF7FEFF 		bl	WriteRow.isra.0
 1324              	.LVL191:
 558:Generated_Source\PSoC5/cy_em_eeprom.c ****             {
 1325              		.loc 1 558 0
 1326 0132 2B7D     		ldrb	r3, [r5, #20]	@ zero_extendqisi2
 1327 0134 43B1     		cbz	r3, .L115
 558:Generated_Source\PSoC5/cy_em_eeprom.c ****             {
 1328              		.loc 1 558 0 is_stmt 0 discriminator 1
 1329 0136 A8BB     		cbnz	r0, .L128
 1330              	.LVL192:
 564:Generated_Source\PSoC5/cy_em_eeprom.c ****             }
 1331              		.loc 1 564 0 is_stmt 1
 1332 0138 0698     		ldr	r0, [sp, #24]
 1333              	.LVL193:
 1334 013a 2B68     		ldr	r3, [r5]
 1335 013c 08A9     		add	r1, sp, #32
 1336 013e 0344     		add	r3, r3, r0
 1337 0140 A869     		ldr	r0, [r5, #24]
 1338 0142 181A     		subs	r0, r3, r0
 1339              	.LVL194:
 1340 0144 FFF7FEFF 		bl	WriteRow.isra.0
 1341              	.LVL195:
 1342              	.L115:
 567:Generated_Source\PSoC5/cy_em_eeprom.c ****             {
 1343              		.loc 1 567 0
 1344 0148 60BB     		cbnz	r0, .L128
 572:Generated_Source\PSoC5/cy_em_eeprom.c ****             }
 1345              		.loc 1 572 0 discriminator 2
ARM GAS  C:\Users\RABBIT~1\AppData\Local\Temp\ccgw4IdU.s 			page 53


 1346 014a 069B     		ldr	r3, [sp, #24]
 1347              	.LBE33:
 435:Generated_Source\PSoC5/cy_em_eeprom.c ****         {
 1348              		.loc 1 435 0 discriminator 2
 1349 014c 0AF1010A 		add	r10, r10, #1
 1350              	.LVL196:
 1351              	.LBB47:
 572:Generated_Source\PSoC5/cy_em_eeprom.c ****             }
 1352              		.loc 1 572 0 discriminator 2
 1353 0150 AB60     		str	r3, [r5, #8]
 1354              	.LBE47:
 435:Generated_Source\PSoC5/cy_em_eeprom.c ****         {
 1355              		.loc 1 435 0 discriminator 2
 1356 0152 039B     		ldr	r3, [sp, #12]
 1357 0154 5345     		cmp	r3, r10
 1358 0156 3FF673AF 		bhi	.L116
 1359 015a 23E0     		b	.L128
 1360              	.LVL197:
 1361              	.L122:
 1362              	.LBE50:
 416:Generated_Source\PSoC5/cy_em_eeprom.c ****     uint32 i;
 1363              		.loc 1 416 0
 1364 015c 0120     		movs	r0, #1
 1365              	.LVL198:
 580:Generated_Source\PSoC5/cy_em_eeprom.c **** }
 1366              		.loc 1 580 0
 1367 015e 21E0     		b	.L128
 1368              	.LVL199:
 1369              	.L107:
 1370              	.LBB51:
 1371              	.LBB48:
 1372              	.LBB46:
 1373              	.LBB39:
1324:Generated_Source\PSoC5/cy_em_eeprom.c ****         {
 1374              		.loc 1 1324 0
 1375 0160 04EB0C00 		add	r0, r4, ip
 1376 0164 8242     		cmp	r2, r0
 1377 0166 02D8     		bhi	.L139
 1378 0168 7F32     		adds	r2, r2, #127
 1379 016a 9042     		cmp	r0, r2
 1380 016c 12D9     		bls	.L111
 1381              	.L139:
 1382 016e 0024     		movs	r4, #0
 1383              	.LVL200:
 1384 0170 0122     		movs	r2, #1
 1385 0172 CEE7     		b	.L112
 1386              	.LVL201:
 1387              	.L108:
1310:Generated_Source\PSoC5/cy_em_eeprom.c **** 
 1388              		.loc 1 1310 0
 1389 0174 04F07F06 		and	r6, r4, #127
 1390              	.LVL202:
1312:Generated_Source\PSoC5/cy_em_eeprom.c ****         {
 1391              		.loc 1 1312 0
 1392 0178 6444     		add	r4, r4, ip
 1393              	.LVL203:
 1394 017a A242     		cmp	r2, r4
ARM GAS  C:\Users\RABBIT~1\AppData\Local\Temp\ccgw4IdU.s 			page 54


1310:Generated_Source\PSoC5/cy_em_eeprom.c **** 
 1395              		.loc 1 1310 0
 1396 017c 06F18006 		add	r6, r6, #128
 1397              	.LVL204:
1312:Generated_Source\PSoC5/cy_em_eeprom.c ****         {
 1398              		.loc 1 1312 0
 1399 0180 01D8     		bhi	.L140
 1400 0182 A042     		cmp	r0, r4
 1401 0184 02D2     		bcs	.L109
 1402              	.L140:
 1403 0186 4FF48079 		mov	r9, #256
 1404              	.LVL205:
 1405 018a 01E0     		b	.L138
 1406              	.LVL206:
 1407              	.L109:
1314:Generated_Source\PSoC5/cy_em_eeprom.c ****         }
 1408              		.loc 1 1314 0
 1409 018c 0CEB0609 		add	r9, ip, r6
 1410              	.LVL207:
 1411              	.L138:
1306:Generated_Source\PSoC5/cy_em_eeprom.c **** 
 1412              		.loc 1 1306 0
 1413 0190 0024     		movs	r4, #0
 1414 0192 B3E7     		b	.L110
 1415              	.LVL208:
 1416              	.L111:
1327:Generated_Source\PSoC5/cy_em_eeprom.c ****             *offset = len - (*endAddr - *startAddr);
 1417              		.loc 1 1327 0
 1418 0194 04F07F04 		and	r4, r4, #127
 1419              	.LVL209:
1328:Generated_Source\PSoC5/cy_em_eeprom.c ****         }
 1420              		.loc 1 1328 0
 1421 0198 04EB0C09 		add	r9, r4, ip
 1422              	.LVL210:
1326:Generated_Source\PSoC5/cy_em_eeprom.c ****             *endAddr = (*startAddr + len) - (*startAddr - (addr % CY_EM_EEPROM_EEPROM_DATA_LEN));
 1423              		.loc 1 1326 0
 1424 019c 8026     		movs	r6, #128
1328:Generated_Source\PSoC5/cy_em_eeprom.c ****         }
 1425              		.loc 1 1328 0
 1426 019e C4F18004 		rsb	r4, r4, #128
 1427              	.LVL211:
 1428 01a2 ABE7     		b	.L110
 1429              	.LVL212:
 1430              	.L128:
 1431              	.LBE39:
 1432              	.LBE46:
 1433              	.LBE48:
 1434              	.LBE51:
 581:Generated_Source\PSoC5/cy_em_eeprom.c **** 
 1435              		.loc 1 581 0
 1436 01a4 49B0     		add	sp, sp, #292
 1437              		.cfi_def_cfa_offset 36
 1438              		@ sp needed
 1439 01a6 BDE8F08F 		pop	{r4, r5, r6, r7, r8, r9, r10, fp, pc}
 1440              		.cfi_endproc
 1441              	.LFE2:
 1442              		.size	Cy_Em_EEPROM_Write, .-Cy_Em_EEPROM_Write
ARM GAS  C:\Users\RABBIT~1\AppData\Local\Temp\ccgw4IdU.s 			page 55


 1443              		.section	.text.Cy_Em_EEPROM_Erase,"ax",%progbits
 1444              		.align	1
 1445              		.global	Cy_Em_EEPROM_Erase
 1446              		.thumb
 1447              		.thumb_func
 1448              		.type	Cy_Em_EEPROM_Erase, %function
 1449              	Cy_Em_EEPROM_Erase:
 1450              	.LFB3:
 630:Generated_Source\PSoC5/cy_em_eeprom.c ****     uint32 i;
 1451              		.loc 1 630 0
 1452              		.cfi_startproc
 1453              		@ args = 0, pretend = 0, frame = 264
 1454              		@ frame_needed = 0, uses_anonymous_args = 0
 1455              	.LVL213:
 1456 0000 2DE9F041 		push	{r4, r5, r6, r7, r8, lr}
 1457              		.cfi_def_cfa_offset 24
 1458              		.cfi_offset 4, -24
 1459              		.cfi_offset 5, -20
 1460              		.cfi_offset 6, -16
 1461              		.cfi_offset 7, -12
 1462              		.cfi_offset 8, -8
 1463              		.cfi_offset 14, -4
 633:Generated_Source\PSoC5/cy_em_eeprom.c ****     uint32 emEepromRowRdAddr;
 1464              		.loc 1 633 0
 1465 0004 8568     		ldr	r5, [r0, #8]
 630:Generated_Source\PSoC5/cy_em_eeprom.c ****     uint32 i;
 1466              		.loc 1 630 0
 1467 0006 C2B0     		sub	sp, sp, #264
 1468              		.cfi_def_cfa_offset 288
 630:Generated_Source\PSoC5/cy_em_eeprom.c ****     uint32 i;
 1469              		.loc 1 630 0
 1470 0008 0446     		mov	r4, r0
 636:Generated_Source\PSoC5/cy_em_eeprom.c **** #if (CY_PSOC6)
 1471              		.loc 1 636 0
 1472 000a 4FF48072 		mov	r2, #256
 1473 000e 0021     		movs	r1, #0
 1474 0010 02A8     		add	r0, sp, #8
 1475              	.LVL214:
 633:Generated_Source\PSoC5/cy_em_eeprom.c ****     uint32 emEepromRowRdAddr;
 1476              		.loc 1 633 0
 1477 0012 0095     		str	r5, [sp]
 1478              	.LVL215:
 636:Generated_Source\PSoC5/cy_em_eeprom.c **** #if (CY_PSOC6)
 1479              		.loc 1 636 0
 1480 0014 FFF7FEFF 		bl	memset
 1481              	.LVL216:
 646:Generated_Source\PSoC5/cy_em_eeprom.c ****     {
 1482              		.loc 1 646 0
 1483 0018 2B68     		ldr	r3, [r5]
 1484 001a 7BB3     		cbz	r3, .L150
 1485              	.LBB55:
 649:Generated_Source\PSoC5/cy_em_eeprom.c **** 
 1486              		.loc 1 649 0
 1487 001c 6368     		ldr	r3, [r4, #4]
 1488 001e 2669     		ldr	r6, [r4, #16]
 1489 0020 5E43     		muls	r6, r3, r6
 1490              	.LVL217:
ARM GAS  C:\Users\RABBIT~1\AppData\Local\Temp\ccgw4IdU.s 			page 56


 656:Generated_Source\PSoC5/cy_em_eeprom.c ****         {
 1491              		.loc 1 656 0
 1492 0022 237D     		ldrb	r3, [r4, #20]	@ zero_extendqisi2
 1493 0024 1BB1     		cbz	r3, .L144
 659:Generated_Source\PSoC5/cy_em_eeprom.c ****                                                   CY_EM_EEPROM_EEPROM_DATA_LEN);
 1494              		.loc 1 659 0
 1495 0026 22A8     		add	r0, sp, #136
 1496 0028 FFF7FEFF 		bl	CalcChecksum.constprop.1
 1497              	.LVL218:
 658:Generated_Source\PSoC5/cy_em_eeprom.c ****                         CalcChecksum((uint8 *) &writeRamBuffer[CY_EM_EEPROM_EEPROM_DATA_OFFSET_U32]
 1498              		.loc 1 658 0
 1499 002c 2190     		str	r0, [sp, #132]
 1500              	.L144:
 1501              	.LBB56:
 1502              	.LBB57:
1168:Generated_Source\PSoC5/cy_em_eeprom.c ****     {
 1503              		.loc 1 1168 0 discriminator 1
 1504 002e 0425     		movs	r5, #4
 1505 0030 0027     		movs	r7, #0
 1506              	.LVL219:
 1507              	.L145:
 1508              	.LBE57:
 1509              	.LBE56:
 663:Generated_Source\PSoC5/cy_em_eeprom.c ****         {
 1510              		.loc 1 663 0 discriminator 1
 1511 0032 B742     		cmp	r7, r6
 1512 0034 23D0     		beq	.L143
 685:Generated_Source\PSoC5/cy_em_eeprom.c ****             /* Get the address of the row to be erased. "emEepromRowAddr" may be updated
 1513              		.loc 1 685 0 discriminator 3
 1514 0036 009B     		ldr	r3, [sp]
 689:Generated_Source\PSoC5/cy_em_eeprom.c ****             seqNum++;
 1515              		.loc 1 689 0 discriminator 3
 1516 0038 01AA     		add	r2, sp, #4
 685:Generated_Source\PSoC5/cy_em_eeprom.c ****             /* Get the address of the row to be erased. "emEepromRowAddr" may be updated
 1517              		.loc 1 685 0 discriminator 3
 1518 003a 1D68     		ldr	r5, [r3]
 1519              	.LVL220:
 689:Generated_Source\PSoC5/cy_em_eeprom.c ****             seqNum++;
 1520              		.loc 1 689 0 discriminator 3
 1521 003c 6946     		mov	r1, sp
 1522 003e 2846     		mov	r0, r5
 1523 0040 2346     		mov	r3, r4
 1524 0042 FFF7FEFF 		bl	GetNextRowToWrite
 1525              	.LVL221:
 692:Generated_Source\PSoC5/cy_em_eeprom.c ****         #endif /* (CY_PSOC6) */
 1526              		.loc 1 692 0 discriminator 3
 1527 0046 DDF80080 		ldr	r8, [sp]
 1528              	.LVL222:
 691:Generated_Source\PSoC5/cy_em_eeprom.c ****             ret = EraseRow(emEepromRowAddr, (uint32)writeRamBuffer, context);
 1529              		.loc 1 691 0 discriminator 3
 1530 004a 0135     		adds	r5, r5, #1
 1531              	.LVL223:
 1532              	.LBB60:
 1533              	.LBB58:
1159:Generated_Source\PSoC5/cy_em_eeprom.c **** 
 1534              		.loc 1 1159 0 discriminator 3
 1535 004c 02A9     		add	r1, sp, #8
ARM GAS  C:\Users\RABBIT~1\AppData\Local\Temp\ccgw4IdU.s 			page 57


 1536              	.LVL224:
 1537 004e 4046     		mov	r0, r8
 1538              	.LBE58:
 1539              	.LBE60:
 691:Generated_Source\PSoC5/cy_em_eeprom.c ****             ret = EraseRow(emEepromRowAddr, (uint32)writeRamBuffer, context);
 1540              		.loc 1 691 0 discriminator 3
 1541 0050 0295     		str	r5, [sp, #8]
 1542              	.LBB61:
 1543              	.LBB59:
1159:Generated_Source\PSoC5/cy_em_eeprom.c **** 
 1544              		.loc 1 1159 0 discriminator 3
 1545 0052 FFF7FEFF 		bl	WriteRow.isra.0
 1546              	.LVL225:
1161:Generated_Source\PSoC5/cy_em_eeprom.c ****     {
 1547              		.loc 1 1161 0 discriminator 3
 1548 0056 0546     		mov	r5, r0
 1549              	.LVL226:
 1550 0058 70B9     		cbnz	r0, .L146
1161:Generated_Source\PSoC5/cy_em_eeprom.c ****     {
 1551              		.loc 1 1161 0 is_stmt 0
 1552 005a 237D     		ldrb	r3, [r4, #20]	@ zero_extendqisi2
 1553 005c 13B9     		cbnz	r3, .L147
 1554              	.LVL227:
 1555              	.L148:
1170:Generated_Source\PSoC5/cy_em_eeprom.c ****     }
 1556              		.loc 1 1170 0 is_stmt 1
 1557 005e C4F80880 		str	r8, [r4, #8]
 1558 0062 09E0     		b	.L146
 1559              	.LVL228:
 1560              	.L147:
1165:Generated_Source\PSoC5/cy_em_eeprom.c ****     }
 1561              		.loc 1 1165 0
 1562 0064 2068     		ldr	r0, [r4]
 1563              	.LVL229:
 1564 0066 A369     		ldr	r3, [r4, #24]
 1565 0068 4044     		add	r0, r0, r8
 1566 006a 02A9     		add	r1, sp, #8
 1567              	.LVL230:
 1568 006c C01A     		subs	r0, r0, r3
 1569 006e FFF7FEFF 		bl	WriteRow.isra.0
 1570              	.LVL231:
1168:Generated_Source\PSoC5/cy_em_eeprom.c ****     {
 1571              		.loc 1 1168 0
 1572 0072 0028     		cmp	r0, #0
 1573 0074 F3D0     		beq	.L148
 1574 0076 0546     		mov	r5, r0
 1575              	.LVL232:
 1576              	.L146:
 1577              	.LBE59:
 1578              	.LBE61:
 663:Generated_Source\PSoC5/cy_em_eeprom.c ****         {
 1579              		.loc 1 663 0
 1580 0078 0137     		adds	r7, r7, #1
 1581              	.LVL233:
 1582 007a DAE7     		b	.L145
 1583              	.LVL234:
 1584              	.L150:
ARM GAS  C:\Users\RABBIT~1\AppData\Local\Temp\ccgw4IdU.s 			page 58


 1585              	.LBE55:
 635:Generated_Source\PSoC5/cy_em_eeprom.c ****     uint32 writeRamBuffer[CY_EM_EEPROM_FLASH_SIZEOF_ROW / CY_EM_EEPROM_U32_DIV] = {0u};
 1586              		.loc 1 635 0
 1587 007c 0425     		movs	r5, #4
 1588              	.LVL235:
 1589              	.L143:
 716:Generated_Source\PSoC5/cy_em_eeprom.c **** 
 1590              		.loc 1 716 0
 1591 007e 2846     		mov	r0, r5
 1592 0080 42B0     		add	sp, sp, #264
 1593              		.cfi_def_cfa_offset 24
 1594              		@ sp needed
 1595 0082 BDE8F081 		pop	{r4, r5, r6, r7, r8, pc}
 1596              		.cfi_endproc
 1597              	.LFE3:
 1598              		.size	Cy_Em_EEPROM_Erase, .-Cy_Em_EEPROM_Erase
 1599              		.section	.text.Cy_Em_EEPROM_NumWrites,"ax",%progbits
 1600              		.align	1
 1601              		.global	Cy_Em_EEPROM_NumWrites
 1602              		.thumb
 1603              		.thumb_func
 1604              		.type	Cy_Em_EEPROM_NumWrites, %function
 1605              	Cy_Em_EEPROM_NumWrites:
 1606              	.LFB4:
 733:Generated_Source\PSoC5/cy_em_eeprom.c ****     return(CY_EM_EEPROM_GET_SEQ_NUM(context->lastWrRowAddr));
 1607              		.loc 1 733 0
 1608              		.cfi_startproc
 1609              		@ args = 0, pretend = 0, frame = 0
 1610              		@ frame_needed = 0, uses_anonymous_args = 0
 1611              		@ link register save eliminated.
 1612              	.LVL236:
 734:Generated_Source\PSoC5/cy_em_eeprom.c **** }
 1613              		.loc 1 734 0
 1614 0000 8368     		ldr	r3, [r0, #8]
 735:Generated_Source\PSoC5/cy_em_eeprom.c **** 
 1615              		.loc 1 735 0
 1616 0002 1868     		ldr	r0, [r3]
 1617              	.LVL237:
 1618 0004 7047     		bx	lr
 1619              		.cfi_endproc
 1620              	.LFE4:
 1621              		.size	Cy_Em_EEPROM_NumWrites, .-Cy_Em_EEPROM_NumWrites
 1622              		.text
 1623              	.Letext0:
 1624              		.file 2 "Generated_Source\\PSoC5\\cytypes.h"
 1625              		.file 3 "Generated_Source\\PSoC5\\cy_em_eeprom.h"
 1626              		.file 4 "Generated_Source\\PSoC5\\CyFlash.h"
 1627              		.file 5 "Generated_Source\\PSoC5\\CyLib.h"