ARM GAS  C:\Users\RABBIT~1\AppData\Local\Temp\ccgw4IdU.s 			page 1


   1              		.syntax unified
   2              		.cpu cortex-m3
   3              		.fpu softvfp
   4              		.eabi_attribute 20, 1
   5              		.eabi_attribute 21, 1
   6              		.eabi_attribute 23, 3
   7              		.eabi_attribute 24, 1
   8              		.eabi_attribute 25, 1
   9              		.eabi_attribute 26, 1
  10              		.eabi_attribute 30, 4
  11              		.eabi_attribute 34, 1
  12              		.eabi_attribute 18, 4
  13              		.thumb
  14              		.syntax unified
  15              		.file	"cy_em_eeprom.c"
  16              		.text
  17              	.Ltext0:
  18              		.cfi_sections	.debug_frame
  19              		.section	.text.FindLastWrittenRow,"ax",%progbits
  20              		.align	1
  21              		.thumb
  22              		.thumb_func
  23              		.type	FindLastWrittenRow, %function
  24              	FindLastWrittenRow:
  25              	.LFB5:
  26              		.file 1 "Generated_Source\\PSoC5\\cy_em_eeprom.c"
   1:Generated_Source\PSoC5/cy_em_eeprom.c **** /***************************************************************************//**
   2:Generated_Source\PSoC5/cy_em_eeprom.c **** * \file cy_em_eeprom.c
   3:Generated_Source\PSoC5/cy_em_eeprom.c **** * \version 2.20
   4:Generated_Source\PSoC5/cy_em_eeprom.c **** *
   5:Generated_Source\PSoC5/cy_em_eeprom.c **** * \brief
   6:Generated_Source\PSoC5/cy_em_eeprom.c **** *  This file provides source code of the API for the Emulated EEPROM library.
   7:Generated_Source\PSoC5/cy_em_eeprom.c **** *  The Emulated EEPROM API allows creating of an emulated EEPROM in flash that
   8:Generated_Source\PSoC5/cy_em_eeprom.c **** *  has the ability to do wear leveling and restore corrupted data from a
   9:Generated_Source\PSoC5/cy_em_eeprom.c **** *  redundant copy.
  10:Generated_Source\PSoC5/cy_em_eeprom.c **** *
  11:Generated_Source\PSoC5/cy_em_eeprom.c **** ********************************************************************************
  12:Generated_Source\PSoC5/cy_em_eeprom.c **** * \copyright
  13:Generated_Source\PSoC5/cy_em_eeprom.c **** * Copyright 2017, Cypress Semiconductor Corporation.  All rights reserved.
  14:Generated_Source\PSoC5/cy_em_eeprom.c **** * You may use this file only in accordance with the license, terms, conditions,
  15:Generated_Source\PSoC5/cy_em_eeprom.c **** * disclaimers, and limitations in the end user license agreement accompanying
  16:Generated_Source\PSoC5/cy_em_eeprom.c **** * the software package with which this file was provided.
  17:Generated_Source\PSoC5/cy_em_eeprom.c **** *******************************************************************************/
  18:Generated_Source\PSoC5/cy_em_eeprom.c **** 
  19:Generated_Source\PSoC5/cy_em_eeprom.c **** 
  20:Generated_Source\PSoC5/cy_em_eeprom.c **** #include "cytypes.h"
  21:Generated_Source\PSoC5/cy_em_eeprom.c **** #include <string.h>
  22:Generated_Source\PSoC5/cy_em_eeprom.c **** 
  23:Generated_Source\PSoC5/cy_em_eeprom.c **** #if (CYDEV_CHIP_FAMILY_USED == CYDEV_CHIP_FAMILY_PSOC6)
  24:Generated_Source\PSoC5/cy_em_eeprom.c ****     #include "em_eeprom/cy_em_eeprom.h"
  25:Generated_Source\PSoC5/cy_em_eeprom.c **** #else
  26:Generated_Source\PSoC5/cy_em_eeprom.c ****     #include "cy_em_eeprom.h"
  27:Generated_Source\PSoC5/cy_em_eeprom.c **** #endif /* (CYDEV_CHIP_FAMILY_USED == CYDEV_CHIP_FAMILY_PSOC6) */
  28:Generated_Source\PSoC5/cy_em_eeprom.c **** 
  29:Generated_Source\PSoC5/cy_em_eeprom.c **** 
  30:Generated_Source\PSoC5/cy_em_eeprom.c **** #if defined(__cplusplus)
  31:Generated_Source\PSoC5/cy_em_eeprom.c **** extern "C" {
ARM GAS  C:\Users\RABBIT~1\AppData\Local\Temp\ccgw4IdU.s 			page 2


  32:Generated_Source\PSoC5/cy_em_eeprom.c **** #endif
  33:Generated_Source\PSoC5/cy_em_eeprom.c **** 
  34:Generated_Source\PSoC5/cy_em_eeprom.c **** 
  35:Generated_Source\PSoC5/cy_em_eeprom.c **** /***************************************
  36:Generated_Source\PSoC5/cy_em_eeprom.c **** * Private Function Prototypes
  37:Generated_Source\PSoC5/cy_em_eeprom.c **** ***************************************/
  38:Generated_Source\PSoC5/cy_em_eeprom.c **** static void FindLastWrittenRow(uint32 * lastWrRowPtr, cy_stc_eeprom_context_t * context);
  39:Generated_Source\PSoC5/cy_em_eeprom.c **** static uint32 GetRowAddrBySeqNum(uint32 seqNum, cy_stc_eeprom_context_t * context);
  40:Generated_Source\PSoC5/cy_em_eeprom.c **** static uint8 CalcChecksum(uint8 rowData[], uint32 len);
  41:Generated_Source\PSoC5/cy_em_eeprom.c **** static void GetNextRowToWrite(uint32 seqNum,
  42:Generated_Source\PSoC5/cy_em_eeprom.c ****                             uint32 * rowToWrPtr,
  43:Generated_Source\PSoC5/cy_em_eeprom.c ****                             uint32 * rowToRdPtr,
  44:Generated_Source\PSoC5/cy_em_eeprom.c ****                             cy_stc_eeprom_context_t * context);
  45:Generated_Source\PSoC5/cy_em_eeprom.c **** static cy_en_em_eeprom_status_t CheckRanges(cy_stc_eeprom_config_t* config);
  46:Generated_Source\PSoC5/cy_em_eeprom.c **** static cy_en_em_eeprom_status_t WriteRow(uint32 rowAddr, uint32 *rowData, cy_stc_eeprom_context_t *
  47:Generated_Source\PSoC5/cy_em_eeprom.c **** static cy_en_em_eeprom_status_t EraseRow(uint32 rowAddr, uint32 ramBuffAddr, cy_stc_eeprom_context_
  48:Generated_Source\PSoC5/cy_em_eeprom.c **** static cy_en_em_eeprom_status_t CheckCrcAndCopy(uint32 startAddr,
  49:Generated_Source\PSoC5/cy_em_eeprom.c ****                                                 uint32 dstAddr,
  50:Generated_Source\PSoC5/cy_em_eeprom.c ****                                                 uint32 rowOffset,
  51:Generated_Source\PSoC5/cy_em_eeprom.c ****                                                 uint32 numBytes,
  52:Generated_Source\PSoC5/cy_em_eeprom.c ****                                                 cy_stc_eeprom_context_t * context);
  53:Generated_Source\PSoC5/cy_em_eeprom.c **** static uint32 GetAddresses(uint32 *startAddr, uint32 *endAddr, uint32 *offset, uint32 rowNum, uint3
  54:Generated_Source\PSoC5/cy_em_eeprom.c **** static cy_en_em_eeprom_status_t FillChecksum(cy_stc_eeprom_context_t * context);
  55:Generated_Source\PSoC5/cy_em_eeprom.c **** 
  56:Generated_Source\PSoC5/cy_em_eeprom.c **** /**
  57:Generated_Source\PSoC5/cy_em_eeprom.c **** * \addtogroup group_em_eeprom_functions
  58:Generated_Source\PSoC5/cy_em_eeprom.c **** * \{
  59:Generated_Source\PSoC5/cy_em_eeprom.c **** */
  60:Generated_Source\PSoC5/cy_em_eeprom.c **** 
  61:Generated_Source\PSoC5/cy_em_eeprom.c **** /*******************************************************************************
  62:Generated_Source\PSoC5/cy_em_eeprom.c **** * Function Name: Cy_Em_EEPROM_Init
  63:Generated_Source\PSoC5/cy_em_eeprom.c **** ****************************************************************************//**
  64:Generated_Source\PSoC5/cy_em_eeprom.c **** *
  65:Generated_Source\PSoC5/cy_em_eeprom.c **** * Initializes the Emulated EEPROM library by filling the context structure. 
  66:Generated_Source\PSoC5/cy_em_eeprom.c **** *
  67:Generated_Source\PSoC5/cy_em_eeprom.c **** * \param config
  68:Generated_Source\PSoC5/cy_em_eeprom.c **** * The pointer to a configuration structure. See \ref cy_stc_eeprom_config_t.
  69:Generated_Source\PSoC5/cy_em_eeprom.c **** *
  70:Generated_Source\PSoC5/cy_em_eeprom.c **** * \param context
  71:Generated_Source\PSoC5/cy_em_eeprom.c **** * The pointer to the EEPROM context structure to be filled by the function.
  72:Generated_Source\PSoC5/cy_em_eeprom.c **** * \ref cy_stc_eeprom_context_t.
  73:Generated_Source\PSoC5/cy_em_eeprom.c **** *
  74:Generated_Source\PSoC5/cy_em_eeprom.c **** * \return
  75:Generated_Source\PSoC5/cy_em_eeprom.c **** * error / status code. See \ref cy_en_em_eeprom_status_t.
  76:Generated_Source\PSoC5/cy_em_eeprom.c **** *
  77:Generated_Source\PSoC5/cy_em_eeprom.c **** * \note
  78:Generated_Source\PSoC5/cy_em_eeprom.c **** * The context structure should not be modified by the user after it is filled
  79:Generated_Source\PSoC5/cy_em_eeprom.c **** * with this function. Modification of context structure may cause the 
  80:Generated_Source\PSoC5/cy_em_eeprom.c **** * unexpected behavior of the Cy_Em_EEPROM API functions which rely on it.
  81:Generated_Source\PSoC5/cy_em_eeprom.c **** *
  82:Generated_Source\PSoC5/cy_em_eeprom.c **** * \note
  83:Generated_Source\PSoC5/cy_em_eeprom.c **** * This function uses a buffer of the flash row size to perform read
  84:Generated_Source\PSoC5/cy_em_eeprom.c **** * operation. For the size of the row refer to the specific PSoC device
  85:Generated_Source\PSoC5/cy_em_eeprom.c **** * datasheet.
  86:Generated_Source\PSoC5/cy_em_eeprom.c **** *
  87:Generated_Source\PSoC5/cy_em_eeprom.c **** * \sideeffect 
  88:Generated_Source\PSoC5/cy_em_eeprom.c **** * If the "Redundant Copy" option is used, the function performs a number of 
ARM GAS  C:\Users\RABBIT~1\AppData\Local\Temp\ccgw4IdU.s 			page 3


  89:Generated_Source\PSoC5/cy_em_eeprom.c **** * write operations to the EEPROM to initialize flash rows checksums. Therefore,
  90:Generated_Source\PSoC5/cy_em_eeprom.c **** * Cy_Em_EEPROM_NumWrites(), when it is called right after Cy_Em_EEPROM_Init(), 
  91:Generated_Source\PSoC5/cy_em_eeprom.c **** * will return a non-zero value that identifies the number of writes performed 
  92:Generated_Source\PSoC5/cy_em_eeprom.c **** * by Cy_Em_EEPROM_Init().
  93:Generated_Source\PSoC5/cy_em_eeprom.c **** *
  94:Generated_Source\PSoC5/cy_em_eeprom.c **** *******************************************************************************/
  95:Generated_Source\PSoC5/cy_em_eeprom.c **** cy_en_em_eeprom_status_t Cy_Em_EEPROM_Init(cy_stc_eeprom_config_t* config, cy_stc_eeprom_context_t 
  96:Generated_Source\PSoC5/cy_em_eeprom.c **** {
  97:Generated_Source\PSoC5/cy_em_eeprom.c ****     cy_en_em_eeprom_status_t ret = CY_EM_EEPROM_BAD_PARAM;
  98:Generated_Source\PSoC5/cy_em_eeprom.c **** 
  99:Generated_Source\PSoC5/cy_em_eeprom.c ****     if((NULL != context) && (NULL != config) && (NULL != ((uint32 *)config->userFlashStartAddr)) &&
 100:Generated_Source\PSoC5/cy_em_eeprom.c ****         (config->wearLevelingFactor <= CY_EM_EEPROM_MAX_WEAR_LEVELING_FACTOR) && (config->eepromSiz
 101:Generated_Source\PSoC5/cy_em_eeprom.c ****     {
 102:Generated_Source\PSoC5/cy_em_eeprom.c ****         ret = CheckRanges(config);
 103:Generated_Source\PSoC5/cy_em_eeprom.c **** 
 104:Generated_Source\PSoC5/cy_em_eeprom.c ****         if(CY_EM_EEPROM_SUCCESS == ret)
 105:Generated_Source\PSoC5/cy_em_eeprom.c ****         {
 106:Generated_Source\PSoC5/cy_em_eeprom.c ****             /* Copy the user config structure fields into context */
 107:Generated_Source\PSoC5/cy_em_eeprom.c ****             context->eepromSize = config->eepromSize;
 108:Generated_Source\PSoC5/cy_em_eeprom.c ****             context->wearLevelingFactor = config->wearLevelingFactor;
 109:Generated_Source\PSoC5/cy_em_eeprom.c ****             context->redundantCopy = config->redundantCopy;
 110:Generated_Source\PSoC5/cy_em_eeprom.c ****             context->blockingWrite = config->blockingWrite;
 111:Generated_Source\PSoC5/cy_em_eeprom.c ****             context->userFlashStartAddr = config->userFlashStartAddr;
 112:Generated_Source\PSoC5/cy_em_eeprom.c ****             /* Store frequently used data for internal use */
 113:Generated_Source\PSoC5/cy_em_eeprom.c ****             context->numberOfRows = CY_EM_EEPROM_GET_NUM_ROWS_IN_EEPROM(config->eepromSize);
 114:Generated_Source\PSoC5/cy_em_eeprom.c ****             context->wlEndAddr = ((CY_EM_EEPROM_GET_EEPROM_SIZE(context->numberOfRows) * config->we
 115:Generated_Source\PSoC5/cy_em_eeprom.c ****                     config->userFlashStartAddr);
 116:Generated_Source\PSoC5/cy_em_eeprom.c ****             /* Find last written EEPROM row and store it for quick access */
 117:Generated_Source\PSoC5/cy_em_eeprom.c ****             FindLastWrittenRow(&context->lastWrRowAddr, context);
 118:Generated_Source\PSoC5/cy_em_eeprom.c **** 
 119:Generated_Source\PSoC5/cy_em_eeprom.c ****             if((0u == CY_EM_EEPROM_GET_SEQ_NUM(context->lastWrRowAddr)) && (0u != context->redundan
 120:Generated_Source\PSoC5/cy_em_eeprom.c ****             {
 121:Generated_Source\PSoC5/cy_em_eeprom.c ****                 /* Call the function only after device reprogramming in case
 122:Generated_Source\PSoC5/cy_em_eeprom.c ****                 * if redundant copy is enabled.
 123:Generated_Source\PSoC5/cy_em_eeprom.c ****                 */
 124:Generated_Source\PSoC5/cy_em_eeprom.c ****                 ret = FillChecksum(context);
 125:Generated_Source\PSoC5/cy_em_eeprom.c ****                 
 126:Generated_Source\PSoC5/cy_em_eeprom.c ****                 /* Update the last written EEPROM row for Cy_Em_EEPROM_NumWrites() */
 127:Generated_Source\PSoC5/cy_em_eeprom.c ****                 FindLastWrittenRow(&context->lastWrRowAddr, context);
 128:Generated_Source\PSoC5/cy_em_eeprom.c ****             }
 129:Generated_Source\PSoC5/cy_em_eeprom.c ****         }
 130:Generated_Source\PSoC5/cy_em_eeprom.c ****     }
 131:Generated_Source\PSoC5/cy_em_eeprom.c **** 
 132:Generated_Source\PSoC5/cy_em_eeprom.c ****     return(ret);
 133:Generated_Source\PSoC5/cy_em_eeprom.c **** }
 134:Generated_Source\PSoC5/cy_em_eeprom.c **** 
 135:Generated_Source\PSoC5/cy_em_eeprom.c **** 
 136:Generated_Source\PSoC5/cy_em_eeprom.c **** /*******************************************************************************
 137:Generated_Source\PSoC5/cy_em_eeprom.c **** * Function Name: Cy_Em_EEPROM_Read
 138:Generated_Source\PSoC5/cy_em_eeprom.c **** ****************************************************************************//**
 139:Generated_Source\PSoC5/cy_em_eeprom.c **** *
 140:Generated_Source\PSoC5/cy_em_eeprom.c **** * This function takes the logical EEPROM address, converts it to the actual
 141:Generated_Source\PSoC5/cy_em_eeprom.c **** * physical address where the data is stored and returns the data to the user.
 142:Generated_Source\PSoC5/cy_em_eeprom.c **** *
 143:Generated_Source\PSoC5/cy_em_eeprom.c **** * \param addr
 144:Generated_Source\PSoC5/cy_em_eeprom.c **** * The logical start address in EEPROM to start reading data from.
 145:Generated_Source\PSoC5/cy_em_eeprom.c **** *
ARM GAS  C:\Users\RABBIT~1\AppData\Local\Temp\ccgw4IdU.s 			page 4


 146:Generated_Source\PSoC5/cy_em_eeprom.c **** * \param eepromData
 147:Generated_Source\PSoC5/cy_em_eeprom.c **** * The pointer to a user array to write data to.
 148:Generated_Source\PSoC5/cy_em_eeprom.c **** *
 149:Generated_Source\PSoC5/cy_em_eeprom.c **** * \param size
 150:Generated_Source\PSoC5/cy_em_eeprom.c **** * The amount of data to read.
 151:Generated_Source\PSoC5/cy_em_eeprom.c **** *
 152:Generated_Source\PSoC5/cy_em_eeprom.c **** * \param context
 153:Generated_Source\PSoC5/cy_em_eeprom.c **** * The pointer to the EEPROM context structure \ref cy_stc_eeprom_context_t.
 154:Generated_Source\PSoC5/cy_em_eeprom.c **** *
 155:Generated_Source\PSoC5/cy_em_eeprom.c **** * \return
 156:Generated_Source\PSoC5/cy_em_eeprom.c **** * This function returns \ref cy_en_em_eeprom_status_t.
 157:Generated_Source\PSoC5/cy_em_eeprom.c **** *
 158:Generated_Source\PSoC5/cy_em_eeprom.c **** * \note
 159:Generated_Source\PSoC5/cy_em_eeprom.c **** * This function uses a buffer of the flash row size to perform read
 160:Generated_Source\PSoC5/cy_em_eeprom.c **** * operation. For the size of the row refer to the specific PSoC device
 161:Generated_Source\PSoC5/cy_em_eeprom.c **** * datasheet.
 162:Generated_Source\PSoC5/cy_em_eeprom.c **** *
 163:Generated_Source\PSoC5/cy_em_eeprom.c **** * \note
 164:Generated_Source\PSoC5/cy_em_eeprom.c **** * In case if redundant copy option is enabled the function may perform writes
 165:Generated_Source\PSoC5/cy_em_eeprom.c **** * to EEPROM. This is done in case if the data in the EEPPROM is corrupted and
 166:Generated_Source\PSoC5/cy_em_eeprom.c **** * the data in redundant copy is valid based on CRC-8 data integrity check.
 167:Generated_Source\PSoC5/cy_em_eeprom.c **** *
 168:Generated_Source\PSoC5/cy_em_eeprom.c **** *******************************************************************************/
 169:Generated_Source\PSoC5/cy_em_eeprom.c **** cy_en_em_eeprom_status_t Cy_Em_EEPROM_Read(uint32 addr, 
 170:Generated_Source\PSoC5/cy_em_eeprom.c ****                                         void * eepromData, 
 171:Generated_Source\PSoC5/cy_em_eeprom.c ****                                         uint32 size,
 172:Generated_Source\PSoC5/cy_em_eeprom.c ****                                         cy_stc_eeprom_context_t * context)
 173:Generated_Source\PSoC5/cy_em_eeprom.c **** {
 174:Generated_Source\PSoC5/cy_em_eeprom.c ****     cy_en_em_eeprom_status_t ret = CY_EM_EEPROM_BAD_PARAM;
 175:Generated_Source\PSoC5/cy_em_eeprom.c ****     uint32 i;
 176:Generated_Source\PSoC5/cy_em_eeprom.c ****     uint32 numBytesToRead;
 177:Generated_Source\PSoC5/cy_em_eeprom.c ****     uint32 curEepromBaseAddr;
 178:Generated_Source\PSoC5/cy_em_eeprom.c ****     uint32 curRowOffset;
 179:Generated_Source\PSoC5/cy_em_eeprom.c ****     uint32 startRowAddr;
 180:Generated_Source\PSoC5/cy_em_eeprom.c ****     uint32 actEepromRowNum;
 181:Generated_Source\PSoC5/cy_em_eeprom.c ****     uint32 curRdEepromRowNum = 0u;
 182:Generated_Source\PSoC5/cy_em_eeprom.c ****     uint32 dataStartEepromRowNum = 0u;
 183:Generated_Source\PSoC5/cy_em_eeprom.c ****     uint32 eeData = (uint32) eepromData; /* To avoid the pointer arithmetic with void */
 184:Generated_Source\PSoC5/cy_em_eeprom.c **** 
 185:Generated_Source\PSoC5/cy_em_eeprom.c ****     /* Validate input parameters */
 186:Generated_Source\PSoC5/cy_em_eeprom.c ****     if((0u != size) && ((addr + size) <= (context->eepromSize)) && (NULL != eepromData))
 187:Generated_Source\PSoC5/cy_em_eeprom.c ****     {
 188:Generated_Source\PSoC5/cy_em_eeprom.c ****         uint32 rdAddr = addr;
 189:Generated_Source\PSoC5/cy_em_eeprom.c ****         uint32 rdSize = size;
 190:Generated_Source\PSoC5/cy_em_eeprom.c ****         /* Get the sequence number of the last written row */
 191:Generated_Source\PSoC5/cy_em_eeprom.c ****         uint32 seqNum = CY_EM_EEPROM_GET_SEQ_NUM(context->lastWrRowAddr);
 192:Generated_Source\PSoC5/cy_em_eeprom.c ****         uint32 updateAddrFlag = 0u;
 193:Generated_Source\PSoC5/cy_em_eeprom.c **** 
 194:Generated_Source\PSoC5/cy_em_eeprom.c ****         /* Calculate the number of the row read operations. Currently this only concerns
 195:Generated_Source\PSoC5/cy_em_eeprom.c ****         * the reads from the EEPROM data locations.
 196:Generated_Source\PSoC5/cy_em_eeprom.c ****         */
 197:Generated_Source\PSoC5/cy_em_eeprom.c ****         uint32 numRowReads = ((((rdAddr + rdSize) - 1u) / CY_EM_EEPROM_EEPROM_DATA_LEN) -
 198:Generated_Source\PSoC5/cy_em_eeprom.c ****                               (rdAddr / CY_EM_EEPROM_EEPROM_DATA_LEN)) + 1u;
 199:Generated_Source\PSoC5/cy_em_eeprom.c **** 
 200:Generated_Source\PSoC5/cy_em_eeprom.c ****         /* Get the address of the first row of the currently active EEPROM sector. If
 201:Generated_Source\PSoC5/cy_em_eeprom.c ****         * no wear leveling is used - the EEPROM has only one sector, so use the base
 202:Generated_Source\PSoC5/cy_em_eeprom.c ****         * addr stored in "context->userFlashStartAddr".
ARM GAS  C:\Users\RABBIT~1\AppData\Local\Temp\ccgw4IdU.s 			page 5


 203:Generated_Source\PSoC5/cy_em_eeprom.c ****         */
 204:Generated_Source\PSoC5/cy_em_eeprom.c ****         curEepromBaseAddr = (((context->lastWrRowAddr - context->userFlashStartAddr) /
 205:Generated_Source\PSoC5/cy_em_eeprom.c ****                               (CY_EM_EEPROM_FLASH_SIZEOF_ROW * context->numberOfRows)) *
 206:Generated_Source\PSoC5/cy_em_eeprom.c ****                               (CY_EM_EEPROM_FLASH_SIZEOF_ROW * context->numberOfRows)) +
 207:Generated_Source\PSoC5/cy_em_eeprom.c ****                                context->userFlashStartAddr;
 208:Generated_Source\PSoC5/cy_em_eeprom.c **** 
 209:Generated_Source\PSoC5/cy_em_eeprom.c ****         /* Find the number of the row that contains the start address of the data */
 210:Generated_Source\PSoC5/cy_em_eeprom.c ****         for(i = 0u; i < context->numberOfRows; i++)
 211:Generated_Source\PSoC5/cy_em_eeprom.c ****         {
 212:Generated_Source\PSoC5/cy_em_eeprom.c ****             if(0u != CY_EM_EEPROM_IS_ADDR_IN_ROW_RANGE(rdAddr, i))
 213:Generated_Source\PSoC5/cy_em_eeprom.c ****             {
 214:Generated_Source\PSoC5/cy_em_eeprom.c ****                 dataStartEepromRowNum = i;
 215:Generated_Source\PSoC5/cy_em_eeprom.c ****                 curRdEepromRowNum = dataStartEepromRowNum;
 216:Generated_Source\PSoC5/cy_em_eeprom.c ****                 break;
 217:Generated_Source\PSoC5/cy_em_eeprom.c ****             }
 218:Generated_Source\PSoC5/cy_em_eeprom.c ****         }
 219:Generated_Source\PSoC5/cy_em_eeprom.c **** 
 220:Generated_Source\PSoC5/cy_em_eeprom.c ****         /* Find the row number of the last written row */
 221:Generated_Source\PSoC5/cy_em_eeprom.c ****         actEepromRowNum = (context->lastWrRowAddr - curEepromBaseAddr) / CY_EM_EEPROM_FLASH_SIZEOF_
 222:Generated_Source\PSoC5/cy_em_eeprom.c **** 
 223:Generated_Source\PSoC5/cy_em_eeprom.c ****         /* Check if wear leveling is used */
 224:Generated_Source\PSoC5/cy_em_eeprom.c ****         if(context->wearLevelingFactor > 1u)
 225:Generated_Source\PSoC5/cy_em_eeprom.c ****         {
 226:Generated_Source\PSoC5/cy_em_eeprom.c ****             uint32 dataEndEepromRowNum = dataStartEepromRowNum + (numRowReads - 1u);
 227:Generated_Source\PSoC5/cy_em_eeprom.c **** 
 228:Generated_Source\PSoC5/cy_em_eeprom.c ****             /* Check if the future validation of the read address is required. */
 229:Generated_Source\PSoC5/cy_em_eeprom.c ****             updateAddrFlag = (dataStartEepromRowNum > actEepromRowNum) ? 1u :
 230:Generated_Source\PSoC5/cy_em_eeprom.c ****                               ((dataEndEepromRowNum > actEepromRowNum) ? 1u : 0u);
 231:Generated_Source\PSoC5/cy_em_eeprom.c ****         }
 232:Generated_Source\PSoC5/cy_em_eeprom.c **** 
 233:Generated_Source\PSoC5/cy_em_eeprom.c ****         /* Copy data from the EEPROM data locations to the user buffer */
 234:Generated_Source\PSoC5/cy_em_eeprom.c ****         for(i = 0u; i < numRowReads; i++)
 235:Generated_Source\PSoC5/cy_em_eeprom.c ****         {
 236:Generated_Source\PSoC5/cy_em_eeprom.c ****             startRowAddr = curEepromBaseAddr + (curRdEepromRowNum * CY_EM_EEPROM_FLASH_SIZEOF_ROW);
 237:Generated_Source\PSoC5/cy_em_eeprom.c ****             curRowOffset = CY_EM_EEPROM_EEPROM_DATA_LEN + (rdAddr % CY_EM_EEPROM_EEPROM_DATA_LEN);
 238:Generated_Source\PSoC5/cy_em_eeprom.c **** 
 239:Generated_Source\PSoC5/cy_em_eeprom.c ****             /* Check if there are more reads pending and update the number of the
 240:Generated_Source\PSoC5/cy_em_eeprom.c ****             * remaining bytes to read respectively.
 241:Generated_Source\PSoC5/cy_em_eeprom.c ****             */
 242:Generated_Source\PSoC5/cy_em_eeprom.c ****             if((i + 1u) < numRowReads)
 243:Generated_Source\PSoC5/cy_em_eeprom.c ****             {
 244:Generated_Source\PSoC5/cy_em_eeprom.c ****                 numBytesToRead = CY_EM_EEPROM_EEPROM_DATA_LEN - (rdAddr % CY_EM_EEPROM_EEPROM_DATA_
 245:Generated_Source\PSoC5/cy_em_eeprom.c ****             }
 246:Generated_Source\PSoC5/cy_em_eeprom.c ****             else
 247:Generated_Source\PSoC5/cy_em_eeprom.c ****             {
 248:Generated_Source\PSoC5/cy_em_eeprom.c ****                 numBytesToRead = rdSize;
 249:Generated_Source\PSoC5/cy_em_eeprom.c ****             }
 250:Generated_Source\PSoC5/cy_em_eeprom.c **** 
 251:Generated_Source\PSoC5/cy_em_eeprom.c ****             /* Check if the read address needs to be updated to point to the correct
 252:Generated_Source\PSoC5/cy_em_eeprom.c ****             * EEPROM sector.
 253:Generated_Source\PSoC5/cy_em_eeprom.c ****             */
 254:Generated_Source\PSoC5/cy_em_eeprom.c ****             if((0u != updateAddrFlag) && (curRdEepromRowNum > actEepromRowNum))
 255:Generated_Source\PSoC5/cy_em_eeprom.c ****             {
 256:Generated_Source\PSoC5/cy_em_eeprom.c ****                 startRowAddr -= context->numberOfRows * CY_EM_EEPROM_FLASH_SIZEOF_ROW;
 257:Generated_Source\PSoC5/cy_em_eeprom.c **** 
 258:Generated_Source\PSoC5/cy_em_eeprom.c ****                 if(startRowAddr < context->userFlashStartAddr)
 259:Generated_Source\PSoC5/cy_em_eeprom.c ****                 {
ARM GAS  C:\Users\RABBIT~1\AppData\Local\Temp\ccgw4IdU.s 			page 6


 260:Generated_Source\PSoC5/cy_em_eeprom.c ****                     startRowAddr = context->wlEndAddr -
 261:Generated_Source\PSoC5/cy_em_eeprom.c ****                         ((context->numberOfRows - curRdEepromRowNum) * CY_EM_EEPROM_FLASH_SIZEOF_RO
 262:Generated_Source\PSoC5/cy_em_eeprom.c ****                 }
 263:Generated_Source\PSoC5/cy_em_eeprom.c ****             }
 264:Generated_Source\PSoC5/cy_em_eeprom.c **** 
 265:Generated_Source\PSoC5/cy_em_eeprom.c ****             if(0u != context->redundantCopy)
 266:Generated_Source\PSoC5/cy_em_eeprom.c ****             {
 267:Generated_Source\PSoC5/cy_em_eeprom.c ****                 /* Check a checksum of the EEPROM row and if it is bad, check a checksum in
 268:Generated_Source\PSoC5/cy_em_eeprom.c ****                 * the corresponding row in redundant copy, otherwise return failure.
 269:Generated_Source\PSoC5/cy_em_eeprom.c ****                 */
 270:Generated_Source\PSoC5/cy_em_eeprom.c ****                 ret = CheckCrcAndCopy(startRowAddr, eeData, curRowOffset, numBytesToRead, context);
 271:Generated_Source\PSoC5/cy_em_eeprom.c **** 
 272:Generated_Source\PSoC5/cy_em_eeprom.c ****                 if(CY_EM_EEPROM_SUCCESS != ret)
 273:Generated_Source\PSoC5/cy_em_eeprom.c ****                 {
 274:Generated_Source\PSoC5/cy_em_eeprom.c ****                     break;
 275:Generated_Source\PSoC5/cy_em_eeprom.c ****                 }
 276:Generated_Source\PSoC5/cy_em_eeprom.c ****             }
 277:Generated_Source\PSoC5/cy_em_eeprom.c ****             else
 278:Generated_Source\PSoC5/cy_em_eeprom.c ****             {
 279:Generated_Source\PSoC5/cy_em_eeprom.c ****                 /* Copy the data to the user buffer */
 280:Generated_Source\PSoC5/cy_em_eeprom.c ****                 (void)memcpy((void *)(eeData),
 281:Generated_Source\PSoC5/cy_em_eeprom.c ****                              (void *)(startRowAddr + curRowOffset),
 282:Generated_Source\PSoC5/cy_em_eeprom.c ****                              numBytesToRead);
 283:Generated_Source\PSoC5/cy_em_eeprom.c **** 
 284:Generated_Source\PSoC5/cy_em_eeprom.c ****                 /* Indicate success to be able to execute next code block */
 285:Generated_Source\PSoC5/cy_em_eeprom.c ****                 ret = CY_EM_EEPROM_SUCCESS;
 286:Generated_Source\PSoC5/cy_em_eeprom.c ****             }
 287:Generated_Source\PSoC5/cy_em_eeprom.c **** 
 288:Generated_Source\PSoC5/cy_em_eeprom.c ****             /* Update variables anticipated in the read operation */
 289:Generated_Source\PSoC5/cy_em_eeprom.c ****             rdAddr += numBytesToRead;
 290:Generated_Source\PSoC5/cy_em_eeprom.c ****             rdSize -= numBytesToRead;
 291:Generated_Source\PSoC5/cy_em_eeprom.c ****             eeData += numBytesToRead;
 292:Generated_Source\PSoC5/cy_em_eeprom.c ****             curRdEepromRowNum++;
 293:Generated_Source\PSoC5/cy_em_eeprom.c ****         }
 294:Generated_Source\PSoC5/cy_em_eeprom.c **** 
 295:Generated_Source\PSoC5/cy_em_eeprom.c ****         /* This code block will copy the latest data from the EEPROM headers into the
 296:Generated_Source\PSoC5/cy_em_eeprom.c ****         * user buffer. The data previously copied into the user buffer may be updated
 297:Generated_Source\PSoC5/cy_em_eeprom.c ****         * as the EEPROM headers contain more recent data. 
 298:Generated_Source\PSoC5/cy_em_eeprom.c ****         * The code block is executed when two following conditions are true:
 299:Generated_Source\PSoC5/cy_em_eeprom.c ****         *  1) The reads from "historic" data locations were successful;
 300:Generated_Source\PSoC5/cy_em_eeprom.c ****         *  2) The user performed at least one write operation to Em_EEPROM (0u !=
 301:Generated_Source\PSoC5/cy_em_eeprom.c ****         *     seqNum).        
 302:Generated_Source\PSoC5/cy_em_eeprom.c ****         */
 303:Generated_Source\PSoC5/cy_em_eeprom.c ****         if((CY_EM_EEPROM_SUCCESS == ret) && (0u != seqNum))
 304:Generated_Source\PSoC5/cy_em_eeprom.c ****         {
 305:Generated_Source\PSoC5/cy_em_eeprom.c ****             numRowReads = (context->numberOfRows <= seqNum) ? (context->numberOfRows) : (seqNum);
 306:Generated_Source\PSoC5/cy_em_eeprom.c ****             numRowReads--;
 307:Generated_Source\PSoC5/cy_em_eeprom.c **** 
 308:Generated_Source\PSoC5/cy_em_eeprom.c ****             for(i = (seqNum - numRowReads); i <= seqNum; i++)
 309:Generated_Source\PSoC5/cy_em_eeprom.c ****             {
 310:Generated_Source\PSoC5/cy_em_eeprom.c ****                 startRowAddr = GetRowAddrBySeqNum(i, context);
 311:Generated_Source\PSoC5/cy_em_eeprom.c **** 
 312:Generated_Source\PSoC5/cy_em_eeprom.c ****                 if (0u != startRowAddr)
 313:Generated_Source\PSoC5/cy_em_eeprom.c ****                 {
 314:Generated_Source\PSoC5/cy_em_eeprom.c ****                     /* The following variables are introduced to increase code readability. */
 315:Generated_Source\PSoC5/cy_em_eeprom.c ****                     uint32 startAddr  = *(uint32 *)(startRowAddr + CY_EM_EEPROM_HEADER_ADDR_OFFSET)
 316:Generated_Source\PSoC5/cy_em_eeprom.c ****                     uint32 endAddr    = startAddr + (*(uint32 *)(startRowAddr + CY_EM_EEPROM_HEADER
ARM GAS  C:\Users\RABBIT~1\AppData\Local\Temp\ccgw4IdU.s 			page 7


 317:Generated_Source\PSoC5/cy_em_eeprom.c **** 
 318:Generated_Source\PSoC5/cy_em_eeprom.c ****                     /* Check if the current row EEPROM header contains the data requested for read 
 319:Generated_Source\PSoC5/cy_em_eeprom.c ****                     if(0u != CY_EM_EEPROM_IS_ADDRESES_CROSSING(startAddr, endAddr, addr, addr + siz
 320:Generated_Source\PSoC5/cy_em_eeprom.c ****                     {
 321:Generated_Source\PSoC5/cy_em_eeprom.c ****                         uint32 srcOffset = (startAddr > addr) ? (0u) : (addr - startAddr);
 322:Generated_Source\PSoC5/cy_em_eeprom.c ****                         uint32 dstOffset = (startAddr > addr) ? (startAddr - addr): (0u);
 323:Generated_Source\PSoC5/cy_em_eeprom.c ****                         rdAddr = (startAddr > addr) ? (startAddr) : (addr);
 324:Generated_Source\PSoC5/cy_em_eeprom.c **** 
 325:Generated_Source\PSoC5/cy_em_eeprom.c ****                         srcOffset += CY_EM_EEPROM_HEADER_DATA_OFFSET;
 326:Generated_Source\PSoC5/cy_em_eeprom.c **** 
 327:Generated_Source\PSoC5/cy_em_eeprom.c ****                         /* Calculate the number of bytes to be read from the current row's EEPROM h
 328:Generated_Source\PSoC5/cy_em_eeprom.c ****                         numBytesToRead = ((endAddr < (addr + size)) ? endAddr : (addr + size)) - rd
 329:Generated_Source\PSoC5/cy_em_eeprom.c **** 
 330:Generated_Source\PSoC5/cy_em_eeprom.c ****                         /* Calculate the offset in the user buffer from which the data will be upda
 331:Generated_Source\PSoC5/cy_em_eeprom.c ****                         eeData = ((uint32)eepromData) + dstOffset;
 332:Generated_Source\PSoC5/cy_em_eeprom.c **** 
 333:Generated_Source\PSoC5/cy_em_eeprom.c ****                         /* Check a checksum of the EEPROM row and if it is bad, check a checksum in
 334:Generated_Source\PSoC5/cy_em_eeprom.c ****                         * corresponding row in redundant copy, otherwise return failure. Copy the d
 335:Generated_Source\PSoC5/cy_em_eeprom.c ****                         * from the recent EEPROM headers to the user buffer. This will overwrite th
 336:Generated_Source\PSoC5/cy_em_eeprom.c ****                         * data copied form EEPROM data locations as the data in EEPROM headers is n
 337:Generated_Source\PSoC5/cy_em_eeprom.c ****                         */
 338:Generated_Source\PSoC5/cy_em_eeprom.c ****                         if(0u != context->redundantCopy)
 339:Generated_Source\PSoC5/cy_em_eeprom.c ****                         {
 340:Generated_Source\PSoC5/cy_em_eeprom.c ****                             ret = CheckCrcAndCopy(startRowAddr, eeData, srcOffset, numBytesToRead, 
 341:Generated_Source\PSoC5/cy_em_eeprom.c **** 
 342:Generated_Source\PSoC5/cy_em_eeprom.c ****                             if(CY_EM_EEPROM_SUCCESS != ret)
 343:Generated_Source\PSoC5/cy_em_eeprom.c ****                             {
 344:Generated_Source\PSoC5/cy_em_eeprom.c ****                                 break;
 345:Generated_Source\PSoC5/cy_em_eeprom.c ****                             }
 346:Generated_Source\PSoC5/cy_em_eeprom.c ****                         }
 347:Generated_Source\PSoC5/cy_em_eeprom.c ****                         else
 348:Generated_Source\PSoC5/cy_em_eeprom.c ****                         {
 349:Generated_Source\PSoC5/cy_em_eeprom.c ****                             (void)memcpy((void *)(eeData), (void *)(startRowAddr + srcOffset), numB
 350:Generated_Source\PSoC5/cy_em_eeprom.c ****                         }
 351:Generated_Source\PSoC5/cy_em_eeprom.c ****                     }
 352:Generated_Source\PSoC5/cy_em_eeprom.c ****                 }
 353:Generated_Source\PSoC5/cy_em_eeprom.c ****             }
 354:Generated_Source\PSoC5/cy_em_eeprom.c ****         }
 355:Generated_Source\PSoC5/cy_em_eeprom.c ****     }
 356:Generated_Source\PSoC5/cy_em_eeprom.c **** 
 357:Generated_Source\PSoC5/cy_em_eeprom.c ****     return(ret);
 358:Generated_Source\PSoC5/cy_em_eeprom.c **** }
 359:Generated_Source\PSoC5/cy_em_eeprom.c **** 
 360:Generated_Source\PSoC5/cy_em_eeprom.c **** 
 361:Generated_Source\PSoC5/cy_em_eeprom.c **** /*******************************************************************************
 362:Generated_Source\PSoC5/cy_em_eeprom.c **** * Function Name: Cy_Em_EEPROM_Write
 363:Generated_Source\PSoC5/cy_em_eeprom.c **** ****************************************************************************//**
 364:Generated_Source\PSoC5/cy_em_eeprom.c **** *
 365:Generated_Source\PSoC5/cy_em_eeprom.c **** * This function takes the logical EEPROM address and converts it to the actual
 366:Generated_Source\PSoC5/cy_em_eeprom.c **** * physical address and writes data there. If wear leveling is implemented, the
 367:Generated_Source\PSoC5/cy_em_eeprom.c **** * writing process will use the wear leveling techniques. This is a blocking
 368:Generated_Source\PSoC5/cy_em_eeprom.c **** * function and it does not return until the write operation is completed. The
 369:Generated_Source\PSoC5/cy_em_eeprom.c **** * user firmware should not enter Hibernate mode until write is completed. The
 370:Generated_Source\PSoC5/cy_em_eeprom.c **** * write operation is allowed in Sleep and Deep-Sleep modes. During the flash
 371:Generated_Source\PSoC5/cy_em_eeprom.c **** * operation, the device should not be reset, including the XRES pin, a software
 372:Generated_Source\PSoC5/cy_em_eeprom.c **** * reset, and watchdog reset sources. Also, low-voltage detect circuits should
 373:Generated_Source\PSoC5/cy_em_eeprom.c **** * be configured to generate an interrupt instead of a reset. Otherwise, portions
ARM GAS  C:\Users\RABBIT~1\AppData\Local\Temp\ccgw4IdU.s 			page 8


 374:Generated_Source\PSoC5/cy_em_eeprom.c **** * of flash may undergo unexpected changes.
 375:Generated_Source\PSoC5/cy_em_eeprom.c **** *
 376:Generated_Source\PSoC5/cy_em_eeprom.c **** * \param addr
 377:Generated_Source\PSoC5/cy_em_eeprom.c **** * The logical start address in EEPROM to start writing data from.
 378:Generated_Source\PSoC5/cy_em_eeprom.c **** *
 379:Generated_Source\PSoC5/cy_em_eeprom.c **** * \param eepromData
 380:Generated_Source\PSoC5/cy_em_eeprom.c **** * Data to write to EEPROM.
 381:Generated_Source\PSoC5/cy_em_eeprom.c **** *
 382:Generated_Source\PSoC5/cy_em_eeprom.c **** * \param size
 383:Generated_Source\PSoC5/cy_em_eeprom.c **** * The amount of data to write to EEPROM.
 384:Generated_Source\PSoC5/cy_em_eeprom.c **** *
 385:Generated_Source\PSoC5/cy_em_eeprom.c **** * \param context
 386:Generated_Source\PSoC5/cy_em_eeprom.c **** * The pointer to the EEPROM context structure \ref cy_stc_eeprom_context_t.
 387:Generated_Source\PSoC5/cy_em_eeprom.c **** *
 388:Generated_Source\PSoC5/cy_em_eeprom.c **** * \return
 389:Generated_Source\PSoC5/cy_em_eeprom.c **** * This function returns \ref cy_en_em_eeprom_status_t.
 390:Generated_Source\PSoC5/cy_em_eeprom.c **** *
 391:Generated_Source\PSoC5/cy_em_eeprom.c **** * \note
 392:Generated_Source\PSoC5/cy_em_eeprom.c **** * This function uses a buffer of the flash row size to perform write
 393:Generated_Source\PSoC5/cy_em_eeprom.c **** * operation. For the size of the row refer to the specific PSoC device
 394:Generated_Source\PSoC5/cy_em_eeprom.c **** * datasheet.
 395:Generated_Source\PSoC5/cy_em_eeprom.c **** *
 396:Generated_Source\PSoC5/cy_em_eeprom.c **** * \sideeffect
 397:Generated_Source\PSoC5/cy_em_eeprom.c **** * In case when blocking write option is used, if this function is called by
 398:Generated_Source\PSoC5/cy_em_eeprom.c **** * the CM4 the user code on CM0P and the user code on CM4 are blocked until erase
 399:Generated_Source\PSoC5/cy_em_eeprom.c **** * flash row operation is finished. If this function is called by the CM0P the
 400:Generated_Source\PSoC5/cy_em_eeprom.c **** * user code on CM4 is not blocked and the user code on CM0P is blocked until
 401:Generated_Source\PSoC5/cy_em_eeprom.c **** * erase flash row operation is finished. Plan your task allocation accordingly.
 402:Generated_Source\PSoC5/cy_em_eeprom.c **** *
 403:Generated_Source\PSoC5/cy_em_eeprom.c **** * \sideeffect
 404:Generated_Source\PSoC5/cy_em_eeprom.c **** * In case if non-blocking write option is used and when user flash is used as
 405:Generated_Source\PSoC5/cy_em_eeprom.c **** * an EEPROM storage care should be taken to prevent the read while write (RWW)
 406:Generated_Source\PSoC5/cy_em_eeprom.c **** * exception. To prevent the RWW exception the user flash macro that includes
 407:Generated_Source\PSoC5/cy_em_eeprom.c **** * the EEPROM storage should not be read while the EEPROM write is not completed.
 408:Generated_Source\PSoC5/cy_em_eeprom.c **** * The read also means the user code execution from the respective flash macro.
 409:Generated_Source\PSoC5/cy_em_eeprom.c **** *
 410:Generated_Source\PSoC5/cy_em_eeprom.c **** *******************************************************************************/
 411:Generated_Source\PSoC5/cy_em_eeprom.c **** cy_en_em_eeprom_status_t Cy_Em_EEPROM_Write(uint32 addr,
 412:Generated_Source\PSoC5/cy_em_eeprom.c ****                                             void * eepromData,
 413:Generated_Source\PSoC5/cy_em_eeprom.c ****                                             uint32 size,
 414:Generated_Source\PSoC5/cy_em_eeprom.c ****                                             cy_stc_eeprom_context_t * context)
 415:Generated_Source\PSoC5/cy_em_eeprom.c **** {
 416:Generated_Source\PSoC5/cy_em_eeprom.c ****     cy_en_em_eeprom_status_t ret = CY_EM_EEPROM_BAD_PARAM;
 417:Generated_Source\PSoC5/cy_em_eeprom.c ****     uint32 i;
 418:Generated_Source\PSoC5/cy_em_eeprom.c ****     uint32 wrCnt;
 419:Generated_Source\PSoC5/cy_em_eeprom.c ****     uint32 actEmEepromRowNum;
 420:Generated_Source\PSoC5/cy_em_eeprom.c ****     uint32 writeRamBuffer[CY_EM_EEPROM_FLASH_SIZEOF_ROW / CY_EM_EEPROM_U32_DIV];
 421:Generated_Source\PSoC5/cy_em_eeprom.c ****     uint32 startAddr = 0u;
 422:Generated_Source\PSoC5/cy_em_eeprom.c ****     uint32 endAddr = 0u;
 423:Generated_Source\PSoC5/cy_em_eeprom.c ****     uint32 tmpRowAddr;
 424:Generated_Source\PSoC5/cy_em_eeprom.c ****     uint32 emEepromRowAddr = context->lastWrRowAddr;
 425:Generated_Source\PSoC5/cy_em_eeprom.c ****     uint32 emEepromRowRdAddr;
 426:Generated_Source\PSoC5/cy_em_eeprom.c ****     void * tmpData;
 427:Generated_Source\PSoC5/cy_em_eeprom.c ****     uint32 eeData = (uint32) eepromData; /* To avoid the pointer arithmetic with void */
 428:Generated_Source\PSoC5/cy_em_eeprom.c **** 
 429:Generated_Source\PSoC5/cy_em_eeprom.c ****     /* Check if the EEPROM data does not exceed the EEPROM capacity */
 430:Generated_Source\PSoC5/cy_em_eeprom.c ****     if((0u != size) && ((addr + size) <= (context->eepromSize)) && (NULL != eepromData))
ARM GAS  C:\Users\RABBIT~1\AppData\Local\Temp\ccgw4IdU.s 			page 9


 431:Generated_Source\PSoC5/cy_em_eeprom.c ****     {
 432:Generated_Source\PSoC5/cy_em_eeprom.c ****         uint32 numWrites = ((size - 1u) / CY_EM_EEPROM_HEADER_DATA_LEN) + 1u;
 433:Generated_Source\PSoC5/cy_em_eeprom.c ****         uint32 eeHeaderDataOffset = 0u;
 434:Generated_Source\PSoC5/cy_em_eeprom.c **** 
 435:Generated_Source\PSoC5/cy_em_eeprom.c ****         for(wrCnt = 0u; wrCnt < numWrites; wrCnt++)
 436:Generated_Source\PSoC5/cy_em_eeprom.c ****         {
 437:Generated_Source\PSoC5/cy_em_eeprom.c ****             uint32 skipOperation = 0u;
 438:Generated_Source\PSoC5/cy_em_eeprom.c ****             /* Get the sequence number of the last written row */
 439:Generated_Source\PSoC5/cy_em_eeprom.c ****             uint32 seqNum = CY_EM_EEPROM_GET_SEQ_NUM(emEepromRowAddr);
 440:Generated_Source\PSoC5/cy_em_eeprom.c **** 
 441:Generated_Source\PSoC5/cy_em_eeprom.c ****             /* Get the address of the row to be written. The "emEepromRowAddr" may be
 442:Generated_Source\PSoC5/cy_em_eeprom.c ****             * updated with the proper address (if wear leveling is used). The
 443:Generated_Source\PSoC5/cy_em_eeprom.c ****             * "emEepromRowRdAddr" will point to the row address from which the historic
 444:Generated_Source\PSoC5/cy_em_eeprom.c ****             * data will be read into the RAM buffer.
 445:Generated_Source\PSoC5/cy_em_eeprom.c ****             */
 446:Generated_Source\PSoC5/cy_em_eeprom.c ****             GetNextRowToWrite(seqNum, &emEepromRowAddr, &emEepromRowRdAddr, context);
 447:Generated_Source\PSoC5/cy_em_eeprom.c **** 
 448:Generated_Source\PSoC5/cy_em_eeprom.c ****             /* Clear the RAM buffer so to not put junk into flash */
 449:Generated_Source\PSoC5/cy_em_eeprom.c ****             (void)memset(writeRamBuffer, 0, CY_EM_EEPROM_FLASH_SIZEOF_ROW);
 450:Generated_Source\PSoC5/cy_em_eeprom.c **** 
 451:Generated_Source\PSoC5/cy_em_eeprom.c ****             /* Fill the EM_EEPROM header info for the row in the RAM buffer */
 452:Generated_Source\PSoC5/cy_em_eeprom.c ****             seqNum++;
 453:Generated_Source\PSoC5/cy_em_eeprom.c ****             writeRamBuffer[CY_EM_EEPROM_HEADER_SEQ_NUM_OFFSET_U32] = seqNum;
 454:Generated_Source\PSoC5/cy_em_eeprom.c ****             writeRamBuffer[CY_EM_EEPROM_HEADER_ADDR_OFFSET_U32] = addr;
 455:Generated_Source\PSoC5/cy_em_eeprom.c ****             tmpData = (void *) eeData;
 456:Generated_Source\PSoC5/cy_em_eeprom.c **** 
 457:Generated_Source\PSoC5/cy_em_eeprom.c ****             /* Check if this is the last row to write */
 458:Generated_Source\PSoC5/cy_em_eeprom.c ****             if(wrCnt == (numWrites - 1u))
 459:Generated_Source\PSoC5/cy_em_eeprom.c ****             {
 460:Generated_Source\PSoC5/cy_em_eeprom.c ****                 /* Fill in the remaining size value to the EEPROM header. */
 461:Generated_Source\PSoC5/cy_em_eeprom.c ****                 writeRamBuffer[CY_EM_EEPROM_HEADER_LEN_OFFSET_U32] = size;
 462:Generated_Source\PSoC5/cy_em_eeprom.c ****             }
 463:Generated_Source\PSoC5/cy_em_eeprom.c ****             else
 464:Generated_Source\PSoC5/cy_em_eeprom.c ****             {
 465:Generated_Source\PSoC5/cy_em_eeprom.c ****                 /* This is not the last row to write in the current EEPROM write operation.
 466:Generated_Source\PSoC5/cy_em_eeprom.c ****                 * Write the maximum possible data size to the EEPROM header. Update the
 467:Generated_Source\PSoC5/cy_em_eeprom.c ****                 * size, eeData and addr respectively.
 468:Generated_Source\PSoC5/cy_em_eeprom.c ****                 */
 469:Generated_Source\PSoC5/cy_em_eeprom.c ****                 writeRamBuffer[CY_EM_EEPROM_HEADER_LEN_OFFSET_U32] = CY_EM_EEPROM_HEADER_DATA_LEN;
 470:Generated_Source\PSoC5/cy_em_eeprom.c ****                 size -= CY_EM_EEPROM_HEADER_DATA_LEN;
 471:Generated_Source\PSoC5/cy_em_eeprom.c ****                 addr += CY_EM_EEPROM_HEADER_DATA_LEN;
 472:Generated_Source\PSoC5/cy_em_eeprom.c ****                 eeData += CY_EM_EEPROM_HEADER_DATA_LEN;
 473:Generated_Source\PSoC5/cy_em_eeprom.c ****             }
 474:Generated_Source\PSoC5/cy_em_eeprom.c **** 
 475:Generated_Source\PSoC5/cy_em_eeprom.c ****             /* Write the data to the EEPROM header */
 476:Generated_Source\PSoC5/cy_em_eeprom.c ****             (void)memcpy((void *)&writeRamBuffer[CY_EM_EEPROM_HEADER_DATA_OFFSET_U32],
 477:Generated_Source\PSoC5/cy_em_eeprom.c ****                          tmpData,
 478:Generated_Source\PSoC5/cy_em_eeprom.c ****                          writeRamBuffer[CY_EM_EEPROM_HEADER_LEN_OFFSET_U32]);
 479:Generated_Source\PSoC5/cy_em_eeprom.c **** 
 480:Generated_Source\PSoC5/cy_em_eeprom.c ****             if(emEepromRowRdAddr != 0UL)
 481:Generated_Source\PSoC5/cy_em_eeprom.c ****             {
 482:Generated_Source\PSoC5/cy_em_eeprom.c ****                 /* Copy the EEPROM historic data for this row from flash to RAM */
 483:Generated_Source\PSoC5/cy_em_eeprom.c ****                 (void)memcpy((void *)&writeRamBuffer[CY_EM_EEPROM_EEPROM_DATA_OFFSET_U32],
 484:Generated_Source\PSoC5/cy_em_eeprom.c ****                              (void *)(emEepromRowRdAddr + CY_EM_EEPROM_EEPROM_DATA_LEN),
 485:Generated_Source\PSoC5/cy_em_eeprom.c ****                              CY_EM_EEPROM_EEPROM_DATA_LEN);
 486:Generated_Source\PSoC5/cy_em_eeprom.c ****             }
 487:Generated_Source\PSoC5/cy_em_eeprom.c **** 
ARM GAS  C:\Users\RABBIT~1\AppData\Local\Temp\ccgw4IdU.s 			page 10


 488:Generated_Source\PSoC5/cy_em_eeprom.c ****             /* Check if there is data for this location in other EEPROM headers:
 489:Generated_Source\PSoC5/cy_em_eeprom.c ****             * find out the row with the lowest possible sequence number which
 490:Generated_Source\PSoC5/cy_em_eeprom.c ****             * may contain the data for the current row.
 491:Generated_Source\PSoC5/cy_em_eeprom.c ****             */
 492:Generated_Source\PSoC5/cy_em_eeprom.c ****             i = (seqNum > context->numberOfRows) ? ((seqNum - (context->numberOfRows)) + 1u) : 1u;
 493:Generated_Source\PSoC5/cy_em_eeprom.c **** 
 494:Generated_Source\PSoC5/cy_em_eeprom.c ****             for(; i <= seqNum; i++)
 495:Generated_Source\PSoC5/cy_em_eeprom.c ****             {
 496:Generated_Source\PSoC5/cy_em_eeprom.c ****                 if(i == seqNum)
 497:Generated_Source\PSoC5/cy_em_eeprom.c ****                 {
 498:Generated_Source\PSoC5/cy_em_eeprom.c ****                     /* The code reached the row that is about to be written. Analyze the recently
 499:Generated_Source\PSoC5/cy_em_eeprom.c ****                     * created EEPROM header (stored in the RAM buffer currently): if it contains
 500:Generated_Source\PSoC5/cy_em_eeprom.c ****                     * the data for EEPROM data locations in the row that is about to be written.
 501:Generated_Source\PSoC5/cy_em_eeprom.c ****                     */
 502:Generated_Source\PSoC5/cy_em_eeprom.c ****                     tmpRowAddr = (uint32) writeRamBuffer;
 503:Generated_Source\PSoC5/cy_em_eeprom.c ****                 }
 504:Generated_Source\PSoC5/cy_em_eeprom.c ****                 else
 505:Generated_Source\PSoC5/cy_em_eeprom.c ****                 {
 506:Generated_Source\PSoC5/cy_em_eeprom.c ****                     /* Retrieve the address of the previously written row by its sequence number.
 507:Generated_Source\PSoC5/cy_em_eeprom.c ****                     * The pointer will be used to get data from the respective EEPROM header.
 508:Generated_Source\PSoC5/cy_em_eeprom.c ****                     */
 509:Generated_Source\PSoC5/cy_em_eeprom.c ****                     tmpRowAddr = GetRowAddrBySeqNum(i, context);
 510:Generated_Source\PSoC5/cy_em_eeprom.c ****                 }
 511:Generated_Source\PSoC5/cy_em_eeprom.c **** 
 512:Generated_Source\PSoC5/cy_em_eeprom.c ****                 actEmEepromRowNum = CY_EM_EEPROM_GET_ACT_ROW_NUM_FROM_ADDR(emEepromRowAddr,
 513:Generated_Source\PSoC5/cy_em_eeprom.c ****                                                                            context->numberOfRows,
 514:Generated_Source\PSoC5/cy_em_eeprom.c ****                                                                            context->userFlashStartA
 515:Generated_Source\PSoC5/cy_em_eeprom.c ****                 if(0UL != tmpRowAddr)
 516:Generated_Source\PSoC5/cy_em_eeprom.c ****                 {
 517:Generated_Source\PSoC5/cy_em_eeprom.c ****                     /* Calculate the required addressed for the later EEPROM historic data update *
 518:Generated_Source\PSoC5/cy_em_eeprom.c ****                     skipOperation = GetAddresses(
 519:Generated_Source\PSoC5/cy_em_eeprom.c ****                                               &startAddr,
 520:Generated_Source\PSoC5/cy_em_eeprom.c ****                                               &endAddr,
 521:Generated_Source\PSoC5/cy_em_eeprom.c ****                                               &eeHeaderDataOffset,
 522:Generated_Source\PSoC5/cy_em_eeprom.c ****                                               actEmEepromRowNum,
 523:Generated_Source\PSoC5/cy_em_eeprom.c ****                                               *(uint32 *)(tmpRowAddr + CY_EM_EEPROM_HEADER_ADDR_OFF
 524:Generated_Source\PSoC5/cy_em_eeprom.c ****                                               *(uint32 *)(tmpRowAddr + CY_EM_EEPROM_HEADER_LEN_OFFS
 525:Generated_Source\PSoC5/cy_em_eeprom.c ****                 }
 526:Generated_Source\PSoC5/cy_em_eeprom.c ****                 else
 527:Generated_Source\PSoC5/cy_em_eeprom.c ****                 {
 528:Generated_Source\PSoC5/cy_em_eeprom.c ****                     /* Skip writes to the RAM buffer */
 529:Generated_Source\PSoC5/cy_em_eeprom.c ****                     skipOperation++;
 530:Generated_Source\PSoC5/cy_em_eeprom.c ****                 }
 531:Generated_Source\PSoC5/cy_em_eeprom.c **** 
 532:Generated_Source\PSoC5/cy_em_eeprom.c ****                 /* Write data to the RAM buffer */
 533:Generated_Source\PSoC5/cy_em_eeprom.c ****                 if(0u == skipOperation)
 534:Generated_Source\PSoC5/cy_em_eeprom.c ****                 {
 535:Generated_Source\PSoC5/cy_em_eeprom.c ****                     uint32 dataAddr = ((uint32)((uint8 *)&writeRamBuffer)) + startAddr;
 536:Generated_Source\PSoC5/cy_em_eeprom.c **** 
 537:Generated_Source\PSoC5/cy_em_eeprom.c ****                     /* Update the address to point to the EEPROM header data and not to
 538:Generated_Source\PSoC5/cy_em_eeprom.c ****                     * the start of the row.
 539:Generated_Source\PSoC5/cy_em_eeprom.c ****                     */
 540:Generated_Source\PSoC5/cy_em_eeprom.c ****                     tmpRowAddr = tmpRowAddr + CY_EM_EEPROM_HEADER_DATA_OFFSET + eeHeaderDataOffset;
 541:Generated_Source\PSoC5/cy_em_eeprom.c ****                     (void)memcpy((void *)(dataAddr), (void *)(tmpRowAddr), endAddr - startAddr);
 542:Generated_Source\PSoC5/cy_em_eeprom.c ****                 }
 543:Generated_Source\PSoC5/cy_em_eeprom.c **** 
 544:Generated_Source\PSoC5/cy_em_eeprom.c ****                 /* Calculate the checksum if redundant copy is enabled */
ARM GAS  C:\Users\RABBIT~1\AppData\Local\Temp\ccgw4IdU.s 			page 11


 545:Generated_Source\PSoC5/cy_em_eeprom.c ****                 if(0u != context->redundantCopy)
 546:Generated_Source\PSoC5/cy_em_eeprom.c ****                 {
 547:Generated_Source\PSoC5/cy_em_eeprom.c ****                     writeRamBuffer[CY_EM_EEPROM_HEADER_CHECKSUM_OFFSET_U32] = (uint32)
 548:Generated_Source\PSoC5/cy_em_eeprom.c ****                         CalcChecksum((uint8 *) &writeRamBuffer[CY_EM_EEPROM_EEPROM_DATA_OFFSET_U32]
 549:Generated_Source\PSoC5/cy_em_eeprom.c ****                                                   CY_EM_EEPROM_EEPROM_DATA_LEN);
 550:Generated_Source\PSoC5/cy_em_eeprom.c ****                 }
 551:Generated_Source\PSoC5/cy_em_eeprom.c ****             }
 552:Generated_Source\PSoC5/cy_em_eeprom.c **** 
 553:Generated_Source\PSoC5/cy_em_eeprom.c ****             /* Write the data to the specified flash row */
 554:Generated_Source\PSoC5/cy_em_eeprom.c ****             ret = WriteRow(emEepromRowAddr, writeRamBuffer, context);
 555:Generated_Source\PSoC5/cy_em_eeprom.c ****             tmpRowAddr = emEepromRowAddr;
 556:Generated_Source\PSoC5/cy_em_eeprom.c **** 
 557:Generated_Source\PSoC5/cy_em_eeprom.c ****             /* Check if redundant copy is used */
 558:Generated_Source\PSoC5/cy_em_eeprom.c ****             if((0u != context->redundantCopy) && (CY_EM_EEPROM_SUCCESS == ret))
 559:Generated_Source\PSoC5/cy_em_eeprom.c ****             {
 560:Generated_Source\PSoC5/cy_em_eeprom.c ****                 /* Update the row address to point to the row in the redundant EEPROM's copy */
 561:Generated_Source\PSoC5/cy_em_eeprom.c ****                 tmpRowAddr = (emEepromRowAddr - context->userFlashStartAddr) + context->wlEndAddr;
 562:Generated_Source\PSoC5/cy_em_eeprom.c **** 
 563:Generated_Source\PSoC5/cy_em_eeprom.c ****                 /* Write the data to the specified flash row */
 564:Generated_Source\PSoC5/cy_em_eeprom.c ****                 ret = WriteRow(tmpRowAddr, writeRamBuffer, context);
 565:Generated_Source\PSoC5/cy_em_eeprom.c ****             }
 566:Generated_Source\PSoC5/cy_em_eeprom.c **** 
 567:Generated_Source\PSoC5/cy_em_eeprom.c ****             if(CY_EM_EEPROM_SUCCESS == ret)
 568:Generated_Source\PSoC5/cy_em_eeprom.c ****             {
 569:Generated_Source\PSoC5/cy_em_eeprom.c ****                 /* Store last written row address only when EEPROM and redundant
 570:Generated_Source\PSoC5/cy_em_eeprom.c ****                 * copy writes were successful.
 571:Generated_Source\PSoC5/cy_em_eeprom.c ****                 */
 572:Generated_Source\PSoC5/cy_em_eeprom.c ****                 context->lastWrRowAddr = emEepromRowAddr;
 573:Generated_Source\PSoC5/cy_em_eeprom.c ****             }
 574:Generated_Source\PSoC5/cy_em_eeprom.c ****             else
 575:Generated_Source\PSoC5/cy_em_eeprom.c ****             {
 576:Generated_Source\PSoC5/cy_em_eeprom.c ****                 break;
 577:Generated_Source\PSoC5/cy_em_eeprom.c ****             }
 578:Generated_Source\PSoC5/cy_em_eeprom.c ****         }
 579:Generated_Source\PSoC5/cy_em_eeprom.c ****     }
 580:Generated_Source\PSoC5/cy_em_eeprom.c ****     return(ret);
 581:Generated_Source\PSoC5/cy_em_eeprom.c **** }
 582:Generated_Source\PSoC5/cy_em_eeprom.c **** 
 583:Generated_Source\PSoC5/cy_em_eeprom.c **** 
 584:Generated_Source\PSoC5/cy_em_eeprom.c **** /*******************************************************************************
 585:Generated_Source\PSoC5/cy_em_eeprom.c **** * Function Name: Cy_Em_EEPROM_Erase
 586:Generated_Source\PSoC5/cy_em_eeprom.c **** ****************************************************************************//**
 587:Generated_Source\PSoC5/cy_em_eeprom.c **** *
 588:Generated_Source\PSoC5/cy_em_eeprom.c **** * This function erases the entire contents of the EEPROM. Erased values are all
 589:Generated_Source\PSoC5/cy_em_eeprom.c **** * zeros. This is a blocking function and it does not return until the write
 590:Generated_Source\PSoC5/cy_em_eeprom.c **** * operation is completed. The user firmware should not enter Hibernate mode until
 591:Generated_Source\PSoC5/cy_em_eeprom.c **** * erase is completed. The erase operation is allowed in Sleep and Deep-Sleep modes.
 592:Generated_Source\PSoC5/cy_em_eeprom.c **** * During the flash operation, the device should not be reset, including the
 593:Generated_Source\PSoC5/cy_em_eeprom.c **** * XRES pin, a software reset, and watchdog reset sources. Also, low-voltage
 594:Generated_Source\PSoC5/cy_em_eeprom.c **** * detect circuits should be configured to generate an interrupt instead of a
 595:Generated_Source\PSoC5/cy_em_eeprom.c **** * reset. Otherwise, portions of flash may undergo unexpected changes.
 596:Generated_Source\PSoC5/cy_em_eeprom.c **** *
 597:Generated_Source\PSoC5/cy_em_eeprom.c **** * \param context
 598:Generated_Source\PSoC5/cy_em_eeprom.c **** * The pointer to the EEPROM context structure \ref cy_stc_eeprom_context_t.
 599:Generated_Source\PSoC5/cy_em_eeprom.c **** *
 600:Generated_Source\PSoC5/cy_em_eeprom.c **** * \return
 601:Generated_Source\PSoC5/cy_em_eeprom.c **** * This function returns \ref cy_en_em_eeprom_status_t.
ARM GAS  C:\Users\RABBIT~1\AppData\Local\Temp\ccgw4IdU.s 			page 12


 602:Generated_Source\PSoC5/cy_em_eeprom.c **** *
 603:Generated_Source\PSoC5/cy_em_eeprom.c **** * \note
 604:Generated_Source\PSoC5/cy_em_eeprom.c **** * For all non PSoC 6 devices the erase operation is performed by clearing
 605:Generated_Source\PSoC5/cy_em_eeprom.c **** * the EEPROM data using flash write. This affects the flash durability.
 606:Generated_Source\PSoC5/cy_em_eeprom.c **** * So it is recommended to use this function in utmost case to prolongate
 607:Generated_Source\PSoC5/cy_em_eeprom.c **** * flash life.
 608:Generated_Source\PSoC5/cy_em_eeprom.c **** *
 609:Generated_Source\PSoC5/cy_em_eeprom.c **** * \note
 610:Generated_Source\PSoC5/cy_em_eeprom.c **** * This function uses a buffer of the flash row size to perform erase
 611:Generated_Source\PSoC5/cy_em_eeprom.c **** * operation. For the size of the row refer to the specific PSoC device
 612:Generated_Source\PSoC5/cy_em_eeprom.c **** * datasheet.
 613:Generated_Source\PSoC5/cy_em_eeprom.c **** *
 614:Generated_Source\PSoC5/cy_em_eeprom.c **** * \sideeffect
 615:Generated_Source\PSoC5/cy_em_eeprom.c **** * In case when blocking write option is used, if this function is called by
 616:Generated_Source\PSoC5/cy_em_eeprom.c **** * the CM4 the user code on CM0P and the user code on CM4 are blocked until erase
 617:Generated_Source\PSoC5/cy_em_eeprom.c **** * flash row operation is finished. If this function is called by the CM0P the
 618:Generated_Source\PSoC5/cy_em_eeprom.c **** * user code on CM4 is not blocked and the user code on CM0P is blocked until
 619:Generated_Source\PSoC5/cy_em_eeprom.c **** * erase flash row operation is finished. Plan your task allocation accordingly.
 620:Generated_Source\PSoC5/cy_em_eeprom.c **** *
 621:Generated_Source\PSoC5/cy_em_eeprom.c **** * \sideeffect
 622:Generated_Source\PSoC5/cy_em_eeprom.c **** * In case if non-blocking write option is used and when user flash is used as
 623:Generated_Source\PSoC5/cy_em_eeprom.c **** * an EEPROM storage care should be taken to prevent the read while write (RWW)
 624:Generated_Source\PSoC5/cy_em_eeprom.c **** * exception. To prevent the RWW exception the user flash macro that includes
 625:Generated_Source\PSoC5/cy_em_eeprom.c **** * the EEPROM storage should not be read while the EEPROM erase is not completed.
 626:Generated_Source\PSoC5/cy_em_eeprom.c **** * The read also means the user code execution from the respective flash macro.
 627:Generated_Source\PSoC5/cy_em_eeprom.c **** *
 628:Generated_Source\PSoC5/cy_em_eeprom.c **** *******************************************************************************/
 629:Generated_Source\PSoC5/cy_em_eeprom.c **** cy_en_em_eeprom_status_t Cy_Em_EEPROM_Erase(cy_stc_eeprom_context_t * context)
 630:Generated_Source\PSoC5/cy_em_eeprom.c **** {
 631:Generated_Source\PSoC5/cy_em_eeprom.c ****     uint32 i;
 632:Generated_Source\PSoC5/cy_em_eeprom.c ****     uint32 seqNum;
 633:Generated_Source\PSoC5/cy_em_eeprom.c ****     uint32 emEepromRowAddr = context->lastWrRowAddr;
 634:Generated_Source\PSoC5/cy_em_eeprom.c ****     uint32 emEepromRowRdAddr;
 635:Generated_Source\PSoC5/cy_em_eeprom.c ****     cy_en_em_eeprom_status_t ret = CY_EM_EEPROM_WRITE_FAIL;
 636:Generated_Source\PSoC5/cy_em_eeprom.c ****     uint32 writeRamBuffer[CY_EM_EEPROM_FLASH_SIZEOF_ROW / CY_EM_EEPROM_U32_DIV] = {0u};
 637:Generated_Source\PSoC5/cy_em_eeprom.c **** #if (CY_PSOC6)
 638:Generated_Source\PSoC5/cy_em_eeprom.c ****     uint32 emEepromStoredRowAddr = context->lastWrRowAddr;
 639:Generated_Source\PSoC5/cy_em_eeprom.c ****     uint32 storedSeqNum;
 640:Generated_Source\PSoC5/cy_em_eeprom.c **** #endif /* (!CY_PSOC6) */
 641:Generated_Source\PSoC5/cy_em_eeprom.c **** 
 642:Generated_Source\PSoC5/cy_em_eeprom.c ****     /* Get the sequence number of the last written row */
 643:Generated_Source\PSoC5/cy_em_eeprom.c ****     seqNum = CY_EM_EEPROM_GET_SEQ_NUM(emEepromRowAddr);
 644:Generated_Source\PSoC5/cy_em_eeprom.c **** 
 645:Generated_Source\PSoC5/cy_em_eeprom.c ****     /* If there were no writes to EEPROM - nothing to erase */
 646:Generated_Source\PSoC5/cy_em_eeprom.c ****     if(0u != seqNum)
 647:Generated_Source\PSoC5/cy_em_eeprom.c ****     {
 648:Generated_Source\PSoC5/cy_em_eeprom.c ****         /* Calculate the number of row erase operations required */
 649:Generated_Source\PSoC5/cy_em_eeprom.c ****         uint32 numWrites = context->numberOfRows * context->wearLevelingFactor;
 650:Generated_Source\PSoC5/cy_em_eeprom.c **** 
 651:Generated_Source\PSoC5/cy_em_eeprom.c ****     #if (CY_PSOC6)
 652:Generated_Source\PSoC5/cy_em_eeprom.c ****         GetNextRowToWrite(seqNum, &emEepromStoredRowAddr, &emEepromRowRdAddr, context);
 653:Generated_Source\PSoC5/cy_em_eeprom.c ****         storedSeqNum = seqNum + 1u;
 654:Generated_Source\PSoC5/cy_em_eeprom.c ****     #endif /* (CY_PSOC6) */
 655:Generated_Source\PSoC5/cy_em_eeprom.c **** 
 656:Generated_Source\PSoC5/cy_em_eeprom.c ****         if(0u != context->redundantCopy)
 657:Generated_Source\PSoC5/cy_em_eeprom.c ****         {
 658:Generated_Source\PSoC5/cy_em_eeprom.c ****             writeRamBuffer[CY_EM_EEPROM_HEADER_CHECKSUM_OFFSET_U32] = (uint32)
ARM GAS  C:\Users\RABBIT~1\AppData\Local\Temp\ccgw4IdU.s 			page 13


 659:Generated_Source\PSoC5/cy_em_eeprom.c ****                         CalcChecksum((uint8 *) &writeRamBuffer[CY_EM_EEPROM_EEPROM_DATA_OFFSET_U32]
 660:Generated_Source\PSoC5/cy_em_eeprom.c ****                                                   CY_EM_EEPROM_EEPROM_DATA_LEN);
 661:Generated_Source\PSoC5/cy_em_eeprom.c ****         }
 662:Generated_Source\PSoC5/cy_em_eeprom.c **** 
 663:Generated_Source\PSoC5/cy_em_eeprom.c ****         for(i = 0u; i < numWrites; i++)
 664:Generated_Source\PSoC5/cy_em_eeprom.c ****         {
 665:Generated_Source\PSoC5/cy_em_eeprom.c ****         #if (CY_PSOC6)
 666:Generated_Source\PSoC5/cy_em_eeprom.c ****             /* For PSoC 6 the erase operation moves backwards. From last written row
 667:Generated_Source\PSoC5/cy_em_eeprom.c ****             * identified by "seqNum" down to "seqNum" - "numWrites". If "emEepromRowAddr"
 668:Generated_Source\PSoC5/cy_em_eeprom.c ****             * is zero this means that the row identified by "seqNum" was previously 
 669:Generated_Source\PSoC5/cy_em_eeprom.c ****             * erased.
 670:Generated_Source\PSoC5/cy_em_eeprom.c ****             */
 671:Generated_Source\PSoC5/cy_em_eeprom.c ****             if(0u != emEepromRowAddr)
 672:Generated_Source\PSoC5/cy_em_eeprom.c ****             {
 673:Generated_Source\PSoC5/cy_em_eeprom.c ****                 ret = EraseRow(emEepromRowAddr, (uint32)writeRamBuffer, context);
 674:Generated_Source\PSoC5/cy_em_eeprom.c ****             }
 675:Generated_Source\PSoC5/cy_em_eeprom.c **** 
 676:Generated_Source\PSoC5/cy_em_eeprom.c ****             seqNum--;
 677:Generated_Source\PSoC5/cy_em_eeprom.c **** 
 678:Generated_Source\PSoC5/cy_em_eeprom.c ****             if(0u == seqNum)
 679:Generated_Source\PSoC5/cy_em_eeprom.c ****             {
 680:Generated_Source\PSoC5/cy_em_eeprom.c ****                 /* Exit the loop as there is no more row is EEPROM to be erased */
 681:Generated_Source\PSoC5/cy_em_eeprom.c ****                 break;
 682:Generated_Source\PSoC5/cy_em_eeprom.c ****             }
 683:Generated_Source\PSoC5/cy_em_eeprom.c ****             emEepromRowAddr = GetRowAddrBySeqNum(seqNum, context);
 684:Generated_Source\PSoC5/cy_em_eeprom.c ****         #else
 685:Generated_Source\PSoC5/cy_em_eeprom.c ****             seqNum = CY_EM_EEPROM_GET_SEQ_NUM(emEepromRowAddr);
 686:Generated_Source\PSoC5/cy_em_eeprom.c ****             /* Get the address of the row to be erased. "emEepromRowAddr" may be updated
 687:Generated_Source\PSoC5/cy_em_eeprom.c ****             * with the proper address (if wear leveling is used).
 688:Generated_Source\PSoC5/cy_em_eeprom.c ****             */
 689:Generated_Source\PSoC5/cy_em_eeprom.c ****             GetNextRowToWrite(seqNum, &emEepromRowAddr, &emEepromRowRdAddr, context);
 690:Generated_Source\PSoC5/cy_em_eeprom.c ****             seqNum++;
 691:Generated_Source\PSoC5/cy_em_eeprom.c ****             writeRamBuffer[0u] = seqNum;
 692:Generated_Source\PSoC5/cy_em_eeprom.c ****             ret = EraseRow(emEepromRowAddr, (uint32)writeRamBuffer, context);
 693:Generated_Source\PSoC5/cy_em_eeprom.c ****         #endif /* (CY_PSOC6) */
 694:Generated_Source\PSoC5/cy_em_eeprom.c ****         }
 695:Generated_Source\PSoC5/cy_em_eeprom.c **** 
 696:Generated_Source\PSoC5/cy_em_eeprom.c ****     #if (CY_PSOC6)
 697:Generated_Source\PSoC5/cy_em_eeprom.c ****         if(CY_EM_EEPROM_SUCCESS == ret)
 698:Generated_Source\PSoC5/cy_em_eeprom.c ****         {
 699:Generated_Source\PSoC5/cy_em_eeprom.c ****             writeRamBuffer[0u] = storedSeqNum;
 700:Generated_Source\PSoC5/cy_em_eeprom.c **** 
 701:Generated_Source\PSoC5/cy_em_eeprom.c ****             /* Write the previously stored sequence number to the flash row which would be
 702:Generated_Source\PSoC5/cy_em_eeprom.c ****             * written next if the erase wouldn't happen. In this case the write to
 703:Generated_Source\PSoC5/cy_em_eeprom.c ****             * redundant copy can be skipped as it does not add any value.
 704:Generated_Source\PSoC5/cy_em_eeprom.c ****             */
 705:Generated_Source\PSoC5/cy_em_eeprom.c ****             ret = WriteRow(emEepromStoredRowAddr, writeRamBuffer, context);
 706:Generated_Source\PSoC5/cy_em_eeprom.c **** 
 707:Generated_Source\PSoC5/cy_em_eeprom.c ****             if(CY_EM_EEPROM_SUCCESS == ret)
 708:Generated_Source\PSoC5/cy_em_eeprom.c ****             {
 709:Generated_Source\PSoC5/cy_em_eeprom.c ****                 context->lastWrRowAddr = emEepromStoredRowAddr;
 710:Generated_Source\PSoC5/cy_em_eeprom.c ****             }
 711:Generated_Source\PSoC5/cy_em_eeprom.c ****         }
 712:Generated_Source\PSoC5/cy_em_eeprom.c ****     #endif /* (CY_PSOC6) */
 713:Generated_Source\PSoC5/cy_em_eeprom.c **** 
 714:Generated_Source\PSoC5/cy_em_eeprom.c ****     }
 715:Generated_Source\PSoC5/cy_em_eeprom.c ****     return(ret);
ARM GAS  C:\Users\RABBIT~1\AppData\Local\Temp\ccgw4IdU.s 			page 14


 716:Generated_Source\PSoC5/cy_em_eeprom.c **** }
 717:Generated_Source\PSoC5/cy_em_eeprom.c **** 
 718:Generated_Source\PSoC5/cy_em_eeprom.c **** 
 719:Generated_Source\PSoC5/cy_em_eeprom.c **** /*******************************************************************************
 720:Generated_Source\PSoC5/cy_em_eeprom.c **** * Function Name: Cy_Em_EEPROM_NumWrites
 721:Generated_Source\PSoC5/cy_em_eeprom.c **** ****************************************************************************//**
 722:Generated_Source\PSoC5/cy_em_eeprom.c **** *
 723:Generated_Source\PSoC5/cy_em_eeprom.c **** * Returns the number of the EEPROM writes completed so far.
 724:Generated_Source\PSoC5/cy_em_eeprom.c **** *
 725:Generated_Source\PSoC5/cy_em_eeprom.c **** * \param context
 726:Generated_Source\PSoC5/cy_em_eeprom.c **** * The pointer to the EEPROM context structure \ref cy_stc_eeprom_context_t.
 727:Generated_Source\PSoC5/cy_em_eeprom.c **** *
 728:Generated_Source\PSoC5/cy_em_eeprom.c **** * \return
 729:Generated_Source\PSoC5/cy_em_eeprom.c **** * The number of writes performed to the EEPROM.
 730:Generated_Source\PSoC5/cy_em_eeprom.c **** *
 731:Generated_Source\PSoC5/cy_em_eeprom.c **** *******************************************************************************/
 732:Generated_Source\PSoC5/cy_em_eeprom.c **** uint32 Cy_Em_EEPROM_NumWrites(cy_stc_eeprom_context_t * context)
 733:Generated_Source\PSoC5/cy_em_eeprom.c **** {
 734:Generated_Source\PSoC5/cy_em_eeprom.c ****     return(CY_EM_EEPROM_GET_SEQ_NUM(context->lastWrRowAddr));
 735:Generated_Source\PSoC5/cy_em_eeprom.c **** }
 736:Generated_Source\PSoC5/cy_em_eeprom.c **** 
 737:Generated_Source\PSoC5/cy_em_eeprom.c **** /** \} */
 738:Generated_Source\PSoC5/cy_em_eeprom.c **** 
 739:Generated_Source\PSoC5/cy_em_eeprom.c **** /** \cond INTERNAL */
 740:Generated_Source\PSoC5/cy_em_eeprom.c **** 
 741:Generated_Source\PSoC5/cy_em_eeprom.c **** 
 742:Generated_Source\PSoC5/cy_em_eeprom.c **** /*******************************************************************************
 743:Generated_Source\PSoC5/cy_em_eeprom.c **** * Function Name: FindLastWrittenRow
 744:Generated_Source\PSoC5/cy_em_eeprom.c **** ****************************************************************************//**
 745:Generated_Source\PSoC5/cy_em_eeprom.c **** *
 746:Generated_Source\PSoC5/cy_em_eeprom.c **** * Performs a search of the last written row address of the EEPROM associated
 747:Generated_Source\PSoC5/cy_em_eeprom.c **** * with the context structure. If there were no writes to the EEPROM the
 748:Generated_Source\PSoC5/cy_em_eeprom.c **** * function returns the start address of the EEPROM. The row address is returned
 749:Generated_Source\PSoC5/cy_em_eeprom.c **** * in the input parameter.
 750:Generated_Source\PSoC5/cy_em_eeprom.c **** *
 751:Generated_Source\PSoC5/cy_em_eeprom.c **** * \param lastWrRowPtr
 752:Generated_Source\PSoC5/cy_em_eeprom.c **** * The pointer to a memory where the last written row will be returned.
 753:Generated_Source\PSoC5/cy_em_eeprom.c **** *
 754:Generated_Source\PSoC5/cy_em_eeprom.c **** * \param context
 755:Generated_Source\PSoC5/cy_em_eeprom.c **** * The pointer to the EEPROM context structure \ref cy_stc_eeprom_context_t.
 756:Generated_Source\PSoC5/cy_em_eeprom.c **** *
 757:Generated_Source\PSoC5/cy_em_eeprom.c **** *******************************************************************************/
 758:Generated_Source\PSoC5/cy_em_eeprom.c **** static void FindLastWrittenRow(uint32 * lastWrRowPtr, cy_stc_eeprom_context_t * context)
 759:Generated_Source\PSoC5/cy_em_eeprom.c **** {
  27              		.loc 1 759 0
  28              		.cfi_startproc
  29              		@ args = 0, pretend = 0, frame = 0
  30              		@ frame_needed = 0, uses_anonymous_args = 0
  31              	.LVL0:
 760:Generated_Source\PSoC5/cy_em_eeprom.c ****     uint32 seqNum = 0u;
 761:Generated_Source\PSoC5/cy_em_eeprom.c ****     uint32 prevSeqNum = 0u;
 762:Generated_Source\PSoC5/cy_em_eeprom.c ****     uint32 numRows;
 763:Generated_Source\PSoC5/cy_em_eeprom.c ****     uint32 emEepromAddr = context->userFlashStartAddr;
 764:Generated_Source\PSoC5/cy_em_eeprom.c **** 
 765:Generated_Source\PSoC5/cy_em_eeprom.c ****     *lastWrRowPtr = emEepromAddr;
 766:Generated_Source\PSoC5/cy_em_eeprom.c **** 
 767:Generated_Source\PSoC5/cy_em_eeprom.c ****     for(numRows = 0u; numRows < (context->numberOfRows * context->wearLevelingFactor); numRows++)
ARM GAS  C:\Users\RABBIT~1\AppData\Local\Temp\ccgw4IdU.s 			page 15


  32              		.loc 1 767 0
  33 0000 0022     		movs	r2, #0
 759:Generated_Source\PSoC5/cy_em_eeprom.c ****     uint32 seqNum = 0u;
  34              		.loc 1 759 0
  35 0002 70B5     		push	{r4, r5, r6, lr}
  36              		.cfi_def_cfa_offset 16
  37              		.cfi_offset 4, -16
  38              		.cfi_offset 5, -12
  39              		.cfi_offset 6, -8
  40              		.cfi_offset 14, -4
 761:Generated_Source\PSoC5/cy_em_eeprom.c ****     uint32 numRows;
  41              		.loc 1 761 0
  42 0004 1546     		mov	r5, r2
 763:Generated_Source\PSoC5/cy_em_eeprom.c **** 
  43              		.loc 1 763 0
  44 0006 8B69     		ldr	r3, [r1, #24]
  45              	.LVL1:
 765:Generated_Source\PSoC5/cy_em_eeprom.c **** 
  46              		.loc 1 765 0
  47 0008 0360     		str	r3, [r0]
  48              	.LVL2:
  49              	.L2:
  50              		.loc 1 767 0 discriminator 1
  51 000a 4E68     		ldr	r6, [r1, #4]
  52 000c 0C69     		ldr	r4, [r1, #16]
  53 000e 7443     		muls	r4, r6, r4
  54 0010 A242     		cmp	r2, r4
  55 0012 09D2     		bcs	.L9
 768:Generated_Source\PSoC5/cy_em_eeprom.c ****     {
 769:Generated_Source\PSoC5/cy_em_eeprom.c ****         seqNum = CY_EM_EEPROM_GET_SEQ_NUM(emEepromAddr);
  56              		.loc 1 769 0
  57 0014 1C68     		ldr	r4, [r3]
  58              	.LVL3:
 770:Generated_Source\PSoC5/cy_em_eeprom.c ****         if((0u != seqNum) && (seqNum > prevSeqNum))
  59              		.loc 1 770 0
  60 0016 1CB1     		cbz	r4, .L3
  61              		.loc 1 770 0 is_stmt 0 discriminator 1
  62 0018 A542     		cmp	r5, r4
  63              	.LVL4:
 771:Generated_Source\PSoC5/cy_em_eeprom.c ****         {
 772:Generated_Source\PSoC5/cy_em_eeprom.c ****             /* Some record in EEPROM was found. Store found sequence
 773:Generated_Source\PSoC5/cy_em_eeprom.c ****             * number and row address.
 774:Generated_Source\PSoC5/cy_em_eeprom.c ****             */
 775:Generated_Source\PSoC5/cy_em_eeprom.c ****             prevSeqNum = seqNum;
 776:Generated_Source\PSoC5/cy_em_eeprom.c ****             *lastWrRowPtr = emEepromAddr;
  64              		.loc 1 776 0 is_stmt 1 discriminator 1
  65 001a 3CBF     		itt	cc
  66 001c 2546     		movcc	r5, r4
  67 001e 0360     		strcc	r3, [r0]
  68              	.LVL5:
  69              	.L3:
 777:Generated_Source\PSoC5/cy_em_eeprom.c ****         }
 778:Generated_Source\PSoC5/cy_em_eeprom.c **** 
 779:Generated_Source\PSoC5/cy_em_eeprom.c ****         /* Switch to the next row */
 780:Generated_Source\PSoC5/cy_em_eeprom.c ****         emEepromAddr = emEepromAddr + CY_EM_EEPROM_FLASH_SIZEOF_ROW;
  70              		.loc 1 780 0 discriminator 2
  71 0020 03F58073 		add	r3, r3, #256
ARM GAS  C:\Users\RABBIT~1\AppData\Local\Temp\ccgw4IdU.s 			page 16


  72              	.LVL6:
 767:Generated_Source\PSoC5/cy_em_eeprom.c ****     {
  73              		.loc 1 767 0 discriminator 2
  74 0024 0132     		adds	r2, r2, #1
  75              	.LVL7:
  76 0026 F0E7     		b	.L2
  77              	.LVL8:
  78              	.L9:
 781:Generated_Source\PSoC5/cy_em_eeprom.c ****     }
 782:Generated_Source\PSoC5/cy_em_eeprom.c **** }
  79              		.loc 1 782 0
  80 0028 70BD     		pop	{r4, r5, r6, pc}
  81              		.cfi_endproc
  82              	.LFE5:
  83              		.size	FindLastWrittenRow, .-FindLastWrittenRow
  84              		.section	.text.GetNextRowToWrite,"ax",%progbits
  85              		.align	1
  86              		.thumb
  87              		.thumb_func
  88              		.type	GetNextRowToWrite, %function
  89              	GetNextRowToWrite:
  90              	.LFB7:
 783:Generated_Source\PSoC5/cy_em_eeprom.c **** 
 784:Generated_Source\PSoC5/cy_em_eeprom.c **** 
 785:Generated_Source\PSoC5/cy_em_eeprom.c **** /*******************************************************************************
 786:Generated_Source\PSoC5/cy_em_eeprom.c **** * Function Name: GetRowAddrBySeqNum
 787:Generated_Source\PSoC5/cy_em_eeprom.c **** ****************************************************************************//**
 788:Generated_Source\PSoC5/cy_em_eeprom.c **** *
 789:Generated_Source\PSoC5/cy_em_eeprom.c **** * Returns the address of the row in EEPROM using its sequence number.
 790:Generated_Source\PSoC5/cy_em_eeprom.c **** *
 791:Generated_Source\PSoC5/cy_em_eeprom.c **** * \param seqNum
 792:Generated_Source\PSoC5/cy_em_eeprom.c **** * The sequence number of the row.
 793:Generated_Source\PSoC5/cy_em_eeprom.c **** *
 794:Generated_Source\PSoC5/cy_em_eeprom.c **** * \param context
 795:Generated_Source\PSoC5/cy_em_eeprom.c **** * The pointer to the EEPROM context structure.
 796:Generated_Source\PSoC5/cy_em_eeprom.c **** *
 797:Generated_Source\PSoC5/cy_em_eeprom.c **** * \return
 798:Generated_Source\PSoC5/cy_em_eeprom.c **** * The address of the row or zero if the row with the sequence number was not
 799:Generated_Source\PSoC5/cy_em_eeprom.c **** * found.
 800:Generated_Source\PSoC5/cy_em_eeprom.c **** *
 801:Generated_Source\PSoC5/cy_em_eeprom.c **** *******************************************************************************/
 802:Generated_Source\PSoC5/cy_em_eeprom.c **** static uint32 GetRowAddrBySeqNum(uint32 seqNum, cy_stc_eeprom_context_t * context)
 803:Generated_Source\PSoC5/cy_em_eeprom.c **** {
 804:Generated_Source\PSoC5/cy_em_eeprom.c ****     uint32 emEepromAddr = context->userFlashStartAddr;
 805:Generated_Source\PSoC5/cy_em_eeprom.c **** 
 806:Generated_Source\PSoC5/cy_em_eeprom.c ****     while(CY_EM_EEPROM_GET_SEQ_NUM(emEepromAddr) != seqNum)
 807:Generated_Source\PSoC5/cy_em_eeprom.c ****     {
 808:Generated_Source\PSoC5/cy_em_eeprom.c ****         /* Switch to the next row */
 809:Generated_Source\PSoC5/cy_em_eeprom.c ****         emEepromAddr = emEepromAddr + CY_EM_EEPROM_FLASH_SIZEOF_ROW;
 810:Generated_Source\PSoC5/cy_em_eeprom.c **** 
 811:Generated_Source\PSoC5/cy_em_eeprom.c ****         if (CY_EM_EEPROM_ADDR_IN_RANGE !=
 812:Generated_Source\PSoC5/cy_em_eeprom.c ****             CY_EM_EEPROM_IS_ADDR_EXCEED_RANGE(emEepromAddr, context->wlEndAddr))
 813:Generated_Source\PSoC5/cy_em_eeprom.c ****         {
 814:Generated_Source\PSoC5/cy_em_eeprom.c ****             emEepromAddr = 0u;
 815:Generated_Source\PSoC5/cy_em_eeprom.c ****             /* Exit the loop as we reached the end of EEPROM */
 816:Generated_Source\PSoC5/cy_em_eeprom.c ****             break;
 817:Generated_Source\PSoC5/cy_em_eeprom.c ****         }
ARM GAS  C:\Users\RABBIT~1\AppData\Local\Temp\ccgw4IdU.s 			page 17


 818:Generated_Source\PSoC5/cy_em_eeprom.c ****     }
 819:Generated_Source\PSoC5/cy_em_eeprom.c **** 
 820:Generated_Source\PSoC5/cy_em_eeprom.c ****     return (emEepromAddr);
 821:Generated_Source\PSoC5/cy_em_eeprom.c **** }
 822:Generated_Source\PSoC5/cy_em_eeprom.c **** 
 823:Generated_Source\PSoC5/cy_em_eeprom.c **** 
 824:Generated_Source\PSoC5/cy_em_eeprom.c **** /*******************************************************************************
 825:Generated_Source\PSoC5/cy_em_eeprom.c **** * Function Name: GetNextRowToWrite
 826:Generated_Source\PSoC5/cy_em_eeprom.c **** ****************************************************************************//**
 827:Generated_Source\PSoC5/cy_em_eeprom.c **** *
 828:Generated_Source\PSoC5/cy_em_eeprom.c **** * Performs a range check of the row that should be written and updates the
 829:Generated_Source\PSoC5/cy_em_eeprom.c **** * address to the row respectively. The similar actions are done for the read
 830:Generated_Source\PSoC5/cy_em_eeprom.c **** * address.
 831:Generated_Source\PSoC5/cy_em_eeprom.c **** *
 832:Generated_Source\PSoC5/cy_em_eeprom.c **** * \param seqNum
 833:Generated_Source\PSoC5/cy_em_eeprom.c **** * The sequence number of the last written row.
 834:Generated_Source\PSoC5/cy_em_eeprom.c **** *
 835:Generated_Source\PSoC5/cy_em_eeprom.c **** * \param rowToWrPtr
 836:Generated_Source\PSoC5/cy_em_eeprom.c **** * The address of the last written row (input). The address of the row to be 
 837:Generated_Source\PSoC5/cy_em_eeprom.c **** * written (output).
 838:Generated_Source\PSoC5/cy_em_eeprom.c **** *
 839:Generated_Source\PSoC5/cy_em_eeprom.c **** * \param rowToRdPtr
 840:Generated_Source\PSoC5/cy_em_eeprom.c **** * The address of the row from which the data should be read into the RAM buffer
 841:Generated_Source\PSoC5/cy_em_eeprom.c **** * in a later write operation. Out parameter.
 842:Generated_Source\PSoC5/cy_em_eeprom.c **** *
 843:Generated_Source\PSoC5/cy_em_eeprom.c **** * \param context
 844:Generated_Source\PSoC5/cy_em_eeprom.c **** * The pointer to the EEPROM context structure \ref cy_stc_eeprom_context_t.
 845:Generated_Source\PSoC5/cy_em_eeprom.c **** *
 846:Generated_Source\PSoC5/cy_em_eeprom.c **** *******************************************************************************/
 847:Generated_Source\PSoC5/cy_em_eeprom.c **** static void GetNextRowToWrite(uint32 seqNum,
 848:Generated_Source\PSoC5/cy_em_eeprom.c ****                             uint32 * rowToWrPtr,
 849:Generated_Source\PSoC5/cy_em_eeprom.c ****                             uint32 * rowToRdPtr,
 850:Generated_Source\PSoC5/cy_em_eeprom.c ****                             cy_stc_eeprom_context_t * context)
 851:Generated_Source\PSoC5/cy_em_eeprom.c **** {
  91              		.loc 1 851 0
  92              		.cfi_startproc
  93              		@ args = 0, pretend = 0, frame = 0
  94              		@ frame_needed = 0, uses_anonymous_args = 0
  95              	.LVL9:
  96 0000 30B5     		push	{r4, r5, lr}
  97              		.cfi_def_cfa_offset 12
  98              		.cfi_offset 4, -12
  99              		.cfi_offset 5, -8
 100              		.cfi_offset 14, -4
 852:Generated_Source\PSoC5/cy_em_eeprom.c ****     /* Switch to the next row to be written if the current sequence number is
 853:Generated_Source\PSoC5/cy_em_eeprom.c ****     * not zero.
 854:Generated_Source\PSoC5/cy_em_eeprom.c ****     */
 855:Generated_Source\PSoC5/cy_em_eeprom.c ****     if(0u != seqNum)
 101              		.loc 1 855 0
 102 0002 18B1     		cbz	r0, .L11
 856:Generated_Source\PSoC5/cy_em_eeprom.c ****     {
 857:Generated_Source\PSoC5/cy_em_eeprom.c ****         *rowToWrPtr = (*rowToWrPtr + CY_EM_EEPROM_FLASH_SIZEOF_ROW);
 103              		.loc 1 857 0
 104 0004 0C68     		ldr	r4, [r1]
 105 0006 04F58074 		add	r4, r4, #256
 106 000a 0C60     		str	r4, [r1]
 107              	.L11:
ARM GAS  C:\Users\RABBIT~1\AppData\Local\Temp\ccgw4IdU.s 			page 18


 858:Generated_Source\PSoC5/cy_em_eeprom.c ****     }
 859:Generated_Source\PSoC5/cy_em_eeprom.c **** 
 860:Generated_Source\PSoC5/cy_em_eeprom.c ****     /* If the resulting row address is out of EEPROM, then switch to the base
 861:Generated_Source\PSoC5/cy_em_eeprom.c ****     * EEPROM address (Row#0).
 862:Generated_Source\PSoC5/cy_em_eeprom.c ****     */
 863:Generated_Source\PSoC5/cy_em_eeprom.c ****     if(CY_EM_EEPROM_ADDR_IN_RANGE !=
 108              		.loc 1 863 0
 109 000c 1C68     		ldr	r4, [r3]
 110 000e 0D68     		ldr	r5, [r1]
 111 0010 A542     		cmp	r5, r4
 864:Generated_Source\PSoC5/cy_em_eeprom.c ****             CY_EM_EEPROM_IS_ADDR_EXCEED_RANGE(*rowToWrPtr, context->wlEndAddr))
 865:Generated_Source\PSoC5/cy_em_eeprom.c ****     {
 866:Generated_Source\PSoC5/cy_em_eeprom.c ****         *rowToWrPtr = context->userFlashStartAddr;
 112              		.loc 1 866 0
 113 0012 24BF     		itt	cs
 114 0014 9C69     		ldrcs	r4, [r3, #24]
 115 0016 0C60     		strcs	r4, [r1]
 867:Generated_Source\PSoC5/cy_em_eeprom.c ****     }
 868:Generated_Source\PSoC5/cy_em_eeprom.c **** 
 869:Generated_Source\PSoC5/cy_em_eeprom.c ****     *rowToRdPtr = 0u;
 116              		.loc 1 869 0
 117 0018 0024     		movs	r4, #0
 118 001a 1460     		str	r4, [r2]
 870:Generated_Source\PSoC5/cy_em_eeprom.c **** 
 871:Generated_Source\PSoC5/cy_em_eeprom.c ****     /* Check if the sequence number is larger than the number of rows in the EEPROM.
 872:Generated_Source\PSoC5/cy_em_eeprom.c ****     * If not, do not update the row read address because there is no historic
 873:Generated_Source\PSoC5/cy_em_eeprom.c ****     * data to be read.
 874:Generated_Source\PSoC5/cy_em_eeprom.c ****     */
 875:Generated_Source\PSoC5/cy_em_eeprom.c ****     if(context->numberOfRows <= seqNum)
 119              		.loc 1 875 0
 120 001c 5C68     		ldr	r4, [r3, #4]
 121 001e A042     		cmp	r0, r4
 122 0020 13D3     		bcc	.L10
 876:Generated_Source\PSoC5/cy_em_eeprom.c ****     {
 877:Generated_Source\PSoC5/cy_em_eeprom.c ****         /* Check if wear leveling is used in EEPROM */
 878:Generated_Source\PSoC5/cy_em_eeprom.c ****         if(context->wearLevelingFactor > 1u)
 123              		.loc 1 878 0
 124 0022 1869     		ldr	r0, [r3, #16]
 125              	.LVL10:
 126 0024 0D68     		ldr	r5, [r1]
 127 0026 0128     		cmp	r0, #1
 128 0028 0ED9     		bls	.L14
 879:Generated_Source\PSoC5/cy_em_eeprom.c ****         {
 880:Generated_Source\PSoC5/cy_em_eeprom.c ****             /* The read row address should be taken from an EEPROM copy that became
 881:Generated_Source\PSoC5/cy_em_eeprom.c ****             * inactive recently. This condition check handles that.
 882:Generated_Source\PSoC5/cy_em_eeprom.c ****             */
 883:Generated_Source\PSoC5/cy_em_eeprom.c ****             if((*rowToWrPtr - (context->numberOfRows * CY_EM_EEPROM_FLASH_SIZEOF_ROW)) <
 129              		.loc 1 883 0
 130 002a 9B69     		ldr	r3, [r3, #24]
 131              	.LVL11:
 132 002c 2102     		lsls	r1, r4, #8
 133              	.LVL12:
 134 002e 6C1A     		subs	r4, r5, r1
 135 0030 9C42     		cmp	r4, r3
 884:Generated_Source\PSoC5/cy_em_eeprom.c ****                 context->userFlashStartAddr)
 885:Generated_Source\PSoC5/cy_em_eeprom.c ****             {
 886:Generated_Source\PSoC5/cy_em_eeprom.c ****                 *rowToRdPtr = context->userFlashStartAddr +
ARM GAS  C:\Users\RABBIT~1\AppData\Local\Temp\ccgw4IdU.s 			page 19


 136              		.loc 1 886 0
 137 0032 3DBF     		ittte	cc
 138 0034 00F1FF13 		addcc	r3, r0, #16711935
 139 0038 03F57F43 		addcc	r3, r3, #65280
 140 003c 01FB0353 		mlacc	r3, r1, r3, r5
 887:Generated_Source\PSoC5/cy_em_eeprom.c ****                     (context->numberOfRows * (context->wearLevelingFactor - 1u) *
 888:Generated_Source\PSoC5/cy_em_eeprom.c ****                         CY_EM_EEPROM_FLASH_SIZEOF_ROW) + (*rowToWrPtr - context->userFlashStartAddr
 889:Generated_Source\PSoC5/cy_em_eeprom.c ****             }
 890:Generated_Source\PSoC5/cy_em_eeprom.c ****             else
 891:Generated_Source\PSoC5/cy_em_eeprom.c ****             {
 892:Generated_Source\PSoC5/cy_em_eeprom.c ****                 *rowToRdPtr = *rowToWrPtr - (context->numberOfRows * CY_EM_EEPROM_FLASH_SIZEOF_ROW)
 141              		.loc 1 892 0
 142 0040 1460     		strcs	r4, [r2]
 886:Generated_Source\PSoC5/cy_em_eeprom.c ****                     (context->numberOfRows * (context->wearLevelingFactor - 1u) *
 143              		.loc 1 886 0
 144 0042 38BF     		it	cc
 145 0044 1360     		strcc	r3, [r2]
 146 0046 30BD     		pop	{r4, r5, pc}
 147              	.LVL13:
 148              	.L14:
 893:Generated_Source\PSoC5/cy_em_eeprom.c ****             }
 894:Generated_Source\PSoC5/cy_em_eeprom.c ****         }
 895:Generated_Source\PSoC5/cy_em_eeprom.c ****         else
 896:Generated_Source\PSoC5/cy_em_eeprom.c ****         {
 897:Generated_Source\PSoC5/cy_em_eeprom.c ****             /* If no wear leveling, always read from the same flash row that
 898:Generated_Source\PSoC5/cy_em_eeprom.c ****             * should be written.
 899:Generated_Source\PSoC5/cy_em_eeprom.c ****             */
 900:Generated_Source\PSoC5/cy_em_eeprom.c ****             *rowToRdPtr = *rowToWrPtr;
 149              		.loc 1 900 0
 150 0048 1560     		str	r5, [r2]
 151              	.L10:
 152 004a 30BD     		pop	{r4, r5, pc}
 153              		.cfi_endproc
 154              	.LFE7:
 155              		.size	GetNextRowToWrite, .-GetNextRowToWrite
 156              		.section	.text.WriteRow.isra.0,"ax",%progbits
 157              		.align	1
 158              		.thumb
 159              		.thumb_func
 160              		.type	WriteRow.isra.0, %function
 161              	WriteRow.isra.0:
 162              	.LFB15:
 901:Generated_Source\PSoC5/cy_em_eeprom.c ****         }
 902:Generated_Source\PSoC5/cy_em_eeprom.c ****     }
 903:Generated_Source\PSoC5/cy_em_eeprom.c **** }
 904:Generated_Source\PSoC5/cy_em_eeprom.c **** 
 905:Generated_Source\PSoC5/cy_em_eeprom.c **** 
 906:Generated_Source\PSoC5/cy_em_eeprom.c **** /*******************************************************************************
 907:Generated_Source\PSoC5/cy_em_eeprom.c **** * Function Name: CalcChecksum
 908:Generated_Source\PSoC5/cy_em_eeprom.c **** ****************************************************************************//**
 909:Generated_Source\PSoC5/cy_em_eeprom.c **** *
 910:Generated_Source\PSoC5/cy_em_eeprom.c **** * Implements CRC-8 that is used in checksum calculation for the redundant copy
 911:Generated_Source\PSoC5/cy_em_eeprom.c **** * algorithm.
 912:Generated_Source\PSoC5/cy_em_eeprom.c **** *
 913:Generated_Source\PSoC5/cy_em_eeprom.c **** * \param rowData
 914:Generated_Source\PSoC5/cy_em_eeprom.c **** * The row data to be used to calculate the checksum.
 915:Generated_Source\PSoC5/cy_em_eeprom.c **** *
ARM GAS  C:\Users\RABBIT~1\AppData\Local\Temp\ccgw4IdU.s 			page 20


 916:Generated_Source\PSoC5/cy_em_eeprom.c **** * \param len
 917:Generated_Source\PSoC5/cy_em_eeprom.c **** * The length of rowData.
 918:Generated_Source\PSoC5/cy_em_eeprom.c **** *
 919:Generated_Source\PSoC5/cy_em_eeprom.c **** * \return
 920:Generated_Source\PSoC5/cy_em_eeprom.c **** * The calculated value of CRC-8.
 921:Generated_Source\PSoC5/cy_em_eeprom.c **** *
 922:Generated_Source\PSoC5/cy_em_eeprom.c **** *******************************************************************************/
 923:Generated_Source\PSoC5/cy_em_eeprom.c **** static uint8 CalcChecksum(uint8 rowData[], uint32 len)
 924:Generated_Source\PSoC5/cy_em_eeprom.c **** {
 925:Generated_Source\PSoC5/cy_em_eeprom.c ****     uint8 crc = CY_EM_EEPROM_CRC8_SEED;
 926:Generated_Source\PSoC5/cy_em_eeprom.c ****     uint8 i;
 927:Generated_Source\PSoC5/cy_em_eeprom.c ****     uint16 cnt = 0u;
 928:Generated_Source\PSoC5/cy_em_eeprom.c **** 
 929:Generated_Source\PSoC5/cy_em_eeprom.c ****     while(cnt != len)
 930:Generated_Source\PSoC5/cy_em_eeprom.c ****     {
 931:Generated_Source\PSoC5/cy_em_eeprom.c ****         crc ^= rowData[cnt];
 932:Generated_Source\PSoC5/cy_em_eeprom.c ****         for (i = 0u; i < CY_EM_EEPROM_CRC8_POLYNOM_LEN; i++)
 933:Generated_Source\PSoC5/cy_em_eeprom.c ****         {
 934:Generated_Source\PSoC5/cy_em_eeprom.c ****             crc = CY_EM_EEPROM_CALCULATE_CRC8(crc);
 935:Generated_Source\PSoC5/cy_em_eeprom.c ****         }
 936:Generated_Source\PSoC5/cy_em_eeprom.c ****         cnt++;
 937:Generated_Source\PSoC5/cy_em_eeprom.c ****     }
 938:Generated_Source\PSoC5/cy_em_eeprom.c **** 
 939:Generated_Source\PSoC5/cy_em_eeprom.c ****     return (crc);
 940:Generated_Source\PSoC5/cy_em_eeprom.c **** }
 941:Generated_Source\PSoC5/cy_em_eeprom.c **** 
 942:Generated_Source\PSoC5/cy_em_eeprom.c **** 
 943:Generated_Source\PSoC5/cy_em_eeprom.c **** /*******************************************************************************
 944:Generated_Source\PSoC5/cy_em_eeprom.c **** * Function Name: CheckRanges
 945:Generated_Source\PSoC5/cy_em_eeprom.c **** ****************************************************************************//**
 946:Generated_Source\PSoC5/cy_em_eeprom.c **** *
 947:Generated_Source\PSoC5/cy_em_eeprom.c **** * Checks if the EEPROM of the requested size can be placed in flash.
 948:Generated_Source\PSoC5/cy_em_eeprom.c **** *
 949:Generated_Source\PSoC5/cy_em_eeprom.c **** * \param config
 950:Generated_Source\PSoC5/cy_em_eeprom.c **** * The pointer to a configuration structure. See \ref cy_stc_eeprom_config_t.
 951:Generated_Source\PSoC5/cy_em_eeprom.c **** *
 952:Generated_Source\PSoC5/cy_em_eeprom.c **** * \return
 953:Generated_Source\PSoC5/cy_em_eeprom.c **** * error / status code. See \ref cy_en_em_eeprom_status_t.
 954:Generated_Source\PSoC5/cy_em_eeprom.c **** *
 955:Generated_Source\PSoC5/cy_em_eeprom.c **** *******************************************************************************/
 956:Generated_Source\PSoC5/cy_em_eeprom.c **** static cy_en_em_eeprom_status_t CheckRanges(cy_stc_eeprom_config_t* config)
 957:Generated_Source\PSoC5/cy_em_eeprom.c **** {
 958:Generated_Source\PSoC5/cy_em_eeprom.c ****     cy_en_em_eeprom_status_t ret = CY_EM_EEPROM_BAD_DATA;
 959:Generated_Source\PSoC5/cy_em_eeprom.c ****     uint32 startAddr = config->userFlashStartAddr;
 960:Generated_Source\PSoC5/cy_em_eeprom.c ****     uint32 endAddr = startAddr + CY_EM_EEPROM_GET_PHYSICAL_SIZE(config->eepromSize,
 961:Generated_Source\PSoC5/cy_em_eeprom.c ****             config->wearLevelingFactor, config->redundantCopy);
 962:Generated_Source\PSoC5/cy_em_eeprom.c **** 
 963:Generated_Source\PSoC5/cy_em_eeprom.c ****     /* Range check if there is enough flash for EEPROM */
 964:Generated_Source\PSoC5/cy_em_eeprom.c ****     if (CY_EM_EEPROM_IS_IN_FLASH_RANGE(startAddr, endAddr))
 965:Generated_Source\PSoC5/cy_em_eeprom.c ****     {
 966:Generated_Source\PSoC5/cy_em_eeprom.c ****         ret = CY_EM_EEPROM_SUCCESS;
 967:Generated_Source\PSoC5/cy_em_eeprom.c ****     }
 968:Generated_Source\PSoC5/cy_em_eeprom.c ****     return (ret);
 969:Generated_Source\PSoC5/cy_em_eeprom.c **** }
 970:Generated_Source\PSoC5/cy_em_eeprom.c **** 
 971:Generated_Source\PSoC5/cy_em_eeprom.c **** 
 972:Generated_Source\PSoC5/cy_em_eeprom.c **** /*******************************************************************************
ARM GAS  C:\Users\RABBIT~1\AppData\Local\Temp\ccgw4IdU.s 			page 21


 973:Generated_Source\PSoC5/cy_em_eeprom.c **** * Function Name: WriteRow
 974:Generated_Source\PSoC5/cy_em_eeprom.c **** ****************************************************************************//**
 975:Generated_Source\PSoC5/cy_em_eeprom.c **** *
 976:Generated_Source\PSoC5/cy_em_eeprom.c **** * Writes one flash row starting from the specified row address.
 977:Generated_Source\PSoC5/cy_em_eeprom.c **** *
 978:Generated_Source\PSoC5/cy_em_eeprom.c **** * \param rowAdd
 979:Generated_Source\PSoC5/cy_em_eeprom.c **** * The address of the flash row.
 980:Generated_Source\PSoC5/cy_em_eeprom.c **** *
 981:Generated_Source\PSoC5/cy_em_eeprom.c **** * \param rowData
 982:Generated_Source\PSoC5/cy_em_eeprom.c **** * The pointer to the data to be written to the row.
 983:Generated_Source\PSoC5/cy_em_eeprom.c **** *
 984:Generated_Source\PSoC5/cy_em_eeprom.c **** * \param context
 985:Generated_Source\PSoC5/cy_em_eeprom.c **** * The pointer to the EEPROM context structure \ref cy_stc_eeprom_context_t.
 986:Generated_Source\PSoC5/cy_em_eeprom.c **** *
 987:Generated_Source\PSoC5/cy_em_eeprom.c **** * \return
 988:Generated_Source\PSoC5/cy_em_eeprom.c **** * error / status code. See \ref cy_en_em_eeprom_status_t.
 989:Generated_Source\PSoC5/cy_em_eeprom.c **** *
 990:Generated_Source\PSoC5/cy_em_eeprom.c **** *******************************************************************************/
 991:Generated_Source\PSoC5/cy_em_eeprom.c **** static cy_en_em_eeprom_status_t WriteRow(uint32 rowAddr,
 163              		.loc 1 991 0
 164              		.cfi_startproc
 165              		@ args = 0, pretend = 0, frame = 0
 166              		@ frame_needed = 0, uses_anonymous_args = 0
 167              	.LVL14:
 168 0000 38B5     		push	{r3, r4, r5, lr}
 169              		.cfi_def_cfa_offset 16
 170              		.cfi_offset 3, -16
 171              		.cfi_offset 4, -12
 172              		.cfi_offset 5, -8
 173              		.cfi_offset 14, -4
 174              		.loc 1 991 0
 175 0002 0446     		mov	r4, r0
 176              	.LVL15:
 177 0004 0D46     		mov	r5, r1
 992:Generated_Source\PSoC5/cy_em_eeprom.c ****                                         uint32 *rowData,
 993:Generated_Source\PSoC5/cy_em_eeprom.c ****                                         cy_stc_eeprom_context_t * context)
 994:Generated_Source\PSoC5/cy_em_eeprom.c **** {
 995:Generated_Source\PSoC5/cy_em_eeprom.c ****     cy_en_em_eeprom_status_t ret = CY_EM_EEPROM_WRITE_FAIL;
 996:Generated_Source\PSoC5/cy_em_eeprom.c **** #if (!CY_PSOC6)
 997:Generated_Source\PSoC5/cy_em_eeprom.c ****     cystatus rc;
 998:Generated_Source\PSoC5/cy_em_eeprom.c ****     #if ((CY_PSOC3) || (CY_PSOC5))
 999:Generated_Source\PSoC5/cy_em_eeprom.c ****         uint32 arrayId;
1000:Generated_Source\PSoC5/cy_em_eeprom.c ****         uint32 rowId;
1001:Generated_Source\PSoC5/cy_em_eeprom.c ****     #else
1002:Generated_Source\PSoC5/cy_em_eeprom.c ****         uint32 rowNum;
1003:Generated_Source\PSoC5/cy_em_eeprom.c ****     #endif /* (CY_PSOC3) */
1004:Generated_Source\PSoC5/cy_em_eeprom.c ****     
1005:Generated_Source\PSoC5/cy_em_eeprom.c ****     #if (CY_PSOC3)
1006:Generated_Source\PSoC5/cy_em_eeprom.c ****         rowAddr &= CY_EM_EEPROM_CODE_ADDR_MASK;
1007:Generated_Source\PSoC5/cy_em_eeprom.c ****         context = context;      /* To avoid compiler warning generation */
1008:Generated_Source\PSoC5/cy_em_eeprom.c ****     #else
1009:Generated_Source\PSoC5/cy_em_eeprom.c ****         (void)context;          /* To avoid compiler warning generation */
1010:Generated_Source\PSoC5/cy_em_eeprom.c ****     #endif /* ((CY_PSOC3) */
1011:Generated_Source\PSoC5/cy_em_eeprom.c ****     
1012:Generated_Source\PSoC5/cy_em_eeprom.c ****     /* Write the flash row */
1013:Generated_Source\PSoC5/cy_em_eeprom.c ****     #if (CY_PSOC4)
1014:Generated_Source\PSoC5/cy_em_eeprom.c ****         /* For PSoC 4 devices, the array ID is included in the row number */
ARM GAS  C:\Users\RABBIT~1\AppData\Local\Temp\ccgw4IdU.s 			page 22


1015:Generated_Source\PSoC5/cy_em_eeprom.c ****         rowNum = rowAddr / CY_EM_EEPROM_FLASH_SIZEOF_ROW;
1016:Generated_Source\PSoC5/cy_em_eeprom.c ****         
1017:Generated_Source\PSoC5/cy_em_eeprom.c ****         rc = CySysFlashWriteRow(rowNum, (uint8 *)rowData);
1018:Generated_Source\PSoC5/cy_em_eeprom.c ****     #else
1019:Generated_Source\PSoC5/cy_em_eeprom.c ****         /* For PSoC 3/5 devices, the array ID and row ID needed to write the row */
1020:Generated_Source\PSoC5/cy_em_eeprom.c ****         rowId = (rowAddr / CY_EM_EEPROM_FLASH_SIZEOF_ROW) % CY_EM_EEPROM_ROWS_IN_ARRAY;
1021:Generated_Source\PSoC5/cy_em_eeprom.c ****         
1022:Generated_Source\PSoC5/cy_em_eeprom.c ****         #ifndef CY_EM_EEPROM_SKIP_TEMP_MEASUREMENT
1023:Generated_Source\PSoC5/cy_em_eeprom.c ****             (void)CySetTemp();
 178              		.loc 1 1023 0
 179 0006 FFF7FEFF 		bl	CySetTemp
 180              	.LVL16:
1024:Generated_Source\PSoC5/cy_em_eeprom.c ****         #endif /* (CY_EM_EEPROM_SKIP_TEMP_MEASUREMENT) */
1025:Generated_Source\PSoC5/cy_em_eeprom.c **** 
1026:Generated_Source\PSoC5/cy_em_eeprom.c ****         arrayId = rowAddr / CY_FLASH_SIZEOF_ARRAY;
1027:Generated_Source\PSoC5/cy_em_eeprom.c ****         rc = CyWriteRowData((uint8)arrayId, (uint16)rowId, (uint8 *)rowData);
 181              		.loc 1 1027 0
 182 000a C4F30721 		ubfx	r1, r4, #8, #8
 183 000e 2A46     		mov	r2, r5
 184 0010 C4F30740 		ubfx	r0, r4, #16, #8
 185 0014 FFF7FEFF 		bl	CyWriteRowData
 186              	.LVL17:
 187 0018 0446     		mov	r4, r0
 188              	.LVL18:
1028:Generated_Source\PSoC5/cy_em_eeprom.c ****         
1029:Generated_Source\PSoC5/cy_em_eeprom.c ****         #if (CY_PSOC5)
1030:Generated_Source\PSoC5/cy_em_eeprom.c ****             CyFlushCache();
 189              		.loc 1 1030 0
 190 001a FFF7FEFF 		bl	CyFlushCache
 191              	.LVL19:
1031:Generated_Source\PSoC5/cy_em_eeprom.c ****         #endif /* (CY_PSOC5) */
1032:Generated_Source\PSoC5/cy_em_eeprom.c ****     #endif /* (CY_PSOC4) */
1033:Generated_Source\PSoC5/cy_em_eeprom.c **** 
1034:Generated_Source\PSoC5/cy_em_eeprom.c ****     if(CYRET_SUCCESS == rc)
 192              		.loc 1 1034 0
 193 001e 002C     		cmp	r4, #0
 194              	.LVL20:
1035:Generated_Source\PSoC5/cy_em_eeprom.c ****     {
1036:Generated_Source\PSoC5/cy_em_eeprom.c ****         ret = CY_EM_EEPROM_SUCCESS;
1037:Generated_Source\PSoC5/cy_em_eeprom.c ****     }
1038:Generated_Source\PSoC5/cy_em_eeprom.c **** #else /* PSoC 6 */
1039:Generated_Source\PSoC5/cy_em_eeprom.c ****     if(0u != context->blockingWrite)
1040:Generated_Source\PSoC5/cy_em_eeprom.c ****     {
1041:Generated_Source\PSoC5/cy_em_eeprom.c ****         /* Do blocking write */
1042:Generated_Source\PSoC5/cy_em_eeprom.c ****         if(CY_FLASH_DRV_SUCCESS == Cy_Flash_WriteRow(rowAddr, (const uint32 *)rowData))
1043:Generated_Source\PSoC5/cy_em_eeprom.c ****         {
1044:Generated_Source\PSoC5/cy_em_eeprom.c ****             ret = CY_EM_EEPROM_SUCCESS;
1045:Generated_Source\PSoC5/cy_em_eeprom.c ****         }
1046:Generated_Source\PSoC5/cy_em_eeprom.c ****     }
1047:Generated_Source\PSoC5/cy_em_eeprom.c ****     else
1048:Generated_Source\PSoC5/cy_em_eeprom.c ****     {
1049:Generated_Source\PSoC5/cy_em_eeprom.c ****         /* Initiate write */
1050:Generated_Source\PSoC5/cy_em_eeprom.c ****         if(CY_FLASH_DRV_OPERATION_STARTED == Cy_Flash_StartWrite(rowAddr, (const uint32 *)rowData))
1051:Generated_Source\PSoC5/cy_em_eeprom.c ****         {
1052:Generated_Source\PSoC5/cy_em_eeprom.c ****             uint32 countMs = CY_EM_EEPROM_MAX_WRITE_DURATION_MS;
1053:Generated_Source\PSoC5/cy_em_eeprom.c ****             cy_en_flashdrv_status_t rc;
1054:Generated_Source\PSoC5/cy_em_eeprom.c **** 
ARM GAS  C:\Users\RABBIT~1\AppData\Local\Temp\ccgw4IdU.s 			page 23


1055:Generated_Source\PSoC5/cy_em_eeprom.c ****             do
1056:Generated_Source\PSoC5/cy_em_eeprom.c ****             {
1057:Generated_Source\PSoC5/cy_em_eeprom.c ****                 CyDelay(1u);                         /* Wait 1ms */
1058:Generated_Source\PSoC5/cy_em_eeprom.c ****                 rc = Cy_Flash_IsWriteComplete();     /* Check if write completed */
1059:Generated_Source\PSoC5/cy_em_eeprom.c ****                 countMs--;
1060:Generated_Source\PSoC5/cy_em_eeprom.c ****             }
1061:Generated_Source\PSoC5/cy_em_eeprom.c ****             while ((rc == CY_FLASH_DRV_OPCODE_BUSY) && (0u != countMs));
1062:Generated_Source\PSoC5/cy_em_eeprom.c **** 
1063:Generated_Source\PSoC5/cy_em_eeprom.c ****             if(CY_FLASH_DRV_SUCCESS == rc)
1064:Generated_Source\PSoC5/cy_em_eeprom.c ****             {
1065:Generated_Source\PSoC5/cy_em_eeprom.c ****                 ret = CY_EM_EEPROM_SUCCESS;
1066:Generated_Source\PSoC5/cy_em_eeprom.c ****             }
1067:Generated_Source\PSoC5/cy_em_eeprom.c ****         }
1068:Generated_Source\PSoC5/cy_em_eeprom.c ****     }
1069:Generated_Source\PSoC5/cy_em_eeprom.c **** #endif /* (CY_PSOC6) */
1070:Generated_Source\PSoC5/cy_em_eeprom.c **** 
1071:Generated_Source\PSoC5/cy_em_eeprom.c ****     return (ret);
1072:Generated_Source\PSoC5/cy_em_eeprom.c **** }
 195              		.loc 1 1072 0
 196 0020 14BF     		ite	ne
 197 0022 0420     		movne	r0, #4
 198 0024 0020     		moveq	r0, #0
 199 0026 38BD     		pop	{r3, r4, r5, pc}
 200              		.cfi_endproc
 201              	.LFE15:
 202              		.size	WriteRow.isra.0, .-WriteRow.isra.0
 203              		.section	.text.CalcChecksum.constprop.1,"ax",%progbits
 204              		.align	1
 205              		.thumb
 206              		.thumb_func
 207              		.type	CalcChecksum.constprop.1, %function
 208              	CalcChecksum.constprop.1:
 209              	.LFB16:
 923:Generated_Source\PSoC5/cy_em_eeprom.c **** {
 210              		.loc 1 923 0
 211              		.cfi_startproc
 212              		@ args = 0, pretend = 0, frame = 0
 213              		@ frame_needed = 0, uses_anonymous_args = 0
 214              		@ link register save eliminated.
 215              	.LVL21:
 216 0000 411E     		subs	r1, r0, #1
 217 0002 00F17F02 		add	r2, r0, #127
 925:Generated_Source\PSoC5/cy_em_eeprom.c ****     uint8 i;
 218              		.loc 1 925 0
 219 0006 FF20     		movs	r0, #255
 220              	.LVL22:
 221              	.L23:
 929:Generated_Source\PSoC5/cy_em_eeprom.c ****     {
 222              		.loc 1 929 0
 223 0008 9142     		cmp	r1, r2
 224 000a 11D0     		beq	.L29
 931:Generated_Source\PSoC5/cy_em_eeprom.c ****         for (i = 0u; i < CY_EM_EEPROM_CRC8_POLYNOM_LEN; i++)
 225              		.loc 1 931 0
 226 000c 11F8013F 		ldrb	r3, [r1, #1]!	@ zero_extendqisi2
 227              	.LVL23:
 228 0010 5840     		eors	r0, r0, r3
 229              	.LVL24:
ARM GAS  C:\Users\RABBIT~1\AppData\Local\Temp\ccgw4IdU.s 			page 24


 230 0012 0823     		movs	r3, #8
 231              	.LVL25:
 232              	.L26:
 934:Generated_Source\PSoC5/cy_em_eeprom.c ****         }
 233              		.loc 1 934 0
 234 0014 10F0800F 		tst	r0, #128
 235 0018 4FEA4000 		lsl	r0, r0, #1
 236              	.LVL26:
 237 001c C0B2     		uxtb	r0, r0
 238 001e 03F1FF33 		add	r3, r3, #-1
 239              	.LVL27:
 240 0022 18BF     		it	ne
 241 0024 80F03100 		eorne	r0, r0, #49
 242              	.LVL28:
 932:Generated_Source\PSoC5/cy_em_eeprom.c ****         {
 243              		.loc 1 932 0
 244 0028 13F0FF03 		ands	r3, r3, #255
 245 002c F2D1     		bne	.L26
 246 002e EBE7     		b	.L23
 247              	.LVL29:
 248              	.L29:
 940:Generated_Source\PSoC5/cy_em_eeprom.c **** 
 249              		.loc 1 940 0
 250 0030 7047     		bx	lr
 251              		.cfi_endproc
 252              	.LFE16:
 253              		.size	CalcChecksum.constprop.1, .-CalcChecksum.constprop.1
 254              		.section	.text.CheckCrcAndCopy,"ax",%progbits
 255              		.align	1
 256              		.thumb
 257              		.thumb_func
 258              		.type	CheckCrcAndCopy, %function
 259              	CheckCrcAndCopy:
 260              	.LFB12:
1073:Generated_Source\PSoC5/cy_em_eeprom.c **** 
1074:Generated_Source\PSoC5/cy_em_eeprom.c **** 
1075:Generated_Source\PSoC5/cy_em_eeprom.c **** /*******************************************************************************
1076:Generated_Source\PSoC5/cy_em_eeprom.c **** * Function Name: EraseRow
1077:Generated_Source\PSoC5/cy_em_eeprom.c **** ****************************************************************************//**
1078:Generated_Source\PSoC5/cy_em_eeprom.c **** *
1079:Generated_Source\PSoC5/cy_em_eeprom.c **** * Erases one flash row starting from the specified row address. If the redundant
1080:Generated_Source\PSoC5/cy_em_eeprom.c **** * copy option is enabled the corresponding row in the redundant copy will also
1081:Generated_Source\PSoC5/cy_em_eeprom.c **** * be erased.
1082:Generated_Source\PSoC5/cy_em_eeprom.c **** *
1083:Generated_Source\PSoC5/cy_em_eeprom.c **** * \param rowAdd
1084:Generated_Source\PSoC5/cy_em_eeprom.c **** * The address of the flash row.
1085:Generated_Source\PSoC5/cy_em_eeprom.c **** *
1086:Generated_Source\PSoC5/cy_em_eeprom.c **** * \param ramBuffAddr
1087:Generated_Source\PSoC5/cy_em_eeprom.c **** * The address of the RAM buffer that contains zeroed data (used only for
1088:Generated_Source\PSoC5/cy_em_eeprom.c **** * non-PSoC 6 devices).
1089:Generated_Source\PSoC5/cy_em_eeprom.c **** *
1090:Generated_Source\PSoC5/cy_em_eeprom.c **** * \param context
1091:Generated_Source\PSoC5/cy_em_eeprom.c **** * The pointer to the EEPROM context structure \ref cy_stc_eeprom_context_t.
1092:Generated_Source\PSoC5/cy_em_eeprom.c **** *
1093:Generated_Source\PSoC5/cy_em_eeprom.c **** * \return
1094:Generated_Source\PSoC5/cy_em_eeprom.c **** * error / status code. See \ref cy_en_em_eeprom_status_t.
1095:Generated_Source\PSoC5/cy_em_eeprom.c **** *
ARM GAS  C:\Users\RABBIT~1\AppData\Local\Temp\ccgw4IdU.s 			page 25


1096:Generated_Source\PSoC5/cy_em_eeprom.c **** *******************************************************************************/
1097:Generated_Source\PSoC5/cy_em_eeprom.c **** static cy_en_em_eeprom_status_t EraseRow(uint32 rowAddr,
1098:Generated_Source\PSoC5/cy_em_eeprom.c ****                                         uint32 ramBuffAddr,
1099:Generated_Source\PSoC5/cy_em_eeprom.c ****                                         cy_stc_eeprom_context_t * context)
1100:Generated_Source\PSoC5/cy_em_eeprom.c **** {
1101:Generated_Source\PSoC5/cy_em_eeprom.c ****     uint32 emEepromRowAddr = rowAddr;
1102:Generated_Source\PSoC5/cy_em_eeprom.c ****     cy_en_em_eeprom_status_t ret = CY_EM_EEPROM_WRITE_FAIL;
1103:Generated_Source\PSoC5/cy_em_eeprom.c **** #if (CY_PSOC6)
1104:Generated_Source\PSoC5/cy_em_eeprom.c ****     uint32 i = 1u;
1105:Generated_Source\PSoC5/cy_em_eeprom.c **** 
1106:Generated_Source\PSoC5/cy_em_eeprom.c ****     (void)ramBuffAddr; /* To avoid compiler warning */
1107:Generated_Source\PSoC5/cy_em_eeprom.c **** 
1108:Generated_Source\PSoC5/cy_em_eeprom.c ****     if(0u != context->redundantCopy)
1109:Generated_Source\PSoC5/cy_em_eeprom.c ****     {
1110:Generated_Source\PSoC5/cy_em_eeprom.c ****         i++;
1111:Generated_Source\PSoC5/cy_em_eeprom.c ****     }
1112:Generated_Source\PSoC5/cy_em_eeprom.c **** 
1113:Generated_Source\PSoC5/cy_em_eeprom.c ****     do
1114:Generated_Source\PSoC5/cy_em_eeprom.c ****     {
1115:Generated_Source\PSoC5/cy_em_eeprom.c ****         if(0u != context->blockingWrite)
1116:Generated_Source\PSoC5/cy_em_eeprom.c ****         {
1117:Generated_Source\PSoC5/cy_em_eeprom.c ****             /* Erase the flash row */
1118:Generated_Source\PSoC5/cy_em_eeprom.c ****             if(CY_FLASH_DRV_SUCCESS == Cy_Flash_EraseRow(emEepromRowAddr))
1119:Generated_Source\PSoC5/cy_em_eeprom.c ****             {
1120:Generated_Source\PSoC5/cy_em_eeprom.c ****                 ret = CY_EM_EEPROM_SUCCESS;
1121:Generated_Source\PSoC5/cy_em_eeprom.c ****             }
1122:Generated_Source\PSoC5/cy_em_eeprom.c ****         }
1123:Generated_Source\PSoC5/cy_em_eeprom.c ****         else
1124:Generated_Source\PSoC5/cy_em_eeprom.c ****         {
1125:Generated_Source\PSoC5/cy_em_eeprom.c ****             /* Initiate erase */
1126:Generated_Source\PSoC5/cy_em_eeprom.c ****             if(CY_FLASH_DRV_OPERATION_STARTED == Cy_Flash_StartErase(emEepromRowAddr))
1127:Generated_Source\PSoC5/cy_em_eeprom.c ****             {
1128:Generated_Source\PSoC5/cy_em_eeprom.c ****                 uint32 countMs = CY_EM_EEPROM_MAX_WRITE_DURATION_MS;
1129:Generated_Source\PSoC5/cy_em_eeprom.c ****                 cy_en_flashdrv_status_t rc;
1130:Generated_Source\PSoC5/cy_em_eeprom.c **** 
1131:Generated_Source\PSoC5/cy_em_eeprom.c ****                 do
1132:Generated_Source\PSoC5/cy_em_eeprom.c ****                 {
1133:Generated_Source\PSoC5/cy_em_eeprom.c ****                     CyDelay(1u);                         /* Wait 1ms */
1134:Generated_Source\PSoC5/cy_em_eeprom.c ****                     rc = Cy_Flash_IsWriteComplete();     /* Check if erase completed */
1135:Generated_Source\PSoC5/cy_em_eeprom.c ****                     countMs--;
1136:Generated_Source\PSoC5/cy_em_eeprom.c ****                 }
1137:Generated_Source\PSoC5/cy_em_eeprom.c ****                 while ((rc == CY_FLASH_DRV_OPCODE_BUSY) && (0u != countMs));
1138:Generated_Source\PSoC5/cy_em_eeprom.c **** 
1139:Generated_Source\PSoC5/cy_em_eeprom.c ****                 if(CY_FLASH_DRV_SUCCESS == rc)
1140:Generated_Source\PSoC5/cy_em_eeprom.c ****                 {
1141:Generated_Source\PSoC5/cy_em_eeprom.c ****                     ret = CY_EM_EEPROM_SUCCESS;
1142:Generated_Source\PSoC5/cy_em_eeprom.c ****                 }
1143:Generated_Source\PSoC5/cy_em_eeprom.c ****             }
1144:Generated_Source\PSoC5/cy_em_eeprom.c ****         }
1145:Generated_Source\PSoC5/cy_em_eeprom.c **** 
1146:Generated_Source\PSoC5/cy_em_eeprom.c ****         if(CY_EM_EEPROM_SUCCESS == ret)
1147:Generated_Source\PSoC5/cy_em_eeprom.c ****         {
1148:Generated_Source\PSoC5/cy_em_eeprom.c ****             /* Update the address to point to the redundant copy row */
1149:Generated_Source\PSoC5/cy_em_eeprom.c ****             emEepromRowAddr = (emEepromRowAddr - context->userFlashStartAddr) + context->wlEndAddr;
1150:Generated_Source\PSoC5/cy_em_eeprom.c ****         }
1151:Generated_Source\PSoC5/cy_em_eeprom.c ****         else
1152:Generated_Source\PSoC5/cy_em_eeprom.c ****         {
ARM GAS  C:\Users\RABBIT~1\AppData\Local\Temp\ccgw4IdU.s 			page 26


1153:Generated_Source\PSoC5/cy_em_eeprom.c ****             break;
1154:Generated_Source\PSoC5/cy_em_eeprom.c ****         }
1155:Generated_Source\PSoC5/cy_em_eeprom.c ****         i--;
1156:Generated_Source\PSoC5/cy_em_eeprom.c ****     } while (0u != i);
1157:Generated_Source\PSoC5/cy_em_eeprom.c **** #else
1158:Generated_Source\PSoC5/cy_em_eeprom.c ****     /* Write the data to the specified flash row */
1159:Generated_Source\PSoC5/cy_em_eeprom.c ****     ret = WriteRow(emEepromRowAddr, (uint32 *)ramBuffAddr, context);
1160:Generated_Source\PSoC5/cy_em_eeprom.c **** 
1161:Generated_Source\PSoC5/cy_em_eeprom.c ****     if((CY_EM_EEPROM_SUCCESS == ret) && (0u != context->redundantCopy))
1162:Generated_Source\PSoC5/cy_em_eeprom.c ****     {
1163:Generated_Source\PSoC5/cy_em_eeprom.c ****         /* Update the address to point to the redundant copy row */
1164:Generated_Source\PSoC5/cy_em_eeprom.c ****         emEepromRowAddr = (emEepromRowAddr - context->userFlashStartAddr) + context->wlEndAddr;
1165:Generated_Source\PSoC5/cy_em_eeprom.c ****         ret = WriteRow(emEepromRowAddr, (uint32 *)ramBuffAddr, context);
1166:Generated_Source\PSoC5/cy_em_eeprom.c ****     }
1167:Generated_Source\PSoC5/cy_em_eeprom.c **** 
1168:Generated_Source\PSoC5/cy_em_eeprom.c ****     if(CY_EM_EEPROM_SUCCESS == ret)
1169:Generated_Source\PSoC5/cy_em_eeprom.c ****     {
1170:Generated_Source\PSoC5/cy_em_eeprom.c ****         context->lastWrRowAddr = rowAddr;
1171:Generated_Source\PSoC5/cy_em_eeprom.c ****     }
1172:Generated_Source\PSoC5/cy_em_eeprom.c **** #endif /* (CY_PSOC6) */
1173:Generated_Source\PSoC5/cy_em_eeprom.c **** 
1174:Generated_Source\PSoC5/cy_em_eeprom.c ****     return(ret);
1175:Generated_Source\PSoC5/cy_em_eeprom.c **** }
1176:Generated_Source\PSoC5/cy_em_eeprom.c **** 
1177:Generated_Source\PSoC5/cy_em_eeprom.c **** 
1178:Generated_Source\PSoC5/cy_em_eeprom.c **** /*******************************************************************************
1179:Generated_Source\PSoC5/cy_em_eeprom.c **** * Function Name: CheckCrcAndCopy
1180:Generated_Source\PSoC5/cy_em_eeprom.c **** ****************************************************************************//**
1181:Generated_Source\PSoC5/cy_em_eeprom.c **** *
1182:Generated_Source\PSoC5/cy_em_eeprom.c **** * Checks the checksum of the specific row in EEPROM. If the CRC matches - copies
1183:Generated_Source\PSoC5/cy_em_eeprom.c **** * the data to the "datAddr" from EEPROM. f the CRC does not match checks the
1184:Generated_Source\PSoC5/cy_em_eeprom.c **** * CRC of the corresponding row in the EEPROM's redundant copy. If the CRC
1185:Generated_Source\PSoC5/cy_em_eeprom.c **** * matches - copies the data to the "datAddr" from EEPROM redundant copy. If the
1186:Generated_Source\PSoC5/cy_em_eeprom.c **** * CRC of the redundant copy does not match - returns bad checksum.
1187:Generated_Source\PSoC5/cy_em_eeprom.c **** *
1188:Generated_Source\PSoC5/cy_em_eeprom.c **** * \param startAddr
1189:Generated_Source\PSoC5/cy_em_eeprom.c **** * The address that points to the start of the specified row.
1190:Generated_Source\PSoC5/cy_em_eeprom.c **** *
1191:Generated_Source\PSoC5/cy_em_eeprom.c **** * \param datAddr
1192:Generated_Source\PSoC5/cy_em_eeprom.c **** * The start address of where the row data will be copied if the CRC check
1193:Generated_Source\PSoC5/cy_em_eeprom.c **** * will succeed.
1194:Generated_Source\PSoC5/cy_em_eeprom.c **** *
1195:Generated_Source\PSoC5/cy_em_eeprom.c **** * \param rowOffset
1196:Generated_Source\PSoC5/cy_em_eeprom.c **** * The offset in the row from which the data should be copied.
1197:Generated_Source\PSoC5/cy_em_eeprom.c **** *
1198:Generated_Source\PSoC5/cy_em_eeprom.c **** * \param numBytes
1199:Generated_Source\PSoC5/cy_em_eeprom.c **** * The number of bytes to be copied.
1200:Generated_Source\PSoC5/cy_em_eeprom.c **** *
1201:Generated_Source\PSoC5/cy_em_eeprom.c **** * \param context
1202:Generated_Source\PSoC5/cy_em_eeprom.c **** * The pointer to the EEPROM context structure \ref cy_stc_eeprom_context_t.
1203:Generated_Source\PSoC5/cy_em_eeprom.c **** *
1204:Generated_Source\PSoC5/cy_em_eeprom.c **** * \return
1205:Generated_Source\PSoC5/cy_em_eeprom.c **** * error / status code. See \ref cy_en_em_eeprom_status_t.
1206:Generated_Source\PSoC5/cy_em_eeprom.c **** *
1207:Generated_Source\PSoC5/cy_em_eeprom.c **** * \note
1208:Generated_Source\PSoC5/cy_em_eeprom.c **** * This function uses a buffer of the flash row size to perform read
1209:Generated_Source\PSoC5/cy_em_eeprom.c **** * operation. For the size of the row refer to the specific PSoC device
ARM GAS  C:\Users\RABBIT~1\AppData\Local\Temp\ccgw4IdU.s 			page 27


1210:Generated_Source\PSoC5/cy_em_eeprom.c **** * datasheet.
1211:Generated_Source\PSoC5/cy_em_eeprom.c **** *
1212:Generated_Source\PSoC5/cy_em_eeprom.c **** *******************************************************************************/
1213:Generated_Source\PSoC5/cy_em_eeprom.c **** static cy_en_em_eeprom_status_t CheckCrcAndCopy(uint32 startAddr,
1214:Generated_Source\PSoC5/cy_em_eeprom.c ****                                                 uint32 dstAddr,
1215:Generated_Source\PSoC5/cy_em_eeprom.c ****                                                 uint32 rowOffset,
1216:Generated_Source\PSoC5/cy_em_eeprom.c ****                                                 uint32 numBytes,
1217:Generated_Source\PSoC5/cy_em_eeprom.c ****                                                 cy_stc_eeprom_context_t * context)
1218:Generated_Source\PSoC5/cy_em_eeprom.c **** {
 261              		.loc 1 1218 0
 262              		.cfi_startproc
 263              		@ args = 4, pretend = 0, frame = 256
 264              		@ frame_needed = 0, uses_anonymous_args = 0
 265              	.LVL30:
 266 0000 2DE9F041 		push	{r4, r5, r6, r7, r8, lr}
 267              		.cfi_def_cfa_offset 24
 268              		.cfi_offset 4, -24
 269              		.cfi_offset 5, -20
 270              		.cfi_offset 6, -16
 271              		.cfi_offset 7, -12
 272              		.cfi_offset 8, -8
 273              		.cfi_offset 14, -4
 274 0004 C0B0     		sub	sp, sp, #256
 275              		.cfi_def_cfa_offset 280
 276              		.loc 1 1218 0
 277 0006 1746     		mov	r7, r2
 278 0008 469A     		ldr	r2, [sp, #280]
 279              	.LVL31:
 280 000a 9846     		mov	r8, r3
1219:Generated_Source\PSoC5/cy_em_eeprom.c ****     cy_en_em_eeprom_status_t ret;
1220:Generated_Source\PSoC5/cy_em_eeprom.c ****     uint32 writeRamBuffer[CY_EM_EEPROM_FLASH_SIZEOF_ROW / CY_EM_EEPROM_U32_DIV];
1221:Generated_Source\PSoC5/cy_em_eeprom.c **** 
1222:Generated_Source\PSoC5/cy_em_eeprom.c ****     /* Calculate the row address in the EEPROM's redundant copy */
1223:Generated_Source\PSoC5/cy_em_eeprom.c ****     uint32 rcStartRowAddr = (startAddr - context->userFlashStartAddr) + context->wlEndAddr;
 281              		.loc 1 1223 0
 282 000c 9469     		ldr	r4, [r2, #24]
 283 000e 1368     		ldr	r3, [r2]
 284              	.LVL32:
1218:Generated_Source\PSoC5/cy_em_eeprom.c ****     cy_en_em_eeprom_status_t ret;
 285              		.loc 1 1218 0
 286 0010 0546     		mov	r5, r0
 287              		.loc 1 1223 0
 288 0012 1C1B     		subs	r4, r3, r4
 289 0014 0444     		add	r4, r4, r0
 290              	.LVL33:
1224:Generated_Source\PSoC5/cy_em_eeprom.c **** 
1225:Generated_Source\PSoC5/cy_em_eeprom.c ****     /* Check the row data CRC in the EEPROM */
1226:Generated_Source\PSoC5/cy_em_eeprom.c ****     if((*(uint32 *)(startAddr + CY_EM_EEPROM_HEADER_CHECKSUM_OFFSET)) ==
1227:Generated_Source\PSoC5/cy_em_eeprom.c ****         ((uint32) CalcChecksum((uint8 *)(startAddr + CY_EM_EEPROM_EEPROM_DATA_OFFSET),
 291              		.loc 1 1227 0
 292 0016 8030     		adds	r0, r0, #128
 293              	.LVL34:
1218:Generated_Source\PSoC5/cy_em_eeprom.c ****     cy_en_em_eeprom_status_t ret;
 294              		.loc 1 1218 0
 295 0018 0E46     		mov	r6, r1
 296              		.loc 1 1227 0
 297 001a FFF7FEFF 		bl	CalcChecksum.constprop.1
ARM GAS  C:\Users\RABBIT~1\AppData\Local\Temp\ccgw4IdU.s 			page 28


 298              	.LVL35:
1226:Generated_Source\PSoC5/cy_em_eeprom.c ****         ((uint32) CalcChecksum((uint8 *)(startAddr + CY_EM_EEPROM_EEPROM_DATA_OFFSET),
 299              		.loc 1 1226 0
 300 001e EB6F     		ldr	r3, [r5, #124]
 301 0020 8342     		cmp	r3, r0
 302 0022 06D1     		bne	.L31
1228:Generated_Source\PSoC5/cy_em_eeprom.c ****             CY_EM_EEPROM_EEPROM_DATA_LEN)))
1229:Generated_Source\PSoC5/cy_em_eeprom.c ****     {
1230:Generated_Source\PSoC5/cy_em_eeprom.c ****         (void)memcpy((void *)(dstAddr), (void *)(startAddr + rowOffset), numBytes);
 303              		.loc 1 1230 0
 304 0024 4246     		mov	r2, r8
 305 0026 E919     		adds	r1, r5, r7
 306 0028 3046     		mov	r0, r6
 307 002a FFF7FEFF 		bl	memcpy
 308              	.LVL36:
1231:Generated_Source\PSoC5/cy_em_eeprom.c **** 
1232:Generated_Source\PSoC5/cy_em_eeprom.c ****         ret = CY_EM_EEPROM_SUCCESS;
 309              		.loc 1 1232 0
 310 002e 0024     		movs	r4, #0
 311              	.LVL37:
 312 0030 1AE0     		b	.L32
 313              	.LVL38:
 314              	.L31:
1233:Generated_Source\PSoC5/cy_em_eeprom.c ****     }
1234:Generated_Source\PSoC5/cy_em_eeprom.c ****     /* Check the row data CRC in the EEPROM's redundant copy */
1235:Generated_Source\PSoC5/cy_em_eeprom.c ****     else if((*(uint32 *)(rcStartRowAddr + CY_EM_EEPROM_HEADER_CHECKSUM_OFFSET)) ==
1236:Generated_Source\PSoC5/cy_em_eeprom.c ****             ((uint32) CalcChecksum((uint8 *)(rcStartRowAddr + CY_EM_EEPROM_EEPROM_DATA_OFFSET),
 315              		.loc 1 1236 0
 316 0032 04F18000 		add	r0, r4, #128
 317 0036 FFF7FEFF 		bl	CalcChecksum.constprop.1
 318              	.LVL39:
1235:Generated_Source\PSoC5/cy_em_eeprom.c ****             ((uint32) CalcChecksum((uint8 *)(rcStartRowAddr + CY_EM_EEPROM_EEPROM_DATA_OFFSET),
 319              		.loc 1 1235 0
 320 003a E36F     		ldr	r3, [r4, #124]
 321 003c 8342     		cmp	r3, r0
 322 003e 12D1     		bne	.L33
1237:Generated_Source\PSoC5/cy_em_eeprom.c ****                 CY_EM_EEPROM_EEPROM_DATA_LEN)))
1238:Generated_Source\PSoC5/cy_em_eeprom.c ****     {
1239:Generated_Source\PSoC5/cy_em_eeprom.c ****         /* Copy the redundant copy row to RAM buffer to avoid read while write (RWW)
1240:Generated_Source\PSoC5/cy_em_eeprom.c ****         * flash exception. The RWW occurs while trying to write and read the data from
1241:Generated_Source\PSoC5/cy_em_eeprom.c ****         * same flash macro.
1242:Generated_Source\PSoC5/cy_em_eeprom.c ****         */
1243:Generated_Source\PSoC5/cy_em_eeprom.c ****         (void)memcpy((void *)(writeRamBuffer), (void *)(rcStartRowAddr), CY_EM_EEPROM_FLASH_SIZEOF_
 323              		.loc 1 1243 0
 324 0040 2146     		mov	r1, r4
 325 0042 4FF48072 		mov	r2, #256
 326 0046 6846     		mov	r0, sp
 327 0048 FFF7FEFF 		bl	memcpy
 328              	.LVL40:
1244:Generated_Source\PSoC5/cy_em_eeprom.c **** 
1245:Generated_Source\PSoC5/cy_em_eeprom.c ****         /* Restore bad row data from the RAM buffer */
1246:Generated_Source\PSoC5/cy_em_eeprom.c ****         ret = WriteRow(startAddr, (uint32 *)writeRamBuffer, context);
 329              		.loc 1 1246 0
 330 004c 6946     		mov	r1, sp
 331 004e 2846     		mov	r0, r5
 332 0050 FFF7FEFF 		bl	WriteRow.isra.0
 333              	.LVL41:
ARM GAS  C:\Users\RABBIT~1\AppData\Local\Temp\ccgw4IdU.s 			page 29


1247:Generated_Source\PSoC5/cy_em_eeprom.c **** 
1248:Generated_Source\PSoC5/cy_em_eeprom.c ****         if(CY_EM_EEPROM_SUCCESS == ret)
 334              		.loc 1 1248 0
 335 0054 0446     		mov	r4, r0
 336              	.LVL42:
 337 0056 38B9     		cbnz	r0, .L32
1249:Generated_Source\PSoC5/cy_em_eeprom.c ****         {
1250:Generated_Source\PSoC5/cy_em_eeprom.c ****             (void)memcpy((void *)(dstAddr), (void *)(writeRamBuffer + rowOffset), numBytes);
 338              		.loc 1 1250 0
 339 0058 4246     		mov	r2, r8
 340 005a 0DEB8701 		add	r1, sp, r7, lsl #2
 341 005e 3046     		mov	r0, r6
 342              	.LVL43:
 343 0060 FFF7FEFF 		bl	memcpy
 344              	.LVL44:
 345 0064 00E0     		b	.L32
 346              	.LVL45:
 347              	.L33:
1251:Generated_Source\PSoC5/cy_em_eeprom.c ****         }
1252:Generated_Source\PSoC5/cy_em_eeprom.c ****     }
1253:Generated_Source\PSoC5/cy_em_eeprom.c ****     else
1254:Generated_Source\PSoC5/cy_em_eeprom.c ****     {
1255:Generated_Source\PSoC5/cy_em_eeprom.c ****         ret = CY_EM_EEPROM_BAD_CHECKSUM;
 348              		.loc 1 1255 0
 349 0066 0224     		movs	r4, #2
 350              	.LVL46:
 351              	.L32:
1256:Generated_Source\PSoC5/cy_em_eeprom.c ****     }
1257:Generated_Source\PSoC5/cy_em_eeprom.c **** 
1258:Generated_Source\PSoC5/cy_em_eeprom.c ****     return(ret);
1259:Generated_Source\PSoC5/cy_em_eeprom.c **** }
 352              		.loc 1 1259 0
 353 0068 2046     		mov	r0, r4
 354 006a 40B0     		add	sp, sp, #256
 355              		.cfi_def_cfa_offset 24
 356              		@ sp needed
 357 006c BDE8F081 		pop	{r4, r5, r6, r7, r8, pc}
 358              		.cfi_endproc
 359              	.LFE12:
 360              		.size	CheckCrcAndCopy, .-CheckCrcAndCopy
 361              		.section	.text.FillChecksum,"ax",%progbits
 362              		.align	1
 363              		.thumb
 364              		.thumb_func
 365              		.type	FillChecksum, %function
 366              	FillChecksum:
 367              	.LFB14:
1260:Generated_Source\PSoC5/cy_em_eeprom.c **** 
1261:Generated_Source\PSoC5/cy_em_eeprom.c **** 
1262:Generated_Source\PSoC5/cy_em_eeprom.c **** /*******************************************************************************
1263:Generated_Source\PSoC5/cy_em_eeprom.c **** * Function Name: GetAddresses
1264:Generated_Source\PSoC5/cy_em_eeprom.c **** ****************************************************************************//**
1265:Generated_Source\PSoC5/cy_em_eeprom.c **** *
1266:Generated_Source\PSoC5/cy_em_eeprom.c **** * Calculates the start and end address of the row's EEPROM data to be updated.
1267:Generated_Source\PSoC5/cy_em_eeprom.c **** * The start and end are not absolute addresses but a relative addresses in a
1268:Generated_Source\PSoC5/cy_em_eeprom.c **** * flash row.
1269:Generated_Source\PSoC5/cy_em_eeprom.c **** *
ARM GAS  C:\Users\RABBIT~1\AppData\Local\Temp\ccgw4IdU.s 			page 30


1270:Generated_Source\PSoC5/cy_em_eeprom.c **** * \param startAddr
1271:Generated_Source\PSoC5/cy_em_eeprom.c **** * The pointer the address where the EEPROM data start address will be returned.
1272:Generated_Source\PSoC5/cy_em_eeprom.c **** *
1273:Generated_Source\PSoC5/cy_em_eeprom.c **** * \param endAddr
1274:Generated_Source\PSoC5/cy_em_eeprom.c **** * The pointer the address where the EEPROM data end address will be returned.
1275:Generated_Source\PSoC5/cy_em_eeprom.c **** *
1276:Generated_Source\PSoC5/cy_em_eeprom.c **** * \param offset
1277:Generated_Source\PSoC5/cy_em_eeprom.c **** * The pointer the address where the calculated offset of the EEPROM header data
1278:Generated_Source\PSoC5/cy_em_eeprom.c **** * will be returned.
1279:Generated_Source\PSoC5/cy_em_eeprom.c **** *
1280:Generated_Source\PSoC5/cy_em_eeprom.c **** * \param rowNum
1281:Generated_Source\PSoC5/cy_em_eeprom.c **** * The row number that is about to be written.
1282:Generated_Source\PSoC5/cy_em_eeprom.c **** *
1283:Generated_Source\PSoC5/cy_em_eeprom.c **** * \param addr
1284:Generated_Source\PSoC5/cy_em_eeprom.c **** * The address of the EEPROM header data in the currently analyzed row that may
1285:Generated_Source\PSoC5/cy_em_eeprom.c **** * concern to the row about to be written.
1286:Generated_Source\PSoC5/cy_em_eeprom.c **** *
1287:Generated_Source\PSoC5/cy_em_eeprom.c **** * \param len
1288:Generated_Source\PSoC5/cy_em_eeprom.c **** * The length of the EEPROM header data in the currently analyzed row that may
1289:Generated_Source\PSoC5/cy_em_eeprom.c **** * concern to the row about to be written.
1290:Generated_Source\PSoC5/cy_em_eeprom.c **** *
1291:Generated_Source\PSoC5/cy_em_eeprom.c **** * \return
1292:Generated_Source\PSoC5/cy_em_eeprom.c **** * Zero indicates that the currently analyzed row has the data to be written to
1293:Generated_Source\PSoC5/cy_em_eeprom.c **** * the active EEPROM row data locations. Non zero value indicates that there is
1294:Generated_Source\PSoC5/cy_em_eeprom.c **** * no data to be written
1295:Generated_Source\PSoC5/cy_em_eeprom.c **** *
1296:Generated_Source\PSoC5/cy_em_eeprom.c **** *******************************************************************************/
1297:Generated_Source\PSoC5/cy_em_eeprom.c **** static uint32 GetAddresses(uint32 *startAddr, 
1298:Generated_Source\PSoC5/cy_em_eeprom.c ****                         uint32 *endAddr, 
1299:Generated_Source\PSoC5/cy_em_eeprom.c ****                         uint32 *offset,
1300:Generated_Source\PSoC5/cy_em_eeprom.c ****                         uint32 rowNum,
1301:Generated_Source\PSoC5/cy_em_eeprom.c ****                         uint32 addr,
1302:Generated_Source\PSoC5/cy_em_eeprom.c ****                         uint32 len)
1303:Generated_Source\PSoC5/cy_em_eeprom.c **** {
1304:Generated_Source\PSoC5/cy_em_eeprom.c ****     uint32 skip = 0u;
1305:Generated_Source\PSoC5/cy_em_eeprom.c **** 
1306:Generated_Source\PSoC5/cy_em_eeprom.c ****     *offset =0u;
1307:Generated_Source\PSoC5/cy_em_eeprom.c **** 
1308:Generated_Source\PSoC5/cy_em_eeprom.c ****     if(0u != CY_EM_EEPROM_IS_ADDR_IN_ROW_RANGE(addr, rowNum))
1309:Generated_Source\PSoC5/cy_em_eeprom.c ****     {
1310:Generated_Source\PSoC5/cy_em_eeprom.c ****         *startAddr = CY_EM_EEPROM_EEPROM_DATA_LEN + (addr % CY_EM_EEPROM_EEPROM_DATA_LEN);
1311:Generated_Source\PSoC5/cy_em_eeprom.c **** 
1312:Generated_Source\PSoC5/cy_em_eeprom.c ****         if(0u != CY_EM_EEPROM_IS_ADDR_IN_ROW_RANGE(addr + len, rowNum))
1313:Generated_Source\PSoC5/cy_em_eeprom.c ****         {
1314:Generated_Source\PSoC5/cy_em_eeprom.c ****             *endAddr = *startAddr + len;
1315:Generated_Source\PSoC5/cy_em_eeprom.c ****         }
1316:Generated_Source\PSoC5/cy_em_eeprom.c ****         else
1317:Generated_Source\PSoC5/cy_em_eeprom.c ****         {
1318:Generated_Source\PSoC5/cy_em_eeprom.c ****             *endAddr = CY_EM_EEPROM_FLASH_SIZEOF_ROW;
1319:Generated_Source\PSoC5/cy_em_eeprom.c ****         }
1320:Generated_Source\PSoC5/cy_em_eeprom.c ****     }
1321:Generated_Source\PSoC5/cy_em_eeprom.c ****     else
1322:Generated_Source\PSoC5/cy_em_eeprom.c ****     {
1323:Generated_Source\PSoC5/cy_em_eeprom.c **** 
1324:Generated_Source\PSoC5/cy_em_eeprom.c ****         if(0u != CY_EM_EEPROM_IS_ADDR_IN_ROW_RANGE(addr + len, rowNum))
1325:Generated_Source\PSoC5/cy_em_eeprom.c ****         {
1326:Generated_Source\PSoC5/cy_em_eeprom.c ****             *startAddr = CY_EM_EEPROM_EEPROM_DATA_LEN;
ARM GAS  C:\Users\RABBIT~1\AppData\Local\Temp\ccgw4IdU.s 			page 31


1327:Generated_Source\PSoC5/cy_em_eeprom.c ****             *endAddr = (*startAddr + len) - (*startAddr - (addr % CY_EM_EEPROM_EEPROM_DATA_LEN));
1328:Generated_Source\PSoC5/cy_em_eeprom.c ****             *offset = len - (*endAddr - *startAddr);
1329:Generated_Source\PSoC5/cy_em_eeprom.c ****         }
1330:Generated_Source\PSoC5/cy_em_eeprom.c ****         else
1331:Generated_Source\PSoC5/cy_em_eeprom.c ****         {
1332:Generated_Source\PSoC5/cy_em_eeprom.c ****             skip++;
1333:Generated_Source\PSoC5/cy_em_eeprom.c ****         }
1334:Generated_Source\PSoC5/cy_em_eeprom.c ****     }
1335:Generated_Source\PSoC5/cy_em_eeprom.c **** 
1336:Generated_Source\PSoC5/cy_em_eeprom.c ****     return (skip);
1337:Generated_Source\PSoC5/cy_em_eeprom.c **** }
1338:Generated_Source\PSoC5/cy_em_eeprom.c **** 
1339:Generated_Source\PSoC5/cy_em_eeprom.c **** 
1340:Generated_Source\PSoC5/cy_em_eeprom.c **** /*******************************************************************************
1341:Generated_Source\PSoC5/cy_em_eeprom.c **** * Function Name: FillChecksum
1342:Generated_Source\PSoC5/cy_em_eeprom.c **** ****************************************************************************//**
1343:Generated_Source\PSoC5/cy_em_eeprom.c **** *
1344:Generated_Source\PSoC5/cy_em_eeprom.c **** * Performs calculation of the checksum on each row in the Em_EEPROM and fills
1345:Generated_Source\PSoC5/cy_em_eeprom.c **** * the Em_EEPROM headers checksum field with the calculated checksums.
1346:Generated_Source\PSoC5/cy_em_eeprom.c **** *
1347:Generated_Source\PSoC5/cy_em_eeprom.c **** * \param context
1348:Generated_Source\PSoC5/cy_em_eeprom.c **** * The pointer to the EEPROM context structure.
1349:Generated_Source\PSoC5/cy_em_eeprom.c **** *
1350:Generated_Source\PSoC5/cy_em_eeprom.c **** * \return
1351:Generated_Source\PSoC5/cy_em_eeprom.c **** * error / status code. See \ref cy_en_em_eeprom_status_t.
1352:Generated_Source\PSoC5/cy_em_eeprom.c **** *
1353:Generated_Source\PSoC5/cy_em_eeprom.c **** * \theory 
1354:Generated_Source\PSoC5/cy_em_eeprom.c **** * In case if redundant copy option is used the Em_EEPROM would return bad 
1355:Generated_Source\PSoC5/cy_em_eeprom.c **** * checksum while trying to read the EEPROM rows which were not yet written by 
1356:Generated_Source\PSoC5/cy_em_eeprom.c **** * the user. E.g. any read after device reprogramming without previous Write() 
1357:Generated_Source\PSoC5/cy_em_eeprom.c **** * operation to the EEPROM would fail. This would happen because the Em_EEPROM 
1358:Generated_Source\PSoC5/cy_em_eeprom.c **** * headers checksum field values (which is zero at the moment) would not be 
1359:Generated_Source\PSoC5/cy_em_eeprom.c **** * equal to the actual data checksum. This function allows to avoid read failure
1360:Generated_Source\PSoC5/cy_em_eeprom.c **** * after device reprogramming. 
1361:Generated_Source\PSoC5/cy_em_eeprom.c **** *
1362:Generated_Source\PSoC5/cy_em_eeprom.c **** * \note
1363:Generated_Source\PSoC5/cy_em_eeprom.c **** * This function uses a buffer of the flash row size to perform read
1364:Generated_Source\PSoC5/cy_em_eeprom.c **** * operation. For the size of the row refer to the specific PSoC device
1365:Generated_Source\PSoC5/cy_em_eeprom.c **** * datasheet.
1366:Generated_Source\PSoC5/cy_em_eeprom.c **** *
1367:Generated_Source\PSoC5/cy_em_eeprom.c **** *******************************************************************************/
1368:Generated_Source\PSoC5/cy_em_eeprom.c **** static cy_en_em_eeprom_status_t FillChecksum(cy_stc_eeprom_context_t * context)
1369:Generated_Source\PSoC5/cy_em_eeprom.c **** {
 368              		.loc 1 1369 0
 369              		.cfi_startproc
 370              		@ args = 0, pretend = 0, frame = 264
 371              		@ frame_needed = 0, uses_anonymous_args = 0
 372              	.LVL47:
 373 0000 F0B5     		push	{r4, r5, r6, r7, lr}
 374              		.cfi_def_cfa_offset 20
 375              		.cfi_offset 4, -20
 376              		.cfi_offset 5, -16
 377              		.cfi_offset 6, -12
 378              		.cfi_offset 7, -8
 379              		.cfi_offset 14, -4
1370:Generated_Source\PSoC5/cy_em_eeprom.c ****     uint32 i;
1371:Generated_Source\PSoC5/cy_em_eeprom.c ****     uint32 rdAddr;
ARM GAS  C:\Users\RABBIT~1\AppData\Local\Temp\ccgw4IdU.s 			page 32


1372:Generated_Source\PSoC5/cy_em_eeprom.c ****     uint32 writeRamBuffer[CY_EM_EEPROM_FLASH_SIZEOF_ROW / CY_EM_EEPROM_U32_DIV];
1373:Generated_Source\PSoC5/cy_em_eeprom.c ****     uint32 wrAddr = context->lastWrRowAddr;
 380              		.loc 1 1373 0
 381 0002 8368     		ldr	r3, [r0, #8]
1369:Generated_Source\PSoC5/cy_em_eeprom.c ****     uint32 i;
 382              		.loc 1 1369 0
 383 0004 C3B0     		sub	sp, sp, #268
 384              		.cfi_def_cfa_offset 288
 385              		.loc 1 1373 0
 386 0006 0193     		str	r3, [sp, #4]
1374:Generated_Source\PSoC5/cy_em_eeprom.c ****     uint32 tmpRowAddr;
1375:Generated_Source\PSoC5/cy_em_eeprom.c ****     /* Get the sequence number (number of writes) */
1376:Generated_Source\PSoC5/cy_em_eeprom.c ****     uint32 seqNum = CY_EM_EEPROM_GET_SEQ_NUM(wrAddr);
 387              		.loc 1 1376 0
 388 0008 1E68     		ldr	r6, [r3]
 389              	.LVL48:
1369:Generated_Source\PSoC5/cy_em_eeprom.c ****     uint32 i;
 390              		.loc 1 1369 0
 391 000a 0446     		mov	r4, r0
 392              		.loc 1 1376 0
 393 000c 3546     		mov	r5, r6
1377:Generated_Source\PSoC5/cy_em_eeprom.c ****     cy_en_em_eeprom_status_t ret = CY_EM_EEPROM_BAD_PARAM;
 394              		.loc 1 1377 0
 395 000e 0127     		movs	r7, #1
 396              	.LVL49:
 397              	.L35:
1378:Generated_Source\PSoC5/cy_em_eeprom.c **** 
1379:Generated_Source\PSoC5/cy_em_eeprom.c ****     for(i = 0u; i < (context->numberOfRows * context->wearLevelingFactor); i++)
 398              		.loc 1 1379 0 discriminator 1
 399 0010 6168     		ldr	r1, [r4, #4]
 400 0012 2369     		ldr	r3, [r4, #16]
 401 0014 AA1B     		subs	r2, r5, r6
 402              	.LVL50:
 403 0016 4B43     		muls	r3, r1, r3
 404 0018 9A42     		cmp	r2, r3
 405 001a 20D2     		bcs	.L37
1380:Generated_Source\PSoC5/cy_em_eeprom.c ****     {
1381:Generated_Source\PSoC5/cy_em_eeprom.c ****         /* Copy the EEPROM row from Flash to RAM */
1382:Generated_Source\PSoC5/cy_em_eeprom.c ****         (void)memcpy((void *)&writeRamBuffer[0u], (void *)(wrAddr), CY_EM_EEPROM_FLASH_SIZEOF_ROW);
 406              		.loc 1 1382 0 discriminator 3
 407 001c 019F     		ldr	r7, [sp, #4]
 408 001e 4FF48072 		mov	r2, #256
 409              	.LVL51:
 410 0022 3946     		mov	r1, r7
 411 0024 02A8     		add	r0, sp, #8
 412 0026 FFF7FEFF 		bl	memcpy
 413              	.LVL52:
1383:Generated_Source\PSoC5/cy_em_eeprom.c **** 
1384:Generated_Source\PSoC5/cy_em_eeprom.c ****         /* Increment the sequence number */
1385:Generated_Source\PSoC5/cy_em_eeprom.c ****         seqNum++;
 414              		.loc 1 1385 0 discriminator 3
 415 002a 0135     		adds	r5, r5, #1
 416              	.LVL53:
1386:Generated_Source\PSoC5/cy_em_eeprom.c ****         writeRamBuffer[CY_EM_EEPROM_HEADER_SEQ_NUM_OFFSET_U32] = seqNum;
1387:Generated_Source\PSoC5/cy_em_eeprom.c **** 
1388:Generated_Source\PSoC5/cy_em_eeprom.c ****         /* Calculate and fill the checksum to the Em_EEPROM header */
1389:Generated_Source\PSoC5/cy_em_eeprom.c ****         writeRamBuffer[CY_EM_EEPROM_HEADER_CHECKSUM_OFFSET_U32] = (uint32)
ARM GAS  C:\Users\RABBIT~1\AppData\Local\Temp\ccgw4IdU.s 			page 33


1390:Generated_Source\PSoC5/cy_em_eeprom.c ****                     CalcChecksum((uint8 *) &writeRamBuffer[CY_EM_EEPROM_EEPROM_DATA_OFFSET_U32],
 417              		.loc 1 1390 0 discriminator 3
 418 002c 22A8     		add	r0, sp, #136
1386:Generated_Source\PSoC5/cy_em_eeprom.c ****         writeRamBuffer[CY_EM_EEPROM_HEADER_SEQ_NUM_OFFSET_U32] = seqNum;
 419              		.loc 1 1386 0 discriminator 3
 420 002e 0295     		str	r5, [sp, #8]
 421              		.loc 1 1390 0 discriminator 3
 422 0030 FFF7FEFF 		bl	CalcChecksum.constprop.1
 423              	.LVL54:
1391:Generated_Source\PSoC5/cy_em_eeprom.c ****                                               CY_EM_EEPROM_EEPROM_DATA_LEN);
1392:Generated_Source\PSoC5/cy_em_eeprom.c **** 
1393:Generated_Source\PSoC5/cy_em_eeprom.c ****         /* Write the data to the specified flash row */
1394:Generated_Source\PSoC5/cy_em_eeprom.c ****         ret = WriteRow(wrAddr, writeRamBuffer, context);
 424              		.loc 1 1394 0 discriminator 3
 425 0034 02A9     		add	r1, sp, #8
1389:Generated_Source\PSoC5/cy_em_eeprom.c ****                     CalcChecksum((uint8 *) &writeRamBuffer[CY_EM_EEPROM_EEPROM_DATA_OFFSET_U32],
 426              		.loc 1 1389 0 discriminator 3
 427 0036 2190     		str	r0, [sp, #132]
 428              		.loc 1 1394 0 discriminator 3
 429 0038 3846     		mov	r0, r7
 430 003a FFF7FEFF 		bl	WriteRow.isra.0
 431              	.LVL55:
1395:Generated_Source\PSoC5/cy_em_eeprom.c **** 
1396:Generated_Source\PSoC5/cy_em_eeprom.c ****         /* Update the row address to point to the relevant row in the redundant 
1397:Generated_Source\PSoC5/cy_em_eeprom.c ****         * EEPROM's copy.
1398:Generated_Source\PSoC5/cy_em_eeprom.c ****         */
1399:Generated_Source\PSoC5/cy_em_eeprom.c ****         tmpRowAddr = (wrAddr - context->userFlashStartAddr) + context->wlEndAddr;
1400:Generated_Source\PSoC5/cy_em_eeprom.c **** 
1401:Generated_Source\PSoC5/cy_em_eeprom.c ****         /* Write the data to the specified flash row */
1402:Generated_Source\PSoC5/cy_em_eeprom.c ****         ret = WriteRow(tmpRowAddr, writeRamBuffer, context);
 432              		.loc 1 1402 0 discriminator 3
 433 003e 0198     		ldr	r0, [sp, #4]
 434 0040 2368     		ldr	r3, [r4]
 435 0042 02A9     		add	r1, sp, #8
 436 0044 0344     		add	r3, r3, r0
 437 0046 A069     		ldr	r0, [r4, #24]
 438 0048 181A     		subs	r0, r3, r0
 439              	.LVL56:
 440 004a FFF7FEFF 		bl	WriteRow.isra.0
 441              	.LVL57:
1403:Generated_Source\PSoC5/cy_em_eeprom.c **** 
1404:Generated_Source\PSoC5/cy_em_eeprom.c ****         /* Get the address of the next row to be written. 
1405:Generated_Source\PSoC5/cy_em_eeprom.c ****         * "rdAddr" is not used in this function but provided to prevent NULL 
1406:Generated_Source\PSoC5/cy_em_eeprom.c ****         * pointer exception in GetNextRowToWrite().
1407:Generated_Source\PSoC5/cy_em_eeprom.c ****         */
1408:Generated_Source\PSoC5/cy_em_eeprom.c ****         GetNextRowToWrite(seqNum, &wrAddr, &rdAddr, context);
 442              		.loc 1 1408 0 discriminator 3
 443 004e 2346     		mov	r3, r4
1402:Generated_Source\PSoC5/cy_em_eeprom.c **** 
 444              		.loc 1 1402 0 discriminator 3
 445 0050 0746     		mov	r7, r0
 446              	.LVL58:
 447              		.loc 1 1408 0 discriminator 3
 448 0052 6A46     		mov	r2, sp
 449 0054 01A9     		add	r1, sp, #4
 450 0056 2846     		mov	r0, r5
 451              	.LVL59:
ARM GAS  C:\Users\RABBIT~1\AppData\Local\Temp\ccgw4IdU.s 			page 34


 452 0058 FFF7FEFF 		bl	GetNextRowToWrite
 453              	.LVL60:
 454 005c D8E7     		b	.L35
 455              	.LVL61:
 456              	.L37:
1409:Generated_Source\PSoC5/cy_em_eeprom.c ****     }
1410:Generated_Source\PSoC5/cy_em_eeprom.c ****     
1411:Generated_Source\PSoC5/cy_em_eeprom.c ****     return(ret);
1412:Generated_Source\PSoC5/cy_em_eeprom.c **** }
 457              		.loc 1 1412 0
 458 005e 3846     		mov	r0, r7
 459 0060 43B0     		add	sp, sp, #268
 460              		.cfi_def_cfa_offset 20
 461              		@ sp needed
 462 0062 F0BD     		pop	{r4, r5, r6, r7, pc}
 463              		.cfi_endproc
 464              	.LFE14:
 465              		.size	FillChecksum, .-FillChecksum
 466              		.section	.text.Cy_Em_EEPROM_Init,"ax",%progbits
 467              		.align	1
 468              		.global	Cy_Em_EEPROM_Init
 469              		.thumb
 470              		.thumb_func
 471              		.type	Cy_Em_EEPROM_Init, %function
 472              	Cy_Em_EEPROM_Init:
 473              	.LFB0:
  96:Generated_Source\PSoC5/cy_em_eeprom.c ****     cy_en_em_eeprom_status_t ret = CY_EM_EEPROM_BAD_PARAM;
 474              		.loc 1 96 0
 475              		.cfi_startproc
 476              		@ args = 0, pretend = 0, frame = 0
 477              		@ frame_needed = 0, uses_anonymous_args = 0
 478              	.LVL62:
 479 0000 F8B5     		push	{r3, r4, r5, r6, r7, lr}
 480              		.cfi_def_cfa_offset 24
 481              		.cfi_offset 3, -24
 482              		.cfi_offset 4, -20
 483              		.cfi_offset 5, -16
 484              		.cfi_offset 6, -12
 485              		.cfi_offset 7, -8
 486              		.cfi_offset 14, -4
  99:Generated_Source\PSoC5/cy_em_eeprom.c ****         (config->wearLevelingFactor <= CY_EM_EEPROM_MAX_WEAR_LEVELING_FACTOR) && (config->eepromSiz
 487              		.loc 1 99 0
 488 0002 0D46     		mov	r5, r1
 489 0004 C1B1     		cbz	r1, .L46
  99:Generated_Source\PSoC5/cy_em_eeprom.c ****         (config->wearLevelingFactor <= CY_EM_EEPROM_MAX_WEAR_LEVELING_FACTOR) && (config->eepromSiz
 490              		.loc 1 99 0 is_stmt 0 discriminator 1
 491 0006 B8B1     		cbz	r0, .L46
  99:Generated_Source\PSoC5/cy_em_eeprom.c ****         (config->wearLevelingFactor <= CY_EM_EEPROM_MAX_WEAR_LEVELING_FACTOR) && (config->eepromSiz
 492              		.loc 1 99 0 discriminator 2
 493 0008 C768     		ldr	r7, [r0, #12]
 494 000a AFB1     		cbz	r7, .L46
 100:Generated_Source\PSoC5/cy_em_eeprom.c ****     {
 495              		.loc 1 100 0 is_stmt 1 discriminator 3
 496 000c 4668     		ldr	r6, [r0, #4]
  99:Generated_Source\PSoC5/cy_em_eeprom.c ****         (config->wearLevelingFactor <= CY_EM_EEPROM_MAX_WEAR_LEVELING_FACTOR) && (config->eepromSiz
 497              		.loc 1 99 0 discriminator 3
 498 000e 0A2E     		cmp	r6, #10
ARM GAS  C:\Users\RABBIT~1\AppData\Local\Temp\ccgw4IdU.s 			page 35


 499 0010 12D8     		bhi	.L46
 100:Generated_Source\PSoC5/cy_em_eeprom.c ****     {
 500              		.loc 1 100 0
 501 0012 0268     		ldr	r2, [r0]
 502 0014 82B1     		cbz	r2, .L46
 503              	.LVL63:
 504              	.LBB4:
 505              	.LBB5:
 964:Generated_Source\PSoC5/cy_em_eeprom.c ****     {
 506              		.loc 1 964 0
 507 0016 047A     		ldrb	r4, [r0, #8]	@ zero_extendqisi2
 508 0018 3302     		lsls	r3, r6, #8
 509              	.LVL64:
 510 001a 04FB0333 		mla	r3, r4, r3, r3
 511              	.LVL65:
 512 001e 12F07F04 		ands	r4, r2, #127
 513              	.LVL66:
 514 0022 18BF     		it	ne
 515 0024 0124     		movne	r4, #1
 516              	.LVL67:
 517 0026 04EBD214 		add	r4, r4, r2, lsr #7
 518 002a 04FB0373 		mla	r3, r4, r3, r7
 519 002e B3F5003F 		cmp	r3, #131072
 520 0032 03D9     		bls	.L40
 521 0034 0324     		movs	r4, #3
 522 0036 2AE0     		b	.L49
 523              	.LVL68:
 524              	.L46:
 525              	.LBE5:
 526              	.LBE4:
  97:Generated_Source\PSoC5/cy_em_eeprom.c **** 
 527              		.loc 1 97 0
 528 0038 0124     		movs	r4, #1
 529 003a 28E0     		b	.L49
 530              	.LVL69:
 531              	.L40:
 108:Generated_Source\PSoC5/cy_em_eeprom.c ****             context->redundantCopy = config->redundantCopy;
 532              		.loc 1 108 0
 533 003c 0E61     		str	r6, [r1, #16]
 114:Generated_Source\PSoC5/cy_em_eeprom.c ****                     config->userFlashStartAddr);
 534              		.loc 1 114 0
 535 003e 0E46     		mov	r6, r1
 107:Generated_Source\PSoC5/cy_em_eeprom.c ****             context->wearLevelingFactor = config->wearLevelingFactor;
 536              		.loc 1 107 0
 537 0040 CA60     		str	r2, [r1, #12]
 109:Generated_Source\PSoC5/cy_em_eeprom.c ****             context->blockingWrite = config->blockingWrite;
 538              		.loc 1 109 0
 539 0042 037A     		ldrb	r3, [r0, #8]	@ zero_extendqisi2
 540 0044 0B75     		strb	r3, [r1, #20]
 110:Generated_Source\PSoC5/cy_em_eeprom.c ****             context->userFlashStartAddr = config->userFlashStartAddr;
 541              		.loc 1 110 0
 542 0046 437A     		ldrb	r3, [r0, #9]	@ zero_extendqisi2
 543 0048 4B75     		strb	r3, [r1, #21]
 113:Generated_Source\PSoC5/cy_em_eeprom.c ****             context->wlEndAddr = ((CY_EM_EEPROM_GET_EEPROM_SIZE(context->numberOfRows) * config->we
 544              		.loc 1 113 0
 545 004a 0268     		ldr	r2, [r0]
 111:Generated_Source\PSoC5/cy_em_eeprom.c ****             /* Store frequently used data for internal use */
ARM GAS  C:\Users\RABBIT~1\AppData\Local\Temp\ccgw4IdU.s 			page 36


 546              		.loc 1 111 0
 547 004c C468     		ldr	r4, [r0, #12]
 113:Generated_Source\PSoC5/cy_em_eeprom.c ****             context->wlEndAddr = ((CY_EM_EEPROM_GET_EEPROM_SIZE(context->numberOfRows) * config->we
 548              		.loc 1 113 0
 549 004e 12F07F03 		ands	r3, r2, #127
 550 0052 18BF     		it	ne
 551 0054 0123     		movne	r3, #1
 552 0056 03EBD213 		add	r3, r3, r2, lsr #7
 114:Generated_Source\PSoC5/cy_em_eeprom.c ****                     config->userFlashStartAddr);
 553              		.loc 1 114 0
 554 005a 4268     		ldr	r2, [r0, #4]
 113:Generated_Source\PSoC5/cy_em_eeprom.c ****             context->wlEndAddr = ((CY_EM_EEPROM_GET_EEPROM_SIZE(context->numberOfRows) * config->we
 555              		.loc 1 113 0
 556 005c 4B60     		str	r3, [r1, #4]
 114:Generated_Source\PSoC5/cy_em_eeprom.c ****                     config->userFlashStartAddr);
 557              		.loc 1 114 0
 558 005e 1202     		lsls	r2, r2, #8
 559 0060 03FB0243 		mla	r3, r3, r2, r4
 111:Generated_Source\PSoC5/cy_em_eeprom.c ****             /* Store frequently used data for internal use */
 560              		.loc 1 111 0
 561 0064 8C61     		str	r4, [r1, #24]
 114:Generated_Source\PSoC5/cy_em_eeprom.c ****                     config->userFlashStartAddr);
 562              		.loc 1 114 0
 563 0066 46F8083B 		str	r3, [r6], #8
 117:Generated_Source\PSoC5/cy_em_eeprom.c **** 
 564              		.loc 1 117 0
 565 006a 3046     		mov	r0, r6
 566              	.LVL70:
 567 006c FFF7FEFF 		bl	FindLastWrittenRow
 568              	.LVL71:
 119:Generated_Source\PSoC5/cy_em_eeprom.c ****             {
 569              		.loc 1 119 0
 570 0070 8B68     		ldr	r3, [r1, #8]
 571 0072 1B68     		ldr	r3, [r3]
 572 0074 53B9     		cbnz	r3, .L50
 119:Generated_Source\PSoC5/cy_em_eeprom.c ****             {
 573              		.loc 1 119 0 is_stmt 0 discriminator 1
 574 0076 2C7D     		ldrb	r4, [r5, #20]	@ zero_extendqisi2
 575 0078 4CB1     		cbz	r4, .L49
 124:Generated_Source\PSoC5/cy_em_eeprom.c ****                 
 576              		.loc 1 124 0 is_stmt 1
 577 007a 2846     		mov	r0, r5
 578 007c FFF7FEFF 		bl	FillChecksum
 579              	.LVL72:
 127:Generated_Source\PSoC5/cy_em_eeprom.c ****             }
 580              		.loc 1 127 0
 581 0080 2946     		mov	r1, r5
 124:Generated_Source\PSoC5/cy_em_eeprom.c ****                 
 582              		.loc 1 124 0
 583 0082 0446     		mov	r4, r0
 584              	.LVL73:
 127:Generated_Source\PSoC5/cy_em_eeprom.c ****             }
 585              		.loc 1 127 0
 586 0084 3046     		mov	r0, r6
 587 0086 FFF7FEFF 		bl	FindLastWrittenRow
 588              	.LVL74:
 589 008a 00E0     		b	.L49
ARM GAS  C:\Users\RABBIT~1\AppData\Local\Temp\ccgw4IdU.s 			page 37


 590              	.LVL75:
 591              	.L50:
 592 008c 0024     		movs	r4, #0
 593              	.LVL76:
 594              	.L49:
 133:Generated_Source\PSoC5/cy_em_eeprom.c **** 
 595              		.loc 1 133 0
 596 008e 2046     		mov	r0, r4
 597 0090 F8BD     		pop	{r3, r4, r5, r6, r7, pc}
 598              		.cfi_endproc
 599              	.LFE0:
 600              		.size	Cy_Em_EEPROM_Init, .-Cy_Em_EEPROM_Init
 601              		.section	.text.Cy_Em_EEPROM_Read,"ax",%progbits
 602              		.align	1
 603              		.global	Cy_Em_EEPROM_Read
 604              		.thumb
 605              		.thumb_func
 606              		.type	Cy_Em_EEPROM_Read, %function
 607              	Cy_Em_EEPROM_Read:
 608              	.LFB1:
 173:Generated_Source\PSoC5/cy_em_eeprom.c ****     cy_en_em_eeprom_status_t ret = CY_EM_EEPROM_BAD_PARAM;
 609              		.loc 1 173 0
 610              		.cfi_startproc
 611              		@ args = 0, pretend = 0, frame = 32
 612              		@ frame_needed = 0, uses_anonymous_args = 0
 613              	.LVL77:
 614 0000 2DE9F04F 		push	{r4, r5, r6, r7, r8, r9, r10, fp, lr}
 615              		.cfi_def_cfa_offset 36
 616              		.cfi_offset 4, -36
 617              		.cfi_offset 5, -32
 618              		.cfi_offset 6, -28
 619              		.cfi_offset 7, -24
 620              		.cfi_offset 8, -20
 621              		.cfi_offset 9, -16
 622              		.cfi_offset 10, -12
 623              		.cfi_offset 11, -8
 624              		.cfi_offset 14, -4
 625 0004 8BB0     		sub	sp, sp, #44
 626              		.cfi_def_cfa_offset 80
 627              	.LVL78:
 173:Generated_Source\PSoC5/cy_em_eeprom.c ****     cy_en_em_eeprom_status_t ret = CY_EM_EEPROM_BAD_PARAM;
 628              		.loc 1 173 0
 629 0006 0546     		mov	r5, r0
 630 0008 0891     		str	r1, [sp, #32]
 631              	.LVL79:
 632 000a 1C46     		mov	r4, r3
 186:Generated_Source\PSoC5/cy_em_eeprom.c ****     {
 633              		.loc 1 186 0
 634 000c 9046     		mov	r8, r2
 635 000e 002A     		cmp	r2, #0
 636 0010 00F0D080 		beq	.L82
 186:Generated_Source\PSoC5/cy_em_eeprom.c ****     {
 637              		.loc 1 186 0 is_stmt 0 discriminator 1
 638 0014 1318     		adds	r3, r2, r0
 639              	.LVL80:
 640 0016 0293     		str	r3, [sp, #8]
 641 0018 029A     		ldr	r2, [sp, #8]
ARM GAS  C:\Users\RABBIT~1\AppData\Local\Temp\ccgw4IdU.s 			page 38


 642              	.LVL81:
 643 001a E368     		ldr	r3, [r4, #12]
 644 001c 9A42     		cmp	r2, r3
 645 001e 00F2C980 		bhi	.L82
 186:Generated_Source\PSoC5/cy_em_eeprom.c ****     {
 646              		.loc 1 186 0 discriminator 2
 647 0022 0029     		cmp	r1, #0
 648 0024 00F0C680 		beq	.L82
 649              	.LVL82:
 650              	.LBB12:
 191:Generated_Source\PSoC5/cy_em_eeprom.c ****         uint32 updateAddrFlag = 0u;
 651              		.loc 1 191 0 is_stmt 1
 652 0028 A368     		ldr	r3, [r4, #8]
 653 002a 1A68     		ldr	r2, [r3]
 654 002c 0392     		str	r2, [sp, #12]
 655              	.LVL83:
 197:Generated_Source\PSoC5/cy_em_eeprom.c ****                               (rdAddr / CY_EM_EEPROM_EEPROM_DATA_LEN)) + 1u;
 656              		.loc 1 197 0
 657 002e 029A     		ldr	r2, [sp, #8]
 658              	.LVL84:
 659 0030 511E     		subs	r1, r2, #1
 660              	.LVL85:
 661 0032 C209     		lsrs	r2, r0, #7
 662 0034 C2F10102 		rsb	r2, r2, #1
 663 0038 02EBD112 		add	r2, r2, r1, lsr #7
 204:Generated_Source\PSoC5/cy_em_eeprom.c ****                               (CY_EM_EEPROM_FLASH_SIZEOF_ROW * context->numberOfRows)) *
 664              		.loc 1 204 0
 665 003c A069     		ldr	r0, [r4, #24]
 666              	.LVL86:
 205:Generated_Source\PSoC5/cy_em_eeprom.c ****                               (CY_EM_EEPROM_FLASH_SIZEOF_ROW * context->numberOfRows)) +
 667              		.loc 1 205 0
 668 003e 6168     		ldr	r1, [r4, #4]
 197:Generated_Source\PSoC5/cy_em_eeprom.c ****                               (rdAddr / CY_EM_EEPROM_EEPROM_DATA_LEN)) + 1u;
 669              		.loc 1 197 0
 670 0040 0692     		str	r2, [sp, #24]
 671              	.LVL87:
 205:Generated_Source\PSoC5/cy_em_eeprom.c ****                               (CY_EM_EEPROM_FLASH_SIZEOF_ROW * context->numberOfRows)) +
 672              		.loc 1 205 0
 673 0042 0E02     		lsls	r6, r1, #8
 204:Generated_Source\PSoC5/cy_em_eeprom.c ****                               (CY_EM_EEPROM_FLASH_SIZEOF_ROW * context->numberOfRows)) *
 674              		.loc 1 204 0
 675 0044 1A1A     		subs	r2, r3, r0
 676              	.LVL88:
 677 0046 B2FBF6F2 		udiv	r2, r2, r6
 678 004a 06FB0202 		mla	r2, r6, r2, r0
 210:Generated_Source\PSoC5/cy_em_eeprom.c ****         {
 679              		.loc 1 210 0
 680 004e 0026     		movs	r6, #0
 204:Generated_Source\PSoC5/cy_em_eeprom.c ****                               (CY_EM_EEPROM_FLASH_SIZEOF_ROW * context->numberOfRows)) *
 681              		.loc 1 204 0
 682 0050 0992     		str	r2, [sp, #36]
 683              	.LVL89:
 684              	.L53:
 210:Generated_Source\PSoC5/cy_em_eeprom.c ****         {
 685              		.loc 1 210 0 discriminator 1
 686 0052 8E42     		cmp	r6, r1
 687 0054 08D0     		beq	.L92
ARM GAS  C:\Users\RABBIT~1\AppData\Local\Temp\ccgw4IdU.s 			page 39


 688 0056 F201     		lsls	r2, r6, #7
 212:Generated_Source\PSoC5/cy_em_eeprom.c ****             {
 689              		.loc 1 212 0
 690 0058 9542     		cmp	r5, r2
 691 005a C0F0AD80 		bcc	.L54
 212:Generated_Source\PSoC5/cy_em_eeprom.c ****             {
 692              		.loc 1 212 0 is_stmt 0 discriminator 1
 693 005e 7F32     		adds	r2, r2, #127
 694 0060 9542     		cmp	r5, r2
 695 0062 00F2A980 		bhi	.L54
 696 0066 00E0     		b	.L55
 697              	.L92:
 698              	.LBE12:
 181:Generated_Source\PSoC5/cy_em_eeprom.c ****     uint32 dataStartEepromRowNum = 0u;
 699              		.loc 1 181 0 is_stmt 1
 700 0068 0026     		movs	r6, #0
 701              	.LVL90:
 702              	.L55:
 703              	.LBB21:
 221:Generated_Source\PSoC5/cy_em_eeprom.c **** 
 704              		.loc 1 221 0
 705 006a 099A     		ldr	r2, [sp, #36]
 706 006c 9B1A     		subs	r3, r3, r2
 707              	.LVL91:
 708 006e 1B0A     		lsrs	r3, r3, #8
 709 0070 0793     		str	r3, [sp, #28]
 710              	.LVL92:
 224:Generated_Source\PSoC5/cy_em_eeprom.c ****         {
 711              		.loc 1 224 0
 712 0072 2369     		ldr	r3, [r4, #16]
 713              	.LVL93:
 714 0074 012B     		cmp	r3, #1
 715 0076 0BD9     		bls	.L79
 716              	.LVL94:
 717              	.LBB13:
 229:Generated_Source\PSoC5/cy_em_eeprom.c ****                               ((dataEndEepromRowNum > actEepromRowNum) ? 1u : 0u);
 718              		.loc 1 229 0
 719 0078 079B     		ldr	r3, [sp, #28]
 720 007a 9E42     		cmp	r6, r3
 721 007c 0AD8     		bhi	.L80
 722              	.LBE13:
 192:Generated_Source\PSoC5/cy_em_eeprom.c **** 
 723              		.loc 1 192 0 discriminator 1
 724 007e 069B     		ldr	r3, [sp, #24]
 725 0080 079A     		ldr	r2, [sp, #28]
 726 0082 013B     		subs	r3, r3, #1
 727              	.LVL95:
 728 0084 3344     		add	r3, r3, r6
 729              	.LVL96:
 730 0086 9A42     		cmp	r2, r3
 731 0088 2CBF     		ite	cs
 732 008a 0023     		movcs	r3, #0
 733 008c 0123     		movcc	r3, #1
 734 008e 02E0     		b	.L91
 735              	.LVL97:
 736              	.L79:
 192:Generated_Source\PSoC5/cy_em_eeprom.c **** 
ARM GAS  C:\Users\RABBIT~1\AppData\Local\Temp\ccgw4IdU.s 			page 40


 737              		.loc 1 192 0 is_stmt 0
 738 0090 0023     		movs	r3, #0
 739 0092 00E0     		b	.L91
 740              	.LVL98:
 741              	.L80:
 742              	.LBB14:
 229:Generated_Source\PSoC5/cy_em_eeprom.c ****                               ((dataEndEepromRowNum > actEepromRowNum) ? 1u : 0u);
 743              		.loc 1 229 0 is_stmt 1
 744 0094 0123     		movs	r3, #1
 745              	.LVL99:
 746              	.L91:
 747              	.LBE14:
 234:Generated_Source\PSoC5/cy_em_eeprom.c ****         {
 748              		.loc 1 234 0
 749 0096 B246     		mov	r10, r6
 750              	.LBE21:
 183:Generated_Source\PSoC5/cy_em_eeprom.c **** 
 751              		.loc 1 183 0
 752 0098 DDF820B0 		ldr	fp, [sp, #32]
 753              	.LBB22:
 754              	.LBB15:
 229:Generated_Source\PSoC5/cy_em_eeprom.c ****                               ((dataEndEepromRowNum > actEepromRowNum) ? 1u : 0u);
 755              		.loc 1 229 0
 756 009c 0593     		str	r3, [sp, #20]
 757              	.LVL100:
 758              	.LBE15:
 234:Generated_Source\PSoC5/cy_em_eeprom.c ****         {
 759              		.loc 1 234 0
 760 009e 0495     		str	r5, [sp, #16]
 761 00a0 4FF00009 		mov	r9, #0
 762              	.LBE22:
 174:Generated_Source\PSoC5/cy_em_eeprom.c ****     uint32 i;
 763              		.loc 1 174 0
 764 00a4 0123     		movs	r3, #1
 765              	.LVL101:
 766              	.L58:
 767              	.LBB23:
 234:Generated_Source\PSoC5/cy_em_eeprom.c ****         {
 768              		.loc 1 234 0 discriminator 1
 769 00a6 069A     		ldr	r2, [sp, #24]
 770 00a8 9145     		cmp	r9, r2
 771 00aa 3AD0     		beq	.L93
 772 00ac 099B     		ldr	r3, [sp, #36]
 773 00ae 09EB0600 		add	r0, r9, r6
 774 00b2 03EB0020 		add	r0, r3, r0, lsl #8
 775              	.LVL102:
 237:Generated_Source\PSoC5/cy_em_eeprom.c **** 
 776              		.loc 1 237 0
 777 00b6 049B     		ldr	r3, [sp, #16]
 242:Generated_Source\PSoC5/cy_em_eeprom.c ****             {
 778              		.loc 1 242 0
 779 00b8 09F10109 		add	r9, r9, #1
 780              	.LVL103:
 237:Generated_Source\PSoC5/cy_em_eeprom.c **** 
 781              		.loc 1 237 0
 782 00bc 03F07F07 		and	r7, r3, #127
 242:Generated_Source\PSoC5/cy_em_eeprom.c ****             {
ARM GAS  C:\Users\RABBIT~1\AppData\Local\Temp\ccgw4IdU.s 			page 41


 783              		.loc 1 242 0
 784 00c0 069B     		ldr	r3, [sp, #24]
 237:Generated_Source\PSoC5/cy_em_eeprom.c **** 
 785              		.loc 1 237 0
 786 00c2 07F18001 		add	r1, r7, #128
 787              	.LVL104:
 242:Generated_Source\PSoC5/cy_em_eeprom.c ****             {
 788              		.loc 1 242 0
 789 00c6 4B45     		cmp	r3, r9
 254:Generated_Source\PSoC5/cy_em_eeprom.c ****             {
 790              		.loc 1 254 0
 791 00c8 059B     		ldr	r3, [sp, #20]
 244:Generated_Source\PSoC5/cy_em_eeprom.c ****             }
 792              		.loc 1 244 0
 793 00ca 8CBF     		ite	hi
 794 00cc C7F18007 		rsbhi	r7, r7, #128
 795              	.LVL105:
 248:Generated_Source\PSoC5/cy_em_eeprom.c ****             }
 796              		.loc 1 248 0
 797 00d0 4746     		movls	r7, r8
 798              	.LVL106:
 254:Generated_Source\PSoC5/cy_em_eeprom.c ****             {
 799              		.loc 1 254 0
 800 00d2 6BB1     		cbz	r3, .L60
 254:Generated_Source\PSoC5/cy_em_eeprom.c ****             {
 801              		.loc 1 254 0 is_stmt 0 discriminator 1
 802 00d4 079B     		ldr	r3, [sp, #28]
 803 00d6 9A45     		cmp	r10, r3
 804 00d8 0AD9     		bls	.L60
 256:Generated_Source\PSoC5/cy_em_eeprom.c **** 
 805              		.loc 1 256 0 is_stmt 1
 806 00da 6368     		ldr	r3, [r4, #4]
 258:Generated_Source\PSoC5/cy_em_eeprom.c ****                 {
 807              		.loc 1 258 0
 808 00dc A269     		ldr	r2, [r4, #24]
 256:Generated_Source\PSoC5/cy_em_eeprom.c **** 
 809              		.loc 1 256 0
 810 00de A0EB0320 		sub	r0, r0, r3, lsl #8
 811              	.LVL107:
 258:Generated_Source\PSoC5/cy_em_eeprom.c ****                 {
 812              		.loc 1 258 0
 813 00e2 9042     		cmp	r0, r2
 260:Generated_Source\PSoC5/cy_em_eeprom.c ****                         ((context->numberOfRows - curRdEepromRowNum) * CY_EM_EEPROM_FLASH_SIZEOF_RO
 814              		.loc 1 260 0
 815 00e4 3EBF     		ittt	cc
 816 00e6 2068     		ldrcc	r0, [r4]
 817              	.LVL108:
 818 00e8 CAEB0303 		rsbcc	r3, r10, r3
 819              	.LVL109:
 820 00ec A0EB0320 		subcc	r0, r0, r3, lsl #8
 821              	.LVL110:
 822              	.L60:
 265:Generated_Source\PSoC5/cy_em_eeprom.c ****             {
 823              		.loc 1 265 0
 824 00f0 237D     		ldrb	r3, [r4, #20]	@ zero_extendqisi2
 825 00f2 3BB1     		cbz	r3, .L61
 270:Generated_Source\PSoC5/cy_em_eeprom.c **** 
ARM GAS  C:\Users\RABBIT~1\AppData\Local\Temp\ccgw4IdU.s 			page 42


 826              		.loc 1 270 0
 827 00f4 0A46     		mov	r2, r1
 828 00f6 0094     		str	r4, [sp]
 829 00f8 3B46     		mov	r3, r7
 830 00fa 5946     		mov	r1, fp
 831              	.LVL111:
 832 00fc FFF7FEFF 		bl	CheckCrcAndCopy
 833              	.LVL112:
 272:Generated_Source\PSoC5/cy_em_eeprom.c ****                 {
 834              		.loc 1 272 0
 835 0100 28B1     		cbz	r0, .L62
 836 0102 5BE0     		b	.L85
 837              	.LVL113:
 838              	.L61:
 280:Generated_Source\PSoC5/cy_em_eeprom.c ****                              (void *)(startRowAddr + curRowOffset),
 839              		.loc 1 280 0
 840 0104 0144     		add	r1, r1, r0
 841              	.LVL114:
 842 0106 3A46     		mov	r2, r7
 843 0108 5846     		mov	r0, fp
 844              	.LVL115:
 845 010a FFF7FEFF 		bl	memcpy
 846              	.LVL116:
 847              	.L62:
 289:Generated_Source\PSoC5/cy_em_eeprom.c ****             rdSize -= numBytesToRead;
 848              		.loc 1 289 0 discriminator 2
 849 010e 049B     		ldr	r3, [sp, #16]
 290:Generated_Source\PSoC5/cy_em_eeprom.c ****             eeData += numBytesToRead;
 850              		.loc 1 290 0 discriminator 2
 851 0110 C7EB0808 		rsb	r8, r7, r8
 852              	.LVL117:
 289:Generated_Source\PSoC5/cy_em_eeprom.c ****             rdSize -= numBytesToRead;
 853              		.loc 1 289 0 discriminator 2
 854 0114 3B44     		add	r3, r3, r7
 855 0116 0493     		str	r3, [sp, #16]
 856              	.LVL118:
 291:Generated_Source\PSoC5/cy_em_eeprom.c ****             curRdEepromRowNum++;
 857              		.loc 1 291 0 discriminator 2
 858 0118 BB44     		add	fp, fp, r7
 859              	.LVL119:
 292:Generated_Source\PSoC5/cy_em_eeprom.c ****         }
 860              		.loc 1 292 0 discriminator 2
 861 011a 0AF1010A 		add	r10, r10, #1
 862              	.LVL120:
 863 011e 0023     		movs	r3, #0
 864              	.LVL121:
 865 0120 C1E7     		b	.L58
 866              	.LVL122:
 867              	.L93:
 303:Generated_Source\PSoC5/cy_em_eeprom.c ****         {
 868              		.loc 1 303 0
 869 0122 002B     		cmp	r3, #0
 870 0124 46D1     		bne	.L82
 871              	.LVL123:
 303:Generated_Source\PSoC5/cy_em_eeprom.c ****         {
 872              		.loc 1 303 0 is_stmt 0 discriminator 1
 873 0126 039B     		ldr	r3, [sp, #12]
ARM GAS  C:\Users\RABBIT~1\AppData\Local\Temp\ccgw4IdU.s 			page 43


 874 0128 0BB9     		cbnz	r3, .L64
 875              	.LVL124:
 876              	.L75:
 877 012a 0020     		movs	r0, #0
 878 012c 46E0     		b	.L85
 879              	.LVL125:
 880              	.L64:
 308:Generated_Source\PSoC5/cy_em_eeprom.c ****             {
 881              		.loc 1 308 0 is_stmt 1
 882 012e 039B     		ldr	r3, [sp, #12]
 883 0130 039A     		ldr	r2, [sp, #12]
 884 0132 5E1C     		adds	r6, r3, #1
 885              	.LVL126:
 886 0134 6368     		ldr	r3, [r4, #4]
 887 0136 9A42     		cmp	r2, r3
 888 0138 94BF     		ite	ls
 889 013a B61A     		subls	r6, r6, r2
 890 013c F61A     		subhi	r6, r6, r3
 891              	.LVL127:
 892              	.L65:
 308:Generated_Source\PSoC5/cy_em_eeprom.c ****             {
 893              		.loc 1 308 0 is_stmt 0 discriminator 1
 894 013e 039B     		ldr	r3, [sp, #12]
 895 0140 9E42     		cmp	r6, r3
 896 0142 F2D8     		bhi	.L75
 897              	.LVL128:
 898              	.LBB16:
 899              	.LBB17:
 804:Generated_Source\PSoC5/cy_em_eeprom.c **** 
 900              		.loc 1 804 0 is_stmt 1
 901 0144 A769     		ldr	r7, [r4, #24]
 902              	.LVL129:
 903              	.L66:
 806:Generated_Source\PSoC5/cy_em_eeprom.c ****     {
 904              		.loc 1 806 0
 905 0146 3B68     		ldr	r3, [r7]
 906 0148 9E42     		cmp	r6, r3
 907 014a 05D0     		beq	.L94
 811:Generated_Source\PSoC5/cy_em_eeprom.c ****             CY_EM_EEPROM_IS_ADDR_EXCEED_RANGE(emEepromAddr, context->wlEndAddr))
 908              		.loc 1 811 0
 909 014c 2368     		ldr	r3, [r4]
 809:Generated_Source\PSoC5/cy_em_eeprom.c **** 
 910              		.loc 1 809 0
 911 014e 07F58077 		add	r7, r7, #256
 912              	.LVL130:
 811:Generated_Source\PSoC5/cy_em_eeprom.c ****             CY_EM_EEPROM_IS_ADDR_EXCEED_RANGE(emEepromAddr, context->wlEndAddr))
 913              		.loc 1 811 0
 914 0152 9F42     		cmp	r7, r3
 915 0154 F7D3     		bcc	.L66
 916 0156 2BE0     		b	.L67
 917              	.L94:
 918              	.LVL131:
 919              	.LBE17:
 920              	.LBE16:
 312:Generated_Source\PSoC5/cy_em_eeprom.c ****                 {
 921              		.loc 1 312 0
 922 0158 57B3     		cbz	r7, .L67
ARM GAS  C:\Users\RABBIT~1\AppData\Local\Temp\ccgw4IdU.s 			page 44


 923              	.LBB18:
 315:Generated_Source\PSoC5/cy_em_eeprom.c ****                     uint32 endAddr    = startAddr + (*(uint32 *)(startRowAddr + CY_EM_EEPROM_HEADER
 924              		.loc 1 315 0
 925 015a 7B68     		ldr	r3, [r7, #4]
 926              	.LVL132:
 316:Generated_Source\PSoC5/cy_em_eeprom.c **** 
 927              		.loc 1 316 0
 928 015c BA68     		ldr	r2, [r7, #8]
 319:Generated_Source\PSoC5/cy_em_eeprom.c ****                     {
 929              		.loc 1 319 0
 930 015e 9D42     		cmp	r5, r3
 316:Generated_Source\PSoC5/cy_em_eeprom.c **** 
 931              		.loc 1 316 0
 932 0160 1A44     		add	r2, r2, r3
 933              	.LVL133:
 319:Generated_Source\PSoC5/cy_em_eeprom.c ****                     {
 934              		.loc 1 319 0
 935 0162 05D2     		bcs	.L70
 319:Generated_Source\PSoC5/cy_em_eeprom.c ****                     {
 936              		.loc 1 319 0 is_stmt 0 discriminator 1
 937 0164 0299     		ldr	r1, [sp, #8]
 938 0166 9942     		cmp	r1, r3
 939 0168 22D9     		bls	.L67
 940              	.LVL134:
 941              	.LBB19:
 322:Generated_Source\PSoC5/cy_em_eeprom.c ****                         rdAddr = (startAddr > addr) ? (startAddr) : (addr);
 942              		.loc 1 322 0 is_stmt 1 discriminator 1
 943 016a 581B     		subs	r0, r3, r5
 321:Generated_Source\PSoC5/cy_em_eeprom.c ****                         uint32 dstOffset = (startAddr > addr) ? (startAddr - addr): (0u);
 944              		.loc 1 321 0 discriminator 1
 945 016c 0021     		movs	r1, #0
 946 016e 03E0     		b	.L72
 947              	.LVL135:
 948              	.L70:
 949              	.LBE19:
 319:Generated_Source\PSoC5/cy_em_eeprom.c ****                     {
 950              		.loc 1 319 0 discriminator 2
 951 0170 9542     		cmp	r5, r2
 952 0172 1DD2     		bcs	.L67
 953              	.LBB20:
 321:Generated_Source\PSoC5/cy_em_eeprom.c ****                         uint32 dstOffset = (startAddr > addr) ? (startAddr - addr): (0u);
 954              		.loc 1 321 0 discriminator 1
 955 0174 E91A     		subs	r1, r5, r3
 956              	.LVL136:
 322:Generated_Source\PSoC5/cy_em_eeprom.c ****                         rdAddr = (startAddr > addr) ? (startAddr) : (addr);
 957              		.loc 1 322 0 discriminator 1
 958 0176 0020     		movs	r0, #0
 959              	.LVL137:
 960              	.L72:
 328:Generated_Source\PSoC5/cy_em_eeprom.c **** 
 961              		.loc 1 328 0 discriminator 4
 962 0178 AB42     		cmp	r3, r5
 963 017a 38BF     		it	cc
 964 017c 2B46     		movcc	r3, r5
 965              	.LVL138:
 966 017e 9E46     		mov	lr, r3
 967 0180 029B     		ldr	r3, [sp, #8]
ARM GAS  C:\Users\RABBIT~1\AppData\Local\Temp\ccgw4IdU.s 			page 45


 325:Generated_Source\PSoC5/cy_em_eeprom.c **** 
 968              		.loc 1 325 0 discriminator 4
 969 0182 0C31     		adds	r1, r1, #12
 970              	.LVL139:
 328:Generated_Source\PSoC5/cy_em_eeprom.c **** 
 971              		.loc 1 328 0 discriminator 4
 972 0184 9342     		cmp	r3, r2
 973 0186 94BF     		ite	ls
 974 0188 CEEB0303 		rsbls	r3, lr, r3
 975 018c CEEB0203 		rsbhi	r3, lr, r2
 976              	.LVL140:
 331:Generated_Source\PSoC5/cy_em_eeprom.c **** 
 977              		.loc 1 331 0 discriminator 4
 978 0190 089A     		ldr	r2, [sp, #32]
 979              	.LVL141:
 980 0192 1044     		add	r0, r0, r2
 981              	.LVL142:
 338:Generated_Source\PSoC5/cy_em_eeprom.c ****                         {
 982              		.loc 1 338 0 discriminator 4
 983 0194 227D     		ldrb	r2, [r4, #20]	@ zero_extendqisi2
 984 0196 3AB1     		cbz	r2, .L73
 340:Generated_Source\PSoC5/cy_em_eeprom.c **** 
 985              		.loc 1 340 0
 986 0198 0A46     		mov	r2, r1
 987 019a 0094     		str	r4, [sp]
 988              	.LVL143:
 989 019c 0146     		mov	r1, r0
 990              	.LVL144:
 991 019e 3846     		mov	r0, r7
 992              	.LVL145:
 993 01a0 FFF7FEFF 		bl	CheckCrcAndCopy
 994              	.LVL146:
 342:Generated_Source\PSoC5/cy_em_eeprom.c ****                             {
 995              		.loc 1 342 0
 996 01a4 20B1     		cbz	r0, .L67
 997 01a6 09E0     		b	.L85
 998              	.LVL147:
 999              	.L73:
 349:Generated_Source\PSoC5/cy_em_eeprom.c ****                         }
 1000              		.loc 1 349 0
 1001 01a8 1A46     		mov	r2, r3
 1002 01aa 3944     		add	r1, r1, r7
 1003              	.LVL148:
 1004 01ac FFF7FEFF 		bl	memcpy
 1005              	.LVL149:
 1006              	.L67:
 1007              	.LBE20:
 1008              	.LBE18:
 308:Generated_Source\PSoC5/cy_em_eeprom.c ****             {
 1009              		.loc 1 308 0 discriminator 2
 1010 01b0 0136     		adds	r6, r6, #1
 1011              	.LVL150:
 1012 01b2 C4E7     		b	.L65
 1013              	.LVL151:
 1014              	.L82:
 1015 01b4 0120     		movs	r0, #1
 1016              	.LVL152:
ARM GAS  C:\Users\RABBIT~1\AppData\Local\Temp\ccgw4IdU.s 			page 46


 1017              	.LBE23:
 357:Generated_Source\PSoC5/cy_em_eeprom.c **** }
 1018              		.loc 1 357 0
 1019 01b6 01E0     		b	.L85
 1020              	.LVL153:
 1021              	.L54:
 1022              	.LBB24:
 210:Generated_Source\PSoC5/cy_em_eeprom.c ****         {
 1023              		.loc 1 210 0
 1024 01b8 0136     		adds	r6, r6, #1
 1025              	.LVL154:
 1026 01ba 4AE7     		b	.L53
 1027              	.LVL155:
 1028              	.L85:
 1029              	.LBE24:
 358:Generated_Source\PSoC5/cy_em_eeprom.c **** 
 1030              		.loc 1 358 0
 1031 01bc 0BB0     		add	sp, sp, #44
 1032              		.cfi_def_cfa_offset 36
 1033              		@ sp needed
 1034 01be BDE8F08F 		pop	{r4, r5, r6, r7, r8, r9, r10, fp, pc}
 1035              		.cfi_endproc
 1036              	.LFE1:
 1037              		.size	Cy_Em_EEPROM_Read, .-Cy_Em_EEPROM_Read
 1038              		.section	.text.Cy_Em_EEPROM_Write,"ax",%progbits
 1039              		.align	1
 1040              		.global	Cy_Em_EEPROM_Write
 1041              		.thumb
 1042              		.thumb_func
 1043              		.type	Cy_Em_EEPROM_Write, %function
 1044              	Cy_Em_EEPROM_Write:
 1045              	.LFB2:
 415:Generated_Source\PSoC5/cy_em_eeprom.c ****     cy_en_em_eeprom_status_t ret = CY_EM_EEPROM_BAD_PARAM;
 1046              		.loc 1 415 0
 1047              		.cfi_startproc
 1048              		@ args = 0, pretend = 0, frame = 288
 1049              		@ frame_needed = 0, uses_anonymous_args = 0
 1050              	.LVL156:
 1051 0000 2DE9F04F 		push	{r4, r5, r6, r7, r8, r9, r10, fp, lr}
 1052              		.cfi_def_cfa_offset 36
 1053              		.cfi_offset 4, -36
 1054              		.cfi_offset 5, -32
 1055              		.cfi_offset 6, -28
 1056              		.cfi_offset 7, -24
 1057              		.cfi_offset 8, -20
 1058              		.cfi_offset 9, -16
 1059              		.cfi_offset 10, -12
 1060              		.cfi_offset 11, -8
 1061              		.cfi_offset 14, -4
 1062 0004 1D46     		mov	r5, r3
 424:Generated_Source\PSoC5/cy_em_eeprom.c ****     uint32 emEepromRowRdAddr;
 1063              		.loc 1 424 0
 1064 0006 9B68     		ldr	r3, [r3, #8]
 1065              	.LVL157:
 415:Generated_Source\PSoC5/cy_em_eeprom.c ****     cy_en_em_eeprom_status_t ret = CY_EM_EEPROM_BAD_PARAM;
 1066              		.loc 1 415 0
 1067 0008 C9B0     		sub	sp, sp, #292
ARM GAS  C:\Users\RABBIT~1\AppData\Local\Temp\ccgw4IdU.s 			page 47


 1068              		.cfi_def_cfa_offset 328
 415:Generated_Source\PSoC5/cy_em_eeprom.c ****     cy_en_em_eeprom_status_t ret = CY_EM_EEPROM_BAD_PARAM;
 1069              		.loc 1 415 0
 1070 000a 8346     		mov	fp, r0
 424:Generated_Source\PSoC5/cy_em_eeprom.c ****     uint32 emEepromRowRdAddr;
 1071              		.loc 1 424 0
 1072 000c 0693     		str	r3, [sp, #24]
 1073              	.LVL158:
 430:Generated_Source\PSoC5/cy_em_eeprom.c ****     {
 1074              		.loc 1 430 0
 1075 000e 9046     		mov	r8, r2
 1076 0010 002A     		cmp	r2, #0
 1077 0012 00F0A380 		beq	.L122
 430:Generated_Source\PSoC5/cy_em_eeprom.c ****     {
 1078              		.loc 1 430 0 is_stmt 0 discriminator 1
 1079 0016 1318     		adds	r3, r2, r0
 1080 0018 EA68     		ldr	r2, [r5, #12]
 1081              	.LVL159:
 1082 001a 9342     		cmp	r3, r2
 1083 001c 00F29E80 		bhi	.L122
 430:Generated_Source\PSoC5/cy_em_eeprom.c ****     {
 1084              		.loc 1 430 0 discriminator 2
 1085 0020 0029     		cmp	r1, #0
 1086 0022 00F09B80 		beq	.L122
 1087              	.LBB32:
 432:Generated_Source\PSoC5/cy_em_eeprom.c ****         uint32 eeHeaderDataOffset = 0u;
 1088              		.loc 1 432 0 is_stmt 1
 1089 0026 08F1FF32 		add	r2, r8, #-1
 1090 002a 7023     		movs	r3, #112
 1091 002c B2FBF3F3 		udiv	r3, r2, r3
 1092              	.LBE32:
 421:Generated_Source\PSoC5/cy_em_eeprom.c ****     uint32 endAddr = 0u;
 1093              		.loc 1 421 0
 1094 0030 0026     		movs	r6, #0
 422:Generated_Source\PSoC5/cy_em_eeprom.c ****     uint32 tmpRowAddr;
 1095              		.loc 1 422 0
 1096 0032 B146     		mov	r9, r6
 1097              	.LBB49:
 433:Generated_Source\PSoC5/cy_em_eeprom.c **** 
 1098              		.loc 1 433 0
 1099 0034 3446     		mov	r4, r6
 435:Generated_Source\PSoC5/cy_em_eeprom.c ****         {
 1100              		.loc 1 435 0
 1101 0036 B246     		mov	r10, r6
 432:Generated_Source\PSoC5/cy_em_eeprom.c ****         uint32 eeHeaderDataOffset = 0u;
 1102              		.loc 1 432 0
 1103 0038 0293     		str	r3, [sp, #8]
 1104 003a 0133     		adds	r3, r3, #1
 1105              	.LBE49:
 427:Generated_Source\PSoC5/cy_em_eeprom.c **** 
 1106              		.loc 1 427 0
 1107 003c 0191     		str	r1, [sp, #4]
 1108              	.LBB50:
 432:Generated_Source\PSoC5/cy_em_eeprom.c ****         uint32 eeHeaderDataOffset = 0u;
 1109              		.loc 1 432 0
 1110 003e 0393     		str	r3, [sp, #12]
 1111              	.LVL160:
ARM GAS  C:\Users\RABBIT~1\AppData\Local\Temp\ccgw4IdU.s 			page 48


 1112              	.L116:
 1113              	.LBB33:
 439:Generated_Source\PSoC5/cy_em_eeprom.c **** 
 1114              		.loc 1 439 0
 1115 0040 069B     		ldr	r3, [sp, #24]
 446:Generated_Source\PSoC5/cy_em_eeprom.c **** 
 1116              		.loc 1 446 0
 1117 0042 07AA     		add	r2, sp, #28
 439:Generated_Source\PSoC5/cy_em_eeprom.c **** 
 1118              		.loc 1 439 0
 1119 0044 1F68     		ldr	r7, [r3]
 1120              	.LVL161:
 446:Generated_Source\PSoC5/cy_em_eeprom.c **** 
 1121              		.loc 1 446 0
 1122 0046 06A9     		add	r1, sp, #24
 1123 0048 2B46     		mov	r3, r5
 1124 004a 3846     		mov	r0, r7
 1125 004c FFF7FEFF 		bl	GetNextRowToWrite
 1126              	.LVL162:
 449:Generated_Source\PSoC5/cy_em_eeprom.c **** 
 1127              		.loc 1 449 0
 1128 0050 4FF48072 		mov	r2, #256
 1129 0054 0021     		movs	r1, #0
 1130 0056 08A8     		add	r0, sp, #32
 1131 0058 FFF7FEFF 		bl	memset
 1132              	.LVL163:
 458:Generated_Source\PSoC5/cy_em_eeprom.c ****             {
 1133              		.loc 1 458 0
 1134 005c 029B     		ldr	r3, [sp, #8]
 454:Generated_Source\PSoC5/cy_em_eeprom.c ****             tmpData = (void *) eeData;
 1135              		.loc 1 454 0
 1136 005e CDF824B0 		str	fp, [sp, #36]
 458:Generated_Source\PSoC5/cy_em_eeprom.c ****             {
 1137              		.loc 1 458 0
 1138 0062 5345     		cmp	r3, r10
 469:Generated_Source\PSoC5/cy_em_eeprom.c ****                 size -= CY_EM_EEPROM_HEADER_DATA_LEN;
 1139              		.loc 1 469 0
 1140 0064 1FBF     		itttt	ne
 1141 0066 7023     		movne	r3, #112
 1142 0068 0A93     		strne	r3, [sp, #40]
 471:Generated_Source\PSoC5/cy_em_eeprom.c ****                 eeData += CY_EM_EEPROM_HEADER_DATA_LEN;
 1143              		.loc 1 471 0
 1144 006a 9B44     		addne	fp, fp, r3
 1145              	.LVL164:
 472:Generated_Source\PSoC5/cy_em_eeprom.c ****             }
 1146              		.loc 1 472 0
 1147 006c 019B     		ldrne	r3, [sp, #4]
 461:Generated_Source\PSoC5/cy_em_eeprom.c ****             }
 1148              		.loc 1 461 0
 1149 006e 08BF     		it	eq
 1150 0070 CDF82880 		streq	r8, [sp, #40]
 455:Generated_Source\PSoC5/cy_em_eeprom.c **** 
 1151              		.loc 1 455 0
 1152 0074 0199     		ldr	r1, [sp, #4]
 472:Generated_Source\PSoC5/cy_em_eeprom.c ****             }
 1153              		.loc 1 472 0
 1154 0076 18BF     		it	ne
ARM GAS  C:\Users\RABBIT~1\AppData\Local\Temp\ccgw4IdU.s 			page 49


 1155 0078 7033     		addne	r3, r3, #112
 452:Generated_Source\PSoC5/cy_em_eeprom.c ****             writeRamBuffer[CY_EM_EEPROM_HEADER_SEQ_NUM_OFFSET_U32] = seqNum;
 1156              		.loc 1 452 0
 1157 007a 07F10107 		add	r7, r7, #1
 1158              	.LVL165:
 476:Generated_Source\PSoC5/cy_em_eeprom.c ****                          tmpData,
 1159              		.loc 1 476 0
 1160 007e 0A9A     		ldr	r2, [sp, #40]
 1161 0080 0BA8     		add	r0, sp, #44
 453:Generated_Source\PSoC5/cy_em_eeprom.c ****             writeRamBuffer[CY_EM_EEPROM_HEADER_ADDR_OFFSET_U32] = addr;
 1162              		.loc 1 453 0
 1163 0082 0897     		str	r7, [sp, #32]
 470:Generated_Source\PSoC5/cy_em_eeprom.c ****                 addr += CY_EM_EEPROM_HEADER_DATA_LEN;
 1164              		.loc 1 470 0
 1165 0084 1CBF     		itt	ne
 1166 0086 A8F17008 		subne	r8, r8, #112
 1167              	.LVL166:
 472:Generated_Source\PSoC5/cy_em_eeprom.c ****             }
 1168              		.loc 1 472 0
 1169 008a 0193     		strne	r3, [sp, #4]
 1170              	.LVL167:
 476:Generated_Source\PSoC5/cy_em_eeprom.c ****                          tmpData,
 1171              		.loc 1 476 0
 1172 008c FFF7FEFF 		bl	memcpy
 1173              	.LVL168:
 480:Generated_Source\PSoC5/cy_em_eeprom.c ****             {
 1174              		.loc 1 480 0
 1175 0090 0799     		ldr	r1, [sp, #28]
 1176 0092 21B1     		cbz	r1, .L99
 483:Generated_Source\PSoC5/cy_em_eeprom.c ****                              (void *)(emEepromRowRdAddr + CY_EM_EEPROM_EEPROM_DATA_LEN),
 1177              		.loc 1 483 0
 1178 0094 8022     		movs	r2, #128
 1179 0096 1144     		add	r1, r1, r2
 1180 0098 28A8     		add	r0, sp, #160
 1181 009a FFF7FEFF 		bl	memcpy
 1182              	.LVL169:
 1183              	.L99:
 492:Generated_Source\PSoC5/cy_em_eeprom.c **** 
 1184              		.loc 1 492 0
 1185 009e 6B68     		ldr	r3, [r5, #4]
 1186              	.LBB34:
 1187              	.LBB35:
1324:Generated_Source\PSoC5/cy_em_eeprom.c ****         {
 1188              		.loc 1 1324 0
 1189 00a0 0022     		movs	r2, #0
 1190              	.LBE35:
 1191              	.LBE34:
 492:Generated_Source\PSoC5/cy_em_eeprom.c **** 
 1192              		.loc 1 492 0
 1193 00a2 9F42     		cmp	r7, r3
 1194 00a4 86BF     		itte	hi
 1195 00a6 C3F10103 		rsbhi	r3, r3, #1
 1196 00aa DB19     		addhi	r3, r3, r7
 1197 00ac 0123     		movls	r3, #1
 1198              	.LVL170:
 1199              	.L101:
 494:Generated_Source\PSoC5/cy_em_eeprom.c ****             {
ARM GAS  C:\Users\RABBIT~1\AppData\Local\Temp\ccgw4IdU.s 			page 50


 1200              		.loc 1 494 0 discriminator 1
 1201 00ae BB42     		cmp	r3, r7
 1202 00b0 3BD8     		bhi	.L141
 496:Generated_Source\PSoC5/cy_em_eeprom.c ****                 {
 1203              		.loc 1 496 0
 1204 00b2 01D1     		bne	.L102
 502:Generated_Source\PSoC5/cy_em_eeprom.c ****                 }
 1205              		.loc 1 502 0
 1206 00b4 08A9     		add	r1, sp, #32
 1207              	.LVL171:
 1208 00b6 09E0     		b	.L103
 1209              	.LVL172:
 1210              	.L102:
 1211              	.LBB40:
 1212              	.LBB41:
 804:Generated_Source\PSoC5/cy_em_eeprom.c **** 
 1213              		.loc 1 804 0
 1214 00b8 A969     		ldr	r1, [r5, #24]
 1215              	.LVL173:
 1216              	.L104:
 806:Generated_Source\PSoC5/cy_em_eeprom.c ****     {
 1217              		.loc 1 806 0
 1218 00ba 0868     		ldr	r0, [r1]
 1219 00bc 8342     		cmp	r3, r0
 1220 00be 05D0     		beq	.L103
 811:Generated_Source\PSoC5/cy_em_eeprom.c ****             CY_EM_EEPROM_IS_ADDR_EXCEED_RANGE(emEepromAddr, context->wlEndAddr))
 1221              		.loc 1 811 0
 1222 00c0 2868     		ldr	r0, [r5]
 809:Generated_Source\PSoC5/cy_em_eeprom.c **** 
 1223              		.loc 1 809 0
 1224 00c2 01F58071 		add	r1, r1, #256
 1225              	.LVL174:
 811:Generated_Source\PSoC5/cy_em_eeprom.c ****             CY_EM_EEPROM_IS_ADDR_EXCEED_RANGE(emEepromAddr, context->wlEndAddr))
 1226              		.loc 1 811 0
 1227 00c6 8142     		cmp	r1, r0
 1228 00c8 F7D3     		bcc	.L104
 1229 00ca 14E0     		b	.L105
 1230              	.LVL175:
 1231              	.L103:
 1232              	.LBE41:
 1233              	.LBE40:
 515:Generated_Source\PSoC5/cy_em_eeprom.c ****                 {
 1234              		.loc 1 515 0
 1235 00cc 99B1     		cbz	r1, .L105
 1236              	.LBB42:
 1237              	.LBB36:
1308:Generated_Source\PSoC5/cy_em_eeprom.c ****     {
 1238              		.loc 1 1308 0
 1239 00ce A869     		ldr	r0, [r5, #24]
 1240 00d0 069A     		ldr	r2, [sp, #24]
 1241              	.LVL176:
 1242              	.LBE36:
 1243              	.LBE42:
 518:Generated_Source\PSoC5/cy_em_eeprom.c ****                                               &startAddr,
 1244              		.loc 1 518 0
 1245 00d2 4C68     		ldr	r4, [r1, #4]
 1246              	.LVL177:
ARM GAS  C:\Users\RABBIT~1\AppData\Local\Temp\ccgw4IdU.s 			page 51


 1247              	.LBB43:
 1248              	.LBB37:
1308:Generated_Source\PSoC5/cy_em_eeprom.c ****     {
 1249              		.loc 1 1308 0
 1250 00d4 121A     		subs	r2, r2, r0
 1251 00d6 6868     		ldr	r0, [r5, #4]
 1252 00d8 120A     		lsrs	r2, r2, #8
 1253 00da B2FBF0FE 		udiv	lr, r2, r0
 1254 00de 00FB1E22 		mls	r2, r0, lr, r2
 1255 00e2 D201     		lsls	r2, r2, #7
 1256 00e4 9442     		cmp	r4, r2
 1257              	.LBE37:
 1258              	.LBE43:
 518:Generated_Source\PSoC5/cy_em_eeprom.c ****                                               &startAddr,
 1259              		.loc 1 518 0
 1260 00e6 D1F808C0 		ldr	ip, [r1, #8]
 1261              	.LVL178:
 1262              	.LBB44:
 1263              	.LBB38:
1308:Generated_Source\PSoC5/cy_em_eeprom.c ****     {
 1264              		.loc 1 1308 0
 1265 00ea 39D3     		bcc	.L107
 1266 00ec 02F17F00 		add	r0, r2, #127
 1267 00f0 8442     		cmp	r4, r0
 1268 00f2 3FD9     		bls	.L108
 1269 00f4 34E0     		b	.L107
 1270              	.LVL179:
 1271              	.L105:
 1272              	.LBE38:
 1273              	.LBE44:
 533:Generated_Source\PSoC5/cy_em_eeprom.c ****                 {
 1274              		.loc 1 533 0
 1275 00f6 0132     		adds	r2, r2, #1
 1276              	.LVL180:
 1277 00f8 0BD1     		bne	.L112
 1278 00fa 1146     		mov	r1, r2
 1279              	.LVL181:
 1280              	.L110:
 1281 00fc 0493     		str	r3, [sp, #16]
 1282              	.LVL182:
 1283 00fe 0C31     		adds	r1, r1, #12
 1284              	.LVL183:
 1285              	.LBB45:
 541:Generated_Source\PSoC5/cy_em_eeprom.c ****                 }
 1286              		.loc 1 541 0
 1287 0100 08AB     		add	r3, sp, #32
 1288              	.LVL184:
 1289 0102 C6EB0902 		rsb	r2, r6, r9
 1290 0106 9819     		adds	r0, r3, r6
 1291 0108 2144     		add	r1, r1, r4
 1292              	.LVL185:
 1293 010a FFF7FEFF 		bl	memcpy
 1294              	.LVL186:
 1295 010e 049B     		ldr	r3, [sp, #16]
 1296 0110 0022     		movs	r2, #0
 1297              	.LVL187:
 1298              	.L112:
ARM GAS  C:\Users\RABBIT~1\AppData\Local\Temp\ccgw4IdU.s 			page 52


 1299              	.LBE45:
 545:Generated_Source\PSoC5/cy_em_eeprom.c ****                 {
 1300              		.loc 1 545 0
 1301 0112 297D     		ldrb	r1, [r5, #20]	@ zero_extendqisi2
 1302 0114 39B1     		cbz	r1, .L113
 548:Generated_Source\PSoC5/cy_em_eeprom.c ****                                                   CY_EM_EEPROM_EEPROM_DATA_LEN);
 1303              		.loc 1 548 0
 1304 0116 28A8     		add	r0, sp, #160
 1305 0118 0592     		str	r2, [sp, #20]
 1306 011a 0493     		str	r3, [sp, #16]
 1307 011c FFF7FEFF 		bl	CalcChecksum.constprop.1
 1308              	.LVL188:
 547:Generated_Source\PSoC5/cy_em_eeprom.c ****                         CalcChecksum((uint8 *) &writeRamBuffer[CY_EM_EEPROM_EEPROM_DATA_OFFSET_U32]
 1309              		.loc 1 547 0
 1310 0120 059A     		ldr	r2, [sp, #20]
 1311 0122 049B     		ldr	r3, [sp, #16]
 1312 0124 2790     		str	r0, [sp, #156]
 1313              	.L113:
 494:Generated_Source\PSoC5/cy_em_eeprom.c ****             {
 1314              		.loc 1 494 0
 1315 0126 0133     		adds	r3, r3, #1
 1316              	.LVL189:
 1317 0128 C1E7     		b	.L101
 1318              	.LVL190:
 1319              	.L141:
 554:Generated_Source\PSoC5/cy_em_eeprom.c ****             tmpRowAddr = emEepromRowAddr;
 1320              		.loc 1 554 0
 1321 012a 08A9     		add	r1, sp, #32
 1322 012c 0698     		ldr	r0, [sp, #24]
 1323 012e FFF7FEFF 		bl	WriteRow.isra.0
 1324              	.LVL191:
 558:Generated_Source\PSoC5/cy_em_eeprom.c ****             {
 1325              		.loc 1 558 0
 1326 0132 2B7D     		ldrb	r3, [r5, #20]	@ zero_extendqisi2
 1327 0134 43B1     		cbz	r3, .L115
 558:Generated_Source\PSoC5/cy_em_eeprom.c ****             {
 1328              		.loc 1 558 0 is_stmt 0 discriminator 1
 1329 0136 A8BB     		cbnz	r0, .L128
 1330              	.LVL192:
 564:Generated_Source\PSoC5/cy_em_eeprom.c ****             }
 1331              		.loc 1 564 0 is_stmt 1
 1332 0138 0698     		ldr	r0, [sp, #24]
 1333              	.LVL193:
 1334 013a 2B68     		ldr	r3, [r5]
 1335 013c 08A9     		add	r1, sp, #32
 1336 013e 0344     		add	r3, r3, r0
 1337 0140 A869     		ldr	r0, [r5, #24]
 1338 0142 181A     		subs	r0, r3, r0
 1339              	.LVL194:
 1340 0144 FFF7FEFF 		bl	WriteRow.isra.0
 1341              	.LVL195:
 1342              	.L115:
 567:Generated_Source\PSoC5/cy_em_eeprom.c ****             {
 1343              		.loc 1 567 0
 1344 0148 60BB     		cbnz	r0, .L128
 572:Generated_Source\PSoC5/cy_em_eeprom.c ****             }
 1345              		.loc 1 572 0 discriminator 2
ARM GAS  C:\Users\RABBIT~1\AppData\Local\Temp\ccgw4IdU.s 			page 53


 1346 014a 069B     		ldr	r3, [sp, #24]
 1347              	.LBE33:
 435:Generated_Source\PSoC5/cy_em_eeprom.c ****         {
 1348              		.loc 1 435 0 discriminator 2
 1349 014c 0AF1010A 		add	r10, r10, #1
 1350              	.LVL196:
 1351              	.LBB47:
 572:Generated_Source\PSoC5/cy_em_eeprom.c ****             }
 1352              		.loc 1 572 0 discriminator 2
 1353 0150 AB60     		str	r3, [r5, #8]
 1354              	.LBE47:
 435:Generated_Source\PSoC5/cy_em_eeprom.c ****         {
 1355              		.loc 1 435 0 discriminator 2
 1356 0152 039B     		ldr	r3, [sp, #12]
 1357 0154 5345     		cmp	r3, r10
 1358 0156 3FF673AF 		bhi	.L116
 1359 015a 23E0     		b	.L128
 1360              	.LVL197:
 1361              	.L122:
 1362              	.LBE50:
 416:Generated_Source\PSoC5/cy_em_eeprom.c ****     uint32 i;
 1363              		.loc 1 416 0
 1364 015c 0120     		movs	r0, #1
 1365              	.LVL198:
 580:Generated_Source\PSoC5/cy_em_eeprom.c **** }
 1366              		.loc 1 580 0
 1367 015e 21E0     		b	.L128
 1368              	.LVL199:
 1369              	.L107:
 1370              	.LBB51:
 1371              	.LBB48:
 1372              	.LBB46:
 1373              	.LBB39:
1324:Generated_Source\PSoC5/cy_em_eeprom.c ****         {
 1374              		.loc 1 1324 0
 1375 0160 04EB0C00 		add	r0, r4, ip
 1376 0164 8242     		cmp	r2, r0
 1377 0166 02D8     		bhi	.L139
 1378 0168 7F32     		adds	r2, r2, #127
 1379 016a 9042     		cmp	r0, r2
 1380 016c 12D9     		bls	.L111
 1381              	.L139:
 1382 016e 0024     		movs	r4, #0
 1383              	.LVL200:
 1384 0170 0122     		movs	r2, #1
 1385 0172 CEE7     		b	.L112
 1386              	.LVL201:
 1387              	.L108:
1310:Generated_Source\PSoC5/cy_em_eeprom.c **** 
 1388              		.loc 1 1310 0
 1389 0174 04F07F06 		and	r6, r4, #127
 1390              	.LVL202:
1312:Generated_Source\PSoC5/cy_em_eeprom.c ****         {
 1391              		.loc 1 1312 0
 1392 0178 6444     		add	r4, r4, ip
 1393              	.LVL203:
 1394 017a A242     		cmp	r2, r4
ARM GAS  C:\Users\RABBIT~1\AppData\Local\Temp\ccgw4IdU.s 			page 54


1310:Generated_Source\PSoC5/cy_em_eeprom.c **** 
 1395              		.loc 1 1310 0
 1396 017c 06F18006 		add	r6, r6, #128
 1397              	.LVL204:
1312:Generated_Source\PSoC5/cy_em_eeprom.c ****         {
 1398              		.loc 1 1312 0
 1399 0180 01D8     		bhi	.L140
 1400 0182 A042     		cmp	r0, r4
 1401 0184 02D2     		bcs	.L109
 1402              	.L140:
 1403 0186 4FF48079 		mov	r9, #256
 1404              	.LVL205:
 1405 018a 01E0     		b	.L138
 1406              	.LVL206:
 1407              	.L109:
1314:Generated_Source\PSoC5/cy_em_eeprom.c ****         }
 1408              		.loc 1 1314 0
 1409 018c 0CEB0609 		add	r9, ip, r6
 1410              	.LVL207:
 1411              	.L138:
1306:Generated_Source\PSoC5/cy_em_eeprom.c **** 
 1412              		.loc 1 1306 0
 1413 0190 0024     		movs	r4, #0
 1414 0192 B3E7     		b	.L110
 1415              	.LVL208:
 1416              	.L111:
1327:Generated_Source\PSoC5/cy_em_eeprom.c ****             *offset = len - (*endAddr - *startAddr);
 1417              		.loc 1 1327 0
 1418 0194 04F07F04 		and	r4, r4, #127
 1419              	.LVL209:
1328:Generated_Source\PSoC5/cy_em_eeprom.c ****         }
 1420              		.loc 1 1328 0
 1421 0198 04EB0C09 		add	r9, r4, ip
 1422              	.LVL210:
1326:Generated_Source\PSoC5/cy_em_eeprom.c ****             *endAddr = (*startAddr + len) - (*startAddr - (addr % CY_EM_EEPROM_EEPROM_DATA_LEN));
 1423              		.loc 1 1326 0
 1424 019c 8026     		movs	r6, #128
1328:Generated_Source\PSoC5/cy_em_eeprom.c ****         }
 1425              		.loc 1 1328 0
 1426 019e C4F18004 		rsb	r4, r4, #128
 1427              	.LVL211:
 1428 01a2 ABE7     		b	.L110
 1429              	.LVL212:
 1430              	.L128:
 1431              	.LBE39:
 1432              	.LBE46:
 1433              	.LBE48:
 1434              	.LBE51:
 581:Generated_Source\PSoC5/cy_em_eeprom.c **** 
 1435              		.loc 1 581 0
 1436 01a4 49B0     		add	sp, sp, #292
 1437              		.cfi_def_cfa_offset 36
 1438              		@ sp needed
 1439 01a6 BDE8F08F 		pop	{r4, r5, r6, r7, r8, r9, r10, fp, pc}
 1440              		.cfi_endproc
 1441              	.LFE2:
 1442              		.size	Cy_Em_EEPROM_Write, .-Cy_Em_EEPROM_Write
ARM GAS  C:\Users\RABBIT~1\AppData\Local\Temp\ccgw4IdU.s 			page 55


 1443              		.section	.text.Cy_Em_EEPROM_Erase,"ax",%progbits
 1444              		.align	1
 1445              		.global	Cy_Em_EEPROM_Erase
 1446              		.thumb
 1447              		.thumb_func
 1448              		.type	Cy_Em_EEPROM_Erase, %function
 1449              	Cy_Em_EEPROM_Erase:
 1450              	.LFB3:
 630:Generated_Source\PSoC5/cy_em_eeprom.c ****     uint32 i;
 1451              		.loc 1 630 0
 1452              		.cfi_startproc
 1453              		@ args = 0, pretend = 0, frame = 264
 1454              		@ frame_needed = 0, uses_anonymous_args = 0
 1455              	.LVL213:
 1456 0000 2DE9F041 		push	{r4, r5, r6, r7, r8, lr}
 1457              		.cfi_def_cfa_offset 24
 1458              		.cfi_offset 4, -24
 1459              		.cfi_offset 5, -20
 1460              		.cfi_offset 6, -16
 1461              		.cfi_offset 7, -12
 1462              		.cfi_offset 8, -8
 1463              		.cfi_offset 14, -4
 633:Generated_Source\PSoC5/cy_em_eeprom.c ****     uint32 emEepromRowRdAddr;
 1464              		.loc 1 633 0
 1465 0004 8568     		ldr	r5, [r0, #8]
 630:Generated_Source\PSoC5/cy_em_eeprom.c ****     uint32 i;
 1466              		.loc 1 630 0
 1467 0006 C2B0     		sub	sp, sp, #264
 1468              		.cfi_def_cfa_offset 288
 630:Generated_Source\PSoC5/cy_em_eeprom.c ****     uint32 i;
 1469              		.loc 1 630 0
 1470 0008 0446     		mov	r4, r0
 636:Generated_Source\PSoC5/cy_em_eeprom.c **** #if (CY_PSOC6)
 1471              		.loc 1 636 0
 1472 000a 4FF48072 		mov	r2, #256
 1473 000e 0021     		movs	r1, #0
 1474 0010 02A8     		add	r0, sp, #8
 1475              	.LVL214:
 633:Generated_Source\PSoC5/cy_em_eeprom.c ****     uint32 emEepromRowRdAddr;
 1476              		.loc 1 633 0
 1477 0012 0095     		str	r5, [sp]
 1478              	.LVL215:
 636:Generated_Source\PSoC5/cy_em_eeprom.c **** #if (CY_PSOC6)
 1479              		.loc 1 636 0
 1480 0014 FFF7FEFF 		bl	memset
 1481              	.LVL216:
 646:Generated_Source\PSoC5/cy_em_eeprom.c ****     {
 1482              		.loc 1 646 0
 1483 0018 2B68     		ldr	r3, [r5]
 1484 001a 7BB3     		cbz	r3, .L150
 1485              	.LBB55:
 649:Generated_Source\PSoC5/cy_em_eeprom.c **** 
 1486              		.loc 1 649 0
 1487 001c 6368     		ldr	r3, [r4, #4]
 1488 001e 2669     		ldr	r6, [r4, #16]
 1489 0020 5E43     		muls	r6, r3, r6
 1490              	.LVL217:
ARM GAS  C:\Users\RABBIT~1\AppData\Local\Temp\ccgw4IdU.s 			page 56


 656:Generated_Source\PSoC5/cy_em_eeprom.c ****         {
 1491              		.loc 1 656 0
 1492 0022 237D     		ldrb	r3, [r4, #20]	@ zero_extendqisi2
 1493 0024 1BB1     		cbz	r3, .L144
 659:Generated_Source\PSoC5/cy_em_eeprom.c ****                                                   CY_EM_EEPROM_EEPROM_DATA_LEN);
 1494              		.loc 1 659 0
 1495 0026 22A8     		add	r0, sp, #136
 1496 0028 FFF7FEFF 		bl	CalcChecksum.constprop.1
 1497              	.LVL218:
 658:Generated_Source\PSoC5/cy_em_eeprom.c ****                         CalcChecksum((uint8 *) &writeRamBuffer[CY_EM_EEPROM_EEPROM_DATA_OFFSET_U32]
 1498              		.loc 1 658 0
 1499 002c 2190     		str	r0, [sp, #132]
 1500              	.L144:
 1501              	.LBB56:
 1502              	.LBB57:
1168:Generated_Source\PSoC5/cy_em_eeprom.c ****     {
 1503              		.loc 1 1168 0 discriminator 1
 1504 002e 0425     		movs	r5, #4
 1505 0030 0027     		movs	r7, #0
 1506              	.LVL219:
 1507              	.L145:
 1508              	.LBE57:
 1509              	.LBE56:
 663:Generated_Source\PSoC5/cy_em_eeprom.c ****         {
 1510              		.loc 1 663 0 discriminator 1
 1511 0032 B742     		cmp	r7, r6
 1512 0034 23D0     		beq	.L143
 685:Generated_Source\PSoC5/cy_em_eeprom.c ****             /* Get the address of the row to be erased. "emEepromRowAddr" may be updated
 1513              		.loc 1 685 0 discriminator 3
 1514 0036 009B     		ldr	r3, [sp]
 689:Generated_Source\PSoC5/cy_em_eeprom.c ****             seqNum++;
 1515              		.loc 1 689 0 discriminator 3
 1516 0038 01AA     		add	r2, sp, #4
 685:Generated_Source\PSoC5/cy_em_eeprom.c ****             /* Get the address of the row to be erased. "emEepromRowAddr" may be updated
 1517              		.loc 1 685 0 discriminator 3
 1518 003a 1D68     		ldr	r5, [r3]
 1519              	.LVL220:
 689:Generated_Source\PSoC5/cy_em_eeprom.c ****             seqNum++;
 1520              		.loc 1 689 0 discriminator 3
 1521 003c 6946     		mov	r1, sp
 1522 003e 2846     		mov	r0, r5
 1523 0040 2346     		mov	r3, r4
 1524 0042 FFF7FEFF 		bl	GetNextRowToWrite
 1525              	.LVL221:
 692:Generated_Source\PSoC5/cy_em_eeprom.c ****         #endif /* (CY_PSOC6) */
 1526              		.loc 1 692 0 discriminator 3
 1527 0046 DDF80080 		ldr	r8, [sp]
 1528              	.LVL222:
 691:Generated_Source\PSoC5/cy_em_eeprom.c ****             ret = EraseRow(emEepromRowAddr, (uint32)writeRamBuffer, context);
 1529              		.loc 1 691 0 discriminator 3
 1530 004a 0135     		adds	r5, r5, #1
 1531              	.LVL223:
 1532              	.LBB60:
 1533              	.LBB58:
1159:Generated_Source\PSoC5/cy_em_eeprom.c **** 
 1534              		.loc 1 1159 0 discriminator 3
 1535 004c 02A9     		add	r1, sp, #8
ARM GAS  C:\Users\RABBIT~1\AppData\Local\Temp\ccgw4IdU.s 			page 57


 1536              	.LVL224:
 1537 004e 4046     		mov	r0, r8
 1538              	.LBE58:
 1539              	.LBE60:
 691:Generated_Source\PSoC5/cy_em_eeprom.c ****             ret = EraseRow(emEepromRowAddr, (uint32)writeRamBuffer, context);
 1540              		.loc 1 691 0 discriminator 3
 1541 0050 0295     		str	r5, [sp, #8]
 1542              	.LBB61:
 1543              	.LBB59:
1159:Generated_Source\PSoC5/cy_em_eeprom.c **** 
 1544              		.loc 1 1159 0 discriminator 3
 1545 0052 FFF7FEFF 		bl	WriteRow.isra.0
 1546              	.LVL225:
1161:Generated_Source\PSoC5/cy_em_eeprom.c ****     {
 1547              		.loc 1 1161 0 discriminator 3
 1548 0056 0546     		mov	r5, r0
 1549              	.LVL226:
 1550 0058 70B9     		cbnz	r0, .L146
1161:Generated_Source\PSoC5/cy_em_eeprom.c ****     {
 1551              		.loc 1 1161 0 is_stmt 0
 1552 005a 237D     		ldrb	r3, [r4, #20]	@ zero_extendqisi2
 1553 005c 13B9     		cbnz	r3, .L147
 1554              	.LVL227:
 1555              	.L148:
1170:Generated_Source\PSoC5/cy_em_eeprom.c ****     }
 1556              		.loc 1 1170 0 is_stmt 1
 1557 005e C4F80880 		str	r8, [r4, #8]
 1558 0062 09E0     		b	.L146
 1559              	.LVL228:
 1560              	.L147:
1165:Generated_Source\PSoC5/cy_em_eeprom.c ****     }
 1561              		.loc 1 1165 0
 1562 0064 2068     		ldr	r0, [r4]
 1563              	.LVL229:
 1564 0066 A369     		ldr	r3, [r4, #24]
 1565 0068 4044     		add	r0, r0, r8
 1566 006a 02A9     		add	r1, sp, #8
 1567              	.LVL230:
 1568 006c C01A     		subs	r0, r0, r3
 1569 006e FFF7FEFF 		bl	WriteRow.isra.0
 1570              	.LVL231:
1168:Generated_Source\PSoC5/cy_em_eeprom.c ****     {
 1571              		.loc 1 1168 0
 1572 0072 0028     		cmp	r0, #0
 1573 0074 F3D0     		beq	.L148
 1574 0076 0546     		mov	r5, r0
 1575              	.LVL232:
 1576              	.L146:
 1577              	.LBE59:
 1578              	.LBE61:
 663:Generated_Source\PSoC5/cy_em_eeprom.c ****         {
 1579              		.loc 1 663 0
 1580 0078 0137     		adds	r7, r7, #1
 1581              	.LVL233:
 1582 007a DAE7     		b	.L145
 1583              	.LVL234:
 1584              	.L150:
ARM GAS  C:\Users\RABBIT~1\AppData\Local\Temp\ccgw4IdU.s 			page 58


 1585              	.LBE55:
 635:Generated_Source\PSoC5/cy_em_eeprom.c ****     uint32 writeRamBuffer[CY_EM_EEPROM_FLASH_SIZEOF_ROW / CY_EM_EEPROM_U32_DIV] = {0u};
 1586              		.loc 1 635 0
 1587 007c 0425     		movs	r5, #4
 1588              	.LVL235:
 1589              	.L143:
 716:Generated_Source\PSoC5/cy_em_eeprom.c **** 
 1590              		.loc 1 716 0
 1591 007e 2846     		mov	r0, r5
 1592 0080 42B0     		add	sp, sp, #264
 1593              		.cfi_def_cfa_offset 24
 1594              		@ sp needed
 1595 0082 BDE8F081 		pop	{r4, r5, r6, r7, r8, pc}
 1596              		.cfi_endproc
 1597              	.LFE3:
 1598              		.size	Cy_Em_EEPROM_Erase, .-Cy_Em_EEPROM_Erase
 1599              		.section	.text.Cy_Em_EEPROM_NumWrites,"ax",%progbits
 1600              		.align	1
 1601              		.global	Cy_Em_EEPROM_NumWrites
 1602              		.thumb
 1603              		.thumb_func
 1604              		.type	Cy_Em_EEPROM_NumWrites, %function
 1605              	Cy_Em_EEPROM_NumWrites:
 1606              	.LFB4:
 733:Generated_Source\PSoC5/cy_em_eeprom.c ****     return(CY_EM_EEPROM_GET_SEQ_NUM(context->lastWrRowAddr));
 1607              		.loc 1 733 0
 1608              		.cfi_startproc
 1609              		@ args = 0, pretend = 0, frame = 0
 1610              		@ frame_needed = 0, uses_anonymous_args = 0
 1611              		@ link register save eliminated.
 1612              	.LVL236:
 734:Generated_Source\PSoC5/cy_em_eeprom.c **** }
 1613              		.loc 1 734 0
 1614 0000 8368     		ldr	r3, [r0, #8]
 735:Generated_Source\PSoC5/cy_em_eeprom.c **** 
 1615              		.loc 1 735 0
 1616 0002 1868     		ldr	r0, [r3]
 1617              	.LVL237:
 1618 0004 7047     		bx	lr
 1619              		.cfi_endproc
 1620              	.LFE4:
 1621              		.size	Cy_Em_EEPROM_NumWrites, .-Cy_Em_EEPROM_NumWrites
 1622              		.text
 1623              	.Letext0:
 1624              		.file 2 "Generated_Source\\PSoC5\\cytypes.h"
 1625              		.file 3 "Generated_Source\\PSoC5\\cy_em_eeprom.h"
 1626              		.file 4 "Generated_Source\\PSoC5\\CyFlash.h"
 1627              		.file 5 "Generated_Source\\PSoC5\\CyLib.h"
 1628              		.section	.debug_info,"",%progbits
 1629              	.Ldebug_info0:
 1630 0000 CB0F0000 		.4byte	0xfcb
 1631 0004 0400     		.2byte	0x4
 1632 0006 00000000 		.4byte	.Ldebug_abbrev0
 1633 000a 04       		.byte	0x4
 1634 000b 01       		.uleb128 0x1
 1635 000c C0000000 		.4byte	.LASF107
 1636 0010 0C       		.byte	0xc
ARM GAS  C:\Users\RABBIT~1\AppData\Local\Temp\ccgw4IdU.s 			page 59


 1637 0011 7B040000 		.4byte	.LASF108
 1638 0015 1D030000 		.4byte	.LASF109
 1639 0019 00010000 		.4byte	.Ldebug_ranges0+0x100
 1640 001d 00000000 		.4byte	0
 1641 0021 00000000 		.4byte	.Ldebug_line0
 1642 0025 02       		.uleb128 0x2
 1643 0026 01       		.byte	0x1
 1644 0027 06       		.byte	0x6
 1645 0028 B4000000 		.4byte	.LASF0
 1646 002c 02       		.uleb128 0x2
 1647 002d 01       		.byte	0x1
 1648 002e 08       		.byte	0x8
 1649 002f A1040000 		.4byte	.LASF1
 1650 0033 02       		.uleb128 0x2
 1651 0034 02       		.byte	0x2
 1652 0035 05       		.byte	0x5
 1653 0036 BD040000 		.4byte	.LASF2
 1654 003a 02       		.uleb128 0x2
 1655 003b 02       		.byte	0x2
 1656 003c 07       		.byte	0x7
 1657 003d 9F020000 		.4byte	.LASF3
 1658 0041 02       		.uleb128 0x2
 1659 0042 04       		.byte	0x4
 1660 0043 05       		.byte	0x5
 1661 0044 99010000 		.4byte	.LASF4
 1662 0048 02       		.uleb128 0x2
 1663 0049 04       		.byte	0x4
 1664 004a 07       		.byte	0x7
 1665 004b 54020000 		.4byte	.LASF5
 1666 004f 02       		.uleb128 0x2
 1667 0050 08       		.byte	0x8
 1668 0051 05       		.byte	0x5
 1669 0052 A6000000 		.4byte	.LASF6
 1670 0056 02       		.uleb128 0x2
 1671 0057 08       		.byte	0x8
 1672 0058 07       		.byte	0x7
 1673 0059 7F000000 		.4byte	.LASF7
 1674 005d 03       		.uleb128 0x3
 1675 005e 04       		.byte	0x4
 1676 005f 05       		.byte	0x5
 1677 0060 696E7400 		.ascii	"int\000"
 1678 0064 02       		.uleb128 0x2
 1679 0065 04       		.byte	0x4
 1680 0066 07       		.byte	0x7
 1681 0067 3E020000 		.4byte	.LASF8
 1682 006b 04       		.uleb128 0x4
 1683 006c BC010000 		.4byte	.LASF9
 1684 0070 02       		.byte	0x2
 1685 0071 A1       		.byte	0xa1
 1686 0072 2C000000 		.4byte	0x2c
 1687 0076 04       		.uleb128 0x4
 1688 0077 00000000 		.4byte	.LASF10
 1689 007b 02       		.byte	0x2
 1690 007c A2       		.byte	0xa2
 1691 007d 3A000000 		.4byte	0x3a
 1692 0081 04       		.uleb128 0x4
 1693 0082 C9010000 		.4byte	.LASF11
ARM GAS  C:\Users\RABBIT~1\AppData\Local\Temp\ccgw4IdU.s 			page 60


 1694 0086 02       		.byte	0x2
 1695 0087 A3       		.byte	0xa3
 1696 0088 48000000 		.4byte	0x48
 1697 008c 02       		.uleb128 0x2
 1698 008d 04       		.byte	0x4
 1699 008e 04       		.byte	0x4
 1700 008f 4D040000 		.4byte	.LASF12
 1701 0093 02       		.uleb128 0x2
 1702 0094 08       		.byte	0x8
 1703 0095 04       		.byte	0x4
 1704 0096 C2010000 		.4byte	.LASF13
 1705 009a 02       		.uleb128 0x2
 1706 009b 01       		.byte	0x1
 1707 009c 08       		.byte	0x8
 1708 009d 3D050000 		.4byte	.LASF14
 1709 00a1 05       		.uleb128 0x5
 1710 00a2 22060000 		.4byte	.LASF15
 1711 00a6 02       		.byte	0x2
 1712 00a7 4301     		.2byte	0x143
 1713 00a9 48000000 		.4byte	0x48
 1714 00ad 02       		.uleb128 0x2
 1715 00ae 08       		.byte	0x8
 1716 00af 04       		.byte	0x4
 1717 00b0 C2030000 		.4byte	.LASF16
 1718 00b4 02       		.uleb128 0x2
 1719 00b5 04       		.byte	0x4
 1720 00b6 07       		.byte	0x7
 1721 00b7 B9030000 		.4byte	.LASF17
 1722 00bb 06       		.uleb128 0x6
 1723 00bc 04       		.byte	0x4
 1724 00bd 07       		.uleb128 0x7
 1725 00be 10       		.byte	0x10
 1726 00bf 03       		.byte	0x3
 1727 00c0 FB       		.byte	0xfb
 1728 00c1 06010000 		.4byte	0x106
 1729 00c5 08       		.uleb128 0x8
 1730 00c6 9B000000 		.4byte	.LASF18
 1731 00ca 03       		.byte	0x3
 1732 00cb FE       		.byte	0xfe
 1733 00cc 81000000 		.4byte	0x81
 1734 00d0 00       		.byte	0
 1735 00d1 09       		.uleb128 0x9
 1736 00d2 AF050000 		.4byte	.LASF19
 1737 00d6 03       		.byte	0x3
 1738 00d7 0301     		.2byte	0x103
 1739 00d9 81000000 		.4byte	0x81
 1740 00dd 04       		.byte	0x4
 1741 00de 09       		.uleb128 0x9
 1742 00df 27020000 		.4byte	.LASF20
 1743 00e3 03       		.byte	0x3
 1744 00e4 0601     		.2byte	0x106
 1745 00e6 6B000000 		.4byte	0x6b
 1746 00ea 08       		.byte	0x8
 1747 00eb 09       		.uleb128 0x9
 1748 00ec 02060000 		.4byte	.LASF21
 1749 00f0 03       		.byte	0x3
 1750 00f1 0B01     		.2byte	0x10b
ARM GAS  C:\Users\RABBIT~1\AppData\Local\Temp\ccgw4IdU.s 			page 61


 1751 00f3 6B000000 		.4byte	0x6b
 1752 00f7 09       		.byte	0x9
 1753 00f8 09       		.uleb128 0x9
 1754 00f9 A2010000 		.4byte	.LASF22
 1755 00fd 03       		.byte	0x3
 1756 00fe 0E01     		.2byte	0x10e
 1757 0100 81000000 		.4byte	0x81
 1758 0104 0C       		.byte	0xc
 1759 0105 00       		.byte	0
 1760 0106 05       		.uleb128 0x5
 1761 0107 91050000 		.4byte	.LASF23
 1762 010b 03       		.byte	0x3
 1763 010c 0F01     		.2byte	0x10f
 1764 010e BD000000 		.4byte	0xbd
 1765 0112 0A       		.uleb128 0xa
 1766 0113 1C       		.byte	0x1c
 1767 0114 03       		.byte	0x3
 1768 0115 1601     		.2byte	0x116
 1769 0117 84010000 		.4byte	0x184
 1770 011b 09       		.uleb128 0x9
 1771 011c 71040000 		.4byte	.LASF24
 1772 0120 03       		.byte	0x3
 1773 0121 1B01     		.2byte	0x11b
 1774 0123 81000000 		.4byte	0x81
 1775 0127 00       		.byte	0
 1776 0128 09       		.uleb128 0x9
 1777 0129 68000000 		.4byte	.LASF25
 1778 012d 03       		.byte	0x3
 1779 012e 2001     		.2byte	0x120
 1780 0130 81000000 		.4byte	0x81
 1781 0134 04       		.byte	0x4
 1782 0135 09       		.uleb128 0x9
 1783 0136 76050000 		.4byte	.LASF26
 1784 013a 03       		.byte	0x3
 1785 013b 2301     		.2byte	0x123
 1786 013d 81000000 		.4byte	0x81
 1787 0141 08       		.byte	0x8
 1788 0142 09       		.uleb128 0x9
 1789 0143 9B000000 		.4byte	.LASF18
 1790 0147 03       		.byte	0x3
 1791 0148 2601     		.2byte	0x126
 1792 014a 81000000 		.4byte	0x81
 1793 014e 0C       		.byte	0xc
 1794 014f 09       		.uleb128 0x9
 1795 0150 AF050000 		.4byte	.LASF19
 1796 0154 03       		.byte	0x3
 1797 0155 2B01     		.2byte	0x12b
 1798 0157 81000000 		.4byte	0x81
 1799 015b 10       		.byte	0x10
 1800 015c 09       		.uleb128 0x9
 1801 015d 27020000 		.4byte	.LASF20
 1802 0161 03       		.byte	0x3
 1803 0162 2E01     		.2byte	0x12e
 1804 0164 6B000000 		.4byte	0x6b
 1805 0168 14       		.byte	0x14
 1806 0169 09       		.uleb128 0x9
 1807 016a 02060000 		.4byte	.LASF21
ARM GAS  C:\Users\RABBIT~1\AppData\Local\Temp\ccgw4IdU.s 			page 62


 1808 016e 03       		.byte	0x3
 1809 016f 3301     		.2byte	0x133
 1810 0171 6B000000 		.4byte	0x6b
 1811 0175 15       		.byte	0x15
 1812 0176 09       		.uleb128 0x9
 1813 0177 A2010000 		.4byte	.LASF22
 1814 017b 03       		.byte	0x3
 1815 017c 3601     		.2byte	0x136
 1816 017e 81000000 		.4byte	0x81
 1817 0182 18       		.byte	0x18
 1818 0183 00       		.byte	0
 1819 0184 05       		.uleb128 0x5
 1820 0185 FB030000 		.4byte	.LASF27
 1821 0189 03       		.byte	0x3
 1822 018a 3701     		.2byte	0x137
 1823 018c 12010000 		.4byte	0x112
 1824 0190 0B       		.uleb128 0xb
 1825 0191 01       		.byte	0x1
 1826 0192 2C000000 		.4byte	0x2c
 1827 0196 03       		.byte	0x3
 1828 0197 5401     		.2byte	0x154
 1829 0199 BC010000 		.4byte	0x1bc
 1830 019d 0C       		.uleb128 0xc
 1831 019e ED050000 		.4byte	.LASF28
 1832 01a2 00       		.byte	0
 1833 01a3 0C       		.uleb128 0xc
 1834 01a4 88030000 		.4byte	.LASF29
 1835 01a8 01       		.byte	0x1
 1836 01a9 0C       		.uleb128 0xc
 1837 01aa 9F030000 		.4byte	.LASF30
 1838 01ae 02       		.byte	0x2
 1839 01af 0C       		.uleb128 0xc
 1840 01b0 5B040000 		.4byte	.LASF31
 1841 01b4 03       		.byte	0x3
 1842 01b5 0C       		.uleb128 0xc
 1843 01b6 6A010000 		.4byte	.LASF32
 1844 01ba 04       		.byte	0x4
 1845 01bb 00       		.byte	0
 1846 01bc 05       		.uleb128 0x5
 1847 01bd 33000000 		.4byte	.LASF33
 1848 01c1 03       		.byte	0x3
 1849 01c2 5A01     		.2byte	0x15a
 1850 01c4 90010000 		.4byte	0x190
 1851 01c8 0D       		.uleb128 0xd
 1852 01c9 4E010000 		.4byte	.LASF39
 1853 01cd 01       		.byte	0x1
 1854 01ce DF03     		.2byte	0x3df
 1855 01d0 BC010000 		.4byte	0x1bc
 1856 01d4 01       		.byte	0x1
 1857 01d5 2D020000 		.4byte	0x22d
 1858 01d9 0E       		.uleb128 0xe
 1859 01da B5040000 		.4byte	.LASF34
 1860 01de 01       		.byte	0x1
 1861 01df DF03     		.2byte	0x3df
 1862 01e1 81000000 		.4byte	0x81
 1863 01e5 0E       		.uleb128 0xe
 1864 01e6 38060000 		.4byte	.LASF35
ARM GAS  C:\Users\RABBIT~1\AppData\Local\Temp\ccgw4IdU.s 			page 63


 1865 01ea 01       		.byte	0x1
 1866 01eb E003     		.2byte	0x3e0
 1867 01ed 2D020000 		.4byte	0x22d
 1868 01f1 0E       		.uleb128 0xe
 1869 01f2 6E050000 		.4byte	.LASF36
 1870 01f6 01       		.byte	0x1
 1871 01f7 E103     		.2byte	0x3e1
 1872 01f9 33020000 		.4byte	0x233
 1873 01fd 0F       		.uleb128 0xf
 1874 01fe 72657400 		.ascii	"ret\000"
 1875 0202 01       		.byte	0x1
 1876 0203 E303     		.2byte	0x3e3
 1877 0205 BC010000 		.4byte	0x1bc
 1878 0209 0F       		.uleb128 0xf
 1879 020a 726300   		.ascii	"rc\000"
 1880 020d 01       		.byte	0x1
 1881 020e E503     		.2byte	0x3e5
 1882 0210 A1000000 		.4byte	0xa1
 1883 0214 10       		.uleb128 0x10
 1884 0215 45040000 		.4byte	.LASF37
 1885 0219 01       		.byte	0x1
 1886 021a E703     		.2byte	0x3e7
 1887 021c 81000000 		.4byte	0x81
 1888 0220 10       		.uleb128 0x10
 1889 0221 AF040000 		.4byte	.LASF38
 1890 0225 01       		.byte	0x1
 1891 0226 E803     		.2byte	0x3e8
 1892 0228 81000000 		.4byte	0x81
 1893 022c 00       		.byte	0
 1894 022d 11       		.uleb128 0x11
 1895 022e 04       		.byte	0x4
 1896 022f 81000000 		.4byte	0x81
 1897 0233 11       		.uleb128 0x11
 1898 0234 04       		.byte	0x4
 1899 0235 84010000 		.4byte	0x184
 1900 0239 0D       		.uleb128 0xd
 1901 023a 2B060000 		.4byte	.LASF40
 1902 023e 01       		.byte	0x1
 1903 023f 9B03     		.2byte	0x39b
 1904 0241 6B000000 		.4byte	0x6b
 1905 0245 01       		.byte	0x1
 1906 0246 85020000 		.4byte	0x285
 1907 024a 0E       		.uleb128 0xe
 1908 024b 38060000 		.4byte	.LASF35
 1909 024f 01       		.byte	0x1
 1910 0250 9B03     		.2byte	0x39b
 1911 0252 85020000 		.4byte	0x285
 1912 0256 12       		.uleb128 0x12
 1913 0257 6C656E00 		.ascii	"len\000"
 1914 025b 01       		.byte	0x1
 1915 025c 9B03     		.2byte	0x39b
 1916 025e 81000000 		.4byte	0x81
 1917 0262 0F       		.uleb128 0xf
 1918 0263 63726300 		.ascii	"crc\000"
 1919 0267 01       		.byte	0x1
 1920 0268 9D03     		.2byte	0x39d
 1921 026a 6B000000 		.4byte	0x6b
ARM GAS  C:\Users\RABBIT~1\AppData\Local\Temp\ccgw4IdU.s 			page 64


 1922 026e 0F       		.uleb128 0xf
 1923 026f 6900     		.ascii	"i\000"
 1924 0271 01       		.byte	0x1
 1925 0272 9E03     		.2byte	0x39e
 1926 0274 6B000000 		.4byte	0x6b
 1927 0278 0F       		.uleb128 0xf
 1928 0279 636E7400 		.ascii	"cnt\000"
 1929 027d 01       		.byte	0x1
 1930 027e 9F03     		.2byte	0x39f
 1931 0280 76000000 		.4byte	0x76
 1932 0284 00       		.byte	0
 1933 0285 11       		.uleb128 0x11
 1934 0286 04       		.byte	0x4
 1935 0287 6B000000 		.4byte	0x6b
 1936 028b 13       		.uleb128 0x13
 1937 028c 57010000 		.4byte	.LASF46
 1938 0290 01       		.byte	0x1
 1939 0291 F602     		.2byte	0x2f6
 1940 0293 00000000 		.4byte	.LFB5
 1941 0297 2A000000 		.4byte	.LFE5-.LFB5
 1942 029b 01       		.uleb128 0x1
 1943 029c 9C       		.byte	0x9c
 1944 029d FA020000 		.4byte	0x2fa
 1945 02a1 14       		.uleb128 0x14
 1946 02a2 73020000 		.4byte	.LASF41
 1947 02a6 01       		.byte	0x1
 1948 02a7 F602     		.2byte	0x2f6
 1949 02a9 2D020000 		.4byte	0x22d
 1950 02ad 01       		.uleb128 0x1
 1951 02ae 50       		.byte	0x50
 1952 02af 14       		.uleb128 0x14
 1953 02b0 6E050000 		.4byte	.LASF36
 1954 02b4 01       		.byte	0x1
 1955 02b5 F602     		.2byte	0x2f6
 1956 02b7 33020000 		.4byte	0x233
 1957 02bb 01       		.uleb128 0x1
 1958 02bc 51       		.byte	0x51
 1959 02bd 15       		.uleb128 0x15
 1960 02be F4030000 		.4byte	.LASF42
 1961 02c2 01       		.byte	0x1
 1962 02c3 F802     		.2byte	0x2f8
 1963 02c5 81000000 		.4byte	0x81
 1964 02c9 00000000 		.4byte	.LLST0
 1965 02cd 15       		.uleb128 0x15
 1966 02ce C7040000 		.4byte	.LASF43
 1967 02d2 01       		.byte	0x1
 1968 02d3 F902     		.2byte	0x2f9
 1969 02d5 81000000 		.4byte	0x81
 1970 02d9 1F000000 		.4byte	.LLST1
 1971 02dd 16       		.uleb128 0x16
 1972 02de 08020000 		.4byte	.LASF44
 1973 02e2 01       		.byte	0x1
 1974 02e3 FA02     		.2byte	0x2fa
 1975 02e5 81000000 		.4byte	0x81
 1976 02e9 01       		.uleb128 0x1
 1977 02ea 52       		.byte	0x52
 1978 02eb 16       		.uleb128 0x16
ARM GAS  C:\Users\RABBIT~1\AppData\Local\Temp\ccgw4IdU.s 			page 65


 1979 02ec 4C000000 		.4byte	.LASF45
 1980 02f0 01       		.byte	0x1
 1981 02f1 FB02     		.2byte	0x2fb
 1982 02f3 81000000 		.4byte	0x81
 1983 02f7 01       		.uleb128 0x1
 1984 02f8 53       		.byte	0x53
 1985 02f9 00       		.byte	0
 1986 02fa 13       		.uleb128 0x13
 1987 02fb 13040000 		.4byte	.LASF47
 1988 02ff 01       		.byte	0x1
 1989 0300 4F03     		.2byte	0x34f
 1990 0302 00000000 		.4byte	.LFB7
 1991 0306 4C000000 		.4byte	.LFE7-.LFB7
 1992 030a 01       		.uleb128 0x1
 1993 030b 9C       		.byte	0x9c
 1994 030c 4F030000 		.4byte	0x34f
 1995 0310 17       		.uleb128 0x17
 1996 0311 F4030000 		.4byte	.LASF42
 1997 0315 01       		.byte	0x1
 1998 0316 4F03     		.2byte	0x34f
 1999 0318 81000000 		.4byte	0x81
 2000 031c 54000000 		.4byte	.LLST2
 2001 0320 17       		.uleb128 0x17
 2002 0321 11000000 		.4byte	.LASF48
 2003 0325 01       		.byte	0x1
 2004 0326 5003     		.2byte	0x350
 2005 0328 2D020000 		.4byte	0x22d
 2006 032c 75000000 		.4byte	.LLST3
 2007 0330 14       		.uleb128 0x14
 2008 0331 C4020000 		.4byte	.LASF49
 2009 0335 01       		.byte	0x1
 2010 0336 5103     		.2byte	0x351
 2011 0338 2D020000 		.4byte	0x22d
 2012 033c 01       		.uleb128 0x1
 2013 033d 52       		.byte	0x52
 2014 033e 17       		.uleb128 0x17
 2015 033f 6E050000 		.4byte	.LASF36
 2016 0343 01       		.byte	0x1
 2017 0344 5203     		.2byte	0x352
 2018 0346 33020000 		.4byte	0x233
 2019 034a A1000000 		.4byte	.LLST4
 2020 034e 00       		.byte	0
 2021 034f 18       		.uleb128 0x18
 2022 0350 C8010000 		.4byte	0x1c8
 2023 0354 00000000 		.4byte	.LFB15
 2024 0358 28000000 		.4byte	.LFE15-.LFB15
 2025 035c 01       		.uleb128 0x1
 2026 035d 9C       		.byte	0x9c
 2027 035e E3030000 		.4byte	0x3e3
 2028 0362 19       		.uleb128 0x19
 2029 0363 D9010000 		.4byte	0x1d9
 2030 0367 CD000000 		.4byte	.LLST5
 2031 036b 19       		.uleb128 0x19
 2032 036c E5010000 		.4byte	0x1e5
 2033 0370 F9000000 		.4byte	.LLST6
 2034 0374 1A       		.uleb128 0x1a
 2035 0375 F1010000 		.4byte	0x1f1
ARM GAS  C:\Users\RABBIT~1\AppData\Local\Temp\ccgw4IdU.s 			page 66


 2036 0379 06       		.uleb128 0x6
 2037 037a FA       		.byte	0xfa
 2038 037b F1010000 		.4byte	0x1f1
 2039 037f 9F       		.byte	0x9f
 2040 0380 1B       		.uleb128 0x1b
 2041 0381 FD010000 		.4byte	0x1fd
 2042 0385 17010000 		.4byte	.LLST7
 2043 0389 1B       		.uleb128 0x1b
 2044 038a 09020000 		.4byte	0x209
 2045 038e 2B010000 		.4byte	.LLST8
 2046 0392 1B       		.uleb128 0x1b
 2047 0393 14020000 		.4byte	0x214
 2048 0397 49010000 		.4byte	.LLST9
 2049 039b 1B       		.uleb128 0x1b
 2050 039c 20020000 		.4byte	0x220
 2051 03a0 70010000 		.4byte	.LLST10
 2052 03a4 1C       		.uleb128 0x1c
 2053 03a5 0A000000 		.4byte	.LVL16
 2054 03a9 9B0F0000 		.4byte	0xf9b
 2055 03ad 1D       		.uleb128 0x1d
 2056 03ae 18000000 		.4byte	.LVL17
 2057 03b2 A60F0000 		.4byte	0xfa6
 2058 03b6 D9030000 		.4byte	0x3d9
 2059 03ba 1E       		.uleb128 0x1e
 2060 03bb 01       		.uleb128 0x1
 2061 03bc 50       		.byte	0x50
 2062 03bd 08       		.uleb128 0x8
 2063 03be 74       		.byte	0x74
 2064 03bf 00       		.sleb128 0
 2065 03c0 09       		.byte	0x9
 2066 03c1 EC       		.byte	0xec
 2067 03c2 24       		.byte	0x24
 2068 03c3 09       		.byte	0x9
 2069 03c4 FC       		.byte	0xfc
 2070 03c5 25       		.byte	0x25
 2071 03c6 1E       		.uleb128 0x1e
 2072 03c7 01       		.uleb128 0x1
 2073 03c8 51       		.byte	0x51
 2074 03c9 08       		.uleb128 0x8
 2075 03ca 74       		.byte	0x74
 2076 03cb 00       		.sleb128 0
 2077 03cc 09       		.byte	0x9
 2078 03cd F4       		.byte	0xf4
 2079 03ce 24       		.byte	0x24
 2080 03cf 09       		.byte	0x9
 2081 03d0 FC       		.byte	0xfc
 2082 03d1 25       		.byte	0x25
 2083 03d2 1E       		.uleb128 0x1e
 2084 03d3 01       		.uleb128 0x1
 2085 03d4 52       		.byte	0x52
 2086 03d5 02       		.uleb128 0x2
 2087 03d6 75       		.byte	0x75
 2088 03d7 00       		.sleb128 0
 2089 03d8 00       		.byte	0
 2090 03d9 1C       		.uleb128 0x1c
 2091 03da 1E000000 		.4byte	.LVL19
 2092 03de B10F0000 		.4byte	0xfb1
ARM GAS  C:\Users\RABBIT~1\AppData\Local\Temp\ccgw4IdU.s 			page 67


 2093 03e2 00       		.byte	0
 2094 03e3 18       		.uleb128 0x18
 2095 03e4 39020000 		.4byte	0x239
 2096 03e8 00000000 		.4byte	.LFB16
 2097 03ec 32000000 		.4byte	.LFE16-.LFB16
 2098 03f0 01       		.uleb128 0x1
 2099 03f1 9C       		.byte	0x9c
 2100 03f2 21040000 		.4byte	0x421
 2101 03f6 19       		.uleb128 0x19
 2102 03f7 4A020000 		.4byte	0x24a
 2103 03fb AF010000 		.4byte	.LLST11
 2104 03ff 1B       		.uleb128 0x1b
 2105 0400 62020000 		.4byte	0x262
 2106 0404 D0010000 		.4byte	.LLST12
 2107 0408 1B       		.uleb128 0x1b
 2108 0409 6E020000 		.4byte	0x26e
 2109 040d EE010000 		.4byte	.LLST13
 2110 0411 1B       		.uleb128 0x1b
 2111 0412 78020000 		.4byte	0x278
 2112 0416 11020000 		.4byte	.LLST14
 2113 041a 1F       		.uleb128 0x1f
 2114 041b 56020000 		.4byte	0x256
 2115 041f 80       		.byte	0x80
 2116 0420 00       		.byte	0
 2117 0421 20       		.uleb128 0x20
 2118 0422 80020000 		.4byte	.LASF56
 2119 0426 01       		.byte	0x1
 2120 0427 BD04     		.2byte	0x4bd
 2121 0429 BC010000 		.4byte	0x1bc
 2122 042d 00000000 		.4byte	.LFB12
 2123 0431 70000000 		.4byte	.LFE12-.LFB12
 2124 0435 01       		.uleb128 0x1
 2125 0436 9C       		.byte	0x9c
 2126 0437 71050000 		.4byte	0x571
 2127 043b 17       		.uleb128 0x17
 2128 043c 58050000 		.4byte	.LASF50
 2129 0440 01       		.byte	0x1
 2130 0441 BD04     		.2byte	0x4bd
 2131 0443 81000000 		.4byte	0x81
 2132 0447 3B020000 		.4byte	.LLST15
 2133 044b 17       		.uleb128 0x17
 2134 044c 59000000 		.4byte	.LASF51
 2135 0450 01       		.byte	0x1
 2136 0451 BE04     		.2byte	0x4be
 2137 0453 81000000 		.4byte	0x81
 2138 0457 59020000 		.4byte	.LLST16
 2139 045b 17       		.uleb128 0x17
 2140 045c 24050000 		.4byte	.LASF52
 2141 0460 01       		.byte	0x1
 2142 0461 BF04     		.2byte	0x4bf
 2143 0463 81000000 		.4byte	0x81
 2144 0467 77020000 		.4byte	.LLST17
 2145 046b 17       		.uleb128 0x17
 2146 046c 4B020000 		.4byte	.LASF53
 2147 0470 01       		.byte	0x1
 2148 0471 C004     		.2byte	0x4c0
 2149 0473 81000000 		.4byte	0x81
ARM GAS  C:\Users\RABBIT~1\AppData\Local\Temp\ccgw4IdU.s 			page 68


 2150 0477 95020000 		.4byte	.LLST18
 2151 047b 14       		.uleb128 0x14
 2152 047c 6E050000 		.4byte	.LASF36
 2153 0480 01       		.byte	0x1
 2154 0481 C104     		.2byte	0x4c1
 2155 0483 33020000 		.4byte	0x233
 2156 0487 02       		.uleb128 0x2
 2157 0488 91       		.byte	0x91
 2158 0489 00       		.sleb128 0
 2159 048a 21       		.uleb128 0x21
 2160 048b 72657400 		.ascii	"ret\000"
 2161 048f 01       		.byte	0x1
 2162 0490 C304     		.2byte	0x4c3
 2163 0492 BC010000 		.4byte	0x1bc
 2164 0496 B3020000 		.4byte	.LLST19
 2165 049a 16       		.uleb128 0x16
 2166 049b 15050000 		.4byte	.LASF54
 2167 049f 01       		.byte	0x1
 2168 04a0 C404     		.2byte	0x4c4
 2169 04a2 71050000 		.4byte	0x571
 2170 04a6 03       		.uleb128 0x3
 2171 04a7 91       		.byte	0x91
 2172 04a8 E87D     		.sleb128 -280
 2173 04aa 15       		.uleb128 0x15
 2174 04ab 2E050000 		.4byte	.LASF55
 2175 04af 01       		.byte	0x1
 2176 04b0 C704     		.2byte	0x4c7
 2177 04b2 81000000 		.4byte	0x81
 2178 04b6 DD020000 		.4byte	.LLST20
 2179 04ba 1D       		.uleb128 0x1d
 2180 04bb 1E000000 		.4byte	.LVL35
 2181 04bf E3030000 		.4byte	0x3e3
 2182 04c3 CF040000 		.4byte	0x4cf
 2183 04c7 1E       		.uleb128 0x1e
 2184 04c8 01       		.uleb128 0x1
 2185 04c9 50       		.byte	0x50
 2186 04ca 03       		.uleb128 0x3
 2187 04cb 75       		.byte	0x75
 2188 04cc 8001     		.sleb128 128
 2189 04ce 00       		.byte	0
 2190 04cf 1D       		.uleb128 0x1d
 2191 04d0 2E000000 		.4byte	.LVL36
 2192 04d4 BC0F0000 		.4byte	0xfbc
 2193 04d8 F2040000 		.4byte	0x4f2
 2194 04dc 1E       		.uleb128 0x1e
 2195 04dd 01       		.uleb128 0x1
 2196 04de 50       		.byte	0x50
 2197 04df 02       		.uleb128 0x2
 2198 04e0 76       		.byte	0x76
 2199 04e1 00       		.sleb128 0
 2200 04e2 1E       		.uleb128 0x1e
 2201 04e3 01       		.uleb128 0x1
 2202 04e4 51       		.byte	0x51
 2203 04e5 05       		.uleb128 0x5
 2204 04e6 75       		.byte	0x75
 2205 04e7 00       		.sleb128 0
 2206 04e8 77       		.byte	0x77
ARM GAS  C:\Users\RABBIT~1\AppData\Local\Temp\ccgw4IdU.s 			page 69


 2207 04e9 00       		.sleb128 0
 2208 04ea 22       		.byte	0x22
 2209 04eb 1E       		.uleb128 0x1e
 2210 04ec 01       		.uleb128 0x1
 2211 04ed 52       		.byte	0x52
 2212 04ee 02       		.uleb128 0x2
 2213 04ef 78       		.byte	0x78
 2214 04f0 00       		.sleb128 0
 2215 04f1 00       		.byte	0
 2216 04f2 1D       		.uleb128 0x1d
 2217 04f3 3A000000 		.4byte	.LVL39
 2218 04f7 E3030000 		.4byte	0x3e3
 2219 04fb 07050000 		.4byte	0x507
 2220 04ff 1E       		.uleb128 0x1e
 2221 0500 01       		.uleb128 0x1
 2222 0501 50       		.byte	0x50
 2223 0502 03       		.uleb128 0x3
 2224 0503 74       		.byte	0x74
 2225 0504 8001     		.sleb128 128
 2226 0506 00       		.byte	0
 2227 0507 1D       		.uleb128 0x1d
 2228 0508 4C000000 		.4byte	.LVL40
 2229 050c BC0F0000 		.4byte	0xfbc
 2230 0510 28050000 		.4byte	0x528
 2231 0514 1E       		.uleb128 0x1e
 2232 0515 01       		.uleb128 0x1
 2233 0516 50       		.byte	0x50
 2234 0517 02       		.uleb128 0x2
 2235 0518 7D       		.byte	0x7d
 2236 0519 00       		.sleb128 0
 2237 051a 1E       		.uleb128 0x1e
 2238 051b 01       		.uleb128 0x1
 2239 051c 51       		.byte	0x51
 2240 051d 02       		.uleb128 0x2
 2241 051e 74       		.byte	0x74
 2242 051f 00       		.sleb128 0
 2243 0520 1E       		.uleb128 0x1e
 2244 0521 01       		.uleb128 0x1
 2245 0522 52       		.byte	0x52
 2246 0523 03       		.uleb128 0x3
 2247 0524 0A       		.byte	0xa
 2248 0525 0001     		.2byte	0x100
 2249 0527 00       		.byte	0
 2250 0528 1D       		.uleb128 0x1d
 2251 0529 54000000 		.4byte	.LVL41
 2252 052d 4F030000 		.4byte	0x34f
 2253 0531 4B050000 		.4byte	0x54b
 2254 0535 1E       		.uleb128 0x1e
 2255 0536 01       		.uleb128 0x1
 2256 0537 50       		.byte	0x50
 2257 0538 02       		.uleb128 0x2
 2258 0539 75       		.byte	0x75
 2259 053a 00       		.sleb128 0
 2260 053b 1E       		.uleb128 0x1e
 2261 053c 01       		.uleb128 0x1
 2262 053d 51       		.byte	0x51
 2263 053e 02       		.uleb128 0x2
ARM GAS  C:\Users\RABBIT~1\AppData\Local\Temp\ccgw4IdU.s 			page 70


 2264 053f 7D       		.byte	0x7d
 2265 0540 00       		.sleb128 0
 2266 0541 22       		.uleb128 0x22
 2267 0542 F1010000 		.4byte	0x1f1
 2268 0546 03       		.uleb128 0x3
 2269 0547 91       		.byte	0x91
 2270 0548 00       		.sleb128 0
 2271 0549 06       		.byte	0x6
 2272 054a 00       		.byte	0
 2273 054b 23       		.uleb128 0x23
 2274 054c 64000000 		.4byte	.LVL44
 2275 0550 BC0F0000 		.4byte	0xfbc
 2276 0554 1E       		.uleb128 0x1e
 2277 0555 01       		.uleb128 0x1
 2278 0556 50       		.byte	0x50
 2279 0557 02       		.uleb128 0x2
 2280 0558 76       		.byte	0x76
 2281 0559 00       		.sleb128 0
 2282 055a 1E       		.uleb128 0x1e
 2283 055b 01       		.uleb128 0x1
 2284 055c 51       		.byte	0x51
 2285 055d 0B       		.uleb128 0xb
 2286 055e 77       		.byte	0x77
 2287 055f 00       		.sleb128 0
 2288 0560 32       		.byte	0x32
 2289 0561 24       		.byte	0x24
 2290 0562 91       		.byte	0x91
 2291 0563 00       		.sleb128 0
 2292 0564 22       		.byte	0x22
 2293 0565 0A       		.byte	0xa
 2294 0566 1801     		.2byte	0x118
 2295 0568 1C       		.byte	0x1c
 2296 0569 1E       		.uleb128 0x1e
 2297 056a 01       		.uleb128 0x1
 2298 056b 52       		.byte	0x52
 2299 056c 02       		.uleb128 0x2
 2300 056d 78       		.byte	0x78
 2301 056e 00       		.sleb128 0
 2302 056f 00       		.byte	0
 2303 0570 00       		.byte	0
 2304 0571 24       		.uleb128 0x24
 2305 0572 81000000 		.4byte	0x81
 2306 0576 81050000 		.4byte	0x581
 2307 057a 25       		.uleb128 0x25
 2308 057b B4000000 		.4byte	0xb4
 2309 057f 3F       		.byte	0x3f
 2310 0580 00       		.byte	0
 2311 0581 20       		.uleb128 0x20
 2312 0582 25040000 		.4byte	.LASF57
 2313 0586 01       		.byte	0x1
 2314 0587 5805     		.2byte	0x558
 2315 0589 BC010000 		.4byte	0x1bc
 2316 058d 00000000 		.4byte	.LFB14
 2317 0591 64000000 		.4byte	.LFE14-.LFB14
 2318 0595 01       		.uleb128 0x1
 2319 0596 9C       		.byte	0x9c
 2320 0597 B4060000 		.4byte	0x6b4
ARM GAS  C:\Users\RABBIT~1\AppData\Local\Temp\ccgw4IdU.s 			page 71


 2321 059b 17       		.uleb128 0x17
 2322 059c 6E050000 		.4byte	.LASF36
 2323 05a0 01       		.byte	0x1
 2324 05a1 5805     		.2byte	0x558
 2325 05a3 33020000 		.4byte	0x233
 2326 05a7 06030000 		.4byte	.LLST21
 2327 05ab 21       		.uleb128 0x21
 2328 05ac 6900     		.ascii	"i\000"
 2329 05ae 01       		.byte	0x1
 2330 05af 5A05     		.2byte	0x55a
 2331 05b1 81000000 		.4byte	0x81
 2332 05b5 24030000 		.4byte	.LLST22
 2333 05b9 16       		.uleb128 0x16
 2334 05ba C9050000 		.4byte	.LASF58
 2335 05be 01       		.byte	0x1
 2336 05bf 5B05     		.2byte	0x55b
 2337 05c1 81000000 		.4byte	0x81
 2338 05c5 03       		.uleb128 0x3
 2339 05c6 91       		.byte	0x91
 2340 05c7 E07D     		.sleb128 -288
 2341 05c9 16       		.uleb128 0x16
 2342 05ca 15050000 		.4byte	.LASF54
 2343 05ce 01       		.byte	0x1
 2344 05cf 5C05     		.2byte	0x55c
 2345 05d1 71050000 		.4byte	0x571
 2346 05d5 03       		.uleb128 0x3
 2347 05d6 91       		.byte	0x91
 2348 05d7 E87D     		.sleb128 -280
 2349 05d9 16       		.uleb128 0x16
 2350 05da 3E040000 		.4byte	.LASF59
 2351 05de 01       		.byte	0x1
 2352 05df 5D05     		.2byte	0x55d
 2353 05e1 81000000 		.4byte	0x81
 2354 05e5 03       		.uleb128 0x3
 2355 05e6 91       		.byte	0x91
 2356 05e7 E47D     		.sleb128 -284
 2357 05e9 15       		.uleb128 0x15
 2358 05ea 10020000 		.4byte	.LASF60
 2359 05ee 01       		.byte	0x1
 2360 05ef 5E05     		.2byte	0x55e
 2361 05f1 81000000 		.4byte	0x81
 2362 05f5 7F030000 		.4byte	.LLST23
 2363 05f9 15       		.uleb128 0x15
 2364 05fa F4030000 		.4byte	.LASF42
 2365 05fe 01       		.byte	0x1
 2366 05ff 6005     		.2byte	0x560
 2367 0601 81000000 		.4byte	0x81
 2368 0605 A9030000 		.4byte	.LLST24
 2369 0609 21       		.uleb128 0x21
 2370 060a 72657400 		.ascii	"ret\000"
 2371 060e 01       		.byte	0x1
 2372 060f 6105     		.2byte	0x561
 2373 0611 BC010000 		.4byte	0x1bc
 2374 0615 C7030000 		.4byte	.LLST25
 2375 0619 1D       		.uleb128 0x1d
 2376 061a 2A000000 		.4byte	.LVL52
 2377 061e BC0F0000 		.4byte	0xfbc
ARM GAS  C:\Users\RABBIT~1\AppData\Local\Temp\ccgw4IdU.s 			page 72


 2378 0622 3B060000 		.4byte	0x63b
 2379 0626 1E       		.uleb128 0x1e
 2380 0627 01       		.uleb128 0x1
 2381 0628 50       		.byte	0x50
 2382 0629 03       		.uleb128 0x3
 2383 062a 91       		.byte	0x91
 2384 062b E87D     		.sleb128 -280
 2385 062d 1E       		.uleb128 0x1e
 2386 062e 01       		.uleb128 0x1
 2387 062f 51       		.byte	0x51
 2388 0630 02       		.uleb128 0x2
 2389 0631 77       		.byte	0x77
 2390 0632 00       		.sleb128 0
 2391 0633 1E       		.uleb128 0x1e
 2392 0634 01       		.uleb128 0x1
 2393 0635 52       		.byte	0x52
 2394 0636 03       		.uleb128 0x3
 2395 0637 0A       		.byte	0xa
 2396 0638 0001     		.2byte	0x100
 2397 063a 00       		.byte	0
 2398 063b 1D       		.uleb128 0x1d
 2399 063c 34000000 		.4byte	.LVL54
 2400 0640 E3030000 		.4byte	0x3e3
 2401 0644 50060000 		.4byte	0x650
 2402 0648 1E       		.uleb128 0x1e
 2403 0649 01       		.uleb128 0x1
 2404 064a 50       		.byte	0x50
 2405 064b 03       		.uleb128 0x3
 2406 064c 91       		.byte	0x91
 2407 064d E87E     		.sleb128 -152
 2408 064f 00       		.byte	0
 2409 0650 1D       		.uleb128 0x1d
 2410 0651 3E000000 		.4byte	.LVL55
 2411 0655 4F030000 		.4byte	0x34f
 2412 0659 73060000 		.4byte	0x673
 2413 065d 1E       		.uleb128 0x1e
 2414 065e 01       		.uleb128 0x1
 2415 065f 50       		.byte	0x50
 2416 0660 02       		.uleb128 0x2
 2417 0661 77       		.byte	0x77
 2418 0662 00       		.sleb128 0
 2419 0663 1E       		.uleb128 0x1e
 2420 0664 01       		.uleb128 0x1
 2421 0665 51       		.byte	0x51
 2422 0666 03       		.uleb128 0x3
 2423 0667 91       		.byte	0x91
 2424 0668 E87D     		.sleb128 -280
 2425 066a 22       		.uleb128 0x22
 2426 066b F1010000 		.4byte	0x1f1
 2427 066f 02       		.uleb128 0x2
 2428 0670 74       		.byte	0x74
 2429 0671 00       		.sleb128 0
 2430 0672 00       		.byte	0
 2431 0673 1D       		.uleb128 0x1d
 2432 0674 4E000000 		.4byte	.LVL57
 2433 0678 4F030000 		.4byte	0x34f
 2434 067c 90060000 		.4byte	0x690
ARM GAS  C:\Users\RABBIT~1\AppData\Local\Temp\ccgw4IdU.s 			page 73


 2435 0680 1E       		.uleb128 0x1e
 2436 0681 01       		.uleb128 0x1
 2437 0682 51       		.byte	0x51
 2438 0683 03       		.uleb128 0x3
 2439 0684 91       		.byte	0x91
 2440 0685 E87D     		.sleb128 -280
 2441 0687 22       		.uleb128 0x22
 2442 0688 F1010000 		.4byte	0x1f1
 2443 068c 02       		.uleb128 0x2
 2444 068d 74       		.byte	0x74
 2445 068e 00       		.sleb128 0
 2446 068f 00       		.byte	0
 2447 0690 23       		.uleb128 0x23
 2448 0691 5C000000 		.4byte	.LVL60
 2449 0695 FA020000 		.4byte	0x2fa
 2450 0699 1E       		.uleb128 0x1e
 2451 069a 01       		.uleb128 0x1
 2452 069b 50       		.byte	0x50
 2453 069c 02       		.uleb128 0x2
 2454 069d 75       		.byte	0x75
 2455 069e 00       		.sleb128 0
 2456 069f 1E       		.uleb128 0x1e
 2457 06a0 01       		.uleb128 0x1
 2458 06a1 51       		.byte	0x51
 2459 06a2 03       		.uleb128 0x3
 2460 06a3 91       		.byte	0x91
 2461 06a4 E47D     		.sleb128 -284
 2462 06a6 1E       		.uleb128 0x1e
 2463 06a7 01       		.uleb128 0x1
 2464 06a8 52       		.byte	0x52
 2465 06a9 02       		.uleb128 0x2
 2466 06aa 7D       		.byte	0x7d
 2467 06ab 00       		.sleb128 0
 2468 06ac 1E       		.uleb128 0x1e
 2469 06ad 01       		.uleb128 0x1
 2470 06ae 53       		.byte	0x53
 2471 06af 02       		.uleb128 0x2
 2472 06b0 74       		.byte	0x74
 2473 06b1 00       		.sleb128 0
 2474 06b2 00       		.byte	0
 2475 06b3 00       		.byte	0
 2476 06b4 0D       		.uleb128 0xd
 2477 06b5 32040000 		.4byte	.LASF61
 2478 06b9 01       		.byte	0x1
 2479 06ba BC03     		.2byte	0x3bc
 2480 06bc BC010000 		.4byte	0x1bc
 2481 06c0 01       		.byte	0x1
 2482 06c1 F6060000 		.4byte	0x6f6
 2483 06c5 0E       		.uleb128 0xe
 2484 06c6 42050000 		.4byte	.LASF62
 2485 06ca 01       		.byte	0x1
 2486 06cb BC03     		.2byte	0x3bc
 2487 06cd F6060000 		.4byte	0x6f6
 2488 06d1 0F       		.uleb128 0xf
 2489 06d2 72657400 		.ascii	"ret\000"
 2490 06d6 01       		.byte	0x1
 2491 06d7 BE03     		.2byte	0x3be
ARM GAS  C:\Users\RABBIT~1\AppData\Local\Temp\ccgw4IdU.s 			page 74


 2492 06d9 BC010000 		.4byte	0x1bc
 2493 06dd 10       		.uleb128 0x10
 2494 06de 58050000 		.4byte	.LASF50
 2495 06e2 01       		.byte	0x1
 2496 06e3 BF03     		.2byte	0x3bf
 2497 06e5 81000000 		.4byte	0x81
 2498 06e9 10       		.uleb128 0x10
 2499 06ea 53040000 		.4byte	.LASF63
 2500 06ee 01       		.byte	0x1
 2501 06ef C003     		.2byte	0x3c0
 2502 06f1 81000000 		.4byte	0x81
 2503 06f5 00       		.byte	0
 2504 06f6 11       		.uleb128 0x11
 2505 06f7 04       		.byte	0x4
 2506 06f8 06010000 		.4byte	0x106
 2507 06fc 26       		.uleb128 0x26
 2508 06fd 03050000 		.4byte	.LASF65
 2509 0701 01       		.byte	0x1
 2510 0702 5F       		.byte	0x5f
 2511 0703 BC010000 		.4byte	0x1bc
 2512 0707 00000000 		.4byte	.LFB0
 2513 070b 92000000 		.4byte	.LFE0-.LFB0
 2514 070f 01       		.uleb128 0x1
 2515 0710 9C       		.byte	0x9c
 2516 0711 C9070000 		.4byte	0x7c9
 2517 0715 27       		.uleb128 0x27
 2518 0716 42050000 		.4byte	.LASF62
 2519 071a 01       		.byte	0x1
 2520 071b 5F       		.byte	0x5f
 2521 071c F6060000 		.4byte	0x6f6
 2522 0720 F1030000 		.4byte	.LLST26
 2523 0724 27       		.uleb128 0x27
 2524 0725 6E050000 		.4byte	.LASF36
 2525 0729 01       		.byte	0x1
 2526 072a 5F       		.byte	0x5f
 2527 072b 33020000 		.4byte	0x233
 2528 072f 12040000 		.4byte	.LLST27
 2529 0733 28       		.uleb128 0x28
 2530 0734 72657400 		.ascii	"ret\000"
 2531 0738 01       		.byte	0x1
 2532 0739 61       		.byte	0x61
 2533 073a BC010000 		.4byte	0x1bc
 2534 073e 30040000 		.4byte	.LLST28
 2535 0742 29       		.uleb128 0x29
 2536 0743 B4060000 		.4byte	0x6b4
 2537 0747 16000000 		.4byte	.LBB4
 2538 074b 22000000 		.4byte	.LBE4-.LBB4
 2539 074f 01       		.byte	0x1
 2540 0750 66       		.byte	0x66
 2541 0751 84070000 		.4byte	0x784
 2542 0755 19       		.uleb128 0x19
 2543 0756 C5060000 		.4byte	0x6c5
 2544 075a 4F040000 		.4byte	.LLST29
 2545 075e 2A       		.uleb128 0x2a
 2546 075f 16000000 		.4byte	.LBB5
 2547 0763 22000000 		.4byte	.LBE5-.LBB5
 2548 0767 1B       		.uleb128 0x1b
ARM GAS  C:\Users\RABBIT~1\AppData\Local\Temp\ccgw4IdU.s 			page 75


 2549 0768 D1060000 		.4byte	0x6d1
 2550 076c 62040000 		.4byte	.LLST30
 2551 0770 1B       		.uleb128 0x1b
 2552 0771 DD060000 		.4byte	0x6dd
 2553 0775 76040000 		.4byte	.LLST31
 2554 0779 1B       		.uleb128 0x1b
 2555 077a E9060000 		.4byte	0x6e9
 2556 077e 89040000 		.4byte	.LLST32
 2557 0782 00       		.byte	0
 2558 0783 00       		.byte	0
 2559 0784 1D       		.uleb128 0x1d
 2560 0785 70000000 		.4byte	.LVL71
 2561 0789 8B020000 		.4byte	0x28b
 2562 078d 9E070000 		.4byte	0x79e
 2563 0791 1E       		.uleb128 0x1e
 2564 0792 01       		.uleb128 0x1
 2565 0793 50       		.byte	0x50
 2566 0794 02       		.uleb128 0x2
 2567 0795 76       		.byte	0x76
 2568 0796 00       		.sleb128 0
 2569 0797 1E       		.uleb128 0x1e
 2570 0798 01       		.uleb128 0x1
 2571 0799 51       		.byte	0x51
 2572 079a 02       		.uleb128 0x2
 2573 079b 75       		.byte	0x75
 2574 079c 00       		.sleb128 0
 2575 079d 00       		.byte	0
 2576 079e 1D       		.uleb128 0x1d
 2577 079f 80000000 		.4byte	.LVL72
 2578 07a3 81050000 		.4byte	0x581
 2579 07a7 B2070000 		.4byte	0x7b2
 2580 07ab 1E       		.uleb128 0x1e
 2581 07ac 01       		.uleb128 0x1
 2582 07ad 50       		.byte	0x50
 2583 07ae 02       		.uleb128 0x2
 2584 07af 75       		.byte	0x75
 2585 07b0 00       		.sleb128 0
 2586 07b1 00       		.byte	0
 2587 07b2 23       		.uleb128 0x23
 2588 07b3 8A000000 		.4byte	.LVL74
 2589 07b7 8B020000 		.4byte	0x28b
 2590 07bb 1E       		.uleb128 0x1e
 2591 07bc 01       		.uleb128 0x1
 2592 07bd 50       		.byte	0x50
 2593 07be 02       		.uleb128 0x2
 2594 07bf 76       		.byte	0x76
 2595 07c0 00       		.sleb128 0
 2596 07c1 1E       		.uleb128 0x1e
 2597 07c2 01       		.uleb128 0x1
 2598 07c3 51       		.byte	0x51
 2599 07c4 02       		.uleb128 0x2
 2600 07c5 75       		.byte	0x75
 2601 07c6 00       		.sleb128 0
 2602 07c7 00       		.byte	0
 2603 07c8 00       		.byte	0
 2604 07c9 0D       		.uleb128 0xd
 2605 07ca DA050000 		.4byte	.LASF64
ARM GAS  C:\Users\RABBIT~1\AppData\Local\Temp\ccgw4IdU.s 			page 76


 2606 07ce 01       		.byte	0x1
 2607 07cf 2203     		.2byte	0x322
 2608 07d1 81000000 		.4byte	0x81
 2609 07d5 01       		.byte	0x1
 2610 07d6 FF070000 		.4byte	0x7ff
 2611 07da 0E       		.uleb128 0xe
 2612 07db F4030000 		.4byte	.LASF42
 2613 07df 01       		.byte	0x1
 2614 07e0 2203     		.2byte	0x322
 2615 07e2 81000000 		.4byte	0x81
 2616 07e6 0E       		.uleb128 0xe
 2617 07e7 6E050000 		.4byte	.LASF36
 2618 07eb 01       		.byte	0x1
 2619 07ec 2203     		.2byte	0x322
 2620 07ee 33020000 		.4byte	0x233
 2621 07f2 10       		.uleb128 0x10
 2622 07f3 4C000000 		.4byte	.LASF45
 2623 07f7 01       		.byte	0x1
 2624 07f8 2403     		.2byte	0x324
 2625 07fa 81000000 		.4byte	0x81
 2626 07fe 00       		.byte	0
 2627 07ff 26       		.uleb128 0x26
 2628 0800 0B030000 		.4byte	.LASF66
 2629 0804 01       		.byte	0x1
 2630 0805 A9       		.byte	0xa9
 2631 0806 BC010000 		.4byte	0x1bc
 2632 080a 00000000 		.4byte	.LFB1
 2633 080e C2010000 		.4byte	.LFE1-.LFB1
 2634 0812 01       		.uleb128 0x1
 2635 0813 9C       		.byte	0x9c
 2636 0814 490A0000 		.4byte	0xa49
 2637 0818 27       		.uleb128 0x27
 2638 0819 96000000 		.4byte	.LASF67
 2639 081d 01       		.byte	0x1
 2640 081e A9       		.byte	0xa9
 2641 081f 81000000 		.4byte	0x81
 2642 0823 68050000 		.4byte	.LLST33
 2643 0827 27       		.uleb128 0x27
 2644 0828 E1020000 		.4byte	.LASF68
 2645 082c 01       		.byte	0x1
 2646 082d AA       		.byte	0xaa
 2647 082e BB000000 		.4byte	0xbb
 2648 0832 86050000 		.4byte	.LLST34
 2649 0836 27       		.uleb128 0x27
 2650 0837 9A020000 		.4byte	.LASF69
 2651 083b 01       		.byte	0x1
 2652 083c AB       		.byte	0xab
 2653 083d 81000000 		.4byte	0x81
 2654 0841 A5050000 		.4byte	.LLST35
 2655 0845 27       		.uleb128 0x27
 2656 0846 6E050000 		.4byte	.LASF36
 2657 084a 01       		.byte	0x1
 2658 084b AC       		.byte	0xac
 2659 084c 33020000 		.4byte	0x233
 2660 0850 EA050000 		.4byte	.LLST36
 2661 0854 28       		.uleb128 0x28
 2662 0855 72657400 		.ascii	"ret\000"
ARM GAS  C:\Users\RABBIT~1\AppData\Local\Temp\ccgw4IdU.s 			page 77


 2663 0859 01       		.byte	0x1
 2664 085a AE       		.byte	0xae
 2665 085b BC010000 		.4byte	0x1bc
 2666 085f 08060000 		.4byte	.LLST37
 2667 0863 28       		.uleb128 0x28
 2668 0864 6900     		.ascii	"i\000"
 2669 0866 01       		.byte	0x1
 2670 0867 AF       		.byte	0xaf
 2671 0868 81000000 		.4byte	0x81
 2672 086c 78060000 		.4byte	.LLST38
 2673 0870 2B       		.uleb128 0x2b
 2674 0871 49050000 		.4byte	.LASF70
 2675 0875 01       		.byte	0x1
 2676 0876 B0       		.byte	0xb0
 2677 0877 81000000 		.4byte	0x81
 2678 087b DB060000 		.4byte	.LLST39
 2679 087f 2B       		.uleb128 0x2b
 2680 0880 F9020000 		.4byte	.LASF71
 2681 0884 01       		.byte	0x1
 2682 0885 B1       		.byte	0xb1
 2683 0886 81000000 		.4byte	0x81
 2684 088a 04070000 		.4byte	.LLST40
 2685 088e 2B       		.uleb128 0x2b
 2686 088f 84050000 		.4byte	.LASF72
 2687 0893 01       		.byte	0x1
 2688 0894 B2       		.byte	0xb2
 2689 0895 81000000 		.4byte	0x81
 2690 0899 24070000 		.4byte	.LLST41
 2691 089d 2B       		.uleb128 0x2b
 2692 089e EC020000 		.4byte	.LASF73
 2693 08a2 01       		.byte	0x1
 2694 08a3 B3       		.byte	0xb3
 2695 08a4 81000000 		.4byte	0x81
 2696 08a8 75070000 		.4byte	.LLST42
 2697 08ac 2B       		.uleb128 0x2b
 2698 08ad D0010000 		.4byte	.LASF74
 2699 08b1 01       		.byte	0x1
 2700 08b2 B4       		.byte	0xb4
 2701 08b3 81000000 		.4byte	0x81
 2702 08b7 D9070000 		.4byte	.LLST43
 2703 08bb 2B       		.uleb128 0x2b
 2704 08bc 10060000 		.4byte	.LASF75
 2705 08c0 01       		.byte	0x1
 2706 08c1 B5       		.byte	0xb5
 2707 08c2 81000000 		.4byte	0x81
 2708 08c6 0F080000 		.4byte	.LLST44
 2709 08ca 2B       		.uleb128 0x2b
 2710 08cb ED040000 		.4byte	.LASF76
 2711 08cf 01       		.byte	0x1
 2712 08d0 B6       		.byte	0xb6
 2713 08d1 81000000 		.4byte	0x81
 2714 08d5 45080000 		.4byte	.LLST45
 2715 08d9 2B       		.uleb128 0x2b
 2716 08da 70060000 		.4byte	.LASF77
 2717 08de 01       		.byte	0x1
 2718 08df B7       		.byte	0xb7
 2719 08e0 81000000 		.4byte	0x81
ARM GAS  C:\Users\RABBIT~1\AppData\Local\Temp\ccgw4IdU.s 			page 78


 2720 08e4 7B080000 		.4byte	.LLST46
 2721 08e8 2C       		.uleb128 0x2c
 2722 08e9 00000000 		.4byte	.Ldebug_ranges0+0
 2723 08ed 2B       		.uleb128 0x2b
 2724 08ee C9050000 		.4byte	.LASF58
 2725 08f2 01       		.byte	0x1
 2726 08f3 BC       		.byte	0xbc
 2727 08f4 81000000 		.4byte	0x81
 2728 08f8 C6080000 		.4byte	.LLST47
 2729 08fc 2B       		.uleb128 0x2b
 2730 08fd A8050000 		.4byte	.LASF78
 2731 0901 01       		.byte	0x1
 2732 0902 BD       		.byte	0xbd
 2733 0903 81000000 		.4byte	0x81
 2734 0907 80090000 		.4byte	.LLST48
 2735 090b 2B       		.uleb128 0x2b
 2736 090c F4030000 		.4byte	.LASF42
 2737 0910 01       		.byte	0x1
 2738 0911 BF       		.byte	0xbf
 2739 0912 81000000 		.4byte	0x81
 2740 0916 A9090000 		.4byte	.LLST49
 2741 091a 2B       		.uleb128 0x2b
 2742 091b F9010000 		.4byte	.LASF79
 2743 091f 01       		.byte	0x1
 2744 0920 C0       		.byte	0xc0
 2745 0921 81000000 		.4byte	0x81
 2746 0925 EE090000 		.4byte	.LLST50
 2747 0929 2B       		.uleb128 0x2b
 2748 092a 54060000 		.4byte	.LASF80
 2749 092e 01       		.byte	0x1
 2750 092f C5       		.byte	0xc5
 2751 0930 81000000 		.4byte	0x81
 2752 0934 250A0000 		.4byte	.LLST51
 2753 0938 2D       		.uleb128 0x2d
 2754 0939 30000000 		.4byte	.Ldebug_ranges0+0x30
 2755 093d 51090000 		.4byte	0x951
 2756 0941 2B       		.uleb128 0x2b
 2757 0942 40060000 		.4byte	.LASF81
 2758 0946 01       		.byte	0x1
 2759 0947 E2       		.byte	0xe2
 2760 0948 81000000 		.4byte	0x81
 2761 094c 750A0000 		.4byte	.LLST52
 2762 0950 00       		.byte	0
 2763 0951 2E       		.uleb128 0x2e
 2764 0952 C9070000 		.4byte	0x7c9
 2765 0956 44010000 		.4byte	.LBB16
 2766 095a 14000000 		.4byte	.LBE16-.LBB16
 2767 095e 01       		.byte	0x1
 2768 095f 3601     		.2byte	0x136
 2769 0961 8B090000 		.4byte	0x98b
 2770 0965 19       		.uleb128 0x19
 2771 0966 E6070000 		.4byte	0x7e6
 2772 096a C60A0000 		.4byte	.LLST53
 2773 096e 19       		.uleb128 0x19
 2774 096f DA070000 		.4byte	0x7da
 2775 0973 D90A0000 		.4byte	.LLST54
 2776 0977 2A       		.uleb128 0x2a
ARM GAS  C:\Users\RABBIT~1\AppData\Local\Temp\ccgw4IdU.s 			page 79


 2777 0978 44010000 		.4byte	.LBB17
 2778 097c 14000000 		.4byte	.LBE17-.LBB17
 2779 0980 1B       		.uleb128 0x1b
 2780 0981 F2070000 		.4byte	0x7f2
 2781 0985 EC0A0000 		.4byte	.LLST55
 2782 0989 00       		.byte	0
 2783 098a 00       		.byte	0
 2784 098b 2F       		.uleb128 0x2f
 2785 098c 5A010000 		.4byte	.LBB18
 2786 0990 56000000 		.4byte	.LBE18-.LBB18
 2787 0994 030A0000 		.4byte	0xa03
 2788 0998 15       		.uleb128 0x15
 2789 0999 58050000 		.4byte	.LASF50
 2790 099d 01       		.byte	0x1
 2791 099e 3B01     		.2byte	0x13b
 2792 09a0 81000000 		.4byte	0x81
 2793 09a4 FF0A0000 		.4byte	.LLST56
 2794 09a8 15       		.uleb128 0x15
 2795 09a9 53040000 		.4byte	.LASF63
 2796 09ad 01       		.byte	0x1
 2797 09ae 3C01     		.2byte	0x13c
 2798 09b0 81000000 		.4byte	0x81
 2799 09b4 2A0B0000 		.4byte	.LLST57
 2800 09b8 2C       		.uleb128 0x2c
 2801 09b9 50000000 		.4byte	.Ldebug_ranges0+0x50
 2802 09bd 15       		.uleb128 0x15
 2803 09be 90020000 		.4byte	.LASF82
 2804 09c2 01       		.byte	0x1
 2805 09c3 4101     		.2byte	0x141
 2806 09c5 81000000 		.4byte	0x81
 2807 09c9 610B0000 		.4byte	.LLST58
 2808 09cd 15       		.uleb128 0x15
 2809 09ce D0050000 		.4byte	.LASF83
 2810 09d2 01       		.byte	0x1
 2811 09d3 4201     		.2byte	0x142
 2812 09d5 81000000 		.4byte	0x81
 2813 09d9 A10B0000 		.4byte	.LLST59
 2814 09dd 1D       		.uleb128 0x1d
 2815 09de A4010000 		.4byte	.LVL146
 2816 09e2 21040000 		.4byte	0x421
 2817 09e6 F8090000 		.4byte	0x9f8
 2818 09ea 1E       		.uleb128 0x1e
 2819 09eb 01       		.uleb128 0x1
 2820 09ec 50       		.byte	0x50
 2821 09ed 02       		.uleb128 0x2
 2822 09ee 77       		.byte	0x77
 2823 09ef 00       		.sleb128 0
 2824 09f0 1E       		.uleb128 0x1e
 2825 09f1 02       		.uleb128 0x2
 2826 09f2 7D       		.byte	0x7d
 2827 09f3 00       		.sleb128 0
 2828 09f4 02       		.uleb128 0x2
 2829 09f5 74       		.byte	0x74
 2830 09f6 00       		.sleb128 0
 2831 09f7 00       		.byte	0
 2832 09f8 1C       		.uleb128 0x1c
 2833 09f9 B0010000 		.4byte	.LVL149
ARM GAS  C:\Users\RABBIT~1\AppData\Local\Temp\ccgw4IdU.s 			page 80


 2834 09fd BC0F0000 		.4byte	0xfbc
 2835 0a01 00       		.byte	0
 2836 0a02 00       		.byte	0
 2837 0a03 1D       		.uleb128 0x1d
 2838 0a04 00010000 		.4byte	.LVL112
 2839 0a08 21040000 		.4byte	0x421
 2840 0a0c 310A0000 		.4byte	0xa31
 2841 0a10 1E       		.uleb128 0x1e
 2842 0a11 01       		.uleb128 0x1
 2843 0a12 51       		.byte	0x51
 2844 0a13 02       		.uleb128 0x2
 2845 0a14 7B       		.byte	0x7b
 2846 0a15 00       		.sleb128 0
 2847 0a16 1E       		.uleb128 0x1e
 2848 0a17 01       		.uleb128 0x1
 2849 0a18 52       		.byte	0x52
 2850 0a19 09       		.uleb128 0x9
 2851 0a1a 91       		.byte	0x91
 2852 0a1b 40       		.sleb128 -64
 2853 0a1c 06       		.byte	0x6
 2854 0a1d 08       		.byte	0x8
 2855 0a1e 7F       		.byte	0x7f
 2856 0a1f 1A       		.byte	0x1a
 2857 0a20 23       		.byte	0x23
 2858 0a21 8001     		.uleb128 0x80
 2859 0a23 1E       		.uleb128 0x1e
 2860 0a24 01       		.uleb128 0x1
 2861 0a25 53       		.byte	0x53
 2862 0a26 02       		.uleb128 0x2
 2863 0a27 77       		.byte	0x77
 2864 0a28 00       		.sleb128 0
 2865 0a29 1E       		.uleb128 0x1e
 2866 0a2a 02       		.uleb128 0x2
 2867 0a2b 7D       		.byte	0x7d
 2868 0a2c 00       		.sleb128 0
 2869 0a2d 02       		.uleb128 0x2
 2870 0a2e 74       		.byte	0x74
 2871 0a2f 00       		.sleb128 0
 2872 0a30 00       		.byte	0
 2873 0a31 23       		.uleb128 0x23
 2874 0a32 0E010000 		.4byte	.LVL116
 2875 0a36 BC0F0000 		.4byte	0xfbc
 2876 0a3a 1E       		.uleb128 0x1e
 2877 0a3b 01       		.uleb128 0x1
 2878 0a3c 50       		.byte	0x50
 2879 0a3d 02       		.uleb128 0x2
 2880 0a3e 7B       		.byte	0x7b
 2881 0a3f 00       		.sleb128 0
 2882 0a40 1E       		.uleb128 0x1e
 2883 0a41 01       		.uleb128 0x1
 2884 0a42 52       		.byte	0x52
 2885 0a43 02       		.uleb128 0x2
 2886 0a44 77       		.byte	0x77
 2887 0a45 00       		.sleb128 0
 2888 0a46 00       		.byte	0
 2889 0a47 00       		.byte	0
 2890 0a48 00       		.byte	0
ARM GAS  C:\Users\RABBIT~1\AppData\Local\Temp\ccgw4IdU.s 			page 81


 2891 0a49 0D       		.uleb128 0xd
 2892 0a4a 66020000 		.4byte	.LASF84
 2893 0a4e 01       		.byte	0x1
 2894 0a4f 1105     		.2byte	0x511
 2895 0a51 81000000 		.4byte	0x81
 2896 0a55 01       		.byte	0x1
 2897 0a56 AF0A0000 		.4byte	0xaaf
 2898 0a5a 0E       		.uleb128 0xe
 2899 0a5b 58050000 		.4byte	.LASF50
 2900 0a5f 01       		.byte	0x1
 2901 0a60 1105     		.2byte	0x511
 2902 0a62 2D020000 		.4byte	0x22d
 2903 0a66 0E       		.uleb128 0xe
 2904 0a67 53040000 		.4byte	.LASF63
 2905 0a6b 01       		.byte	0x1
 2906 0a6c 1205     		.2byte	0x512
 2907 0a6e 2D020000 		.4byte	0x22d
 2908 0a72 0E       		.uleb128 0xe
 2909 0a73 67050000 		.4byte	.LASF85
 2910 0a77 01       		.byte	0x1
 2911 0a78 1305     		.2byte	0x513
 2912 0a7a 2D020000 		.4byte	0x22d
 2913 0a7e 0E       		.uleb128 0xe
 2914 0a7f 61000000 		.4byte	.LASF86
 2915 0a83 01       		.byte	0x1
 2916 0a84 1405     		.2byte	0x514
 2917 0a86 81000000 		.4byte	0x81
 2918 0a8a 0E       		.uleb128 0xe
 2919 0a8b 96000000 		.4byte	.LASF67
 2920 0a8f 01       		.byte	0x1
 2921 0a90 1505     		.2byte	0x515
 2922 0a92 81000000 		.4byte	0x81
 2923 0a96 12       		.uleb128 0x12
 2924 0a97 6C656E00 		.ascii	"len\000"
 2925 0a9b 01       		.byte	0x1
 2926 0a9c 1605     		.2byte	0x516
 2927 0a9e 81000000 		.4byte	0x81
 2928 0aa2 10       		.uleb128 0x10
 2929 0aa3 62050000 		.4byte	.LASF87
 2930 0aa7 01       		.byte	0x1
 2931 0aa8 1805     		.2byte	0x518
 2932 0aaa 81000000 		.4byte	0x81
 2933 0aae 00       		.byte	0
 2934 0aaf 30       		.uleb128 0x30
 2935 0ab0 E1030000 		.4byte	.LASF88
 2936 0ab4 01       		.byte	0x1
 2937 0ab5 9B01     		.2byte	0x19b
 2938 0ab7 BC010000 		.4byte	0x1bc
 2939 0abb 00000000 		.4byte	.LFB2
 2940 0abf AA010000 		.4byte	.LFE2-.LFB2
 2941 0ac3 01       		.uleb128 0x1
 2942 0ac4 9C       		.byte	0x9c
 2943 0ac5 A20D0000 		.4byte	0xda2
 2944 0ac9 17       		.uleb128 0x17
 2945 0aca 96000000 		.4byte	.LASF67
 2946 0ace 01       		.byte	0x1
 2947 0acf 9B01     		.2byte	0x19b
ARM GAS  C:\Users\RABBIT~1\AppData\Local\Temp\ccgw4IdU.s 			page 82


 2948 0ad1 81000000 		.4byte	0x81
 2949 0ad5 B40B0000 		.4byte	.LLST60
 2950 0ad9 17       		.uleb128 0x17
 2951 0ada E1020000 		.4byte	.LASF68
 2952 0ade 01       		.byte	0x1
 2953 0adf 9C01     		.2byte	0x19c
 2954 0ae1 BB000000 		.4byte	0xbb
 2955 0ae5 000C0000 		.4byte	.LLST61
 2956 0ae9 17       		.uleb128 0x17
 2957 0aea 9A020000 		.4byte	.LASF69
 2958 0aee 01       		.byte	0x1
 2959 0aef 9D01     		.2byte	0x19d
 2960 0af1 81000000 		.4byte	0x81
 2961 0af5 3A0C0000 		.4byte	.LLST62
 2962 0af9 17       		.uleb128 0x17
 2963 0afa 6E050000 		.4byte	.LASF36
 2964 0afe 01       		.byte	0x1
 2965 0aff 9E01     		.2byte	0x19e
 2966 0b01 33020000 		.4byte	0x233
 2967 0b05 580C0000 		.4byte	.LLST63
 2968 0b09 21       		.uleb128 0x21
 2969 0b0a 72657400 		.ascii	"ret\000"
 2970 0b0e 01       		.byte	0x1
 2971 0b0f A001     		.2byte	0x1a0
 2972 0b11 BC010000 		.4byte	0x1bc
 2973 0b15 760C0000 		.4byte	.LLST64
 2974 0b19 21       		.uleb128 0x21
 2975 0b1a 6900     		.ascii	"i\000"
 2976 0b1c 01       		.byte	0x1
 2977 0b1d A101     		.2byte	0x1a1
 2978 0b1f 81000000 		.4byte	0x81
 2979 0b23 CF0C0000 		.4byte	.LLST65
 2980 0b27 15       		.uleb128 0x15
 2981 0b28 F3010000 		.4byte	.LASF89
 2982 0b2c 01       		.byte	0x1
 2983 0b2d A201     		.2byte	0x1a2
 2984 0b2f 81000000 		.4byte	0x81
 2985 0b33 050D0000 		.4byte	.LLST66
 2986 0b37 10       		.uleb128 0x10
 2987 0b38 B2020000 		.4byte	.LASF90
 2988 0b3c 01       		.byte	0x1
 2989 0b3d A301     		.2byte	0x1a3
 2990 0b3f 81000000 		.4byte	0x81
 2991 0b43 16       		.uleb128 0x16
 2992 0b44 15050000 		.4byte	.LASF54
 2993 0b48 01       		.byte	0x1
 2994 0b49 A401     		.2byte	0x1a4
 2995 0b4b 71050000 		.4byte	0x571
 2996 0b4f 03       		.uleb128 0x3
 2997 0b50 91       		.byte	0x91
 2998 0b51 D87D     		.sleb128 -296
 2999 0b53 15       		.uleb128 0x15
 3000 0b54 58050000 		.4byte	.LASF50
 3001 0b58 01       		.byte	0x1
 3002 0b59 A501     		.2byte	0x1a5
 3003 0b5b 81000000 		.4byte	0x81
 3004 0b5f 230D0000 		.4byte	.LLST67
ARM GAS  C:\Users\RABBIT~1\AppData\Local\Temp\ccgw4IdU.s 			page 83


 3005 0b63 15       		.uleb128 0x15
 3006 0b64 53040000 		.4byte	.LASF63
 3007 0b68 01       		.byte	0x1
 3008 0b69 A601     		.2byte	0x1a6
 3009 0b6b 81000000 		.4byte	0x81
 3010 0b6f 7C0D0000 		.4byte	.LLST68
 3011 0b73 15       		.uleb128 0x15
 3012 0b74 10020000 		.4byte	.LASF60
 3013 0b78 01       		.byte	0x1
 3014 0b79 A701     		.2byte	0x1a7
 3015 0b7b 81000000 		.4byte	0x81
 3016 0b7f D80D0000 		.4byte	.LLST69
 3017 0b83 16       		.uleb128 0x16
 3018 0b84 60060000 		.4byte	.LASF91
 3019 0b88 01       		.byte	0x1
 3020 0b89 A801     		.2byte	0x1a8
 3021 0b8b 81000000 		.4byte	0x81
 3022 0b8f 03       		.uleb128 0x3
 3023 0b90 91       		.byte	0x91
 3024 0b91 D07D     		.sleb128 -304
 3025 0b93 16       		.uleb128 0x16
 3026 0b94 CF020000 		.4byte	.LASF92
 3027 0b98 01       		.byte	0x1
 3028 0b99 A901     		.2byte	0x1a9
 3029 0b9b 81000000 		.4byte	0x81
 3030 0b9f 03       		.uleb128 0x3
 3031 0ba0 91       		.byte	0x91
 3032 0ba1 D47D     		.sleb128 -300
 3033 0ba3 15       		.uleb128 0x15
 3034 0ba4 1C000000 		.4byte	.LASF93
 3035 0ba8 01       		.byte	0x1
 3036 0ba9 AA01     		.2byte	0x1aa
 3037 0bab BB000000 		.4byte	0xbb
 3038 0baf 570E0000 		.4byte	.LLST70
 3039 0bb3 15       		.uleb128 0x15
 3040 0bb4 70060000 		.4byte	.LASF77
 3041 0bb8 01       		.byte	0x1
 3042 0bb9 AB01     		.2byte	0x1ab
 3043 0bbb 81000000 		.4byte	0x81
 3044 0bbf 6A0E0000 		.4byte	.LLST71
 3045 0bc3 2C       		.uleb128 0x2c
 3046 0bc4 68000000 		.4byte	.Ldebug_ranges0+0x68
 3047 0bc8 15       		.uleb128 0x15
 3048 0bc9 75000000 		.4byte	.LASF94
 3049 0bcd 01       		.byte	0x1
 3050 0bce B001     		.2byte	0x1b0
 3051 0bd0 81000000 		.4byte	0x81
 3052 0bd4 A20E0000 		.4byte	.LLST72
 3053 0bd8 15       		.uleb128 0x15
 3054 0bd9 E0010000 		.4byte	.LASF95
 3055 0bdd 01       		.byte	0x1
 3056 0bde B101     		.2byte	0x1b1
 3057 0be0 81000000 		.4byte	0x81
 3058 0be4 C40E0000 		.4byte	.LLST73
 3059 0be8 2C       		.uleb128 0x2c
 3060 0be9 90000000 		.4byte	.Ldebug_ranges0+0x90
 3061 0bed 15       		.uleb128 0x15
ARM GAS  C:\Users\RABBIT~1\AppData\Local\Temp\ccgw4IdU.s 			page 84


 3062 0bee DF040000 		.4byte	.LASF96
 3063 0bf2 01       		.byte	0x1
 3064 0bf3 B501     		.2byte	0x1b5
 3065 0bf5 81000000 		.4byte	0x81
 3066 0bf9 1B0F0000 		.4byte	.LLST74
 3067 0bfd 15       		.uleb128 0x15
 3068 0bfe F4030000 		.4byte	.LASF42
 3069 0c02 01       		.byte	0x1
 3070 0c03 B701     		.2byte	0x1b7
 3071 0c05 81000000 		.4byte	0x81
 3072 0c09 750F0000 		.4byte	.LLST75
 3073 0c0d 31       		.uleb128 0x31
 3074 0c0e 490A0000 		.4byte	0xa49
 3075 0c12 A0000000 		.4byte	.LBB34
 3076 0c16 B0000000 		.4byte	.Ldebug_ranges0+0xb0
 3077 0c1a 01       		.byte	0x1
 3078 0c1b 0602     		.2byte	0x206
 3079 0c1d 630C0000 		.4byte	0xc63
 3080 0c21 19       		.uleb128 0x19
 3081 0c22 960A0000 		.4byte	0xa96
 3082 0c26 930F0000 		.4byte	.LLST76
 3083 0c2a 19       		.uleb128 0x19
 3084 0c2b 8A0A0000 		.4byte	0xa8a
 3085 0c2f B10F0000 		.4byte	.LLST77
 3086 0c33 32       		.uleb128 0x32
 3087 0c34 7E0A0000 		.4byte	0xa7e
 3088 0c38 19       		.uleb128 0x19
 3089 0c39 720A0000 		.4byte	0xa72
 3090 0c3d 09100000 		.4byte	.LLST78
 3091 0c41 19       		.uleb128 0x19
 3092 0c42 660A0000 		.4byte	0xa66
 3093 0c46 31100000 		.4byte	.LLST79
 3094 0c4a 19       		.uleb128 0x19
 3095 0c4b 5A0A0000 		.4byte	0xa5a
 3096 0c4f 59100000 		.4byte	.LLST80
 3097 0c53 2C       		.uleb128 0x2c
 3098 0c54 B0000000 		.4byte	.Ldebug_ranges0+0xb0
 3099 0c58 1B       		.uleb128 0x1b
 3100 0c59 A20A0000 		.4byte	0xaa2
 3101 0c5d 81100000 		.4byte	.LLST81
 3102 0c61 00       		.byte	0
 3103 0c62 00       		.byte	0
 3104 0c63 2E       		.uleb128 0x2e
 3105 0c64 C9070000 		.4byte	0x7c9
 3106 0c68 B8000000 		.4byte	.LBB40
 3107 0c6c 14000000 		.4byte	.LBE40-.LBB40
 3108 0c70 01       		.byte	0x1
 3109 0c71 FD01     		.2byte	0x1fd
 3110 0c73 9D0C0000 		.4byte	0xc9d
 3111 0c77 19       		.uleb128 0x19
 3112 0c78 E6070000 		.4byte	0x7e6
 3113 0c7c A1100000 		.4byte	.LLST82
 3114 0c80 19       		.uleb128 0x19
 3115 0c81 DA070000 		.4byte	0x7da
 3116 0c85 B4100000 		.4byte	.LLST83
 3117 0c89 2A       		.uleb128 0x2a
 3118 0c8a B8000000 		.4byte	.LBB41
ARM GAS  C:\Users\RABBIT~1\AppData\Local\Temp\ccgw4IdU.s 			page 85


 3119 0c8e 14000000 		.4byte	.LBE41-.LBB41
 3120 0c92 1B       		.uleb128 0x1b
 3121 0c93 F2070000 		.4byte	0x7f2
 3122 0c97 C7100000 		.4byte	.LLST84
 3123 0c9b 00       		.byte	0
 3124 0c9c 00       		.byte	0
 3125 0c9d 2F       		.uleb128 0x2f
 3126 0c9e 00010000 		.4byte	.LBB45
 3127 0ca2 12000000 		.4byte	.LBE45-.LBB45
 3128 0ca6 DB0C0000 		.4byte	0xcdb
 3129 0caa 15       		.uleb128 0x15
 3130 0cab 35020000 		.4byte	.LASF97
 3131 0caf 01       		.byte	0x1
 3132 0cb0 1702     		.2byte	0x217
 3133 0cb2 81000000 		.4byte	0x81
 3134 0cb6 DA100000 		.4byte	.LLST85
 3135 0cba 23       		.uleb128 0x23
 3136 0cbb 0E010000 		.4byte	.LVL186
 3137 0cbf BC0F0000 		.4byte	0xfbc
 3138 0cc3 1E       		.uleb128 0x1e
 3139 0cc4 01       		.uleb128 0x1
 3140 0cc5 50       		.byte	0x50
 3141 0cc6 09       		.uleb128 0x9
 3142 0cc7 91       		.byte	0x91
 3143 0cc8 00       		.sleb128 0
 3144 0cc9 76       		.byte	0x76
 3145 0cca 00       		.sleb128 0
 3146 0ccb 22       		.byte	0x22
 3147 0ccc 0A       		.byte	0xa
 3148 0ccd 2801     		.2byte	0x128
 3149 0ccf 1C       		.byte	0x1c
 3150 0cd0 1E       		.uleb128 0x1e
 3151 0cd1 01       		.uleb128 0x1
 3152 0cd2 52       		.byte	0x52
 3153 0cd3 05       		.uleb128 0x5
 3154 0cd4 79       		.byte	0x79
 3155 0cd5 00       		.sleb128 0
 3156 0cd6 76       		.byte	0x76
 3157 0cd7 00       		.sleb128 0
 3158 0cd8 1C       		.byte	0x1c
 3159 0cd9 00       		.byte	0
 3160 0cda 00       		.byte	0
 3161 0cdb 1D       		.uleb128 0x1d
 3162 0cdc 50000000 		.4byte	.LVL162
 3163 0ce0 FA020000 		.4byte	0x2fa
 3164 0ce4 030D0000 		.4byte	0xd03
 3165 0ce8 1E       		.uleb128 0x1e
 3166 0ce9 01       		.uleb128 0x1
 3167 0cea 50       		.byte	0x50
 3168 0ceb 02       		.uleb128 0x2
 3169 0cec 77       		.byte	0x77
 3170 0ced 00       		.sleb128 0
 3171 0cee 1E       		.uleb128 0x1e
 3172 0cef 01       		.uleb128 0x1
 3173 0cf0 51       		.byte	0x51
 3174 0cf1 03       		.uleb128 0x3
 3175 0cf2 91       		.byte	0x91
ARM GAS  C:\Users\RABBIT~1\AppData\Local\Temp\ccgw4IdU.s 			page 86


 3176 0cf3 D07D     		.sleb128 -304
 3177 0cf5 1E       		.uleb128 0x1e
 3178 0cf6 01       		.uleb128 0x1
 3179 0cf7 52       		.byte	0x52
 3180 0cf8 03       		.uleb128 0x3
 3181 0cf9 91       		.byte	0x91
 3182 0cfa D47D     		.sleb128 -300
 3183 0cfc 1E       		.uleb128 0x1e
 3184 0cfd 01       		.uleb128 0x1
 3185 0cfe 53       		.byte	0x53
 3186 0cff 02       		.uleb128 0x2
 3187 0d00 75       		.byte	0x75
 3188 0d01 00       		.sleb128 0
 3189 0d02 00       		.byte	0
 3190 0d03 1D       		.uleb128 0x1d
 3191 0d04 5C000000 		.4byte	.LVL163
 3192 0d08 C50F0000 		.4byte	0xfc5
 3193 0d0c 240D0000 		.4byte	0xd24
 3194 0d10 1E       		.uleb128 0x1e
 3195 0d11 01       		.uleb128 0x1
 3196 0d12 50       		.byte	0x50
 3197 0d13 03       		.uleb128 0x3
 3198 0d14 91       		.byte	0x91
 3199 0d15 D87D     		.sleb128 -296
 3200 0d17 1E       		.uleb128 0x1e
 3201 0d18 01       		.uleb128 0x1
 3202 0d19 51       		.byte	0x51
 3203 0d1a 01       		.uleb128 0x1
 3204 0d1b 30       		.byte	0x30
 3205 0d1c 1E       		.uleb128 0x1e
 3206 0d1d 01       		.uleb128 0x1
 3207 0d1e 52       		.byte	0x52
 3208 0d1f 03       		.uleb128 0x3
 3209 0d20 0A       		.byte	0xa
 3210 0d21 0001     		.2byte	0x100
 3211 0d23 00       		.byte	0
 3212 0d24 1D       		.uleb128 0x1d
 3213 0d25 90000000 		.4byte	.LVL168
 3214 0d29 BC0F0000 		.4byte	0xfbc
 3215 0d2d 390D0000 		.4byte	0xd39
 3216 0d31 1E       		.uleb128 0x1e
 3217 0d32 01       		.uleb128 0x1
 3218 0d33 50       		.byte	0x50
 3219 0d34 03       		.uleb128 0x3
 3220 0d35 91       		.byte	0x91
 3221 0d36 E47D     		.sleb128 -284
 3222 0d38 00       		.byte	0
 3223 0d39 1D       		.uleb128 0x1d
 3224 0d3a 9E000000 		.4byte	.LVL169
 3225 0d3e BC0F0000 		.4byte	0xfbc
 3226 0d42 540D0000 		.4byte	0xd54
 3227 0d46 1E       		.uleb128 0x1e
 3228 0d47 01       		.uleb128 0x1
 3229 0d48 50       		.byte	0x50
 3230 0d49 03       		.uleb128 0x3
 3231 0d4a 91       		.byte	0x91
 3232 0d4b D87E     		.sleb128 -168
ARM GAS  C:\Users\RABBIT~1\AppData\Local\Temp\ccgw4IdU.s 			page 87


 3233 0d4d 1E       		.uleb128 0x1e
 3234 0d4e 01       		.uleb128 0x1
 3235 0d4f 52       		.byte	0x52
 3236 0d50 02       		.uleb128 0x2
 3237 0d51 08       		.byte	0x8
 3238 0d52 80       		.byte	0x80
 3239 0d53 00       		.byte	0
 3240 0d54 1D       		.uleb128 0x1d
 3241 0d55 20010000 		.4byte	.LVL188
 3242 0d59 E3030000 		.4byte	0x3e3
 3243 0d5d 690D0000 		.4byte	0xd69
 3244 0d61 1E       		.uleb128 0x1e
 3245 0d62 01       		.uleb128 0x1
 3246 0d63 50       		.byte	0x50
 3247 0d64 03       		.uleb128 0x3
 3248 0d65 91       		.byte	0x91
 3249 0d66 D87E     		.sleb128 -168
 3250 0d68 00       		.byte	0
 3251 0d69 1D       		.uleb128 0x1d
 3252 0d6a 32010000 		.4byte	.LVL191
 3253 0d6e 4F030000 		.4byte	0x34f
 3254 0d72 860D0000 		.4byte	0xd86
 3255 0d76 1E       		.uleb128 0x1e
 3256 0d77 01       		.uleb128 0x1
 3257 0d78 51       		.byte	0x51
 3258 0d79 03       		.uleb128 0x3
 3259 0d7a 91       		.byte	0x91
 3260 0d7b D87D     		.sleb128 -296
 3261 0d7d 22       		.uleb128 0x22
 3262 0d7e F1010000 		.4byte	0x1f1
 3263 0d82 02       		.uleb128 0x2
 3264 0d83 75       		.byte	0x75
 3265 0d84 00       		.sleb128 0
 3266 0d85 00       		.byte	0
 3267 0d86 23       		.uleb128 0x23
 3268 0d87 48010000 		.4byte	.LVL195
 3269 0d8b 4F030000 		.4byte	0x34f
 3270 0d8f 1E       		.uleb128 0x1e
 3271 0d90 01       		.uleb128 0x1
 3272 0d91 51       		.byte	0x51
 3273 0d92 03       		.uleb128 0x3
 3274 0d93 91       		.byte	0x91
 3275 0d94 D87D     		.sleb128 -296
 3276 0d96 22       		.uleb128 0x22
 3277 0d97 F1010000 		.4byte	0x1f1
 3278 0d9b 02       		.uleb128 0x2
 3279 0d9c 75       		.byte	0x75
 3280 0d9d 00       		.sleb128 0
 3281 0d9e 00       		.byte	0
 3282 0d9f 00       		.byte	0
 3283 0da0 00       		.byte	0
 3284 0da1 00       		.byte	0
 3285 0da2 0D       		.uleb128 0xd
 3286 0da3 7F030000 		.4byte	.LASF98
 3287 0da7 01       		.byte	0x1
 3288 0da8 4904     		.2byte	0x449
 3289 0daa BC010000 		.4byte	0x1bc
ARM GAS  C:\Users\RABBIT~1\AppData\Local\Temp\ccgw4IdU.s 			page 88


 3290 0dae 01       		.byte	0x1
 3291 0daf F00D0000 		.4byte	0xdf0
 3292 0db3 0E       		.uleb128 0xe
 3293 0db4 B5040000 		.4byte	.LASF34
 3294 0db8 01       		.byte	0x1
 3295 0db9 4904     		.2byte	0x449
 3296 0dbb 81000000 		.4byte	0x81
 3297 0dbf 0E       		.uleb128 0xe
 3298 0dc0 1B020000 		.4byte	.LASF99
 3299 0dc4 01       		.byte	0x1
 3300 0dc5 4A04     		.2byte	0x44a
 3301 0dc7 81000000 		.4byte	0x81
 3302 0dcb 0E       		.uleb128 0xe
 3303 0dcc 6E050000 		.4byte	.LASF36
 3304 0dd0 01       		.byte	0x1
 3305 0dd1 4B04     		.2byte	0x44b
 3306 0dd3 33020000 		.4byte	0x233
 3307 0dd7 10       		.uleb128 0x10
 3308 0dd8 60060000 		.4byte	.LASF91
 3309 0ddc 01       		.byte	0x1
 3310 0ddd 4D04     		.2byte	0x44d
 3311 0ddf 81000000 		.4byte	0x81
 3312 0de3 0F       		.uleb128 0xf
 3313 0de4 72657400 		.ascii	"ret\000"
 3314 0de8 01       		.byte	0x1
 3315 0de9 4E04     		.2byte	0x44e
 3316 0deb BC010000 		.4byte	0x1bc
 3317 0def 00       		.byte	0
 3318 0df0 30       		.uleb128 0x30
 3319 0df1 CE030000 		.4byte	.LASF100
 3320 0df5 01       		.byte	0x1
 3321 0df6 7502     		.2byte	0x275
 3322 0df8 BC010000 		.4byte	0x1bc
 3323 0dfc 00000000 		.4byte	.LFB3
 3324 0e00 86000000 		.4byte	.LFE3-.LFB3
 3325 0e04 01       		.uleb128 0x1
 3326 0e05 9C       		.byte	0x9c
 3327 0e06 700F0000 		.4byte	0xf70
 3328 0e0a 17       		.uleb128 0x17
 3329 0e0b 6E050000 		.4byte	.LASF36
 3330 0e0f 01       		.byte	0x1
 3331 0e10 7502     		.2byte	0x275
 3332 0e12 33020000 		.4byte	0x233
 3333 0e16 F6100000 		.4byte	.LLST86
 3334 0e1a 21       		.uleb128 0x21
 3335 0e1b 6900     		.ascii	"i\000"
 3336 0e1d 01       		.byte	0x1
 3337 0e1e 7702     		.2byte	0x277
 3338 0e20 81000000 		.4byte	0x81
 3339 0e24 14110000 		.4byte	.LLST87
 3340 0e28 15       		.uleb128 0x15
 3341 0e29 F4030000 		.4byte	.LASF42
 3342 0e2d 01       		.byte	0x1
 3343 0e2e 7802     		.2byte	0x278
 3344 0e30 81000000 		.4byte	0x81
 3345 0e34 27110000 		.4byte	.LLST88
 3346 0e38 16       		.uleb128 0x16
ARM GAS  C:\Users\RABBIT~1\AppData\Local\Temp\ccgw4IdU.s 			page 89


 3347 0e39 60060000 		.4byte	.LASF91
 3348 0e3d 01       		.byte	0x1
 3349 0e3e 7902     		.2byte	0x279
 3350 0e40 81000000 		.4byte	0x81
 3351 0e44 03       		.uleb128 0x3
 3352 0e45 91       		.byte	0x91
 3353 0e46 E07D     		.sleb128 -288
 3354 0e48 16       		.uleb128 0x16
 3355 0e49 CF020000 		.4byte	.LASF92
 3356 0e4d 01       		.byte	0x1
 3357 0e4e 7A02     		.2byte	0x27a
 3358 0e50 81000000 		.4byte	0x81
 3359 0e54 03       		.uleb128 0x3
 3360 0e55 91       		.byte	0x91
 3361 0e56 E47D     		.sleb128 -284
 3362 0e58 21       		.uleb128 0x21
 3363 0e59 72657400 		.ascii	"ret\000"
 3364 0e5d 01       		.byte	0x1
 3365 0e5e 7B02     		.2byte	0x27b
 3366 0e60 BC010000 		.4byte	0x1bc
 3367 0e64 69110000 		.4byte	.LLST89
 3368 0e68 16       		.uleb128 0x16
 3369 0e69 15050000 		.4byte	.LASF54
 3370 0e6d 01       		.byte	0x1
 3371 0e6e 7C02     		.2byte	0x27c
 3372 0e70 71050000 		.4byte	0x571
 3373 0e74 03       		.uleb128 0x3
 3374 0e75 91       		.byte	0x91
 3375 0e76 E87D     		.sleb128 -280
 3376 0e78 2F       		.uleb128 0x2f
 3377 0e79 1C000000 		.4byte	.LBB55
 3378 0e7d 60000000 		.4byte	.LBE55-.LBB55
 3379 0e81 520F0000 		.4byte	0xf52
 3380 0e85 15       		.uleb128 0x15
 3381 0e86 75000000 		.4byte	.LASF94
 3382 0e8a 01       		.byte	0x1
 3383 0e8b 8902     		.2byte	0x289
 3384 0e8d 81000000 		.4byte	0x81
 3385 0e91 94110000 		.4byte	.LLST90
 3386 0e95 31       		.uleb128 0x31
 3387 0e96 A20D0000 		.4byte	0xda2
 3388 0e9a 2E000000 		.4byte	.LBB56
 3389 0e9e E0000000 		.4byte	.Ldebug_ranges0+0xe0
 3390 0ea2 01       		.byte	0x1
 3391 0ea3 B402     		.2byte	0x2b4
 3392 0ea5 190F0000 		.4byte	0xf19
 3393 0ea9 19       		.uleb128 0x19
 3394 0eaa CB0D0000 		.4byte	0xdcb
 3395 0eae A7110000 		.4byte	.LLST91
 3396 0eb2 19       		.uleb128 0x19
 3397 0eb3 BF0D0000 		.4byte	0xdbf
 3398 0eb7 BA110000 		.4byte	.LLST92
 3399 0ebb 19       		.uleb128 0x19
 3400 0ebc B30D0000 		.4byte	0xdb3
 3401 0ec0 02120000 		.4byte	.LLST93
 3402 0ec4 2C       		.uleb128 0x2c
 3403 0ec5 E0000000 		.4byte	.Ldebug_ranges0+0xe0
ARM GAS  C:\Users\RABBIT~1\AppData\Local\Temp\ccgw4IdU.s 			page 90


 3404 0ec9 1B       		.uleb128 0x1b
 3405 0eca D70D0000 		.4byte	0xdd7
 3406 0ece 15120000 		.4byte	.LLST94
 3407 0ed2 1B       		.uleb128 0x1b
 3408 0ed3 E30D0000 		.4byte	0xde3
 3409 0ed7 3D120000 		.4byte	.LLST95
 3410 0edb 1D       		.uleb128 0x1d
 3411 0edc 56000000 		.4byte	.LVL225
 3412 0ee0 4F030000 		.4byte	0x34f
 3413 0ee4 FE0E0000 		.4byte	0xefe
 3414 0ee8 1E       		.uleb128 0x1e
 3415 0ee9 01       		.uleb128 0x1
 3416 0eea 50       		.byte	0x50
 3417 0eeb 02       		.uleb128 0x2
 3418 0eec 78       		.byte	0x78
 3419 0eed 00       		.sleb128 0
 3420 0eee 1E       		.uleb128 0x1e
 3421 0eef 01       		.uleb128 0x1
 3422 0ef0 51       		.byte	0x51
 3423 0ef1 03       		.uleb128 0x3
 3424 0ef2 91       		.byte	0x91
 3425 0ef3 E87D     		.sleb128 -280
 3426 0ef5 22       		.uleb128 0x22
 3427 0ef6 F1010000 		.4byte	0x1f1
 3428 0efa 02       		.uleb128 0x2
 3429 0efb 74       		.byte	0x74
 3430 0efc 00       		.sleb128 0
 3431 0efd 00       		.byte	0
 3432 0efe 23       		.uleb128 0x23
 3433 0eff 72000000 		.4byte	.LVL231
 3434 0f03 4F030000 		.4byte	0x34f
 3435 0f07 1E       		.uleb128 0x1e
 3436 0f08 01       		.uleb128 0x1
 3437 0f09 51       		.byte	0x51
 3438 0f0a 03       		.uleb128 0x3
 3439 0f0b 91       		.byte	0x91
 3440 0f0c E87D     		.sleb128 -280
 3441 0f0e 22       		.uleb128 0x22
 3442 0f0f F1010000 		.4byte	0x1f1
 3443 0f13 02       		.uleb128 0x2
 3444 0f14 74       		.byte	0x74
 3445 0f15 00       		.sleb128 0
 3446 0f16 00       		.byte	0
 3447 0f17 00       		.byte	0
 3448 0f18 00       		.byte	0
 3449 0f19 1D       		.uleb128 0x1d
 3450 0f1a 2C000000 		.4byte	.LVL218
 3451 0f1e E3030000 		.4byte	0x3e3
 3452 0f22 2E0F0000 		.4byte	0xf2e
 3453 0f26 1E       		.uleb128 0x1e
 3454 0f27 01       		.uleb128 0x1
 3455 0f28 50       		.byte	0x50
 3456 0f29 03       		.uleb128 0x3
 3457 0f2a 91       		.byte	0x91
 3458 0f2b E87E     		.sleb128 -152
 3459 0f2d 00       		.byte	0
 3460 0f2e 23       		.uleb128 0x23
ARM GAS  C:\Users\RABBIT~1\AppData\Local\Temp\ccgw4IdU.s 			page 91


 3461 0f2f 46000000 		.4byte	.LVL221
 3462 0f33 FA020000 		.4byte	0x2fa
 3463 0f37 1E       		.uleb128 0x1e
 3464 0f38 01       		.uleb128 0x1
 3465 0f39 50       		.byte	0x50
 3466 0f3a 02       		.uleb128 0x2
 3467 0f3b 75       		.byte	0x75
 3468 0f3c 00       		.sleb128 0
 3469 0f3d 1E       		.uleb128 0x1e
 3470 0f3e 01       		.uleb128 0x1
 3471 0f3f 51       		.byte	0x51
 3472 0f40 02       		.uleb128 0x2
 3473 0f41 7D       		.byte	0x7d
 3474 0f42 00       		.sleb128 0
 3475 0f43 1E       		.uleb128 0x1e
 3476 0f44 01       		.uleb128 0x1
 3477 0f45 52       		.byte	0x52
 3478 0f46 03       		.uleb128 0x3
 3479 0f47 91       		.byte	0x91
 3480 0f48 E47D     		.sleb128 -284
 3481 0f4a 1E       		.uleb128 0x1e
 3482 0f4b 01       		.uleb128 0x1
 3483 0f4c 53       		.byte	0x53
 3484 0f4d 02       		.uleb128 0x2
 3485 0f4e 74       		.byte	0x74
 3486 0f4f 00       		.sleb128 0
 3487 0f50 00       		.byte	0
 3488 0f51 00       		.byte	0
 3489 0f52 23       		.uleb128 0x23
 3490 0f53 18000000 		.4byte	.LVL216
 3491 0f57 C50F0000 		.4byte	0xfc5
 3492 0f5b 1E       		.uleb128 0x1e
 3493 0f5c 01       		.uleb128 0x1
 3494 0f5d 50       		.byte	0x50
 3495 0f5e 03       		.uleb128 0x3
 3496 0f5f 91       		.byte	0x91
 3497 0f60 E87D     		.sleb128 -280
 3498 0f62 1E       		.uleb128 0x1e
 3499 0f63 01       		.uleb128 0x1
 3500 0f64 51       		.byte	0x51
 3501 0f65 01       		.uleb128 0x1
 3502 0f66 30       		.byte	0x30
 3503 0f67 1E       		.uleb128 0x1e
 3504 0f68 01       		.uleb128 0x1
 3505 0f69 52       		.byte	0x52
 3506 0f6a 03       		.uleb128 0x3
 3507 0f6b 0A       		.byte	0xa
 3508 0f6c 0001     		.2byte	0x100
 3509 0f6e 00       		.byte	0
 3510 0f6f 00       		.byte	0
 3511 0f70 30       		.uleb128 0x30
 3512 0f71 82010000 		.4byte	.LASF101
 3513 0f75 01       		.byte	0x1
 3514 0f76 DC02     		.2byte	0x2dc
 3515 0f78 81000000 		.4byte	0x81
 3516 0f7c 00000000 		.4byte	.LFB4
 3517 0f80 06000000 		.4byte	.LFE4-.LFB4
ARM GAS  C:\Users\RABBIT~1\AppData\Local\Temp\ccgw4IdU.s 			page 92


 3518 0f84 01       		.uleb128 0x1
 3519 0f85 9C       		.byte	0x9c
 3520 0f86 9B0F0000 		.4byte	0xf9b
 3521 0f8a 17       		.uleb128 0x17
 3522 0f8b 6E050000 		.4byte	.LASF36
 3523 0f8f 01       		.byte	0x1
 3524 0f90 DC02     		.2byte	0x2dc
 3525 0f92 33020000 		.4byte	0x233
 3526 0f96 7E120000 		.4byte	.LLST96
 3527 0f9a 00       		.byte	0
 3528 0f9b 33       		.uleb128 0x33
 3529 0f9c 07000000 		.4byte	.LASF102
 3530 0fa0 07000000 		.4byte	.LASF102
 3531 0fa4 04       		.byte	0x4
 3532 0fa5 46       		.byte	0x46
 3533 0fa6 33       		.uleb128 0x33
 3534 0fa7 24000000 		.4byte	.LASF103
 3535 0fab 24000000 		.4byte	.LASF103
 3536 0faf 04       		.byte	0x4
 3537 0fb0 4A       		.byte	0x4a
 3538 0fb1 33       		.uleb128 0x33
 3539 0fb2 D2040000 		.4byte	.LASF104
 3540 0fb6 D2040000 		.4byte	.LASF104
 3541 0fba 05       		.byte	0x5
 3542 0fbb 96       		.byte	0x96
 3543 0fbc 34       		.uleb128 0x34
 3544 0fbd B5010000 		.4byte	.LASF105
 3545 0fc1 B5010000 		.4byte	.LASF105
 3546 0fc5 34       		.uleb128 0x34
 3547 0fc6 C2050000 		.4byte	.LASF106
 3548 0fca C2050000 		.4byte	.LASF106
 3549 0fce 00       		.byte	0
 3550              		.section	.debug_abbrev,"",%progbits
 3551              	.Ldebug_abbrev0:
 3552 0000 01       		.uleb128 0x1
 3553 0001 11       		.uleb128 0x11
 3554 0002 01       		.byte	0x1
 3555 0003 25       		.uleb128 0x25
 3556 0004 0E       		.uleb128 0xe
 3557 0005 13       		.uleb128 0x13
 3558 0006 0B       		.uleb128 0xb
 3559 0007 03       		.uleb128 0x3
 3560 0008 0E       		.uleb128 0xe
 3561 0009 1B       		.uleb128 0x1b
 3562 000a 0E       		.uleb128 0xe
 3563 000b 55       		.uleb128 0x55
 3564 000c 17       		.uleb128 0x17
 3565 000d 11       		.uleb128 0x11
 3566 000e 01       		.uleb128 0x1
 3567 000f 10       		.uleb128 0x10
 3568 0010 17       		.uleb128 0x17
 3569 0011 00       		.byte	0
 3570 0012 00       		.byte	0
 3571 0013 02       		.uleb128 0x2
 3572 0014 24       		.uleb128 0x24
 3573 0015 00       		.byte	0
 3574 0016 0B       		.uleb128 0xb
ARM GAS  C:\Users\RABBIT~1\AppData\Local\Temp\ccgw4IdU.s 			page 93


 3575 0017 0B       		.uleb128 0xb
 3576 0018 3E       		.uleb128 0x3e
 3577 0019 0B       		.uleb128 0xb
 3578 001a 03       		.uleb128 0x3
 3579 001b 0E       		.uleb128 0xe
 3580 001c 00       		.byte	0
 3581 001d 00       		.byte	0
 3582 001e 03       		.uleb128 0x3
 3583 001f 24       		.uleb128 0x24
 3584 0020 00       		.byte	0
 3585 0021 0B       		.uleb128 0xb
 3586 0022 0B       		.uleb128 0xb
 3587 0023 3E       		.uleb128 0x3e
 3588 0024 0B       		.uleb128 0xb
 3589 0025 03       		.uleb128 0x3
 3590 0026 08       		.uleb128 0x8
 3591 0027 00       		.byte	0
 3592 0028 00       		.byte	0
 3593 0029 04       		.uleb128 0x4
 3594 002a 16       		.uleb128 0x16
 3595 002b 00       		.byte	0
 3596 002c 03       		.uleb128 0x3
 3597 002d 0E       		.uleb128 0xe
 3598 002e 3A       		.uleb128 0x3a
 3599 002f 0B       		.uleb128 0xb
 3600 0030 3B       		.uleb128 0x3b
 3601 0031 0B       		.uleb128 0xb
 3602 0032 49       		.uleb128 0x49
 3603 0033 13       		.uleb128 0x13
 3604 0034 00       		.byte	0
 3605 0035 00       		.byte	0
 3606 0036 05       		.uleb128 0x5
 3607 0037 16       		.uleb128 0x16
 3608 0038 00       		.byte	0
 3609 0039 03       		.uleb128 0x3
 3610 003a 0E       		.uleb128 0xe
 3611 003b 3A       		.uleb128 0x3a
 3612 003c 0B       		.uleb128 0xb
 3613 003d 3B       		.uleb128 0x3b
 3614 003e 05       		.uleb128 0x5
 3615 003f 49       		.uleb128 0x49
 3616 0040 13       		.uleb128 0x13
 3617 0041 00       		.byte	0
 3618 0042 00       		.byte	0
 3619 0043 06       		.uleb128 0x6
 3620 0044 0F       		.uleb128 0xf
 3621 0045 00       		.byte	0
 3622 0046 0B       		.uleb128 0xb
 3623 0047 0B       		.uleb128 0xb
 3624 0048 00       		.byte	0
 3625 0049 00       		.byte	0
 3626 004a 07       		.uleb128 0x7
 3627 004b 13       		.uleb128 0x13
 3628 004c 01       		.byte	0x1
 3629 004d 0B       		.uleb128 0xb
 3630 004e 0B       		.uleb128 0xb
 3631 004f 3A       		.uleb128 0x3a
ARM GAS  C:\Users\RABBIT~1\AppData\Local\Temp\ccgw4IdU.s 			page 94


 3632 0050 0B       		.uleb128 0xb
 3633 0051 3B       		.uleb128 0x3b
 3634 0052 0B       		.uleb128 0xb
 3635 0053 01       		.uleb128 0x1
 3636 0054 13       		.uleb128 0x13
 3637 0055 00       		.byte	0
 3638 0056 00       		.byte	0
 3639 0057 08       		.uleb128 0x8
 3640 0058 0D       		.uleb128 0xd
 3641 0059 00       		.byte	0
 3642 005a 03       		.uleb128 0x3
 3643 005b 0E       		.uleb128 0xe
 3644 005c 3A       		.uleb128 0x3a
 3645 005d 0B       		.uleb128 0xb
 3646 005e 3B       		.uleb128 0x3b
 3647 005f 0B       		.uleb128 0xb
 3648 0060 49       		.uleb128 0x49
 3649 0061 13       		.uleb128 0x13
 3650 0062 38       		.uleb128 0x38
 3651 0063 0B       		.uleb128 0xb
 3652 0064 00       		.byte	0
 3653 0065 00       		.byte	0
 3654 0066 09       		.uleb128 0x9
 3655 0067 0D       		.uleb128 0xd
 3656 0068 00       		.byte	0
 3657 0069 03       		.uleb128 0x3
 3658 006a 0E       		.uleb128 0xe
 3659 006b 3A       		.uleb128 0x3a
 3660 006c 0B       		.uleb128 0xb
 3661 006d 3B       		.uleb128 0x3b
 3662 006e 05       		.uleb128 0x5
 3663 006f 49       		.uleb128 0x49
 3664 0070 13       		.uleb128 0x13
 3665 0071 38       		.uleb128 0x38
 3666 0072 0B       		.uleb128 0xb
 3667 0073 00       		.byte	0
 3668 0074 00       		.byte	0
 3669 0075 0A       		.uleb128 0xa
 3670 0076 13       		.uleb128 0x13
 3671 0077 01       		.byte	0x1
 3672 0078 0B       		.uleb128 0xb
 3673 0079 0B       		.uleb128 0xb
 3674 007a 3A       		.uleb128 0x3a
 3675 007b 0B       		.uleb128 0xb
 3676 007c 3B       		.uleb128 0x3b
 3677 007d 05       		.uleb128 0x5
 3678 007e 01       		.uleb128 0x1
 3679 007f 13       		.uleb128 0x13
 3680 0080 00       		.byte	0
 3681 0081 00       		.byte	0
 3682 0082 0B       		.uleb128 0xb
 3683 0083 04       		.uleb128 0x4
 3684 0084 01       		.byte	0x1
 3685 0085 0B       		.uleb128 0xb
 3686 0086 0B       		.uleb128 0xb
 3687 0087 49       		.uleb128 0x49
 3688 0088 13       		.uleb128 0x13
ARM GAS  C:\Users\RABBIT~1\AppData\Local\Temp\ccgw4IdU.s 			page 95


 3689 0089 3A       		.uleb128 0x3a
 3690 008a 0B       		.uleb128 0xb
 3691 008b 3B       		.uleb128 0x3b
 3692 008c 05       		.uleb128 0x5
 3693 008d 01       		.uleb128 0x1
 3694 008e 13       		.uleb128 0x13
 3695 008f 00       		.byte	0
 3696 0090 00       		.byte	0
 3697 0091 0C       		.uleb128 0xc
 3698 0092 28       		.uleb128 0x28
 3699 0093 00       		.byte	0
 3700 0094 03       		.uleb128 0x3
 3701 0095 0E       		.uleb128 0xe
 3702 0096 1C       		.uleb128 0x1c
 3703 0097 0B       		.uleb128 0xb
 3704 0098 00       		.byte	0
 3705 0099 00       		.byte	0
 3706 009a 0D       		.uleb128 0xd
 3707 009b 2E       		.uleb128 0x2e
 3708 009c 01       		.byte	0x1
 3709 009d 03       		.uleb128 0x3
 3710 009e 0E       		.uleb128 0xe
 3711 009f 3A       		.uleb128 0x3a
 3712 00a0 0B       		.uleb128 0xb
 3713 00a1 3B       		.uleb128 0x3b
 3714 00a2 05       		.uleb128 0x5
 3715 00a3 27       		.uleb128 0x27
 3716 00a4 19       		.uleb128 0x19
 3717 00a5 49       		.uleb128 0x49
 3718 00a6 13       		.uleb128 0x13
 3719 00a7 20       		.uleb128 0x20
 3720 00a8 0B       		.uleb128 0xb
 3721 00a9 01       		.uleb128 0x1
 3722 00aa 13       		.uleb128 0x13
 3723 00ab 00       		.byte	0
 3724 00ac 00       		.byte	0
 3725 00ad 0E       		.uleb128 0xe
 3726 00ae 05       		.uleb128 0x5
 3727 00af 00       		.byte	0
 3728 00b0 03       		.uleb128 0x3
 3729 00b1 0E       		.uleb128 0xe
 3730 00b2 3A       		.uleb128 0x3a
 3731 00b3 0B       		.uleb128 0xb
 3732 00b4 3B       		.uleb128 0x3b
 3733 00b5 05       		.uleb128 0x5
 3734 00b6 49       		.uleb128 0x49
 3735 00b7 13       		.uleb128 0x13
 3736 00b8 00       		.byte	0
 3737 00b9 00       		.byte	0
 3738 00ba 0F       		.uleb128 0xf
 3739 00bb 34       		.uleb128 0x34
 3740 00bc 00       		.byte	0
 3741 00bd 03       		.uleb128 0x3
 3742 00be 08       		.uleb128 0x8
 3743 00bf 3A       		.uleb128 0x3a
 3744 00c0 0B       		.uleb128 0xb
 3745 00c1 3B       		.uleb128 0x3b
ARM GAS  C:\Users\RABBIT~1\AppData\Local\Temp\ccgw4IdU.s 			page 96


 3746 00c2 05       		.uleb128 0x5
 3747 00c3 49       		.uleb128 0x49
 3748 00c4 13       		.uleb128 0x13
 3749 00c5 00       		.byte	0
 3750 00c6 00       		.byte	0
 3751 00c7 10       		.uleb128 0x10
 3752 00c8 34       		.uleb128 0x34
 3753 00c9 00       		.byte	0
 3754 00ca 03       		.uleb128 0x3
 3755 00cb 0E       		.uleb128 0xe
 3756 00cc 3A       		.uleb128 0x3a
 3757 00cd 0B       		.uleb128 0xb
 3758 00ce 3B       		.uleb128 0x3b
 3759 00cf 05       		.uleb128 0x5
 3760 00d0 49       		.uleb128 0x49
 3761 00d1 13       		.uleb128 0x13
 3762 00d2 00       		.byte	0
 3763 00d3 00       		.byte	0
 3764 00d4 11       		.uleb128 0x11
 3765 00d5 0F       		.uleb128 0xf
 3766 00d6 00       		.byte	0
 3767 00d7 0B       		.uleb128 0xb
 3768 00d8 0B       		.uleb128 0xb
 3769 00d9 49       		.uleb128 0x49
 3770 00da 13       		.uleb128 0x13
 3771 00db 00       		.byte	0
 3772 00dc 00       		.byte	0
 3773 00dd 12       		.uleb128 0x12
 3774 00de 05       		.uleb128 0x5
 3775 00df 00       		.byte	0
 3776 00e0 03       		.uleb128 0x3
 3777 00e1 08       		.uleb128 0x8
 3778 00e2 3A       		.uleb128 0x3a
 3779 00e3 0B       		.uleb128 0xb
 3780 00e4 3B       		.uleb128 0x3b
 3781 00e5 05       		.uleb128 0x5
 3782 00e6 49       		.uleb128 0x49
 3783 00e7 13       		.uleb128 0x13
 3784 00e8 00       		.byte	0
 3785 00e9 00       		.byte	0
 3786 00ea 13       		.uleb128 0x13
 3787 00eb 2E       		.uleb128 0x2e
 3788 00ec 01       		.byte	0x1
 3789 00ed 03       		.uleb128 0x3
 3790 00ee 0E       		.uleb128 0xe
 3791 00ef 3A       		.uleb128 0x3a
 3792 00f0 0B       		.uleb128 0xb
 3793 00f1 3B       		.uleb128 0x3b
 3794 00f2 05       		.uleb128 0x5
 3795 00f3 27       		.uleb128 0x27
 3796 00f4 19       		.uleb128 0x19
 3797 00f5 11       		.uleb128 0x11
 3798 00f6 01       		.uleb128 0x1
 3799 00f7 12       		.uleb128 0x12
 3800 00f8 06       		.uleb128 0x6
 3801 00f9 40       		.uleb128 0x40
 3802 00fa 18       		.uleb128 0x18
ARM GAS  C:\Users\RABBIT~1\AppData\Local\Temp\ccgw4IdU.s 			page 97


 3803 00fb 9742     		.uleb128 0x2117
 3804 00fd 19       		.uleb128 0x19
 3805 00fe 01       		.uleb128 0x1
 3806 00ff 13       		.uleb128 0x13
 3807 0100 00       		.byte	0
 3808 0101 00       		.byte	0
 3809 0102 14       		.uleb128 0x14
 3810 0103 05       		.uleb128 0x5
 3811 0104 00       		.byte	0
 3812 0105 03       		.uleb128 0x3
 3813 0106 0E       		.uleb128 0xe
 3814 0107 3A       		.uleb128 0x3a
 3815 0108 0B       		.uleb128 0xb
 3816 0109 3B       		.uleb128 0x3b
 3817 010a 05       		.uleb128 0x5
 3818 010b 49       		.uleb128 0x49
 3819 010c 13       		.uleb128 0x13
 3820 010d 02       		.uleb128 0x2
 3821 010e 18       		.uleb128 0x18
 3822 010f 00       		.byte	0
 3823 0110 00       		.byte	0
 3824 0111 15       		.uleb128 0x15
 3825 0112 34       		.uleb128 0x34
 3826 0113 00       		.byte	0
 3827 0114 03       		.uleb128 0x3
 3828 0115 0E       		.uleb128 0xe
 3829 0116 3A       		.uleb128 0x3a
 3830 0117 0B       		.uleb128 0xb
 3831 0118 3B       		.uleb128 0x3b
 3832 0119 05       		.uleb128 0x5
 3833 011a 49       		.uleb128 0x49
 3834 011b 13       		.uleb128 0x13
 3835 011c 02       		.uleb128 0x2
 3836 011d 17       		.uleb128 0x17
 3837 011e 00       		.byte	0
 3838 011f 00       		.byte	0
 3839 0120 16       		.uleb128 0x16
 3840 0121 34       		.uleb128 0x34
 3841 0122 00       		.byte	0
 3842 0123 03       		.uleb128 0x3
 3843 0124 0E       		.uleb128 0xe
 3844 0125 3A       		.uleb128 0x3a
 3845 0126 0B       		.uleb128 0xb
 3846 0127 3B       		.uleb128 0x3b
 3847 0128 05       		.uleb128 0x5
 3848 0129 49       		.uleb128 0x49
 3849 012a 13       		.uleb128 0x13
 3850 012b 02       		.uleb128 0x2
 3851 012c 18       		.uleb128 0x18
 3852 012d 00       		.byte	0
 3853 012e 00       		.byte	0
 3854 012f 17       		.uleb128 0x17
 3855 0130 05       		.uleb128 0x5
 3856 0131 00       		.byte	0
 3857 0132 03       		.uleb128 0x3
 3858 0133 0E       		.uleb128 0xe
 3859 0134 3A       		.uleb128 0x3a
ARM GAS  C:\Users\RABBIT~1\AppData\Local\Temp\ccgw4IdU.s 			page 98


 3860 0135 0B       		.uleb128 0xb
 3861 0136 3B       		.uleb128 0x3b
 3862 0137 05       		.uleb128 0x5
 3863 0138 49       		.uleb128 0x49
 3864 0139 13       		.uleb128 0x13
 3865 013a 02       		.uleb128 0x2
 3866 013b 17       		.uleb128 0x17
 3867 013c 00       		.byte	0
 3868 013d 00       		.byte	0
 3869 013e 18       		.uleb128 0x18
 3870 013f 2E       		.uleb128 0x2e
 3871 0140 01       		.byte	0x1
 3872 0141 31       		.uleb128 0x31
 3873 0142 13       		.uleb128 0x13
 3874 0143 11       		.uleb128 0x11
 3875 0144 01       		.uleb128 0x1
 3876 0145 12       		.uleb128 0x12
 3877 0146 06       		.uleb128 0x6
 3878 0147 40       		.uleb128 0x40
 3879 0148 18       		.uleb128 0x18
 3880 0149 9742     		.uleb128 0x2117
 3881 014b 19       		.uleb128 0x19
 3882 014c 01       		.uleb128 0x1
 3883 014d 13       		.uleb128 0x13
 3884 014e 00       		.byte	0
 3885 014f 00       		.byte	0
 3886 0150 19       		.uleb128 0x19
 3887 0151 05       		.uleb128 0x5
 3888 0152 00       		.byte	0
 3889 0153 31       		.uleb128 0x31
 3890 0154 13       		.uleb128 0x13
 3891 0155 02       		.uleb128 0x2
 3892 0156 17       		.uleb128 0x17
 3893 0157 00       		.byte	0
 3894 0158 00       		.byte	0
 3895 0159 1A       		.uleb128 0x1a
 3896 015a 05       		.uleb128 0x5
 3897 015b 00       		.byte	0
 3898 015c 31       		.uleb128 0x31
 3899 015d 13       		.uleb128 0x13
 3900 015e 02       		.uleb128 0x2
 3901 015f 18       		.uleb128 0x18
 3902 0160 00       		.byte	0
 3903 0161 00       		.byte	0
 3904 0162 1B       		.uleb128 0x1b
 3905 0163 34       		.uleb128 0x34
 3906 0164 00       		.byte	0
 3907 0165 31       		.uleb128 0x31
 3908 0166 13       		.uleb128 0x13
 3909 0167 02       		.uleb128 0x2
 3910 0168 17       		.uleb128 0x17
 3911 0169 00       		.byte	0
 3912 016a 00       		.byte	0
 3913 016b 1C       		.uleb128 0x1c
 3914 016c 898201   		.uleb128 0x4109
 3915 016f 00       		.byte	0
 3916 0170 11       		.uleb128 0x11
ARM GAS  C:\Users\RABBIT~1\AppData\Local\Temp\ccgw4IdU.s 			page 99


 3917 0171 01       		.uleb128 0x1
 3918 0172 31       		.uleb128 0x31
 3919 0173 13       		.uleb128 0x13
 3920 0174 00       		.byte	0
 3921 0175 00       		.byte	0
 3922 0176 1D       		.uleb128 0x1d
 3923 0177 898201   		.uleb128 0x4109
 3924 017a 01       		.byte	0x1
 3925 017b 11       		.uleb128 0x11
 3926 017c 01       		.uleb128 0x1
 3927 017d 31       		.uleb128 0x31
 3928 017e 13       		.uleb128 0x13
 3929 017f 01       		.uleb128 0x1
 3930 0180 13       		.uleb128 0x13
 3931 0181 00       		.byte	0
 3932 0182 00       		.byte	0
 3933 0183 1E       		.uleb128 0x1e
 3934 0184 8A8201   		.uleb128 0x410a
 3935 0187 00       		.byte	0
 3936 0188 02       		.uleb128 0x2
 3937 0189 18       		.uleb128 0x18
 3938 018a 9142     		.uleb128 0x2111
 3939 018c 18       		.uleb128 0x18
 3940 018d 00       		.byte	0
 3941 018e 00       		.byte	0
 3942 018f 1F       		.uleb128 0x1f
 3943 0190 05       		.uleb128 0x5
 3944 0191 00       		.byte	0
 3945 0192 31       		.uleb128 0x31
 3946 0193 13       		.uleb128 0x13
 3947 0194 1C       		.uleb128 0x1c
 3948 0195 0B       		.uleb128 0xb
 3949 0196 00       		.byte	0
 3950 0197 00       		.byte	0
 3951 0198 20       		.uleb128 0x20
 3952 0199 2E       		.uleb128 0x2e
 3953 019a 01       		.byte	0x1
 3954 019b 03       		.uleb128 0x3
 3955 019c 0E       		.uleb128 0xe
 3956 019d 3A       		.uleb128 0x3a
 3957 019e 0B       		.uleb128 0xb
 3958 019f 3B       		.uleb128 0x3b
 3959 01a0 05       		.uleb128 0x5
 3960 01a1 27       		.uleb128 0x27
 3961 01a2 19       		.uleb128 0x19
 3962 01a3 49       		.uleb128 0x49
 3963 01a4 13       		.uleb128 0x13
 3964 01a5 11       		.uleb128 0x11
 3965 01a6 01       		.uleb128 0x1
 3966 01a7 12       		.uleb128 0x12
 3967 01a8 06       		.uleb128 0x6
 3968 01a9 40       		.uleb128 0x40
 3969 01aa 18       		.uleb128 0x18
 3970 01ab 9742     		.uleb128 0x2117
 3971 01ad 19       		.uleb128 0x19
 3972 01ae 01       		.uleb128 0x1
 3973 01af 13       		.uleb128 0x13
ARM GAS  C:\Users\RABBIT~1\AppData\Local\Temp\ccgw4IdU.s 			page 100


 3974 01b0 00       		.byte	0
 3975 01b1 00       		.byte	0
 3976 01b2 21       		.uleb128 0x21
 3977 01b3 34       		.uleb128 0x34
 3978 01b4 00       		.byte	0
 3979 01b5 03       		.uleb128 0x3
 3980 01b6 08       		.uleb128 0x8
 3981 01b7 3A       		.uleb128 0x3a
 3982 01b8 0B       		.uleb128 0xb
 3983 01b9 3B       		.uleb128 0x3b
 3984 01ba 05       		.uleb128 0x5
 3985 01bb 49       		.uleb128 0x49
 3986 01bc 13       		.uleb128 0x13
 3987 01bd 02       		.uleb128 0x2
 3988 01be 17       		.uleb128 0x17
 3989 01bf 00       		.byte	0
 3990 01c0 00       		.byte	0
 3991 01c1 22       		.uleb128 0x22
 3992 01c2 8A8201   		.uleb128 0x410a
 3993 01c5 00       		.byte	0
 3994 01c6 31       		.uleb128 0x31
 3995 01c7 13       		.uleb128 0x13
 3996 01c8 9142     		.uleb128 0x2111
 3997 01ca 18       		.uleb128 0x18
 3998 01cb 00       		.byte	0
 3999 01cc 00       		.byte	0
 4000 01cd 23       		.uleb128 0x23
 4001 01ce 898201   		.uleb128 0x4109
 4002 01d1 01       		.byte	0x1
 4003 01d2 11       		.uleb128 0x11
 4004 01d3 01       		.uleb128 0x1
 4005 01d4 31       		.uleb128 0x31
 4006 01d5 13       		.uleb128 0x13
 4007 01d6 00       		.byte	0
 4008 01d7 00       		.byte	0
 4009 01d8 24       		.uleb128 0x24
 4010 01d9 01       		.uleb128 0x1
 4011 01da 01       		.byte	0x1
 4012 01db 49       		.uleb128 0x49
 4013 01dc 13       		.uleb128 0x13
 4014 01dd 01       		.uleb128 0x1
 4015 01de 13       		.uleb128 0x13
 4016 01df 00       		.byte	0
 4017 01e0 00       		.byte	0
 4018 01e1 25       		.uleb128 0x25
 4019 01e2 21       		.uleb128 0x21
 4020 01e3 00       		.byte	0
 4021 01e4 49       		.uleb128 0x49
 4022 01e5 13       		.uleb128 0x13
 4023 01e6 2F       		.uleb128 0x2f
 4024 01e7 0B       		.uleb128 0xb
 4025 01e8 00       		.byte	0
 4026 01e9 00       		.byte	0
 4027 01ea 26       		.uleb128 0x26
 4028 01eb 2E       		.uleb128 0x2e
 4029 01ec 01       		.byte	0x1
 4030 01ed 3F       		.uleb128 0x3f
ARM GAS  C:\Users\RABBIT~1\AppData\Local\Temp\ccgw4IdU.s 			page 101


 4031 01ee 19       		.uleb128 0x19
 4032 01ef 03       		.uleb128 0x3
 4033 01f0 0E       		.uleb128 0xe
 4034 01f1 3A       		.uleb128 0x3a
 4035 01f2 0B       		.uleb128 0xb
 4036 01f3 3B       		.uleb128 0x3b
 4037 01f4 0B       		.uleb128 0xb
 4038 01f5 27       		.uleb128 0x27
 4039 01f6 19       		.uleb128 0x19
 4040 01f7 49       		.uleb128 0x49
 4041 01f8 13       		.uleb128 0x13
 4042 01f9 11       		.uleb128 0x11
 4043 01fa 01       		.uleb128 0x1
 4044 01fb 12       		.uleb128 0x12
 4045 01fc 06       		.uleb128 0x6
 4046 01fd 40       		.uleb128 0x40
 4047 01fe 18       		.uleb128 0x18
 4048 01ff 9742     		.uleb128 0x2117
 4049 0201 19       		.uleb128 0x19
 4050 0202 01       		.uleb128 0x1
 4051 0203 13       		.uleb128 0x13
 4052 0204 00       		.byte	0
 4053 0205 00       		.byte	0
 4054 0206 27       		.uleb128 0x27
 4055 0207 05       		.uleb128 0x5
 4056 0208 00       		.byte	0
 4057 0209 03       		.uleb128 0x3
 4058 020a 0E       		.uleb128 0xe
 4059 020b 3A       		.uleb128 0x3a
 4060 020c 0B       		.uleb128 0xb
 4061 020d 3B       		.uleb128 0x3b
 4062 020e 0B       		.uleb128 0xb
 4063 020f 49       		.uleb128 0x49
 4064 0210 13       		.uleb128 0x13
 4065 0211 02       		.uleb128 0x2
 4066 0212 17       		.uleb128 0x17
 4067 0213 00       		.byte	0
 4068 0214 00       		.byte	0
 4069 0215 28       		.uleb128 0x28
 4070 0216 34       		.uleb128 0x34
 4071 0217 00       		.byte	0
 4072 0218 03       		.uleb128 0x3
 4073 0219 08       		.uleb128 0x8
 4074 021a 3A       		.uleb128 0x3a
 4075 021b 0B       		.uleb128 0xb
 4076 021c 3B       		.uleb128 0x3b
 4077 021d 0B       		.uleb128 0xb
 4078 021e 49       		.uleb128 0x49
 4079 021f 13       		.uleb128 0x13
 4080 0220 02       		.uleb128 0x2
 4081 0221 17       		.uleb128 0x17
 4082 0222 00       		.byte	0
 4083 0223 00       		.byte	0
 4084 0224 29       		.uleb128 0x29
 4085 0225 1D       		.uleb128 0x1d
 4086 0226 01       		.byte	0x1
 4087 0227 31       		.uleb128 0x31
ARM GAS  C:\Users\RABBIT~1\AppData\Local\Temp\ccgw4IdU.s 			page 102


 4088 0228 13       		.uleb128 0x13
 4089 0229 11       		.uleb128 0x11
 4090 022a 01       		.uleb128 0x1
 4091 022b 12       		.uleb128 0x12
 4092 022c 06       		.uleb128 0x6
 4093 022d 58       		.uleb128 0x58
 4094 022e 0B       		.uleb128 0xb
 4095 022f 59       		.uleb128 0x59
 4096 0230 0B       		.uleb128 0xb
 4097 0231 01       		.uleb128 0x1
 4098 0232 13       		.uleb128 0x13
 4099 0233 00       		.byte	0
 4100 0234 00       		.byte	0
 4101 0235 2A       		.uleb128 0x2a
 4102 0236 0B       		.uleb128 0xb
 4103 0237 01       		.byte	0x1
 4104 0238 11       		.uleb128 0x11
 4105 0239 01       		.uleb128 0x1
 4106 023a 12       		.uleb128 0x12
 4107 023b 06       		.uleb128 0x6
 4108 023c 00       		.byte	0
 4109 023d 00       		.byte	0
 4110 023e 2B       		.uleb128 0x2b
 4111 023f 34       		.uleb128 0x34
 4112 0240 00       		.byte	0
 4113 0241 03       		.uleb128 0x3
 4114 0242 0E       		.uleb128 0xe
 4115 0243 3A       		.uleb128 0x3a
 4116 0244 0B       		.uleb128 0xb
 4117 0245 3B       		.uleb128 0x3b
 4118 0246 0B       		.uleb128 0xb
 4119 0247 49       		.uleb128 0x49
 4120 0248 13       		.uleb128 0x13
 4121 0249 02       		.uleb128 0x2
 4122 024a 17       		.uleb128 0x17
 4123 024b 00       		.byte	0
 4124 024c 00       		.byte	0
 4125 024d 2C       		.uleb128 0x2c
 4126 024e 0B       		.uleb128 0xb
 4127 024f 01       		.byte	0x1
 4128 0250 55       		.uleb128 0x55
 4129 0251 17       		.uleb128 0x17
 4130 0252 00       		.byte	0
 4131 0253 00       		.byte	0
 4132 0254 2D       		.uleb128 0x2d
 4133 0255 0B       		.uleb128 0xb
 4134 0256 01       		.byte	0x1
 4135 0257 55       		.uleb128 0x55
 4136 0258 17       		.uleb128 0x17
 4137 0259 01       		.uleb128 0x1
 4138 025a 13       		.uleb128 0x13
 4139 025b 00       		.byte	0
 4140 025c 00       		.byte	0
 4141 025d 2E       		.uleb128 0x2e
 4142 025e 1D       		.uleb128 0x1d
 4143 025f 01       		.byte	0x1
 4144 0260 31       		.uleb128 0x31
ARM GAS  C:\Users\RABBIT~1\AppData\Local\Temp\ccgw4IdU.s 			page 103


 4145 0261 13       		.uleb128 0x13
 4146 0262 11       		.uleb128 0x11
 4147 0263 01       		.uleb128 0x1
 4148 0264 12       		.uleb128 0x12
 4149 0265 06       		.uleb128 0x6
 4150 0266 58       		.uleb128 0x58
 4151 0267 0B       		.uleb128 0xb
 4152 0268 59       		.uleb128 0x59
 4153 0269 05       		.uleb128 0x5
 4154 026a 01       		.uleb128 0x1
 4155 026b 13       		.uleb128 0x13
 4156 026c 00       		.byte	0
 4157 026d 00       		.byte	0
 4158 026e 2F       		.uleb128 0x2f
 4159 026f 0B       		.uleb128 0xb
 4160 0270 01       		.byte	0x1
 4161 0271 11       		.uleb128 0x11
 4162 0272 01       		.uleb128 0x1
 4163 0273 12       		.uleb128 0x12
 4164 0274 06       		.uleb128 0x6
 4165 0275 01       		.uleb128 0x1
 4166 0276 13       		.uleb128 0x13
 4167 0277 00       		.byte	0
 4168 0278 00       		.byte	0
 4169 0279 30       		.uleb128 0x30
 4170 027a 2E       		.uleb128 0x2e
 4171 027b 01       		.byte	0x1
 4172 027c 3F       		.uleb128 0x3f
 4173 027d 19       		.uleb128 0x19
 4174 027e 03       		.uleb128 0x3
 4175 027f 0E       		.uleb128 0xe
 4176 0280 3A       		.uleb128 0x3a
 4177 0281 0B       		.uleb128 0xb
 4178 0282 3B       		.uleb128 0x3b
 4179 0283 05       		.uleb128 0x5
 4180 0284 27       		.uleb128 0x27
 4181 0285 19       		.uleb128 0x19
 4182 0286 49       		.uleb128 0x49
 4183 0287 13       		.uleb128 0x13
 4184 0288 11       		.uleb128 0x11
 4185 0289 01       		.uleb128 0x1
 4186 028a 12       		.uleb128 0x12
 4187 028b 06       		.uleb128 0x6
 4188 028c 40       		.uleb128 0x40
 4189 028d 18       		.uleb128 0x18
 4190 028e 9742     		.uleb128 0x2117
 4191 0290 19       		.uleb128 0x19
 4192 0291 01       		.uleb128 0x1
 4193 0292 13       		.uleb128 0x13
 4194 0293 00       		.byte	0
 4195 0294 00       		.byte	0
 4196 0295 31       		.uleb128 0x31
 4197 0296 1D       		.uleb128 0x1d
 4198 0297 01       		.byte	0x1
 4199 0298 31       		.uleb128 0x31
 4200 0299 13       		.uleb128 0x13
 4201 029a 52       		.uleb128 0x52
ARM GAS  C:\Users\RABBIT~1\AppData\Local\Temp\ccgw4IdU.s 			page 104


 4202 029b 01       		.uleb128 0x1
 4203 029c 55       		.uleb128 0x55
 4204 029d 17       		.uleb128 0x17
 4205 029e 58       		.uleb128 0x58
 4206 029f 0B       		.uleb128 0xb
 4207 02a0 59       		.uleb128 0x59
 4208 02a1 05       		.uleb128 0x5
 4209 02a2 01       		.uleb128 0x1
 4210 02a3 13       		.uleb128 0x13
 4211 02a4 00       		.byte	0
 4212 02a5 00       		.byte	0
 4213 02a6 32       		.uleb128 0x32
 4214 02a7 05       		.uleb128 0x5
 4215 02a8 00       		.byte	0
 4216 02a9 31       		.uleb128 0x31
 4217 02aa 13       		.uleb128 0x13
 4218 02ab 00       		.byte	0
 4219 02ac 00       		.byte	0
 4220 02ad 33       		.uleb128 0x33
 4221 02ae 2E       		.uleb128 0x2e
 4222 02af 00       		.byte	0
 4223 02b0 3F       		.uleb128 0x3f
 4224 02b1 19       		.uleb128 0x19
 4225 02b2 3C       		.uleb128 0x3c
 4226 02b3 19       		.uleb128 0x19
 4227 02b4 6E       		.uleb128 0x6e
 4228 02b5 0E       		.uleb128 0xe
 4229 02b6 03       		.uleb128 0x3
 4230 02b7 0E       		.uleb128 0xe
 4231 02b8 3A       		.uleb128 0x3a
 4232 02b9 0B       		.uleb128 0xb
 4233 02ba 3B       		.uleb128 0x3b
 4234 02bb 0B       		.uleb128 0xb
 4235 02bc 00       		.byte	0
 4236 02bd 00       		.byte	0
 4237 02be 34       		.uleb128 0x34
 4238 02bf 2E       		.uleb128 0x2e
 4239 02c0 00       		.byte	0
 4240 02c1 3F       		.uleb128 0x3f
 4241 02c2 19       		.uleb128 0x19
 4242 02c3 3C       		.uleb128 0x3c
 4243 02c4 19       		.uleb128 0x19
 4244 02c5 6E       		.uleb128 0x6e
 4245 02c6 0E       		.uleb128 0xe
 4246 02c7 03       		.uleb128 0x3
 4247 02c8 0E       		.uleb128 0xe
 4248 02c9 00       		.byte	0
 4249 02ca 00       		.byte	0
 4250 02cb 00       		.byte	0
 4251              		.section	.debug_loc,"",%progbits
 4252              	.Ldebug_loc0:
 4253              	.LLST0:
 4254 0000 00000000 		.4byte	.LVL0
 4255 0004 0A000000 		.4byte	.LVL2
 4256 0008 0200     		.2byte	0x2
 4257 000a 30       		.byte	0x30
 4258 000b 9F       		.byte	0x9f
ARM GAS  C:\Users\RABBIT~1\AppData\Local\Temp\ccgw4IdU.s 			page 105


 4259 000c 16000000 		.4byte	.LVL3
 4260 0010 28000000 		.4byte	.LVL8
 4261 0014 0100     		.2byte	0x1
 4262 0016 54       		.byte	0x54
 4263 0017 00000000 		.4byte	0
 4264 001b 00000000 		.4byte	0
 4265              	.LLST1:
 4266 001f 00000000 		.4byte	.LVL0
 4267 0023 0A000000 		.4byte	.LVL2
 4268 0027 0200     		.2byte	0x2
 4269 0029 30       		.byte	0x30
 4270 002a 9F       		.byte	0x9f
 4271 002b 0A000000 		.4byte	.LVL2
 4272 002f 1A000000 		.4byte	.LVL4
 4273 0033 0100     		.2byte	0x1
 4274 0035 55       		.byte	0x55
 4275 0036 1A000000 		.4byte	.LVL4
 4276 003a 20000000 		.4byte	.LVL5
 4277 003e 0100     		.2byte	0x1
 4278 0040 54       		.byte	0x54
 4279 0041 20000000 		.4byte	.LVL5
 4280 0045 2A000000 		.4byte	.LFE5
 4281 0049 0100     		.2byte	0x1
 4282 004b 55       		.byte	0x55
 4283 004c 00000000 		.4byte	0
 4284 0050 00000000 		.4byte	0
 4285              	.LLST2:
 4286 0054 00000000 		.4byte	.LVL9
 4287 0058 24000000 		.4byte	.LVL10
 4288 005c 0100     		.2byte	0x1
 4289 005e 50       		.byte	0x50
 4290 005f 24000000 		.4byte	.LVL10
 4291 0063 4C000000 		.4byte	.LFE7
 4292 0067 0400     		.2byte	0x4
 4293 0069 F3       		.byte	0xf3
 4294 006a 01       		.uleb128 0x1
 4295 006b 50       		.byte	0x50
 4296 006c 9F       		.byte	0x9f
 4297 006d 00000000 		.4byte	0
 4298 0071 00000000 		.4byte	0
 4299              	.LLST3:
 4300 0075 00000000 		.4byte	.LVL9
 4301 0079 2E000000 		.4byte	.LVL12
 4302 007d 0100     		.2byte	0x1
 4303 007f 51       		.byte	0x51
 4304 0080 2E000000 		.4byte	.LVL12
 4305 0084 48000000 		.4byte	.LVL13
 4306 0088 0400     		.2byte	0x4
 4307 008a F3       		.byte	0xf3
 4308 008b 01       		.uleb128 0x1
 4309 008c 51       		.byte	0x51
 4310 008d 9F       		.byte	0x9f
 4311 008e 48000000 		.4byte	.LVL13
 4312 0092 4C000000 		.4byte	.LFE7
 4313 0096 0100     		.2byte	0x1
 4314 0098 51       		.byte	0x51
 4315 0099 00000000 		.4byte	0
ARM GAS  C:\Users\RABBIT~1\AppData\Local\Temp\ccgw4IdU.s 			page 106


 4316 009d 00000000 		.4byte	0
 4317              	.LLST4:
 4318 00a1 00000000 		.4byte	.LVL9
 4319 00a5 2C000000 		.4byte	.LVL11
 4320 00a9 0100     		.2byte	0x1
 4321 00ab 53       		.byte	0x53
 4322 00ac 2C000000 		.4byte	.LVL11
 4323 00b0 48000000 		.4byte	.LVL13
 4324 00b4 0400     		.2byte	0x4
 4325 00b6 F3       		.byte	0xf3
 4326 00b7 01       		.uleb128 0x1
 4327 00b8 53       		.byte	0x53
 4328 00b9 9F       		.byte	0x9f
 4329 00ba 48000000 		.4byte	.LVL13
 4330 00be 4C000000 		.4byte	.LFE7
 4331 00c2 0100     		.2byte	0x1
 4332 00c4 53       		.byte	0x53
 4333 00c5 00000000 		.4byte	0
 4334 00c9 00000000 		.4byte	0
 4335              	.LLST5:
 4336 00cd 00000000 		.4byte	.LVL14
 4337 00d1 09000000 		.4byte	.LVL16-1
 4338 00d5 0100     		.2byte	0x1
 4339 00d7 50       		.byte	0x50
 4340 00d8 09000000 		.4byte	.LVL16-1
 4341 00dc 1A000000 		.4byte	.LVL18
 4342 00e0 0100     		.2byte	0x1
 4343 00e2 54       		.byte	0x54
 4344 00e3 1A000000 		.4byte	.LVL18
 4345 00e7 28000000 		.4byte	.LFE15
 4346 00eb 0400     		.2byte	0x4
 4347 00ed F3       		.byte	0xf3
 4348 00ee 01       		.uleb128 0x1
 4349 00ef 50       		.byte	0x50
 4350 00f0 9F       		.byte	0x9f
 4351 00f1 00000000 		.4byte	0
 4352 00f5 00000000 		.4byte	0
 4353              	.LLST6:
 4354 00f9 00000000 		.4byte	.LVL14
 4355 00fd 09000000 		.4byte	.LVL16-1
 4356 0101 0100     		.2byte	0x1
 4357 0103 51       		.byte	0x51
 4358 0104 09000000 		.4byte	.LVL16-1
 4359 0108 28000000 		.4byte	.LFE15
 4360 010c 0100     		.2byte	0x1
 4361 010e 55       		.byte	0x55
 4362 010f 00000000 		.4byte	0
 4363 0113 00000000 		.4byte	0
 4364              	.LLST7:
 4365 0117 00000000 		.4byte	.LVL14
 4366 011b 20000000 		.4byte	.LVL20
 4367 011f 0200     		.2byte	0x2
 4368 0121 34       		.byte	0x34
 4369 0122 9F       		.byte	0x9f
 4370 0123 00000000 		.4byte	0
 4371 0127 00000000 		.4byte	0
 4372              	.LLST8:
ARM GAS  C:\Users\RABBIT~1\AppData\Local\Temp\ccgw4IdU.s 			page 107


 4373 012b 1A000000 		.4byte	.LVL18
 4374 012f 1D000000 		.4byte	.LVL19-1
 4375 0133 0100     		.2byte	0x1
 4376 0135 50       		.byte	0x50
 4377 0136 1D000000 		.4byte	.LVL19-1
 4378 013a 28000000 		.4byte	.LFE15
 4379 013e 0100     		.2byte	0x1
 4380 0140 54       		.byte	0x54
 4381 0141 00000000 		.4byte	0
 4382 0145 00000000 		.4byte	0
 4383              	.LLST9:
 4384 0149 0A000000 		.4byte	.LVL16
 4385 014d 1A000000 		.4byte	.LVL18
 4386 0151 0500     		.2byte	0x5
 4387 0153 74       		.byte	0x74
 4388 0154 00       		.sleb128 0
 4389 0155 40       		.byte	0x40
 4390 0156 25       		.byte	0x25
 4391 0157 9F       		.byte	0x9f
 4392 0158 1A000000 		.4byte	.LVL18
 4393 015c 28000000 		.4byte	.LFE15
 4394 0160 0600     		.2byte	0x6
 4395 0162 F3       		.byte	0xf3
 4396 0163 01       		.uleb128 0x1
 4397 0164 50       		.byte	0x50
 4398 0165 40       		.byte	0x40
 4399 0166 25       		.byte	0x25
 4400 0167 9F       		.byte	0x9f
 4401 0168 00000000 		.4byte	0
 4402 016c 00000000 		.4byte	0
 4403              	.LLST10:
 4404 0170 04000000 		.4byte	.LVL15
 4405 0174 09000000 		.4byte	.LVL16-1
 4406 0178 0800     		.2byte	0x8
 4407 017a 70       		.byte	0x70
 4408 017b 00       		.sleb128 0
 4409 017c 38       		.byte	0x38
 4410 017d 25       		.byte	0x25
 4411 017e 08       		.byte	0x8
 4412 017f FF       		.byte	0xff
 4413 0180 1A       		.byte	0x1a
 4414 0181 9F       		.byte	0x9f
 4415 0182 09000000 		.4byte	.LVL16-1
 4416 0186 1A000000 		.4byte	.LVL18
 4417 018a 0800     		.2byte	0x8
 4418 018c 74       		.byte	0x74
 4419 018d 00       		.sleb128 0
 4420 018e 38       		.byte	0x38
 4421 018f 25       		.byte	0x25
 4422 0190 08       		.byte	0x8
 4423 0191 FF       		.byte	0xff
 4424 0192 1A       		.byte	0x1a
 4425 0193 9F       		.byte	0x9f
 4426 0194 1A000000 		.4byte	.LVL18
 4427 0198 28000000 		.4byte	.LFE15
 4428 019c 0900     		.2byte	0x9
 4429 019e F3       		.byte	0xf3
ARM GAS  C:\Users\RABBIT~1\AppData\Local\Temp\ccgw4IdU.s 			page 108


 4430 019f 01       		.uleb128 0x1
 4431 01a0 50       		.byte	0x50
 4432 01a1 38       		.byte	0x38
 4433 01a2 25       		.byte	0x25
 4434 01a3 08       		.byte	0x8
 4435 01a4 FF       		.byte	0xff
 4436 01a5 1A       		.byte	0x1a
 4437 01a6 9F       		.byte	0x9f
 4438 01a7 00000000 		.4byte	0
 4439 01ab 00000000 		.4byte	0
 4440              	.LLST11:
 4441 01af 00000000 		.4byte	.LVL21
 4442 01b3 08000000 		.4byte	.LVL22
 4443 01b7 0100     		.2byte	0x1
 4444 01b9 50       		.byte	0x50
 4445 01ba 08000000 		.4byte	.LVL22
 4446 01be 32000000 		.4byte	.LFE16
 4447 01c2 0400     		.2byte	0x4
 4448 01c4 72       		.byte	0x72
 4449 01c5 817F     		.sleb128 -127
 4450 01c7 9F       		.byte	0x9f
 4451 01c8 00000000 		.4byte	0
 4452 01cc 00000000 		.4byte	0
 4453              	.LLST12:
 4454 01d0 08000000 		.4byte	.LVL22
 4455 01d4 1C000000 		.4byte	.LVL26
 4456 01d8 0100     		.2byte	0x1
 4457 01da 50       		.byte	0x50
 4458 01db 28000000 		.4byte	.LVL28
 4459 01df 32000000 		.4byte	.LFE16
 4460 01e3 0100     		.2byte	0x1
 4461 01e5 50       		.byte	0x50
 4462 01e6 00000000 		.4byte	0
 4463 01ea 00000000 		.4byte	0
 4464              	.LLST13:
 4465 01ee 12000000 		.4byte	.LVL24
 4466 01f2 14000000 		.4byte	.LVL25
 4467 01f6 0200     		.2byte	0x2
 4468 01f8 30       		.byte	0x30
 4469 01f9 9F       		.byte	0x9f
 4470 01fa 14000000 		.4byte	.LVL25
 4471 01fe 22000000 		.4byte	.LVL27
 4472 0202 0500     		.2byte	0x5
 4473 0204 38       		.byte	0x38
 4474 0205 73       		.byte	0x73
 4475 0206 00       		.sleb128 0
 4476 0207 1C       		.byte	0x1c
 4477 0208 9F       		.byte	0x9f
 4478 0209 00000000 		.4byte	0
 4479 020d 00000000 		.4byte	0
 4480              	.LLST14:
 4481 0211 08000000 		.4byte	.LVL22
 4482 0215 10000000 		.4byte	.LVL23
 4483 0219 0700     		.2byte	0x7
 4484 021b 71       		.byte	0x71
 4485 021c 00       		.sleb128 0
 4486 021d 72       		.byte	0x72
ARM GAS  C:\Users\RABBIT~1\AppData\Local\Temp\ccgw4IdU.s 			page 109


 4487 021e 807F     		.sleb128 -128
 4488 0220 1C       		.byte	0x1c
 4489 0221 9F       		.byte	0x9f
 4490 0222 30000000 		.4byte	.LVL29
 4491 0226 32000000 		.4byte	.LFE16
 4492 022a 0700     		.2byte	0x7
 4493 022c 71       		.byte	0x71
 4494 022d 00       		.sleb128 0
 4495 022e 72       		.byte	0x72
 4496 022f 807F     		.sleb128 -128
 4497 0231 1C       		.byte	0x1c
 4498 0232 9F       		.byte	0x9f
 4499 0233 00000000 		.4byte	0
 4500 0237 00000000 		.4byte	0
 4501              	.LLST15:
 4502 023b 00000000 		.4byte	.LVL30
 4503 023f 18000000 		.4byte	.LVL34
 4504 0243 0100     		.2byte	0x1
 4505 0245 50       		.byte	0x50
 4506 0246 18000000 		.4byte	.LVL34
 4507 024a 70000000 		.4byte	.LFE12
 4508 024e 0100     		.2byte	0x1
 4509 0250 55       		.byte	0x55
 4510 0251 00000000 		.4byte	0
 4511 0255 00000000 		.4byte	0
 4512              	.LLST16:
 4513 0259 00000000 		.4byte	.LVL30
 4514 025d 1D000000 		.4byte	.LVL35-1
 4515 0261 0100     		.2byte	0x1
 4516 0263 51       		.byte	0x51
 4517 0264 1D000000 		.4byte	.LVL35-1
 4518 0268 70000000 		.4byte	.LFE12
 4519 026c 0100     		.2byte	0x1
 4520 026e 56       		.byte	0x56
 4521 026f 00000000 		.4byte	0
 4522 0273 00000000 		.4byte	0
 4523              	.LLST17:
 4524 0277 00000000 		.4byte	.LVL30
 4525 027b 0A000000 		.4byte	.LVL31
 4526 027f 0100     		.2byte	0x1
 4527 0281 52       		.byte	0x52
 4528 0282 0A000000 		.4byte	.LVL31
 4529 0286 70000000 		.4byte	.LFE12
 4530 028a 0100     		.2byte	0x1
 4531 028c 57       		.byte	0x57
 4532 028d 00000000 		.4byte	0
 4533 0291 00000000 		.4byte	0
 4534              	.LLST18:
 4535 0295 00000000 		.4byte	.LVL30
 4536 0299 10000000 		.4byte	.LVL32
 4537 029d 0100     		.2byte	0x1
 4538 029f 53       		.byte	0x53
 4539 02a0 10000000 		.4byte	.LVL32
 4540 02a4 70000000 		.4byte	.LFE12
 4541 02a8 0100     		.2byte	0x1
 4542 02aa 58       		.byte	0x58
 4543 02ab 00000000 		.4byte	0
ARM GAS  C:\Users\RABBIT~1\AppData\Local\Temp\ccgw4IdU.s 			page 110


 4544 02af 00000000 		.4byte	0
 4545              	.LLST19:
 4546 02b3 2E000000 		.4byte	.LVL36
 4547 02b7 32000000 		.4byte	.LVL38
 4548 02bb 0200     		.2byte	0x2
 4549 02bd 30       		.byte	0x30
 4550 02be 9F       		.byte	0x9f
 4551 02bf 54000000 		.4byte	.LVL41
 4552 02c3 60000000 		.4byte	.LVL43
 4553 02c7 0100     		.2byte	0x1
 4554 02c9 50       		.byte	0x50
 4555 02ca 68000000 		.4byte	.LVL46
 4556 02ce 70000000 		.4byte	.LFE12
 4557 02d2 0100     		.2byte	0x1
 4558 02d4 54       		.byte	0x54
 4559 02d5 00000000 		.4byte	0
 4560 02d9 00000000 		.4byte	0
 4561              	.LLST20:
 4562 02dd 16000000 		.4byte	.LVL33
 4563 02e1 30000000 		.4byte	.LVL37
 4564 02e5 0100     		.2byte	0x1
 4565 02e7 54       		.byte	0x54
 4566 02e8 32000000 		.4byte	.LVL38
 4567 02ec 56000000 		.4byte	.LVL42
 4568 02f0 0100     		.2byte	0x1
 4569 02f2 54       		.byte	0x54
 4570 02f3 66000000 		.4byte	.LVL45
 4571 02f7 68000000 		.4byte	.LVL46
 4572 02fb 0100     		.2byte	0x1
 4573 02fd 54       		.byte	0x54
 4574 02fe 00000000 		.4byte	0
 4575 0302 00000000 		.4byte	0
 4576              	.LLST21:
 4577 0306 00000000 		.4byte	.LVL47
 4578 030a 10000000 		.4byte	.LVL49
 4579 030e 0100     		.2byte	0x1
 4580 0310 50       		.byte	0x50
 4581 0311 10000000 		.4byte	.LVL49
 4582 0315 64000000 		.4byte	.LFE14
 4583 0319 0100     		.2byte	0x1
 4584 031b 54       		.byte	0x54
 4585 031c 00000000 		.4byte	0
 4586 0320 00000000 		.4byte	0
 4587              	.LLST22:
 4588 0324 0A000000 		.4byte	.LVL48
 4589 0328 10000000 		.4byte	.LVL49
 4590 032c 0200     		.2byte	0x2
 4591 032e 30       		.byte	0x30
 4592 032f 9F       		.byte	0x9f
 4593 0330 10000000 		.4byte	.LVL49
 4594 0334 16000000 		.4byte	.LVL50
 4595 0338 0600     		.2byte	0x6
 4596 033a 75       		.byte	0x75
 4597 033b 00       		.sleb128 0
 4598 033c 76       		.byte	0x76
 4599 033d 00       		.sleb128 0
 4600 033e 1C       		.byte	0x1c
ARM GAS  C:\Users\RABBIT~1\AppData\Local\Temp\ccgw4IdU.s 			page 111


 4601 033f 9F       		.byte	0x9f
 4602 0340 16000000 		.4byte	.LVL50
 4603 0344 22000000 		.4byte	.LVL51
 4604 0348 0100     		.2byte	0x1
 4605 034a 52       		.byte	0x52
 4606 034b 22000000 		.4byte	.LVL51
 4607 034f 2C000000 		.4byte	.LVL53
 4608 0353 0600     		.2byte	0x6
 4609 0355 75       		.byte	0x75
 4610 0356 00       		.sleb128 0
 4611 0357 76       		.byte	0x76
 4612 0358 00       		.sleb128 0
 4613 0359 1C       		.byte	0x1c
 4614 035a 9F       		.byte	0x9f
 4615 035b 2C000000 		.4byte	.LVL53
 4616 035f 5C000000 		.4byte	.LVL60
 4617 0363 0700     		.2byte	0x7
 4618 0365 76       		.byte	0x76
 4619 0366 00       		.sleb128 0
 4620 0367 20       		.byte	0x20
 4621 0368 75       		.byte	0x75
 4622 0369 00       		.sleb128 0
 4623 036a 22       		.byte	0x22
 4624 036b 9F       		.byte	0x9f
 4625 036c 5E000000 		.4byte	.LVL61
 4626 0370 64000000 		.4byte	.LFE14
 4627 0374 0100     		.2byte	0x1
 4628 0376 52       		.byte	0x52
 4629 0377 00000000 		.4byte	0
 4630 037b 00000000 		.4byte	0
 4631              	.LLST23:
 4632 037f 3E000000 		.4byte	.LVL55
 4633 0383 4A000000 		.4byte	.LVL56
 4634 0387 0D00     		.2byte	0xd
 4635 0389 91       		.byte	0x91
 4636 038a E47D     		.sleb128 -284
 4637 038c 06       		.byte	0x6
 4638 038d 74       		.byte	0x74
 4639 038e 18       		.sleb128 24
 4640 038f 06       		.byte	0x6
 4641 0390 1C       		.byte	0x1c
 4642 0391 74       		.byte	0x74
 4643 0392 00       		.sleb128 0
 4644 0393 06       		.byte	0x6
 4645 0394 22       		.byte	0x22
 4646 0395 9F       		.byte	0x9f
 4647 0396 4A000000 		.4byte	.LVL56
 4648 039a 4D000000 		.4byte	.LVL57-1
 4649 039e 0100     		.2byte	0x1
 4650 03a0 50       		.byte	0x50
 4651 03a1 00000000 		.4byte	0
 4652 03a5 00000000 		.4byte	0
 4653              	.LLST24:
 4654 03a9 0A000000 		.4byte	.LVL48
 4655 03ad 10000000 		.4byte	.LVL49
 4656 03b1 0100     		.2byte	0x1
 4657 03b3 56       		.byte	0x56
ARM GAS  C:\Users\RABBIT~1\AppData\Local\Temp\ccgw4IdU.s 			page 112


 4658 03b4 10000000 		.4byte	.LVL49
 4659 03b8 64000000 		.4byte	.LFE14
 4660 03bc 0100     		.2byte	0x1
 4661 03be 55       		.byte	0x55
 4662 03bf 00000000 		.4byte	0
 4663 03c3 00000000 		.4byte	0
 4664              	.LLST25:
 4665 03c7 0A000000 		.4byte	.LVL48
 4666 03cb 10000000 		.4byte	.LVL49
 4667 03cf 0200     		.2byte	0x2
 4668 03d1 31       		.byte	0x31
 4669 03d2 9F       		.byte	0x9f
 4670 03d3 52000000 		.4byte	.LVL58
 4671 03d7 58000000 		.4byte	.LVL59
 4672 03db 0100     		.2byte	0x1
 4673 03dd 50       		.byte	0x50
 4674 03de 58000000 		.4byte	.LVL59
 4675 03e2 5E000000 		.4byte	.LVL61
 4676 03e6 0100     		.2byte	0x1
 4677 03e8 57       		.byte	0x57
 4678 03e9 00000000 		.4byte	0
 4679 03ed 00000000 		.4byte	0
 4680              	.LLST26:
 4681 03f1 00000000 		.4byte	.LVL62
 4682 03f5 6C000000 		.4byte	.LVL70
 4683 03f9 0100     		.2byte	0x1
 4684 03fb 50       		.byte	0x50
 4685 03fc 6C000000 		.4byte	.LVL70
 4686 0400 92000000 		.4byte	.LFE0
 4687 0404 0400     		.2byte	0x4
 4688 0406 F3       		.byte	0xf3
 4689 0407 01       		.uleb128 0x1
 4690 0408 50       		.byte	0x50
 4691 0409 9F       		.byte	0x9f
 4692 040a 00000000 		.4byte	0
 4693 040e 00000000 		.4byte	0
 4694              	.LLST27:
 4695 0412 00000000 		.4byte	.LVL62
 4696 0416 6F000000 		.4byte	.LVL71-1
 4697 041a 0100     		.2byte	0x1
 4698 041c 51       		.byte	0x51
 4699 041d 6F000000 		.4byte	.LVL71-1
 4700 0421 92000000 		.4byte	.LFE0
 4701 0425 0100     		.2byte	0x1
 4702 0427 55       		.byte	0x55
 4703 0428 00000000 		.4byte	0
 4704 042c 00000000 		.4byte	0
 4705              	.LLST28:
 4706 0430 00000000 		.4byte	.LVL62
 4707 0434 3C000000 		.4byte	.LVL69
 4708 0438 0200     		.2byte	0x2
 4709 043a 31       		.byte	0x31
 4710 043b 9F       		.byte	0x9f
 4711 043c 84000000 		.4byte	.LVL73
 4712 0440 8C000000 		.4byte	.LVL75
 4713 0444 0100     		.2byte	0x1
 4714 0446 54       		.byte	0x54
ARM GAS  C:\Users\RABBIT~1\AppData\Local\Temp\ccgw4IdU.s 			page 113


 4715 0447 00000000 		.4byte	0
 4716 044b 00000000 		.4byte	0
 4717              	.LLST29:
 4718 044f 16000000 		.4byte	.LVL63
 4719 0453 38000000 		.4byte	.LVL68
 4720 0457 0100     		.2byte	0x1
 4721 0459 50       		.byte	0x50
 4722 045a 00000000 		.4byte	0
 4723 045e 00000000 		.4byte	0
 4724              	.LLST30:
 4725 0462 16000000 		.4byte	.LVL63
 4726 0466 38000000 		.4byte	.LVL68
 4727 046a 0200     		.2byte	0x2
 4728 046c 33       		.byte	0x33
 4729 046d 9F       		.byte	0x9f
 4730 046e 00000000 		.4byte	0
 4731 0472 00000000 		.4byte	0
 4732              	.LLST31:
 4733 0476 16000000 		.4byte	.LVL63
 4734 047a 38000000 		.4byte	.LVL68
 4735 047e 0100     		.2byte	0x1
 4736 0480 57       		.byte	0x57
 4737 0481 00000000 		.4byte	0
 4738 0485 00000000 		.4byte	0
 4739              	.LLST32:
 4740 0489 16000000 		.4byte	.LVL63
 4741 048d 1A000000 		.4byte	.LVL64
 4742 0491 2200     		.2byte	0x22
 4743 0493 70       		.byte	0x70
 4744 0494 08       		.sleb128 8
 4745 0495 94       		.byte	0x94
 4746 0496 01       		.byte	0x1
 4747 0497 08       		.byte	0x8
 4748 0498 FF       		.byte	0xff
 4749 0499 1A       		.byte	0x1a
 4750 049a 23       		.byte	0x23
 4751 049b 01       		.uleb128 0x1
 4752 049c 72       		.byte	0x72
 4753 049d 00       		.sleb128 0
 4754 049e 37       		.byte	0x37
 4755 049f 25       		.byte	0x25
 4756 04a0 72       		.byte	0x72
 4757 04a1 00       		.sleb128 0
 4758 04a2 08       		.byte	0x8
 4759 04a3 7F       		.byte	0x7f
 4760 04a4 1A       		.byte	0x1a
 4761 04a5 30       		.byte	0x30
 4762 04a6 2E       		.byte	0x2e
 4763 04a7 08       		.byte	0x8
 4764 04a8 FF       		.byte	0xff
 4765 04a9 1A       		.byte	0x1a
 4766 04aa 22       		.byte	0x22
 4767 04ab 1E       		.byte	0x1e
 4768 04ac 76       		.byte	0x76
 4769 04ad 00       		.sleb128 0
 4770 04ae 38       		.byte	0x38
 4771 04af 24       		.byte	0x24
ARM GAS  C:\Users\RABBIT~1\AppData\Local\Temp\ccgw4IdU.s 			page 114


 4772 04b0 1E       		.byte	0x1e
 4773 04b1 77       		.byte	0x77
 4774 04b2 00       		.sleb128 0
 4775 04b3 22       		.byte	0x22
 4776 04b4 9F       		.byte	0x9f
 4777 04b5 1A000000 		.4byte	.LVL64
 4778 04b9 1E000000 		.4byte	.LVL65
 4779 04bd 2000     		.2byte	0x20
 4780 04bf 70       		.byte	0x70
 4781 04c0 08       		.sleb128 8
 4782 04c1 94       		.byte	0x94
 4783 04c2 01       		.byte	0x1
 4784 04c3 08       		.byte	0x8
 4785 04c4 FF       		.byte	0xff
 4786 04c5 1A       		.byte	0x1a
 4787 04c6 23       		.byte	0x23
 4788 04c7 01       		.uleb128 0x1
 4789 04c8 72       		.byte	0x72
 4790 04c9 00       		.sleb128 0
 4791 04ca 37       		.byte	0x37
 4792 04cb 25       		.byte	0x25
 4793 04cc 72       		.byte	0x72
 4794 04cd 00       		.sleb128 0
 4795 04ce 08       		.byte	0x8
 4796 04cf 7F       		.byte	0x7f
 4797 04d0 1A       		.byte	0x1a
 4798 04d1 30       		.byte	0x30
 4799 04d2 2E       		.byte	0x2e
 4800 04d3 08       		.byte	0x8
 4801 04d4 FF       		.byte	0xff
 4802 04d5 1A       		.byte	0x1a
 4803 04d6 22       		.byte	0x22
 4804 04d7 1E       		.byte	0x1e
 4805 04d8 73       		.byte	0x73
 4806 04d9 00       		.sleb128 0
 4807 04da 1E       		.byte	0x1e
 4808 04db 77       		.byte	0x77
 4809 04dc 00       		.sleb128 0
 4810 04dd 22       		.byte	0x22
 4811 04de 9F       		.byte	0x9f
 4812 04df 1E000000 		.4byte	.LVL65
 4813 04e3 22000000 		.4byte	.LVL66
 4814 04e7 2200     		.2byte	0x22
 4815 04e9 70       		.byte	0x70
 4816 04ea 08       		.sleb128 8
 4817 04eb 94       		.byte	0x94
 4818 04ec 01       		.byte	0x1
 4819 04ed 08       		.byte	0x8
 4820 04ee FF       		.byte	0xff
 4821 04ef 1A       		.byte	0x1a
 4822 04f0 23       		.byte	0x23
 4823 04f1 01       		.uleb128 0x1
 4824 04f2 72       		.byte	0x72
 4825 04f3 00       		.sleb128 0
 4826 04f4 37       		.byte	0x37
 4827 04f5 25       		.byte	0x25
 4828 04f6 72       		.byte	0x72
ARM GAS  C:\Users\RABBIT~1\AppData\Local\Temp\ccgw4IdU.s 			page 115


 4829 04f7 00       		.sleb128 0
 4830 04f8 08       		.byte	0x8
 4831 04f9 7F       		.byte	0x7f
 4832 04fa 1A       		.byte	0x1a
 4833 04fb 30       		.byte	0x30
 4834 04fc 2E       		.byte	0x2e
 4835 04fd 08       		.byte	0x8
 4836 04fe FF       		.byte	0xff
 4837 04ff 1A       		.byte	0x1a
 4838 0500 22       		.byte	0x22
 4839 0501 1E       		.byte	0x1e
 4840 0502 76       		.byte	0x76
 4841 0503 00       		.sleb128 0
 4842 0504 38       		.byte	0x38
 4843 0505 24       		.byte	0x24
 4844 0506 1E       		.byte	0x1e
 4845 0507 77       		.byte	0x77
 4846 0508 00       		.sleb128 0
 4847 0509 22       		.byte	0x22
 4848 050a 9F       		.byte	0x9f
 4849 050b 22000000 		.4byte	.LVL66
 4850 050f 26000000 		.4byte	.LVL67
 4851 0513 1F00     		.2byte	0x1f
 4852 0515 70       		.byte	0x70
 4853 0516 08       		.sleb128 8
 4854 0517 94       		.byte	0x94
 4855 0518 01       		.byte	0x1
 4856 0519 08       		.byte	0x8
 4857 051a FF       		.byte	0xff
 4858 051b 1A       		.byte	0x1a
 4859 051c 23       		.byte	0x23
 4860 051d 01       		.uleb128 0x1
 4861 051e 72       		.byte	0x72
 4862 051f 00       		.sleb128 0
 4863 0520 37       		.byte	0x37
 4864 0521 25       		.byte	0x25
 4865 0522 74       		.byte	0x74
 4866 0523 00       		.sleb128 0
 4867 0524 30       		.byte	0x30
 4868 0525 2E       		.byte	0x2e
 4869 0526 08       		.byte	0x8
 4870 0527 FF       		.byte	0xff
 4871 0528 1A       		.byte	0x1a
 4872 0529 22       		.byte	0x22
 4873 052a 1E       		.byte	0x1e
 4874 052b 76       		.byte	0x76
 4875 052c 00       		.sleb128 0
 4876 052d 38       		.byte	0x38
 4877 052e 24       		.byte	0x24
 4878 052f 1E       		.byte	0x1e
 4879 0530 77       		.byte	0x77
 4880 0531 00       		.sleb128 0
 4881 0532 22       		.byte	0x22
 4882 0533 9F       		.byte	0x9f
 4883 0534 26000000 		.4byte	.LVL67
 4884 0538 38000000 		.4byte	.LVL68
 4885 053c 2200     		.2byte	0x22
ARM GAS  C:\Users\RABBIT~1\AppData\Local\Temp\ccgw4IdU.s 			page 116


 4886 053e 70       		.byte	0x70
 4887 053f 08       		.sleb128 8
 4888 0540 94       		.byte	0x94
 4889 0541 01       		.byte	0x1
 4890 0542 08       		.byte	0x8
 4891 0543 FF       		.byte	0xff
 4892 0544 1A       		.byte	0x1a
 4893 0545 23       		.byte	0x23
 4894 0546 01       		.uleb128 0x1
 4895 0547 72       		.byte	0x72
 4896 0548 00       		.sleb128 0
 4897 0549 37       		.byte	0x37
 4898 054a 25       		.byte	0x25
 4899 054b 72       		.byte	0x72
 4900 054c 00       		.sleb128 0
 4901 054d 08       		.byte	0x8
 4902 054e 7F       		.byte	0x7f
 4903 054f 1A       		.byte	0x1a
 4904 0550 30       		.byte	0x30
 4905 0551 2E       		.byte	0x2e
 4906 0552 08       		.byte	0x8
 4907 0553 FF       		.byte	0xff
 4908 0554 1A       		.byte	0x1a
 4909 0555 22       		.byte	0x22
 4910 0556 1E       		.byte	0x1e
 4911 0557 76       		.byte	0x76
 4912 0558 00       		.sleb128 0
 4913 0559 38       		.byte	0x38
 4914 055a 24       		.byte	0x24
 4915 055b 1E       		.byte	0x1e
 4916 055c 77       		.byte	0x77
 4917 055d 00       		.sleb128 0
 4918 055e 22       		.byte	0x22
 4919 055f 9F       		.byte	0x9f
 4920 0560 00000000 		.4byte	0
 4921 0564 00000000 		.4byte	0
 4922              	.LLST33:
 4923 0568 00000000 		.4byte	.LVL77
 4924 056c 3E000000 		.4byte	.LVL86
 4925 0570 0100     		.2byte	0x1
 4926 0572 50       		.byte	0x50
 4927 0573 3E000000 		.4byte	.LVL86
 4928 0577 C2010000 		.4byte	.LFE1
 4929 057b 0100     		.2byte	0x1
 4930 057d 55       		.byte	0x55
 4931 057e 00000000 		.4byte	0
 4932 0582 00000000 		.4byte	0
 4933              	.LLST34:
 4934 0586 00000000 		.4byte	.LVL77
 4935 058a 32000000 		.4byte	.LVL85
 4936 058e 0100     		.2byte	0x1
 4937 0590 51       		.byte	0x51
 4938 0591 32000000 		.4byte	.LVL85
 4939 0595 C2010000 		.4byte	.LFE1
 4940 0599 0200     		.2byte	0x2
 4941 059b 91       		.byte	0x91
 4942 059c 50       		.sleb128 -48
ARM GAS  C:\Users\RABBIT~1\AppData\Local\Temp\ccgw4IdU.s 			page 117


 4943 059d 00000000 		.4byte	0
 4944 05a1 00000000 		.4byte	0
 4945              	.LLST35:
 4946 05a5 00000000 		.4byte	.LVL77
 4947 05a9 1A000000 		.4byte	.LVL81
 4948 05ad 0100     		.2byte	0x1
 4949 05af 52       		.byte	0x52
 4950 05b0 1A000000 		.4byte	.LVL81
 4951 05b4 A6000000 		.4byte	.LVL101
 4952 05b8 0100     		.2byte	0x1
 4953 05ba 58       		.byte	0x58
 4954 05bb A6000000 		.4byte	.LVL101
 4955 05bf B8010000 		.4byte	.LVL153
 4956 05c3 0400     		.2byte	0x4
 4957 05c5 F3       		.byte	0xf3
 4958 05c6 01       		.uleb128 0x1
 4959 05c7 52       		.byte	0x52
 4960 05c8 9F       		.byte	0x9f
 4961 05c9 B8010000 		.4byte	.LVL153
 4962 05cd BC010000 		.4byte	.LVL155
 4963 05d1 0100     		.2byte	0x1
 4964 05d3 58       		.byte	0x58
 4965 05d4 BC010000 		.4byte	.LVL155
 4966 05d8 C2010000 		.4byte	.LFE1
 4967 05dc 0400     		.2byte	0x4
 4968 05de F3       		.byte	0xf3
 4969 05df 01       		.uleb128 0x1
 4970 05e0 52       		.byte	0x52
 4971 05e1 9F       		.byte	0x9f
 4972 05e2 00000000 		.4byte	0
 4973 05e6 00000000 		.4byte	0
 4974              	.LLST36:
 4975 05ea 00000000 		.4byte	.LVL77
 4976 05ee 16000000 		.4byte	.LVL80
 4977 05f2 0100     		.2byte	0x1
 4978 05f4 53       		.byte	0x53
 4979 05f5 16000000 		.4byte	.LVL80
 4980 05f9 C2010000 		.4byte	.LFE1
 4981 05fd 0100     		.2byte	0x1
 4982 05ff 54       		.byte	0x54
 4983 0600 00000000 		.4byte	0
 4984 0604 00000000 		.4byte	0
 4985              	.LLST37:
 4986 0608 00000000 		.4byte	.LVL77
 4987 060c A6000000 		.4byte	.LVL101
 4988 0610 0200     		.2byte	0x2
 4989 0612 31       		.byte	0x31
 4990 0613 9F       		.byte	0x9f
 4991 0614 00010000 		.4byte	.LVL112
 4992 0618 04010000 		.4byte	.LVL113
 4993 061c 0100     		.2byte	0x1
 4994 061e 50       		.byte	0x50
 4995 061f 0E010000 		.4byte	.LVL116
 4996 0623 22010000 		.4byte	.LVL122
 4997 0627 0200     		.2byte	0x2
 4998 0629 30       		.byte	0x30
 4999 062a 9F       		.byte	0x9f
ARM GAS  C:\Users\RABBIT~1\AppData\Local\Temp\ccgw4IdU.s 			page 118


 5000 062b 22010000 		.4byte	.LVL122
 5001 062f 26010000 		.4byte	.LVL123
 5002 0633 0100     		.2byte	0x1
 5003 0635 53       		.byte	0x53
 5004 0636 26010000 		.4byte	.LVL123
 5005 063a A4010000 		.4byte	.LVL146
 5006 063e 0200     		.2byte	0x2
 5007 0640 30       		.byte	0x30
 5008 0641 9F       		.byte	0x9f
 5009 0642 A4010000 		.4byte	.LVL146
 5010 0646 A8010000 		.4byte	.LVL147
 5011 064a 0100     		.2byte	0x1
 5012 064c 50       		.byte	0x50
 5013 064d A8010000 		.4byte	.LVL147
 5014 0651 B4010000 		.4byte	.LVL151
 5015 0655 0200     		.2byte	0x2
 5016 0657 30       		.byte	0x30
 5017 0658 9F       		.byte	0x9f
 5018 0659 B6010000 		.4byte	.LVL152
 5019 065d B8010000 		.4byte	.LVL153
 5020 0661 0100     		.2byte	0x1
 5021 0663 50       		.byte	0x50
 5022 0664 B8010000 		.4byte	.LVL153
 5023 0668 BC010000 		.4byte	.LVL155
 5024 066c 0200     		.2byte	0x2
 5025 066e 31       		.byte	0x31
 5026 066f 9F       		.byte	0x9f
 5027 0670 00000000 		.4byte	0
 5028 0674 00000000 		.4byte	0
 5029              	.LLST38:
 5030 0678 52000000 		.4byte	.LVL89
 5031 067c 6A000000 		.4byte	.LVL90
 5032 0680 0100     		.2byte	0x1
 5033 0682 56       		.byte	0x56
 5034 0683 9E000000 		.4byte	.LVL100
 5035 0687 A6000000 		.4byte	.LVL101
 5036 068b 0200     		.2byte	0x2
 5037 068d 30       		.byte	0x30
 5038 068e 9F       		.byte	0x9f
 5039 068f A6000000 		.4byte	.LVL101
 5040 0693 BC000000 		.4byte	.LVL103
 5041 0697 0100     		.2byte	0x1
 5042 0699 59       		.byte	0x59
 5043 069a BC000000 		.4byte	.LVL103
 5044 069e 1E010000 		.4byte	.LVL120
 5045 06a2 0300     		.2byte	0x3
 5046 06a4 79       		.byte	0x79
 5047 06a5 7F       		.sleb128 -1
 5048 06a6 9F       		.byte	0x9f
 5049 06a7 1E010000 		.4byte	.LVL120
 5050 06ab 2A010000 		.4byte	.LVL124
 5051 06af 0100     		.2byte	0x1
 5052 06b1 59       		.byte	0x59
 5053 06b2 2E010000 		.4byte	.LVL125
 5054 06b6 3E010000 		.4byte	.LVL127
 5055 06ba 0100     		.2byte	0x1
 5056 06bc 59       		.byte	0x59
ARM GAS  C:\Users\RABBIT~1\AppData\Local\Temp\ccgw4IdU.s 			page 119


 5057 06bd 3E010000 		.4byte	.LVL127
 5058 06c1 B4010000 		.4byte	.LVL151
 5059 06c5 0100     		.2byte	0x1
 5060 06c7 56       		.byte	0x56
 5061 06c8 B8010000 		.4byte	.LVL153
 5062 06cc BC010000 		.4byte	.LVL155
 5063 06d0 0100     		.2byte	0x1
 5064 06d2 56       		.byte	0x56
 5065 06d3 00000000 		.4byte	0
 5066 06d7 00000000 		.4byte	0
 5067              	.LLST39:
 5068 06db D0000000 		.4byte	.LVL105
 5069 06df 22010000 		.4byte	.LVL122
 5070 06e3 0100     		.2byte	0x1
 5071 06e5 57       		.byte	0x57
 5072 06e6 90010000 		.4byte	.LVL140
 5073 06ea A3010000 		.4byte	.LVL146-1
 5074 06ee 0100     		.2byte	0x1
 5075 06f0 53       		.byte	0x53
 5076 06f1 A8010000 		.4byte	.LVL147
 5077 06f5 AF010000 		.4byte	.LVL149-1
 5078 06f9 0100     		.2byte	0x1
 5079 06fb 53       		.byte	0x53
 5080 06fc 00000000 		.4byte	0
 5081 0700 00000000 		.4byte	0
 5082              	.LLST40:
 5083 0704 52000000 		.4byte	.LVL89
 5084 0708 B4010000 		.4byte	.LVL151
 5085 070c 0200     		.2byte	0x2
 5086 070e 91       		.byte	0x91
 5087 070f 54       		.sleb128 -44
 5088 0710 B8010000 		.4byte	.LVL153
 5089 0714 BC010000 		.4byte	.LVL155
 5090 0718 0200     		.2byte	0x2
 5091 071a 91       		.byte	0x91
 5092 071b 54       		.sleb128 -44
 5093 071c 00000000 		.4byte	0
 5094 0720 00000000 		.4byte	0
 5095              	.LLST41:
 5096 0724 C6000000 		.4byte	.LVL104
 5097 0728 FC000000 		.4byte	.LVL111
 5098 072c 0100     		.2byte	0x1
 5099 072e 51       		.byte	0x51
 5100 072f FC000000 		.4byte	.LVL111
 5101 0733 FF000000 		.4byte	.LVL112-1
 5102 0737 0100     		.2byte	0x1
 5103 0739 52       		.byte	0x52
 5104 073a FF000000 		.4byte	.LVL112-1
 5105 073e 04010000 		.4byte	.LVL113
 5106 0742 0A00     		.2byte	0xa
 5107 0744 91       		.byte	0x91
 5108 0745 40       		.sleb128 -64
 5109 0746 06       		.byte	0x6
 5110 0747 08       		.byte	0x8
 5111 0748 7F       		.byte	0x7f
 5112 0749 1A       		.byte	0x1a
 5113 074a 23       		.byte	0x23
ARM GAS  C:\Users\RABBIT~1\AppData\Local\Temp\ccgw4IdU.s 			page 120


 5114 074b 8001     		.uleb128 0x80
 5115 074d 9F       		.byte	0x9f
 5116 074e 04010000 		.4byte	.LVL113
 5117 0752 06010000 		.4byte	.LVL114
 5118 0756 0100     		.2byte	0x1
 5119 0758 51       		.byte	0x51
 5120 0759 06010000 		.4byte	.LVL114
 5121 075d 18010000 		.4byte	.LVL118
 5122 0761 0A00     		.2byte	0xa
 5123 0763 91       		.byte	0x91
 5124 0764 40       		.sleb128 -64
 5125 0765 06       		.byte	0x6
 5126 0766 08       		.byte	0x8
 5127 0767 7F       		.byte	0x7f
 5128 0768 1A       		.byte	0x1a
 5129 0769 23       		.byte	0x23
 5130 076a 8001     		.uleb128 0x80
 5131 076c 9F       		.byte	0x9f
 5132 076d 00000000 		.4byte	0
 5133 0771 00000000 		.4byte	0
 5134              	.LLST42:
 5135 0775 B6000000 		.4byte	.LVL102
 5136 0779 E8000000 		.4byte	.LVL108
 5137 077d 0100     		.2byte	0x1
 5138 077f 50       		.byte	0x50
 5139 0780 E8000000 		.4byte	.LVL108
 5140 0784 EC000000 		.4byte	.LVL109
 5141 0788 1300     		.2byte	0x13
 5142 078a 76       		.byte	0x76
 5143 078b 00       		.sleb128 0
 5144 078c 79       		.byte	0x79
 5145 078d 00       		.sleb128 0
 5146 078e 22       		.byte	0x22
 5147 078f 31       		.byte	0x31
 5148 0790 1C       		.byte	0x1c
 5149 0791 38       		.byte	0x38
 5150 0792 24       		.byte	0x24
 5151 0793 73       		.byte	0x73
 5152 0794 00       		.sleb128 0
 5153 0795 38       		.byte	0x38
 5154 0796 24       		.byte	0x24
 5155 0797 1C       		.byte	0x1c
 5156 0798 91       		.byte	0x91
 5157 0799 54       		.sleb128 -44
 5158 079a 06       		.byte	0x6
 5159 079b 22       		.byte	0x22
 5160 079c 9F       		.byte	0x9f
 5161 079d EC000000 		.4byte	.LVL109
 5162 07a1 F0000000 		.4byte	.LVL110
 5163 07a5 1400     		.2byte	0x14
 5164 07a7 76       		.byte	0x76
 5165 07a8 00       		.sleb128 0
 5166 07a9 79       		.byte	0x79
 5167 07aa 00       		.sleb128 0
 5168 07ab 22       		.byte	0x22
 5169 07ac 31       		.byte	0x31
 5170 07ad 1C       		.byte	0x1c
ARM GAS  C:\Users\RABBIT~1\AppData\Local\Temp\ccgw4IdU.s 			page 121


 5171 07ae 38       		.byte	0x38
 5172 07af 24       		.byte	0x24
 5173 07b0 74       		.byte	0x74
 5174 07b1 04       		.sleb128 4
 5175 07b2 06       		.byte	0x6
 5176 07b3 38       		.byte	0x38
 5177 07b4 24       		.byte	0x24
 5178 07b5 1C       		.byte	0x1c
 5179 07b6 91       		.byte	0x91
 5180 07b7 54       		.sleb128 -44
 5181 07b8 06       		.byte	0x6
 5182 07b9 22       		.byte	0x22
 5183 07ba 9F       		.byte	0x9f
 5184 07bb F0000000 		.4byte	.LVL110
 5185 07bf FF000000 		.4byte	.LVL112-1
 5186 07c3 0100     		.2byte	0x1
 5187 07c5 50       		.byte	0x50
 5188 07c6 04010000 		.4byte	.LVL113
 5189 07ca 0A010000 		.4byte	.LVL115
 5190 07ce 0100     		.2byte	0x1
 5191 07d0 50       		.byte	0x50
 5192 07d1 00000000 		.4byte	0
 5193 07d5 00000000 		.4byte	0
 5194              	.LLST43:
 5195 07d9 72000000 		.4byte	.LVL92
 5196 07dd 74000000 		.4byte	.LVL93
 5197 07e1 0100     		.2byte	0x1
 5198 07e3 53       		.byte	0x53
 5199 07e4 74000000 		.4byte	.LVL93
 5200 07e8 94000000 		.4byte	.LVL98
 5201 07ec 0200     		.2byte	0x2
 5202 07ee 91       		.byte	0x91
 5203 07ef 4C       		.sleb128 -52
 5204 07f0 94000000 		.4byte	.LVL98
 5205 07f4 96000000 		.4byte	.LVL99
 5206 07f8 0100     		.2byte	0x1
 5207 07fa 53       		.byte	0x53
 5208 07fb 96000000 		.4byte	.LVL99
 5209 07ff B4010000 		.4byte	.LVL151
 5210 0803 0200     		.2byte	0x2
 5211 0805 91       		.byte	0x91
 5212 0806 4C       		.sleb128 -52
 5213 0807 00000000 		.4byte	0
 5214 080b 00000000 		.4byte	0
 5215              	.LLST44:
 5216 080f 00000000 		.4byte	.LVL77
 5217 0813 6A000000 		.4byte	.LVL90
 5218 0817 0200     		.2byte	0x2
 5219 0819 30       		.byte	0x30
 5220 081a 9F       		.byte	0x9f
 5221 081b 6A000000 		.4byte	.LVL90
 5222 081f A6000000 		.4byte	.LVL101
 5223 0823 0100     		.2byte	0x1
 5224 0825 56       		.byte	0x56
 5225 0826 A6000000 		.4byte	.LVL101
 5226 082a B4010000 		.4byte	.LVL151
 5227 082e 0100     		.2byte	0x1
ARM GAS  C:\Users\RABBIT~1\AppData\Local\Temp\ccgw4IdU.s 			page 122


 5228 0830 5A       		.byte	0x5a
 5229 0831 B8010000 		.4byte	.LVL153
 5230 0835 BC010000 		.4byte	.LVL155
 5231 0839 0200     		.2byte	0x2
 5232 083b 30       		.byte	0x30
 5233 083c 9F       		.byte	0x9f
 5234 083d 00000000 		.4byte	0
 5235 0841 00000000 		.4byte	0
 5236              	.LLST45:
 5237 0845 00000000 		.4byte	.LVL77
 5238 0849 6A000000 		.4byte	.LVL90
 5239 084d 0200     		.2byte	0x2
 5240 084f 30       		.byte	0x30
 5241 0850 9F       		.byte	0x9f
 5242 0851 6A000000 		.4byte	.LVL90
 5243 0855 2A010000 		.4byte	.LVL124
 5244 0859 0100     		.2byte	0x1
 5245 085b 56       		.byte	0x56
 5246 085c 2E010000 		.4byte	.LVL125
 5247 0860 34010000 		.4byte	.LVL126
 5248 0864 0100     		.2byte	0x1
 5249 0866 56       		.byte	0x56
 5250 0867 B8010000 		.4byte	.LVL153
 5251 086b BC010000 		.4byte	.LVL155
 5252 086f 0200     		.2byte	0x2
 5253 0871 30       		.byte	0x30
 5254 0872 9F       		.byte	0x9f
 5255 0873 00000000 		.4byte	0
 5256 0877 00000000 		.4byte	0
 5257              	.LLST46:
 5258 087b 06000000 		.4byte	.LVL78
 5259 087f 0A000000 		.4byte	.LVL79
 5260 0883 0200     		.2byte	0x2
 5261 0885 91       		.byte	0x91
 5262 0886 50       		.sleb128 -48
 5263 0887 A6000000 		.4byte	.LVL101
 5264 088b 2A010000 		.4byte	.LVL124
 5265 088f 0100     		.2byte	0x1
 5266 0891 5B       		.byte	0x5b
 5267 0892 2E010000 		.4byte	.LVL125
 5268 0896 3E010000 		.4byte	.LVL127
 5269 089a 0100     		.2byte	0x1
 5270 089c 5B       		.byte	0x5b
 5271 089d 94010000 		.4byte	.LVL142
 5272 08a1 A0010000 		.4byte	.LVL145
 5273 08a5 0100     		.2byte	0x1
 5274 08a7 50       		.byte	0x50
 5275 08a8 A0010000 		.4byte	.LVL145
 5276 08ac A3010000 		.4byte	.LVL146-1
 5277 08b0 0100     		.2byte	0x1
 5278 08b2 51       		.byte	0x51
 5279 08b3 A8010000 		.4byte	.LVL147
 5280 08b7 AF010000 		.4byte	.LVL149-1
 5281 08bb 0100     		.2byte	0x1
 5282 08bd 50       		.byte	0x50
 5283 08be 00000000 		.4byte	0
 5284 08c2 00000000 		.4byte	0
ARM GAS  C:\Users\RABBIT~1\AppData\Local\Temp\ccgw4IdU.s 			page 123


 5285              	.LLST47:
 5286 08c6 28000000 		.4byte	.LVL82
 5287 08ca 3E000000 		.4byte	.LVL86
 5288 08ce 0100     		.2byte	0x1
 5289 08d0 50       		.byte	0x50
 5290 08d1 3E000000 		.4byte	.LVL86
 5291 08d5 A6000000 		.4byte	.LVL101
 5292 08d9 0100     		.2byte	0x1
 5293 08db 55       		.byte	0x55
 5294 08dc A6000000 		.4byte	.LVL101
 5295 08e0 18010000 		.4byte	.LVL118
 5296 08e4 0200     		.2byte	0x2
 5297 08e6 91       		.byte	0x91
 5298 08e7 40       		.sleb128 -64
 5299 08e8 18010000 		.4byte	.LVL118
 5300 08ec 20010000 		.4byte	.LVL121
 5301 08f0 0100     		.2byte	0x1
 5302 08f2 53       		.byte	0x53
 5303 08f3 20010000 		.4byte	.LVL121
 5304 08f7 2A010000 		.4byte	.LVL124
 5305 08fb 0200     		.2byte	0x2
 5306 08fd 91       		.byte	0x91
 5307 08fe 40       		.sleb128 -64
 5308 08ff 2E010000 		.4byte	.LVL125
 5309 0903 3E010000 		.4byte	.LVL127
 5310 0907 0200     		.2byte	0x2
 5311 0909 91       		.byte	0x91
 5312 090a 40       		.sleb128 -64
 5313 090b 78010000 		.4byte	.LVL137
 5314 090f 7E010000 		.4byte	.LVL138
 5315 0913 1600     		.2byte	0x16
 5316 0915 75       		.byte	0x75
 5317 0916 00       		.sleb128 0
 5318 0917 12       		.byte	0x12
 5319 0918 40       		.byte	0x40
 5320 0919 4B       		.byte	0x4b
 5321 091a 24       		.byte	0x24
 5322 091b 22       		.byte	0x22
 5323 091c 73       		.byte	0x73
 5324 091d 00       		.sleb128 0
 5325 091e 16       		.byte	0x16
 5326 091f 14       		.byte	0x14
 5327 0920 40       		.byte	0x40
 5328 0921 4B       		.byte	0x4b
 5329 0922 24       		.byte	0x24
 5330 0923 22       		.byte	0x22
 5331 0924 2B       		.byte	0x2b
 5332 0925 28       		.byte	0x28
 5333 0926 0100     		.2byte	0x1
 5334 0928 16       		.byte	0x16
 5335 0929 13       		.byte	0x13
 5336 092a 9F       		.byte	0x9f
 5337 092b 7E010000 		.4byte	.LVL138
 5338 092f 9C010000 		.4byte	.LVL143
 5339 0933 1700     		.2byte	0x17
 5340 0935 75       		.byte	0x75
 5341 0936 00       		.sleb128 0
ARM GAS  C:\Users\RABBIT~1\AppData\Local\Temp\ccgw4IdU.s 			page 124


 5342 0937 12       		.byte	0x12
 5343 0938 40       		.byte	0x40
 5344 0939 4B       		.byte	0x4b
 5345 093a 24       		.byte	0x24
 5346 093b 22       		.byte	0x22
 5347 093c 77       		.byte	0x77
 5348 093d 04       		.sleb128 4
 5349 093e 06       		.byte	0x6
 5350 093f 16       		.byte	0x16
 5351 0940 14       		.byte	0x14
 5352 0941 40       		.byte	0x40
 5353 0942 4B       		.byte	0x4b
 5354 0943 24       		.byte	0x24
 5355 0944 22       		.byte	0x22
 5356 0945 2B       		.byte	0x2b
 5357 0946 28       		.byte	0x28
 5358 0947 0100     		.2byte	0x1
 5359 0949 16       		.byte	0x16
 5360 094a 13       		.byte	0x13
 5361 094b 9F       		.byte	0x9f
 5362 094c A8010000 		.4byte	.LVL147
 5363 0950 AF010000 		.4byte	.LVL149-1
 5364 0954 1700     		.2byte	0x17
 5365 0956 75       		.byte	0x75
 5366 0957 00       		.sleb128 0
 5367 0958 12       		.byte	0x12
 5368 0959 40       		.byte	0x40
 5369 095a 4B       		.byte	0x4b
 5370 095b 24       		.byte	0x24
 5371 095c 22       		.byte	0x22
 5372 095d 77       		.byte	0x77
 5373 095e 04       		.sleb128 4
 5374 095f 06       		.byte	0x6
 5375 0960 16       		.byte	0x16
 5376 0961 14       		.byte	0x14
 5377 0962 40       		.byte	0x40
 5378 0963 4B       		.byte	0x4b
 5379 0964 24       		.byte	0x24
 5380 0965 22       		.byte	0x22
 5381 0966 2B       		.byte	0x2b
 5382 0967 28       		.byte	0x28
 5383 0968 0100     		.2byte	0x1
 5384 096a 16       		.byte	0x16
 5385 096b 13       		.byte	0x13
 5386 096c 9F       		.byte	0x9f
 5387 096d B8010000 		.4byte	.LVL153
 5388 0971 BC010000 		.4byte	.LVL155
 5389 0975 0100     		.2byte	0x1
 5390 0977 55       		.byte	0x55
 5391 0978 00000000 		.4byte	0
 5392 097c 00000000 		.4byte	0
 5393              	.LLST48:
 5394 0980 28000000 		.4byte	.LVL82
 5395 0984 14010000 		.4byte	.LVL117
 5396 0988 0100     		.2byte	0x1
 5397 098a 58       		.byte	0x58
 5398 098b 18010000 		.4byte	.LVL118
ARM GAS  C:\Users\RABBIT~1\AppData\Local\Temp\ccgw4IdU.s 			page 125


 5399 098f B4010000 		.4byte	.LVL151
 5400 0993 0100     		.2byte	0x1
 5401 0995 58       		.byte	0x58
 5402 0996 B8010000 		.4byte	.LVL153
 5403 099a BC010000 		.4byte	.LVL155
 5404 099e 0100     		.2byte	0x1
 5405 09a0 58       		.byte	0x58
 5406 09a1 00000000 		.4byte	0
 5407 09a5 00000000 		.4byte	0
 5408              	.LLST49:
 5409 09a9 2E000000 		.4byte	.LVL83
 5410 09ad 30000000 		.4byte	.LVL84
 5411 09b1 0100     		.2byte	0x1
 5412 09b3 52       		.byte	0x52
 5413 09b4 30000000 		.4byte	.LVL84
 5414 09b8 6E000000 		.4byte	.LVL91
 5415 09bc 0200     		.2byte	0x2
 5416 09be 73       		.byte	0x73
 5417 09bf 00       		.sleb128 0
 5418 09c0 6E000000 		.4byte	.LVL91
 5419 09c4 A6000000 		.4byte	.LVL101
 5420 09c8 0300     		.2byte	0x3
 5421 09ca 74       		.byte	0x74
 5422 09cb 08       		.sleb128 8
 5423 09cc 06       		.byte	0x6
 5424 09cd A6000000 		.4byte	.LVL101
 5425 09d1 B4010000 		.4byte	.LVL151
 5426 09d5 0300     		.2byte	0x3
 5427 09d7 91       		.byte	0x91
 5428 09d8 BC7F     		.sleb128 -68
 5429 09da B8010000 		.4byte	.LVL153
 5430 09de BC010000 		.4byte	.LVL155
 5431 09e2 0200     		.2byte	0x2
 5432 09e4 73       		.byte	0x73
 5433 09e5 00       		.sleb128 0
 5434 09e6 00000000 		.4byte	0
 5435 09ea 00000000 		.4byte	0
 5436              	.LLST50:
 5437 09ee 2E000000 		.4byte	.LVL83
 5438 09f2 9E000000 		.4byte	.LVL100
 5439 09f6 0200     		.2byte	0x2
 5440 09f8 30       		.byte	0x30
 5441 09f9 9F       		.byte	0x9f
 5442 09fa 9E000000 		.4byte	.LVL100
 5443 09fe A6000000 		.4byte	.LVL101
 5444 0a02 0100     		.2byte	0x1
 5445 0a04 53       		.byte	0x53
 5446 0a05 A6000000 		.4byte	.LVL101
 5447 0a09 B4010000 		.4byte	.LVL151
 5448 0a0d 0200     		.2byte	0x2
 5449 0a0f 91       		.byte	0x91
 5450 0a10 44       		.sleb128 -60
 5451 0a11 B8010000 		.4byte	.LVL153
 5452 0a15 BC010000 		.4byte	.LVL155
 5453 0a19 0200     		.2byte	0x2
 5454 0a1b 30       		.byte	0x30
 5455 0a1c 9F       		.byte	0x9f
ARM GAS  C:\Users\RABBIT~1\AppData\Local\Temp\ccgw4IdU.s 			page 126


 5456 0a1d 00000000 		.4byte	0
 5457 0a21 00000000 		.4byte	0
 5458              	.LLST51:
 5459 0a25 42000000 		.4byte	.LVL87
 5460 0a29 46000000 		.4byte	.LVL88
 5461 0a2d 0100     		.2byte	0x1
 5462 0a2f 52       		.byte	0x52
 5463 0a30 46000000 		.4byte	.LVL88
 5464 0a34 2A010000 		.4byte	.LVL124
 5465 0a38 0200     		.2byte	0x2
 5466 0a3a 91       		.byte	0x91
 5467 0a3b 48       		.sleb128 -56
 5468 0a3c 2E010000 		.4byte	.LVL125
 5469 0a40 3E010000 		.4byte	.LVL127
 5470 0a44 1B00     		.2byte	0x1b
 5471 0a46 74       		.byte	0x74
 5472 0a47 04       		.sleb128 4
 5473 0a48 06       		.byte	0x6
 5474 0a49 12       		.byte	0x12
 5475 0a4a 40       		.byte	0x40
 5476 0a4b 4B       		.byte	0x4b
 5477 0a4c 24       		.byte	0x24
 5478 0a4d 22       		.byte	0x22
 5479 0a4e 91       		.byte	0x91
 5480 0a4f BC7F     		.sleb128 -68
 5481 0a51 06       		.byte	0x6
 5482 0a52 16       		.byte	0x16
 5483 0a53 14       		.byte	0x14
 5484 0a54 40       		.byte	0x40
 5485 0a55 4B       		.byte	0x4b
 5486 0a56 24       		.byte	0x24
 5487 0a57 22       		.byte	0x22
 5488 0a58 2D       		.byte	0x2d
 5489 0a59 28       		.byte	0x28
 5490 0a5a 0100     		.2byte	0x1
 5491 0a5c 16       		.byte	0x16
 5492 0a5d 13       		.byte	0x13
 5493 0a5e 31       		.byte	0x31
 5494 0a5f 1C       		.byte	0x1c
 5495 0a60 9F       		.byte	0x9f
 5496 0a61 B8010000 		.4byte	.LVL153
 5497 0a65 BC010000 		.4byte	.LVL155
 5498 0a69 0200     		.2byte	0x2
 5499 0a6b 91       		.byte	0x91
 5500 0a6c 48       		.sleb128 -56
 5501 0a6d 00000000 		.4byte	0
 5502 0a71 00000000 		.4byte	0
 5503              	.LLST52:
 5504 0a75 78000000 		.4byte	.LVL94
 5505 0a79 84000000 		.4byte	.LVL95
 5506 0a7d 0900     		.2byte	0x9
 5507 0a7f 91       		.byte	0x91
 5508 0a80 48       		.sleb128 -56
 5509 0a81 06       		.byte	0x6
 5510 0a82 76       		.byte	0x76
 5511 0a83 00       		.sleb128 0
 5512 0a84 22       		.byte	0x22
ARM GAS  C:\Users\RABBIT~1\AppData\Local\Temp\ccgw4IdU.s 			page 127


 5513 0a85 31       		.byte	0x31
 5514 0a86 1C       		.byte	0x1c
 5515 0a87 9F       		.byte	0x9f
 5516 0a88 84000000 		.4byte	.LVL95
 5517 0a8c 86000000 		.4byte	.LVL96
 5518 0a90 0600     		.2byte	0x6
 5519 0a92 76       		.byte	0x76
 5520 0a93 00       		.sleb128 0
 5521 0a94 73       		.byte	0x73
 5522 0a95 00       		.sleb128 0
 5523 0a96 22       		.byte	0x22
 5524 0a97 9F       		.byte	0x9f
 5525 0a98 86000000 		.4byte	.LVL96
 5526 0a9c 90000000 		.4byte	.LVL97
 5527 0aa0 0900     		.2byte	0x9
 5528 0aa2 91       		.byte	0x91
 5529 0aa3 48       		.sleb128 -56
 5530 0aa4 06       		.byte	0x6
 5531 0aa5 76       		.byte	0x76
 5532 0aa6 00       		.sleb128 0
 5533 0aa7 22       		.byte	0x22
 5534 0aa8 31       		.byte	0x31
 5535 0aa9 1C       		.byte	0x1c
 5536 0aaa 9F       		.byte	0x9f
 5537 0aab 94000000 		.4byte	.LVL98
 5538 0aaf 96000000 		.4byte	.LVL99
 5539 0ab3 0900     		.2byte	0x9
 5540 0ab5 91       		.byte	0x91
 5541 0ab6 48       		.sleb128 -56
 5542 0ab7 06       		.byte	0x6
 5543 0ab8 76       		.byte	0x76
 5544 0ab9 00       		.sleb128 0
 5545 0aba 22       		.byte	0x22
 5546 0abb 31       		.byte	0x31
 5547 0abc 1C       		.byte	0x1c
 5548 0abd 9F       		.byte	0x9f
 5549 0abe 00000000 		.4byte	0
 5550 0ac2 00000000 		.4byte	0
 5551              	.LLST53:
 5552 0ac6 44010000 		.4byte	.LVL128
 5553 0aca 58010000 		.4byte	.LVL131
 5554 0ace 0100     		.2byte	0x1
 5555 0ad0 54       		.byte	0x54
 5556 0ad1 00000000 		.4byte	0
 5557 0ad5 00000000 		.4byte	0
 5558              	.LLST54:
 5559 0ad9 44010000 		.4byte	.LVL128
 5560 0add 58010000 		.4byte	.LVL131
 5561 0ae1 0100     		.2byte	0x1
 5562 0ae3 56       		.byte	0x56
 5563 0ae4 00000000 		.4byte	0
 5564 0ae8 00000000 		.4byte	0
 5565              	.LLST55:
 5566 0aec 46010000 		.4byte	.LVL129
 5567 0af0 58010000 		.4byte	.LVL131
 5568 0af4 0100     		.2byte	0x1
 5569 0af6 57       		.byte	0x57
ARM GAS  C:\Users\RABBIT~1\AppData\Local\Temp\ccgw4IdU.s 			page 128


 5570 0af7 00000000 		.4byte	0
 5571 0afb 00000000 		.4byte	0
 5572              	.LLST56:
 5573 0aff 5C010000 		.4byte	.LVL132
 5574 0b03 7E010000 		.4byte	.LVL138
 5575 0b07 0100     		.2byte	0x1
 5576 0b09 53       		.byte	0x53
 5577 0b0a 7E010000 		.4byte	.LVL138
 5578 0b0e 9C010000 		.4byte	.LVL143
 5579 0b12 0200     		.2byte	0x2
 5580 0b14 77       		.byte	0x77
 5581 0b15 04       		.sleb128 4
 5582 0b16 A8010000 		.4byte	.LVL147
 5583 0b1a AF010000 		.4byte	.LVL149-1
 5584 0b1e 0200     		.2byte	0x2
 5585 0b20 77       		.byte	0x77
 5586 0b21 04       		.sleb128 4
 5587 0b22 00000000 		.4byte	0
 5588 0b26 00000000 		.4byte	0
 5589              	.LLST57:
 5590 0b2a 62010000 		.4byte	.LVL133
 5591 0b2e 92010000 		.4byte	.LVL141
 5592 0b32 0100     		.2byte	0x1
 5593 0b34 52       		.byte	0x52
 5594 0b35 92010000 		.4byte	.LVL141
 5595 0b39 9C010000 		.4byte	.LVL143
 5596 0b3d 0800     		.2byte	0x8
 5597 0b3f 77       		.byte	0x77
 5598 0b40 08       		.sleb128 8
 5599 0b41 06       		.byte	0x6
 5600 0b42 77       		.byte	0x77
 5601 0b43 04       		.sleb128 4
 5602 0b44 06       		.byte	0x6
 5603 0b45 22       		.byte	0x22
 5604 0b46 9F       		.byte	0x9f
 5605 0b47 A8010000 		.4byte	.LVL147
 5606 0b4b AF010000 		.4byte	.LVL149-1
 5607 0b4f 0800     		.2byte	0x8
 5608 0b51 77       		.byte	0x77
 5609 0b52 08       		.sleb128 8
 5610 0b53 06       		.byte	0x6
 5611 0b54 77       		.byte	0x77
 5612 0b55 04       		.sleb128 4
 5613 0b56 06       		.byte	0x6
 5614 0b57 22       		.byte	0x22
 5615 0b58 9F       		.byte	0x9f
 5616 0b59 00000000 		.4byte	0
 5617 0b5d 00000000 		.4byte	0
 5618              	.LLST58:
 5619 0b61 6A010000 		.4byte	.LVL134
 5620 0b65 70010000 		.4byte	.LVL135
 5621 0b69 0200     		.2byte	0x2
 5622 0b6b 30       		.byte	0x30
 5623 0b6c 9F       		.byte	0x9f
 5624 0b6d 76010000 		.4byte	.LVL136
 5625 0b71 78010000 		.4byte	.LVL137
 5626 0b75 0100     		.2byte	0x1
ARM GAS  C:\Users\RABBIT~1\AppData\Local\Temp\ccgw4IdU.s 			page 129


 5627 0b77 51       		.byte	0x51
 5628 0b78 84010000 		.4byte	.LVL139
 5629 0b7c 9E010000 		.4byte	.LVL144
 5630 0b80 0100     		.2byte	0x1
 5631 0b82 51       		.byte	0x51
 5632 0b83 9E010000 		.4byte	.LVL144
 5633 0b87 A3010000 		.4byte	.LVL146-1
 5634 0b8b 0100     		.2byte	0x1
 5635 0b8d 52       		.byte	0x52
 5636 0b8e A8010000 		.4byte	.LVL147
 5637 0b92 AC010000 		.4byte	.LVL148
 5638 0b96 0100     		.2byte	0x1
 5639 0b98 51       		.byte	0x51
 5640 0b99 00000000 		.4byte	0
 5641 0b9d 00000000 		.4byte	0
 5642              	.LLST59:
 5643 0ba1 78010000 		.4byte	.LVL137
 5644 0ba5 94010000 		.4byte	.LVL142
 5645 0ba9 0100     		.2byte	0x1
 5646 0bab 50       		.byte	0x50
 5647 0bac 00000000 		.4byte	0
 5648 0bb0 00000000 		.4byte	0
 5649              	.LLST60:
 5650 0bb4 00000000 		.4byte	.LVL156
 5651 0bb8 40000000 		.4byte	.LVL160
 5652 0bbc 0100     		.2byte	0x1
 5653 0bbe 50       		.byte	0x50
 5654 0bbf 40000000 		.4byte	.LVL160
 5655 0bc3 6C000000 		.4byte	.LVL164
 5656 0bc7 0100     		.2byte	0x1
 5657 0bc9 5B       		.byte	0x5b
 5658 0bca 6C000000 		.4byte	.LVL164
 5659 0bce 8A000000 		.4byte	.LVL166
 5660 0bd2 0300     		.2byte	0x3
 5661 0bd4 91       		.byte	0x91
 5662 0bd5 DC7D     		.sleb128 -292
 5663 0bd7 8A000000 		.4byte	.LVL166
 5664 0bdb 5C010000 		.4byte	.LVL197
 5665 0bdf 0100     		.2byte	0x1
 5666 0be1 5B       		.byte	0x5b
 5667 0be2 5C010000 		.4byte	.LVL197
 5668 0be6 5E010000 		.4byte	.LVL198
 5669 0bea 0100     		.2byte	0x1
 5670 0bec 50       		.byte	0x50
 5671 0bed 5E010000 		.4byte	.LVL198
 5672 0bf1 AA010000 		.4byte	.LFE2
 5673 0bf5 0100     		.2byte	0x1
 5674 0bf7 5B       		.byte	0x5b
 5675 0bf8 00000000 		.4byte	0
 5676 0bfc 00000000 		.4byte	0
 5677              	.LLST61:
 5678 0c00 00000000 		.4byte	.LVL156
 5679 0c04 40000000 		.4byte	.LVL160
 5680 0c08 0100     		.2byte	0x1
 5681 0c0a 51       		.byte	0x51
 5682 0c0b 40000000 		.4byte	.LVL160
 5683 0c0f 5C010000 		.4byte	.LVL197
ARM GAS  C:\Users\RABBIT~1\AppData\Local\Temp\ccgw4IdU.s 			page 130


 5684 0c13 0400     		.2byte	0x4
 5685 0c15 F3       		.byte	0xf3
 5686 0c16 01       		.uleb128 0x1
 5687 0c17 51       		.byte	0x51
 5688 0c18 9F       		.byte	0x9f
 5689 0c19 5C010000 		.4byte	.LVL197
 5690 0c1d 60010000 		.4byte	.LVL199
 5691 0c21 0100     		.2byte	0x1
 5692 0c23 51       		.byte	0x51
 5693 0c24 60010000 		.4byte	.LVL199
 5694 0c28 AA010000 		.4byte	.LFE2
 5695 0c2c 0400     		.2byte	0x4
 5696 0c2e F3       		.byte	0xf3
 5697 0c2f 01       		.uleb128 0x1
 5698 0c30 51       		.byte	0x51
 5699 0c31 9F       		.byte	0x9f
 5700 0c32 00000000 		.4byte	0
 5701 0c36 00000000 		.4byte	0
 5702              	.LLST62:
 5703 0c3a 00000000 		.4byte	.LVL156
 5704 0c3e 1A000000 		.4byte	.LVL159
 5705 0c42 0100     		.2byte	0x1
 5706 0c44 52       		.byte	0x52
 5707 0c45 1A000000 		.4byte	.LVL159
 5708 0c49 AA010000 		.4byte	.LFE2
 5709 0c4d 0100     		.2byte	0x1
 5710 0c4f 58       		.byte	0x58
 5711 0c50 00000000 		.4byte	0
 5712 0c54 00000000 		.4byte	0
 5713              	.LLST63:
 5714 0c58 00000000 		.4byte	.LVL156
 5715 0c5c 08000000 		.4byte	.LVL157
 5716 0c60 0100     		.2byte	0x1
 5717 0c62 53       		.byte	0x53
 5718 0c63 08000000 		.4byte	.LVL157
 5719 0c67 AA010000 		.4byte	.LFE2
 5720 0c6b 0100     		.2byte	0x1
 5721 0c6d 55       		.byte	0x55
 5722 0c6e 00000000 		.4byte	0
 5723 0c72 00000000 		.4byte	0
 5724              	.LLST64:
 5725 0c76 00000000 		.4byte	.LVL156
 5726 0c7a 32010000 		.4byte	.LVL191
 5727 0c7e 0200     		.2byte	0x2
 5728 0c80 31       		.byte	0x31
 5729 0c81 9F       		.byte	0x9f
 5730 0c82 32010000 		.4byte	.LVL191
 5731 0c86 3A010000 		.4byte	.LVL193
 5732 0c8a 0100     		.2byte	0x1
 5733 0c8c 50       		.byte	0x50
 5734 0c8d 48010000 		.4byte	.LVL195
 5735 0c91 50010000 		.4byte	.LVL196
 5736 0c95 0100     		.2byte	0x1
 5737 0c97 50       		.byte	0x50
 5738 0c98 50010000 		.4byte	.LVL196
 5739 0c9c 5C010000 		.4byte	.LVL197
 5740 0ca0 0200     		.2byte	0x2
ARM GAS  C:\Users\RABBIT~1\AppData\Local\Temp\ccgw4IdU.s 			page 131


 5741 0ca2 30       		.byte	0x30
 5742 0ca3 9F       		.byte	0x9f
 5743 0ca4 5C010000 		.4byte	.LVL197
 5744 0ca8 5E010000 		.4byte	.LVL198
 5745 0cac 0200     		.2byte	0x2
 5746 0cae 31       		.byte	0x31
 5747 0caf 9F       		.byte	0x9f
 5748 0cb0 5E010000 		.4byte	.LVL198
 5749 0cb4 60010000 		.4byte	.LVL199
 5750 0cb8 0100     		.2byte	0x1
 5751 0cba 50       		.byte	0x50
 5752 0cbb 60010000 		.4byte	.LVL199
 5753 0cbf A4010000 		.4byte	.LVL212
 5754 0cc3 0200     		.2byte	0x2
 5755 0cc5 31       		.byte	0x31
 5756 0cc6 9F       		.byte	0x9f
 5757 0cc7 00000000 		.4byte	0
 5758 0ccb 00000000 		.4byte	0
 5759              	.LLST65:
 5760 0ccf AE000000 		.4byte	.LVL170
 5761 0cd3 02010000 		.4byte	.LVL184
 5762 0cd7 0100     		.2byte	0x1
 5763 0cd9 53       		.byte	0x53
 5764 0cda 02010000 		.4byte	.LVL184
 5765 0cde 12010000 		.4byte	.LVL187
 5766 0ce2 0300     		.2byte	0x3
 5767 0ce4 91       		.byte	0x91
 5768 0ce5 C87D     		.sleb128 -312
 5769 0ce7 28010000 		.4byte	.LVL189
 5770 0ceb 31010000 		.4byte	.LVL191-1
 5771 0cef 0100     		.2byte	0x1
 5772 0cf1 53       		.byte	0x53
 5773 0cf2 60010000 		.4byte	.LVL199
 5774 0cf6 A4010000 		.4byte	.LVL212
 5775 0cfa 0100     		.2byte	0x1
 5776 0cfc 53       		.byte	0x53
 5777 0cfd 00000000 		.4byte	0
 5778 0d01 00000000 		.4byte	0
 5779              	.LLST66:
 5780 0d05 40000000 		.4byte	.LVL160
 5781 0d09 5C010000 		.4byte	.LVL197
 5782 0d0d 0100     		.2byte	0x1
 5783 0d0f 5A       		.byte	0x5a
 5784 0d10 60010000 		.4byte	.LVL199
 5785 0d14 A4010000 		.4byte	.LVL212
 5786 0d18 0100     		.2byte	0x1
 5787 0d1a 5A       		.byte	0x5a
 5788 0d1b 00000000 		.4byte	0
 5789 0d1f 00000000 		.4byte	0
 5790              	.LLST67:
 5791 0d23 00000000 		.4byte	.LVL156
 5792 0d27 40000000 		.4byte	.LVL160
 5793 0d2b 0200     		.2byte	0x2
 5794 0d2d 30       		.byte	0x30
 5795 0d2e 9F       		.byte	0x9f
 5796 0d2f 40000000 		.4byte	.LVL160
 5797 0d33 FC000000 		.4byte	.LVL181
ARM GAS  C:\Users\RABBIT~1\AppData\Local\Temp\ccgw4IdU.s 			page 132


 5798 0d37 0100     		.2byte	0x1
 5799 0d39 56       		.byte	0x56
 5800 0d3a FE000000 		.4byte	.LVL182
 5801 0d3e 5C010000 		.4byte	.LVL197
 5802 0d42 0100     		.2byte	0x1
 5803 0d44 56       		.byte	0x56
 5804 0d45 5C010000 		.4byte	.LVL197
 5805 0d49 5E010000 		.4byte	.LVL198
 5806 0d4d 0200     		.2byte	0x2
 5807 0d4f 30       		.byte	0x30
 5808 0d50 9F       		.byte	0x9f
 5809 0d51 60010000 		.4byte	.LVL199
 5810 0d55 78010000 		.4byte	.LVL202
 5811 0d59 0100     		.2byte	0x1
 5812 0d5b 56       		.byte	0x56
 5813 0d5c 80010000 		.4byte	.LVL204
 5814 0d60 94010000 		.4byte	.LVL208
 5815 0d64 0100     		.2byte	0x1
 5816 0d66 56       		.byte	0x56
 5817 0d67 94010000 		.4byte	.LVL208
 5818 0d6b A4010000 		.4byte	.LVL212
 5819 0d6f 0300     		.2byte	0x3
 5820 0d71 08       		.byte	0x8
 5821 0d72 80       		.byte	0x80
 5822 0d73 9F       		.byte	0x9f
 5823 0d74 00000000 		.4byte	0
 5824 0d78 00000000 		.4byte	0
 5825              	.LLST68:
 5826 0d7c 00000000 		.4byte	.LVL156
 5827 0d80 40000000 		.4byte	.LVL160
 5828 0d84 0200     		.2byte	0x2
 5829 0d86 30       		.byte	0x30
 5830 0d87 9F       		.byte	0x9f
 5831 0d88 40000000 		.4byte	.LVL160
 5832 0d8c 5C010000 		.4byte	.LVL197
 5833 0d90 0100     		.2byte	0x1
 5834 0d92 59       		.byte	0x59
 5835 0d93 5C010000 		.4byte	.LVL197
 5836 0d97 5E010000 		.4byte	.LVL198
 5837 0d9b 0200     		.2byte	0x2
 5838 0d9d 30       		.byte	0x30
 5839 0d9e 9F       		.byte	0x9f
 5840 0d9f 60010000 		.4byte	.LVL199
 5841 0da3 8A010000 		.4byte	.LVL205
 5842 0da7 0100     		.2byte	0x1
 5843 0da9 59       		.byte	0x59
 5844 0daa 8C010000 		.4byte	.LVL206
 5845 0dae 98010000 		.4byte	.LVL209
 5846 0db2 0100     		.2byte	0x1
 5847 0db4 59       		.byte	0x59
 5848 0db5 98010000 		.4byte	.LVL209
 5849 0db9 9C010000 		.4byte	.LVL210
 5850 0dbd 0600     		.2byte	0x6
 5851 0dbf 74       		.byte	0x74
 5852 0dc0 00       		.sleb128 0
 5853 0dc1 7C       		.byte	0x7c
 5854 0dc2 00       		.sleb128 0
ARM GAS  C:\Users\RABBIT~1\AppData\Local\Temp\ccgw4IdU.s 			page 133


 5855 0dc3 22       		.byte	0x22
 5856 0dc4 9F       		.byte	0x9f
 5857 0dc5 9C010000 		.4byte	.LVL210
 5858 0dc9 A4010000 		.4byte	.LVL212
 5859 0dcd 0100     		.2byte	0x1
 5860 0dcf 59       		.byte	0x59
 5861 0dd0 00000000 		.4byte	0
 5862 0dd4 00000000 		.4byte	0
 5863              	.LLST69:
 5864 0dd8 B6000000 		.4byte	.LVL171
 5865 0ddc B8000000 		.4byte	.LVL172
 5866 0de0 0100     		.2byte	0x1
 5867 0de2 51       		.byte	0x51
 5868 0de3 CC000000 		.4byte	.LVL175
 5869 0de7 F6000000 		.4byte	.LVL179
 5870 0deb 0100     		.2byte	0x1
 5871 0ded 51       		.byte	0x51
 5872 0dee F6000000 		.4byte	.LVL179
 5873 0df2 FC000000 		.4byte	.LVL181
 5874 0df6 0200     		.2byte	0x2
 5875 0df8 30       		.byte	0x30
 5876 0df9 9F       		.byte	0x9f
 5877 0dfa 00010000 		.4byte	.LVL183
 5878 0dfe 0A010000 		.4byte	.LVL185
 5879 0e02 0600     		.2byte	0x6
 5880 0e04 71       		.byte	0x71
 5881 0e05 00       		.sleb128 0
 5882 0e06 74       		.byte	0x74
 5883 0e07 00       		.sleb128 0
 5884 0e08 22       		.byte	0x22
 5885 0e09 9F       		.byte	0x9f
 5886 0e0a 0A010000 		.4byte	.LVL185
 5887 0e0e 0D010000 		.4byte	.LVL186-1
 5888 0e12 0100     		.2byte	0x1
 5889 0e14 51       		.byte	0x51
 5890 0e15 32010000 		.4byte	.LVL191
 5891 0e19 38010000 		.4byte	.LVL192
 5892 0e1d 0300     		.2byte	0x3
 5893 0e1f 91       		.byte	0x91
 5894 0e20 D07D     		.sleb128 -304
 5895 0e22 38010000 		.4byte	.LVL192
 5896 0e26 44010000 		.4byte	.LVL194
 5897 0e2a 0D00     		.2byte	0xd
 5898 0e2c 91       		.byte	0x91
 5899 0e2d D07D     		.sleb128 -304
 5900 0e2f 06       		.byte	0x6
 5901 0e30 75       		.byte	0x75
 5902 0e31 18       		.sleb128 24
 5903 0e32 06       		.byte	0x6
 5904 0e33 1C       		.byte	0x1c
 5905 0e34 75       		.byte	0x75
 5906 0e35 00       		.sleb128 0
 5907 0e36 06       		.byte	0x6
 5908 0e37 22       		.byte	0x22
 5909 0e38 9F       		.byte	0x9f
 5910 0e39 44010000 		.4byte	.LVL194
 5911 0e3d 47010000 		.4byte	.LVL195-1
ARM GAS  C:\Users\RABBIT~1\AppData\Local\Temp\ccgw4IdU.s 			page 134


 5912 0e41 0100     		.2byte	0x1
 5913 0e43 50       		.byte	0x50
 5914 0e44 60010000 		.4byte	.LVL199
 5915 0e48 A4010000 		.4byte	.LVL212
 5916 0e4c 0100     		.2byte	0x1
 5917 0e4e 51       		.byte	0x51
 5918 0e4f 00000000 		.4byte	0
 5919 0e53 00000000 		.4byte	0
 5920              	.LLST70:
 5921 0e57 7E000000 		.4byte	.LVL165
 5922 0e5b 8F000000 		.4byte	.LVL168-1
 5923 0e5f 0100     		.2byte	0x1
 5924 0e61 51       		.byte	0x51
 5925 0e62 00000000 		.4byte	0
 5926 0e66 00000000 		.4byte	0
 5927              	.LLST71:
 5928 0e6a 0E000000 		.4byte	.LVL158
 5929 0e6e 40000000 		.4byte	.LVL160
 5930 0e72 0100     		.2byte	0x1
 5931 0e74 51       		.byte	0x51
 5932 0e75 40000000 		.4byte	.LVL160
 5933 0e79 5C010000 		.4byte	.LVL197
 5934 0e7d 0300     		.2byte	0x3
 5935 0e7f 91       		.byte	0x91
 5936 0e80 BC7D     		.sleb128 -324
 5937 0e82 5C010000 		.4byte	.LVL197
 5938 0e86 60010000 		.4byte	.LVL199
 5939 0e8a 0100     		.2byte	0x1
 5940 0e8c 51       		.byte	0x51
 5941 0e8d 60010000 		.4byte	.LVL199
 5942 0e91 A4010000 		.4byte	.LVL212
 5943 0e95 0300     		.2byte	0x3
 5944 0e97 91       		.byte	0x91
 5945 0e98 BC7D     		.sleb128 -324
 5946 0e9a 00000000 		.4byte	0
 5947 0e9e 00000000 		.4byte	0
 5948              	.LLST72:
 5949 0ea2 40000000 		.4byte	.LVL160
 5950 0ea6 5C010000 		.4byte	.LVL197
 5951 0eaa 0300     		.2byte	0x3
 5952 0eac 91       		.byte	0x91
 5953 0ead C47D     		.sleb128 -316
 5954 0eaf 60010000 		.4byte	.LVL199
 5955 0eb3 A4010000 		.4byte	.LVL212
 5956 0eb7 0300     		.2byte	0x3
 5957 0eb9 91       		.byte	0x91
 5958 0eba C47D     		.sleb128 -316
 5959 0ebc 00000000 		.4byte	0
 5960 0ec0 00000000 		.4byte	0
 5961              	.LLST73:
 5962 0ec4 40000000 		.4byte	.LVL160
 5963 0ec8 D4000000 		.4byte	.LVL177
 5964 0ecc 0100     		.2byte	0x1
 5965 0ece 54       		.byte	0x54
 5966 0ecf EA000000 		.4byte	.LVL178
 5967 0ed3 F6000000 		.4byte	.LVL179
 5968 0ed7 0200     		.2byte	0x2
ARM GAS  C:\Users\RABBIT~1\AppData\Local\Temp\ccgw4IdU.s 			page 135


 5969 0ed9 30       		.byte	0x30
 5970 0eda 9F       		.byte	0x9f
 5971 0edb F6000000 		.4byte	.LVL179
 5972 0edf FC000000 		.4byte	.LVL181
 5973 0ee3 0100     		.2byte	0x1
 5974 0ee5 54       		.byte	0x54
 5975 0ee6 FE000000 		.4byte	.LVL182
 5976 0eea 12010000 		.4byte	.LVL187
 5977 0eee 0100     		.2byte	0x1
 5978 0ef0 54       		.byte	0x54
 5979 0ef1 2A010000 		.4byte	.LVL190
 5980 0ef5 5C010000 		.4byte	.LVL197
 5981 0ef9 0100     		.2byte	0x1
 5982 0efb 54       		.byte	0x54
 5983 0efc 60010000 		.4byte	.LVL199
 5984 0f00 A2010000 		.4byte	.LVL211
 5985 0f04 0200     		.2byte	0x2
 5986 0f06 30       		.byte	0x30
 5987 0f07 9F       		.byte	0x9f
 5988 0f08 A2010000 		.4byte	.LVL211
 5989 0f0c A4010000 		.4byte	.LVL212
 5990 0f10 0100     		.2byte	0x1
 5991 0f12 54       		.byte	0x54
 5992 0f13 00000000 		.4byte	0
 5993 0f17 00000000 		.4byte	0
 5994              	.LLST74:
 5995 0f1b 40000000 		.4byte	.LVL160
 5996 0f1f AE000000 		.4byte	.LVL170
 5997 0f23 0200     		.2byte	0x2
 5998 0f25 30       		.byte	0x30
 5999 0f26 9F       		.byte	0x9f
 6000 0f27 AE000000 		.4byte	.LVL170
 6001 0f2b D2000000 		.4byte	.LVL176
 6002 0f2f 0100     		.2byte	0x1
 6003 0f31 52       		.byte	0x52
 6004 0f32 F6000000 		.4byte	.LVL179
 6005 0f36 F8000000 		.4byte	.LVL180
 6006 0f3a 0300     		.2byte	0x3
 6007 0f3c 72       		.byte	0x72
 6008 0f3d 01       		.sleb128 1
 6009 0f3e 9F       		.byte	0x9f
 6010 0f3f F8000000 		.4byte	.LVL180
 6011 0f43 FC000000 		.4byte	.LVL181
 6012 0f47 0100     		.2byte	0x1
 6013 0f49 52       		.byte	0x52
 6014 0f4a FE000000 		.4byte	.LVL182
 6015 0f4e 12010000 		.4byte	.LVL187
 6016 0f52 0200     		.2byte	0x2
 6017 0f54 30       		.byte	0x30
 6018 0f55 9F       		.byte	0x9f
 6019 0f56 2A010000 		.4byte	.LVL190
 6020 0f5a 31010000 		.4byte	.LVL191-1
 6021 0f5e 0100     		.2byte	0x1
 6022 0f60 52       		.byte	0x52
 6023 0f61 A2010000 		.4byte	.LVL211
 6024 0f65 A4010000 		.4byte	.LVL212
 6025 0f69 0200     		.2byte	0x2
ARM GAS  C:\Users\RABBIT~1\AppData\Local\Temp\ccgw4IdU.s 			page 136


 6026 0f6b 30       		.byte	0x30
 6027 0f6c 9F       		.byte	0x9f
 6028 0f6d 00000000 		.4byte	0
 6029 0f71 00000000 		.4byte	0
 6030              	.LLST75:
 6031 0f75 46000000 		.4byte	.LVL161
 6032 0f79 5C010000 		.4byte	.LVL197
 6033 0f7d 0100     		.2byte	0x1
 6034 0f7f 57       		.byte	0x57
 6035 0f80 60010000 		.4byte	.LVL199
 6036 0f84 A4010000 		.4byte	.LVL212
 6037 0f88 0100     		.2byte	0x1
 6038 0f8a 57       		.byte	0x57
 6039 0f8b 00000000 		.4byte	0
 6040 0f8f 00000000 		.4byte	0
 6041              	.LLST76:
 6042 0f93 EA000000 		.4byte	.LVL178
 6043 0f97 F6000000 		.4byte	.LVL179
 6044 0f9b 0100     		.2byte	0x1
 6045 0f9d 5C       		.byte	0x5c
 6046 0f9e 60010000 		.4byte	.LVL199
 6047 0fa2 A4010000 		.4byte	.LVL212
 6048 0fa6 0100     		.2byte	0x1
 6049 0fa8 5C       		.byte	0x5c
 6050 0fa9 00000000 		.4byte	0
 6051 0fad 00000000 		.4byte	0
 6052              	.LLST77:
 6053 0fb1 EA000000 		.4byte	.LVL178
 6054 0fb5 F6000000 		.4byte	.LVL179
 6055 0fb9 0100     		.2byte	0x1
 6056 0fbb 54       		.byte	0x54
 6057 0fbc 60010000 		.4byte	.LVL199
 6058 0fc0 70010000 		.4byte	.LVL200
 6059 0fc4 0100     		.2byte	0x1
 6060 0fc6 54       		.byte	0x54
 6061 0fc7 70010000 		.4byte	.LVL200
 6062 0fcb 74010000 		.4byte	.LVL201
 6063 0fcf 0200     		.2byte	0x2
 6064 0fd1 71       		.byte	0x71
 6065 0fd2 04       		.sleb128 4
 6066 0fd3 74010000 		.4byte	.LVL201
 6067 0fd7 7A010000 		.4byte	.LVL203
 6068 0fdb 0100     		.2byte	0x1
 6069 0fdd 54       		.byte	0x54
 6070 0fde 7A010000 		.4byte	.LVL203
 6071 0fe2 94010000 		.4byte	.LVL208
 6072 0fe6 0200     		.2byte	0x2
 6073 0fe8 71       		.byte	0x71
 6074 0fe9 04       		.sleb128 4
 6075 0fea 94010000 		.4byte	.LVL208
 6076 0fee 98010000 		.4byte	.LVL209
 6077 0ff2 0100     		.2byte	0x1
 6078 0ff4 54       		.byte	0x54
 6079 0ff5 98010000 		.4byte	.LVL209
 6080 0ff9 A4010000 		.4byte	.LVL212
 6081 0ffd 0200     		.2byte	0x2
 6082 0fff 71       		.byte	0x71
ARM GAS  C:\Users\RABBIT~1\AppData\Local\Temp\ccgw4IdU.s 			page 137


 6083 1000 04       		.sleb128 4
 6084 1001 00000000 		.4byte	0
 6085 1005 00000000 		.4byte	0
 6086              	.LLST78:
 6087 1009 EA000000 		.4byte	.LVL178
 6088 100d F6000000 		.4byte	.LVL179
 6089 1011 0600     		.2byte	0x6
 6090 1013 F2       		.byte	0xf2
 6091 1014 D80B0000 		.4byte	.Ldebug_info0+3032
 6092 1018 00       		.sleb128 0
 6093 1019 60010000 		.4byte	.LVL199
 6094 101d A4010000 		.4byte	.LVL212
 6095 1021 0600     		.2byte	0x6
 6096 1023 F2       		.byte	0xf2
 6097 1024 D80B0000 		.4byte	.Ldebug_info0+3032
 6098 1028 00       		.sleb128 0
 6099 1029 00000000 		.4byte	0
 6100 102d 00000000 		.4byte	0
 6101              	.LLST79:
 6102 1031 EA000000 		.4byte	.LVL178
 6103 1035 F6000000 		.4byte	.LVL179
 6104 1039 0600     		.2byte	0x6
 6105 103b F2       		.byte	0xf2
 6106 103c 630B0000 		.4byte	.Ldebug_info0+2915
 6107 1040 00       		.sleb128 0
 6108 1041 60010000 		.4byte	.LVL199
 6109 1045 A4010000 		.4byte	.LVL212
 6110 1049 0600     		.2byte	0x6
 6111 104b F2       		.byte	0xf2
 6112 104c 630B0000 		.4byte	.Ldebug_info0+2915
 6113 1050 00       		.sleb128 0
 6114 1051 00000000 		.4byte	0
 6115 1055 00000000 		.4byte	0
 6116              	.LLST80:
 6117 1059 EA000000 		.4byte	.LVL178
 6118 105d F6000000 		.4byte	.LVL179
 6119 1061 0600     		.2byte	0x6
 6120 1063 F2       		.byte	0xf2
 6121 1064 530B0000 		.4byte	.Ldebug_info0+2899
 6122 1068 00       		.sleb128 0
 6123 1069 60010000 		.4byte	.LVL199
 6124 106d A4010000 		.4byte	.LVL212
 6125 1071 0600     		.2byte	0x6
 6126 1073 F2       		.byte	0xf2
 6127 1074 530B0000 		.4byte	.Ldebug_info0+2899
 6128 1078 00       		.sleb128 0
 6129 1079 00000000 		.4byte	0
 6130 107d 00000000 		.4byte	0
 6131              	.LLST81:
 6132 1081 EA000000 		.4byte	.LVL178
 6133 1085 F6000000 		.4byte	.LVL179
 6134 1089 0200     		.2byte	0x2
 6135 108b 30       		.byte	0x30
 6136 108c 9F       		.byte	0x9f
 6137 108d 60010000 		.4byte	.LVL199
 6138 1091 A4010000 		.4byte	.LVL212
 6139 1095 0200     		.2byte	0x2
ARM GAS  C:\Users\RABBIT~1\AppData\Local\Temp\ccgw4IdU.s 			page 138


 6140 1097 30       		.byte	0x30
 6141 1098 9F       		.byte	0x9f
 6142 1099 00000000 		.4byte	0
 6143 109d 00000000 		.4byte	0
 6144              	.LLST82:
 6145 10a1 B8000000 		.4byte	.LVL172
 6146 10a5 CC000000 		.4byte	.LVL175
 6147 10a9 0100     		.2byte	0x1
 6148 10ab 55       		.byte	0x55
 6149 10ac 00000000 		.4byte	0
 6150 10b0 00000000 		.4byte	0
 6151              	.LLST83:
 6152 10b4 B8000000 		.4byte	.LVL172
 6153 10b8 CC000000 		.4byte	.LVL175
 6154 10bc 0100     		.2byte	0x1
 6155 10be 53       		.byte	0x53
 6156 10bf 00000000 		.4byte	0
 6157 10c3 00000000 		.4byte	0
 6158              	.LLST84:
 6159 10c7 BA000000 		.4byte	.LVL173
 6160 10cb CC000000 		.4byte	.LVL175
 6161 10cf 0100     		.2byte	0x1
 6162 10d1 51       		.byte	0x51
 6163 10d2 00000000 		.4byte	0
 6164 10d6 00000000 		.4byte	0
 6165              	.LLST85:
 6166 10da FE000000 		.4byte	.LVL182
 6167 10de 12010000 		.4byte	.LVL187
 6168 10e2 0A00     		.2byte	0xa
 6169 10e4 91       		.byte	0x91
 6170 10e5 00       		.sleb128 0
 6171 10e6 76       		.byte	0x76
 6172 10e7 00       		.sleb128 0
 6173 10e8 22       		.byte	0x22
 6174 10e9 0A       		.byte	0xa
 6175 10ea 2801     		.2byte	0x128
 6176 10ec 1C       		.byte	0x1c
 6177 10ed 9F       		.byte	0x9f
 6178 10ee 00000000 		.4byte	0
 6179 10f2 00000000 		.4byte	0
 6180              	.LLST86:
 6181 10f6 00000000 		.4byte	.LVL213
 6182 10fa 12000000 		.4byte	.LVL214
 6183 10fe 0100     		.2byte	0x1
 6184 1100 50       		.byte	0x50
 6185 1101 12000000 		.4byte	.LVL214
 6186 1105 86000000 		.4byte	.LFE3
 6187 1109 0100     		.2byte	0x1
 6188 110b 54       		.byte	0x54
 6189 110c 00000000 		.4byte	0
 6190 1110 00000000 		.4byte	0
 6191              	.LLST87:
 6192 1114 32000000 		.4byte	.LVL219
 6193 1118 7C000000 		.4byte	.LVL234
 6194 111c 0100     		.2byte	0x1
 6195 111e 57       		.byte	0x57
 6196 111f 00000000 		.4byte	0
ARM GAS  C:\Users\RABBIT~1\AppData\Local\Temp\ccgw4IdU.s 			page 139


 6197 1123 00000000 		.4byte	0
 6198              	.LLST88:
 6199 1127 18000000 		.4byte	.LVL216
 6200 112b 2B000000 		.4byte	.LVL218-1
 6201 112f 0200     		.2byte	0x2
 6202 1131 75       		.byte	0x75
 6203 1132 00       		.sleb128 0
 6204 1133 3C000000 		.4byte	.LVL220
 6205 1137 46000000 		.4byte	.LVL221
 6206 113b 0100     		.2byte	0x1
 6207 113d 55       		.byte	0x55
 6208 113e 46000000 		.4byte	.LVL221
 6209 1142 4C000000 		.4byte	.LVL223
 6210 1146 0300     		.2byte	0x3
 6211 1148 75       		.byte	0x75
 6212 1149 01       		.sleb128 1
 6213 114a 9F       		.byte	0x9f
 6214 114b 4C000000 		.4byte	.LVL223
 6215 114f 58000000 		.4byte	.LVL226
 6216 1153 0100     		.2byte	0x1
 6217 1155 55       		.byte	0x55
 6218 1156 7C000000 		.4byte	.LVL234
 6219 115a 7E000000 		.4byte	.LVL235
 6220 115e 0100     		.2byte	0x1
 6221 1160 53       		.byte	0x53
 6222 1161 00000000 		.4byte	0
 6223 1165 00000000 		.4byte	0
 6224              	.LLST89:
 6225 1169 14000000 		.4byte	.LVL215
 6226 116d 32000000 		.4byte	.LVL219
 6227 1171 0200     		.2byte	0x2
 6228 1173 34       		.byte	0x34
 6229 1174 9F       		.byte	0x9f
 6230 1175 7C000000 		.4byte	.LVL234
 6231 1179 7E000000 		.4byte	.LVL235
 6232 117d 0200     		.2byte	0x2
 6233 117f 34       		.byte	0x34
 6234 1180 9F       		.byte	0x9f
 6235 1181 7E000000 		.4byte	.LVL235
 6236 1185 86000000 		.4byte	.LFE3
 6237 1189 0100     		.2byte	0x1
 6238 118b 55       		.byte	0x55
 6239 118c 00000000 		.4byte	0
 6240 1190 00000000 		.4byte	0
 6241              	.LLST90:
 6242 1194 22000000 		.4byte	.LVL217
 6243 1198 7C000000 		.4byte	.LVL234
 6244 119c 0100     		.2byte	0x1
 6245 119e 56       		.byte	0x56
 6246 119f 00000000 		.4byte	0
 6247 11a3 00000000 		.4byte	0
 6248              	.LLST91:
 6249 11a7 4A000000 		.4byte	.LVL222
 6250 11ab 78000000 		.4byte	.LVL232
 6251 11af 0100     		.2byte	0x1
 6252 11b1 54       		.byte	0x54
 6253 11b2 00000000 		.4byte	0
ARM GAS  C:\Users\RABBIT~1\AppData\Local\Temp\ccgw4IdU.s 			page 140


 6254 11b6 00000000 		.4byte	0
 6255              	.LLST92:
 6256 11ba 4A000000 		.4byte	.LVL222
 6257 11be 4E000000 		.4byte	.LVL224
 6258 11c2 0400     		.2byte	0x4
 6259 11c4 91       		.byte	0x91
 6260 11c5 E87D     		.sleb128 -280
 6261 11c7 9F       		.byte	0x9f
 6262 11c8 4E000000 		.4byte	.LVL224
 6263 11cc 55000000 		.4byte	.LVL225-1
 6264 11d0 0100     		.2byte	0x1
 6265 11d2 51       		.byte	0x51
 6266 11d3 55000000 		.4byte	.LVL225-1
 6267 11d7 6C000000 		.4byte	.LVL230
 6268 11db 0400     		.2byte	0x4
 6269 11dd 91       		.byte	0x91
 6270 11de E87D     		.sleb128 -280
 6271 11e0 9F       		.byte	0x9f
 6272 11e1 6C000000 		.4byte	.LVL230
 6273 11e5 71000000 		.4byte	.LVL231-1
 6274 11e9 0100     		.2byte	0x1
 6275 11eb 51       		.byte	0x51
 6276 11ec 71000000 		.4byte	.LVL231-1
 6277 11f0 78000000 		.4byte	.LVL232
 6278 11f4 0400     		.2byte	0x4
 6279 11f6 91       		.byte	0x91
 6280 11f7 E87D     		.sleb128 -280
 6281 11f9 9F       		.byte	0x9f
 6282 11fa 00000000 		.4byte	0
 6283 11fe 00000000 		.4byte	0
 6284              	.LLST93:
 6285 1202 4A000000 		.4byte	.LVL222
 6286 1206 78000000 		.4byte	.LVL232
 6287 120a 0100     		.2byte	0x1
 6288 120c 58       		.byte	0x58
 6289 120d 00000000 		.4byte	0
 6290 1211 00000000 		.4byte	0
 6291              	.LLST94:
 6292 1215 4A000000 		.4byte	.LVL222
 6293 1219 5E000000 		.4byte	.LVL227
 6294 121d 0100     		.2byte	0x1
 6295 121f 58       		.byte	0x58
 6296 1220 64000000 		.4byte	.LVL228
 6297 1224 71000000 		.4byte	.LVL231-1
 6298 1228 0B00     		.2byte	0xb
 6299 122a 74       		.byte	0x74
 6300 122b 00       		.sleb128 0
 6301 122c 06       		.byte	0x6
 6302 122d 78       		.byte	0x78
 6303 122e 00       		.sleb128 0
 6304 122f 22       		.byte	0x22
 6305 1230 74       		.byte	0x74
 6306 1231 18       		.sleb128 24
 6307 1232 06       		.byte	0x6
 6308 1233 1C       		.byte	0x1c
 6309 1234 9F       		.byte	0x9f
 6310 1235 00000000 		.4byte	0
ARM GAS  C:\Users\RABBIT~1\AppData\Local\Temp\ccgw4IdU.s 			page 141


 6311 1239 00000000 		.4byte	0
 6312              	.LLST95:
 6313 123d 4A000000 		.4byte	.LVL222
 6314 1241 56000000 		.4byte	.LVL225
 6315 1245 0200     		.2byte	0x2
 6316 1247 34       		.byte	0x34
 6317 1248 9F       		.byte	0x9f
 6318 1249 56000000 		.4byte	.LVL225
 6319 124d 5E000000 		.4byte	.LVL227
 6320 1251 0100     		.2byte	0x1
 6321 1253 50       		.byte	0x50
 6322 1254 5E000000 		.4byte	.LVL227
 6323 1258 64000000 		.4byte	.LVL228
 6324 125c 0200     		.2byte	0x2
 6325 125e 30       		.byte	0x30
 6326 125f 9F       		.byte	0x9f
 6327 1260 64000000 		.4byte	.LVL228
 6328 1264 66000000 		.4byte	.LVL229
 6329 1268 0100     		.2byte	0x1
 6330 126a 50       		.byte	0x50
 6331 126b 72000000 		.4byte	.LVL231
 6332 126f 78000000 		.4byte	.LVL232
 6333 1273 0100     		.2byte	0x1
 6334 1275 50       		.byte	0x50
 6335 1276 00000000 		.4byte	0
 6336 127a 00000000 		.4byte	0
 6337              	.LLST96:
 6338 127e 00000000 		.4byte	.LVL236
 6339 1282 04000000 		.4byte	.LVL237
 6340 1286 0100     		.2byte	0x1
 6341 1288 50       		.byte	0x50
 6342 1289 04000000 		.4byte	.LVL237
 6343 128d 06000000 		.4byte	.LFE4
 6344 1291 0400     		.2byte	0x4
 6345 1293 F3       		.byte	0xf3
 6346 1294 01       		.uleb128 0x1
 6347 1295 50       		.byte	0x50
 6348 1296 9F       		.byte	0x9f
 6349 1297 00000000 		.4byte	0
 6350 129b 00000000 		.4byte	0
 6351              		.section	.debug_aranges,"",%progbits
 6352 0000 6C000000 		.4byte	0x6c
 6353 0004 0200     		.2byte	0x2
 6354 0006 00000000 		.4byte	.Ldebug_info0
 6355 000a 04       		.byte	0x4
 6356 000b 00       		.byte	0
 6357 000c 0000     		.2byte	0
 6358 000e 0000     		.2byte	0
 6359 0010 00000000 		.4byte	.LFB5
 6360 0014 2A000000 		.4byte	.LFE5-.LFB5
 6361 0018 00000000 		.4byte	.LFB7
 6362 001c 4C000000 		.4byte	.LFE7-.LFB7
 6363 0020 00000000 		.4byte	.LFB15
 6364 0024 28000000 		.4byte	.LFE15-.LFB15
 6365 0028 00000000 		.4byte	.LFB16
 6366 002c 32000000 		.4byte	.LFE16-.LFB16
 6367 0030 00000000 		.4byte	.LFB12
ARM GAS  C:\Users\RABBIT~1\AppData\Local\Temp\ccgw4IdU.s 			page 142


 6368 0034 70000000 		.4byte	.LFE12-.LFB12
 6369 0038 00000000 		.4byte	.LFB14
 6370 003c 64000000 		.4byte	.LFE14-.LFB14
 6371 0040 00000000 		.4byte	.LFB0
 6372 0044 92000000 		.4byte	.LFE0-.LFB0
 6373 0048 00000000 		.4byte	.LFB1
 6374 004c C2010000 		.4byte	.LFE1-.LFB1
 6375 0050 00000000 		.4byte	.LFB2
 6376 0054 AA010000 		.4byte	.LFE2-.LFB2
 6377 0058 00000000 		.4byte	.LFB3
 6378 005c 86000000 		.4byte	.LFE3-.LFB3
 6379 0060 00000000 		.4byte	.LFB4
 6380 0064 06000000 		.4byte	.LFE4-.LFB4
 6381 0068 00000000 		.4byte	0
 6382 006c 00000000 		.4byte	0
 6383              		.section	.debug_ranges,"",%progbits
 6384              	.Ldebug_ranges0:
 6385 0000 28000000 		.4byte	.LBB12
 6386 0004 68000000 		.4byte	.LBE12
 6387 0008 6A000000 		.4byte	.LBB21
 6388 000c 98000000 		.4byte	.LBE21
 6389 0010 9C000000 		.4byte	.LBB22
 6390 0014 A4000000 		.4byte	.LBE22
 6391 0018 A6000000 		.4byte	.LBB23
 6392 001c B6010000 		.4byte	.LBE23
 6393 0020 B8010000 		.4byte	.LBB24
 6394 0024 BC010000 		.4byte	.LBE24
 6395 0028 00000000 		.4byte	0
 6396 002c 00000000 		.4byte	0
 6397 0030 78000000 		.4byte	.LBB13
 6398 0034 7E000000 		.4byte	.LBE13
 6399 0038 94000000 		.4byte	.LBB14
 6400 003c 96000000 		.4byte	.LBE14
 6401 0040 9C000000 		.4byte	.LBB15
 6402 0044 9E000000 		.4byte	.LBE15
 6403 0048 00000000 		.4byte	0
 6404 004c 00000000 		.4byte	0
 6405 0050 6A010000 		.4byte	.LBB19
 6406 0054 70010000 		.4byte	.LBE19
 6407 0058 74010000 		.4byte	.LBB20
 6408 005c B0010000 		.4byte	.LBE20
 6409 0060 00000000 		.4byte	0
 6410 0064 00000000 		.4byte	0
 6411 0068 26000000 		.4byte	.LBB32
 6412 006c 30000000 		.4byte	.LBE32
 6413 0070 34000000 		.4byte	.LBB49
 6414 0074 3C000000 		.4byte	.LBE49
 6415 0078 3E000000 		.4byte	.LBB50
 6416 007c 5C010000 		.4byte	.LBE50
 6417 0080 60010000 		.4byte	.LBB51
 6418 0084 A4010000 		.4byte	.LBE51
 6419 0088 00000000 		.4byte	0
 6420 008c 00000000 		.4byte	0
 6421 0090 40000000 		.4byte	.LBB33
 6422 0094 4C010000 		.4byte	.LBE33
 6423 0098 50010000 		.4byte	.LBB47
 6424 009c 52010000 		.4byte	.LBE47
ARM GAS  C:\Users\RABBIT~1\AppData\Local\Temp\ccgw4IdU.s 			page 143


 6425 00a0 60010000 		.4byte	.LBB48
 6426 00a4 A4010000 		.4byte	.LBE48
 6427 00a8 00000000 		.4byte	0
 6428 00ac 00000000 		.4byte	0
 6429 00b0 A0000000 		.4byte	.LBB34
 6430 00b4 A2000000 		.4byte	.LBE34
 6431 00b8 CE000000 		.4byte	.LBB42
 6432 00bc D2000000 		.4byte	.LBE42
 6433 00c0 D4000000 		.4byte	.LBB43
 6434 00c4 E6000000 		.4byte	.LBE43
 6435 00c8 EA000000 		.4byte	.LBB44
 6436 00cc F6000000 		.4byte	.LBE44
 6437 00d0 60010000 		.4byte	.LBB46
 6438 00d4 A4010000 		.4byte	.LBE46
 6439 00d8 00000000 		.4byte	0
 6440 00dc 00000000 		.4byte	0
 6441 00e0 2E000000 		.4byte	.LBB56
 6442 00e4 32000000 		.4byte	.LBE56
 6443 00e8 4C000000 		.4byte	.LBB60
 6444 00ec 50000000 		.4byte	.LBE60
 6445 00f0 52000000 		.4byte	.LBB61
 6446 00f4 78000000 		.4byte	.LBE61
 6447 00f8 00000000 		.4byte	0
 6448 00fc 00000000 		.4byte	0
 6449 0100 00000000 		.4byte	.LFB5
 6450 0104 2A000000 		.4byte	.LFE5
 6451 0108 00000000 		.4byte	.LFB7
 6452 010c 4C000000 		.4byte	.LFE7
 6453 0110 00000000 		.4byte	.LFB15
 6454 0114 28000000 		.4byte	.LFE15
 6455 0118 00000000 		.4byte	.LFB16
 6456 011c 32000000 		.4byte	.LFE16
 6457 0120 00000000 		.4byte	.LFB12
 6458 0124 70000000 		.4byte	.LFE12
 6459 0128 00000000 		.4byte	.LFB14
 6460 012c 64000000 		.4byte	.LFE14
 6461 0130 00000000 		.4byte	.LFB0
 6462 0134 92000000 		.4byte	.LFE0
 6463 0138 00000000 		.4byte	.LFB1
 6464 013c C2010000 		.4byte	.LFE1
 6465 0140 00000000 		.4byte	.LFB2
 6466 0144 AA010000 		.4byte	.LFE2
 6467 0148 00000000 		.4byte	.LFB3
 6468 014c 86000000 		.4byte	.LFE3
 6469 0150 00000000 		.4byte	.LFB4
 6470 0154 06000000 		.4byte	.LFE4
 6471 0158 00000000 		.4byte	0
 6472 015c 00000000 		.4byte	0
 6473              		.section	.debug_line,"",%progbits
 6474              	.Ldebug_line0:
 6475 0000 52040000 		.section	.debug_str,"MS",%progbits,1
 6475      02007300 
 6475      00000201 
 6475      FB0E0D00 
 6475      01010101 
 6476              	.LASF10:
 6477 0000 75696E74 		.ascii	"uint16\000"
ARM GAS  C:\Users\RABBIT~1\AppData\Local\Temp\ccgw4IdU.s 			page 144


 6477      313600
 6478              	.LASF102:
 6479 0007 43795365 		.ascii	"CySetTemp\000"
 6479      7454656D 
 6479      7000
 6480              	.LASF48:
 6481 0011 726F7754 		.ascii	"rowToWrPtr\000"
 6481      6F577250 
 6481      747200
 6482              	.LASF93:
 6483 001c 746D7044 		.ascii	"tmpData\000"
 6483      61746100 
 6484              	.LASF103:
 6485 0024 43795772 		.ascii	"CyWriteRowData\000"
 6485      69746552 
 6485      6F774461 
 6485      746100
 6486              	.LASF33:
 6487 0033 63795F65 		.ascii	"cy_en_em_eeprom_status_t\000"
 6487      6E5F656D 
 6487      5F656570 
 6487      726F6D5F 
 6487      73746174 
 6488              	.LASF45:
 6489 004c 656D4565 		.ascii	"emEepromAddr\000"
 6489      70726F6D 
 6489      41646472 
 6489      00
 6490              	.LASF51:
 6491 0059 64737441 		.ascii	"dstAddr\000"
 6491      64647200 
 6492              	.LASF86:
 6493 0061 726F774E 		.ascii	"rowNum\000"
 6493      756D00
 6494              	.LASF25:
 6495 0068 6E756D62 		.ascii	"numberOfRows\000"
 6495      65724F66 
 6495      526F7773 
 6495      00
 6496              	.LASF94:
 6497 0075 6E756D57 		.ascii	"numWrites\000"
 6497      72697465 
 6497      7300
 6498              	.LASF7:
 6499 007f 6C6F6E67 		.ascii	"long long unsigned int\000"
 6499      206C6F6E 
 6499      6720756E 
 6499      7369676E 
 6499      65642069 
 6500              	.LASF67:
 6501 0096 61646472 		.ascii	"addr\000"
 6501      00
 6502              	.LASF18:
 6503 009b 65657072 		.ascii	"eepromSize\000"
 6503      6F6D5369 
 6503      7A6500
 6504              	.LASF6:
ARM GAS  C:\Users\RABBIT~1\AppData\Local\Temp\ccgw4IdU.s 			page 145


 6505 00a6 6C6F6E67 		.ascii	"long long int\000"
 6505      206C6F6E 
 6505      6720696E 
 6505      7400
 6506              	.LASF0:
 6507 00b4 7369676E 		.ascii	"signed char\000"
 6507      65642063 
 6507      68617200 
 6508              	.LASF107:
 6509 00c0 474E5520 		.ascii	"GNU C11 5.4.1 20160609 (release) [ARM/embedded-5-br"
 6509      43313120 
 6509      352E342E 
 6509      31203230 
 6509      31363036 
 6510 00f3 616E6368 		.ascii	"anch revision 237715] -mcpu=cortex-m3 -mthumb -g -O"
 6510      20726576 
 6510      6973696F 
 6510      6E203233 
 6510      37373135 
 6511 0126 73202D66 		.ascii	"s -ffunction-sections -ffat-lto-objects\000"
 6511      66756E63 
 6511      74696F6E 
 6511      2D736563 
 6511      74696F6E 
 6512              	.LASF39:
 6513 014e 57726974 		.ascii	"WriteRow\000"
 6513      65526F77 
 6513      00
 6514              	.LASF46:
 6515 0157 46696E64 		.ascii	"FindLastWrittenRow\000"
 6515      4C617374 
 6515      57726974 
 6515      74656E52 
 6515      6F7700
 6516              	.LASF32:
 6517 016a 43595F45 		.ascii	"CY_EM_EEPROM_WRITE_FAIL\000"
 6517      4D5F4545 
 6517      50524F4D 
 6517      5F575249 
 6517      54455F46 
 6518              	.LASF101:
 6519 0182 43795F45 		.ascii	"Cy_Em_EEPROM_NumWrites\000"
 6519      6D5F4545 
 6519      50524F4D 
 6519      5F4E756D 
 6519      57726974 
 6520              	.LASF4:
 6521 0199 6C6F6E67 		.ascii	"long int\000"
 6521      20696E74 
 6521      00
 6522              	.LASF22:
 6523 01a2 75736572 		.ascii	"userFlashStartAddr\000"
 6523      466C6173 
 6523      68537461 
 6523      72744164 
 6523      647200
 6524              	.LASF105:
ARM GAS  C:\Users\RABBIT~1\AppData\Local\Temp\ccgw4IdU.s 			page 146


 6525 01b5 6D656D63 		.ascii	"memcpy\000"
 6525      707900
 6526              	.LASF9:
 6527 01bc 75696E74 		.ascii	"uint8\000"
 6527      3800
 6528              	.LASF13:
 6529 01c2 646F7562 		.ascii	"double\000"
 6529      6C6500
 6530              	.LASF11:
 6531 01c9 75696E74 		.ascii	"uint32\000"
 6531      333200
 6532              	.LASF74:
 6533 01d0 61637445 		.ascii	"actEepromRowNum\000"
 6533      6570726F 
 6533      6D526F77 
 6533      4E756D00 
 6534              	.LASF95:
 6535 01e0 65654865 		.ascii	"eeHeaderDataOffset\000"
 6535      61646572 
 6535      44617461 
 6535      4F666673 
 6535      657400
 6536              	.LASF89:
 6537 01f3 7772436E 		.ascii	"wrCnt\000"
 6537      7400
 6538              	.LASF79:
 6539 01f9 75706461 		.ascii	"updateAddrFlag\000"
 6539      74654164 
 6539      6472466C 
 6539      616700
 6540              	.LASF44:
 6541 0208 6E756D52 		.ascii	"numRows\000"
 6541      6F777300 
 6542              	.LASF60:
 6543 0210 746D7052 		.ascii	"tmpRowAddr\000"
 6543      6F774164 
 6543      647200
 6544              	.LASF99:
 6545 021b 72616D42 		.ascii	"ramBuffAddr\000"
 6545      75666641 
 6545      64647200 
 6546              	.LASF20:
 6547 0227 72656475 		.ascii	"redundantCopy\000"
 6547      6E64616E 
 6547      74436F70 
 6547      7900
 6548              	.LASF97:
 6549 0235 64617461 		.ascii	"dataAddr\000"
 6549      41646472 
 6549      00
 6550              	.LASF8:
 6551 023e 756E7369 		.ascii	"unsigned int\000"
 6551      676E6564 
 6551      20696E74 
 6551      00
 6552              	.LASF53:
 6553 024b 6E756D42 		.ascii	"numBytes\000"
ARM GAS  C:\Users\RABBIT~1\AppData\Local\Temp\ccgw4IdU.s 			page 147


 6553      79746573 
 6553      00
 6554              	.LASF5:
 6555 0254 6C6F6E67 		.ascii	"long unsigned int\000"
 6555      20756E73 
 6555      69676E65 
 6555      6420696E 
 6555      7400
 6556              	.LASF84:
 6557 0266 47657441 		.ascii	"GetAddresses\000"
 6557      64647265 
 6557      73736573 
 6557      00
 6558              	.LASF41:
 6559 0273 6C617374 		.ascii	"lastWrRowPtr\000"
 6559      5772526F 
 6559      77507472 
 6559      00
 6560              	.LASF56:
 6561 0280 43686563 		.ascii	"CheckCrcAndCopy\000"
 6561      6B437263 
 6561      416E6443 
 6561      6F707900 
 6562              	.LASF82:
 6563 0290 7372634F 		.ascii	"srcOffset\000"
 6563      66667365 
 6563      7400
 6564              	.LASF69:
 6565 029a 73697A65 		.ascii	"size\000"
 6565      00
 6566              	.LASF3:
 6567 029f 73686F72 		.ascii	"short unsigned int\000"
 6567      7420756E 
 6567      7369676E 
 6567      65642069 
 6567      6E7400
 6568              	.LASF90:
 6569 02b2 61637445 		.ascii	"actEmEepromRowNum\000"
 6569      6D456570 
 6569      726F6D52 
 6569      6F774E75 
 6569      6D00
 6570              	.LASF49:
 6571 02c4 726F7754 		.ascii	"rowToRdPtr\000"
 6571      6F526450 
 6571      747200
 6572              	.LASF92:
 6573 02cf 656D4565 		.ascii	"emEepromRowRdAddr\000"
 6573      70726F6D 
 6573      526F7752 
 6573      64416464 
 6573      7200
 6574              	.LASF68:
 6575 02e1 65657072 		.ascii	"eepromData\000"
 6575      6F6D4461 
 6575      746100
 6576              	.LASF73:
ARM GAS  C:\Users\RABBIT~1\AppData\Local\Temp\ccgw4IdU.s 			page 148


 6577 02ec 73746172 		.ascii	"startRowAddr\000"
 6577      74526F77 
 6577      41646472 
 6577      00
 6578              	.LASF71:
 6579 02f9 63757245 		.ascii	"curEepromBaseAddr\000"
 6579      6570726F 
 6579      6D426173 
 6579      65416464 
 6579      7200
 6580              	.LASF66:
 6581 030b 43795F45 		.ascii	"Cy_Em_EEPROM_Read\000"
 6581      6D5F4545 
 6581      50524F4D 
 6581      5F526561 
 6581      6400
 6582              	.LASF109:
 6583 031d 433A5C55 		.ascii	"C:\\Users\\Rabbit Hole Shipping\\Google Drive\\SCSI"
 6583      73657273 
 6583      5C526162 
 6583      62697420 
 6583      486F6C65 
 6584 034c 3253445C 		.ascii	"2SD\\software\\SCSI2SD\\v5.2-eth\\USB_Bootloader.cy"
 6584      736F6674 
 6584      77617265 
 6584      5C534353 
 6584      49325344 
 6585 037b 64736E00 		.ascii	"dsn\000"
 6586              	.LASF98:
 6587 037f 45726173 		.ascii	"EraseRow\000"
 6587      65526F77 
 6587      00
 6588              	.LASF29:
 6589 0388 43595F45 		.ascii	"CY_EM_EEPROM_BAD_PARAM\000"
 6589      4D5F4545 
 6589      50524F4D 
 6589      5F424144 
 6589      5F504152 
 6590              	.LASF30:
 6591 039f 43595F45 		.ascii	"CY_EM_EEPROM_BAD_CHECKSUM\000"
 6591      4D5F4545 
 6591      50524F4D 
 6591      5F424144 
 6591      5F434845 
 6592              	.LASF17:
 6593 03b9 73697A65 		.ascii	"sizetype\000"
 6593      74797065 
 6593      00
 6594              	.LASF16:
 6595 03c2 6C6F6E67 		.ascii	"long double\000"
 6595      20646F75 
 6595      626C6500 
 6596              	.LASF100:
 6597 03ce 43795F45 		.ascii	"Cy_Em_EEPROM_Erase\000"
 6597      6D5F4545 
 6597      50524F4D 
 6597      5F457261 
ARM GAS  C:\Users\RABBIT~1\AppData\Local\Temp\ccgw4IdU.s 			page 149


 6597      736500
 6598              	.LASF88:
 6599 03e1 43795F45 		.ascii	"Cy_Em_EEPROM_Write\000"
 6599      6D5F4545 
 6599      50524F4D 
 6599      5F577269 
 6599      746500
 6600              	.LASF42:
 6601 03f4 7365714E 		.ascii	"seqNum\000"
 6601      756D00
 6602              	.LASF27:
 6603 03fb 63795F73 		.ascii	"cy_stc_eeprom_context_t\000"
 6603      74635F65 
 6603      6570726F 
 6603      6D5F636F 
 6603      6E746578 
 6604              	.LASF47:
 6605 0413 4765744E 		.ascii	"GetNextRowToWrite\000"
 6605      65787452 
 6605      6F77546F 
 6605      57726974 
 6605      6500
 6606              	.LASF57:
 6607 0425 46696C6C 		.ascii	"FillChecksum\000"
 6607      43686563 
 6607      6B73756D 
 6607      00
 6608              	.LASF61:
 6609 0432 43686563 		.ascii	"CheckRanges\000"
 6609      6B52616E 
 6609      67657300 
 6610              	.LASF59:
 6611 043e 77724164 		.ascii	"wrAddr\000"
 6611      647200
 6612              	.LASF37:
 6613 0445 61727261 		.ascii	"arrayId\000"
 6613      79496400 
 6614              	.LASF12:
 6615 044d 666C6F61 		.ascii	"float\000"
 6615      7400
 6616              	.LASF63:
 6617 0453 656E6441 		.ascii	"endAddr\000"
 6617      64647200 
 6618              	.LASF31:
 6619 045b 43595F45 		.ascii	"CY_EM_EEPROM_BAD_DATA\000"
 6619      4D5F4545 
 6619      50524F4D 
 6619      5F424144 
 6619      5F444154 
 6620              	.LASF24:
 6621 0471 776C456E 		.ascii	"wlEndAddr\000"
 6621      64416464 
 6621      7200
 6622              	.LASF108:
 6623 047b 47656E65 		.ascii	"Generated_Source\\PSoC5\\cy_em_eeprom.c\000"
 6623      72617465 
 6623      645F536F 
ARM GAS  C:\Users\RABBIT~1\AppData\Local\Temp\ccgw4IdU.s 			page 150


 6623      75726365 
 6623      5C50536F 
 6624              	.LASF1:
 6625 04a1 756E7369 		.ascii	"unsigned char\000"
 6625      676E6564 
 6625      20636861 
 6625      7200
 6626              	.LASF38:
 6627 04af 726F7749 		.ascii	"rowId\000"
 6627      6400
 6628              	.LASF34:
 6629 04b5 726F7741 		.ascii	"rowAddr\000"
 6629      64647200 
 6630              	.LASF2:
 6631 04bd 73686F72 		.ascii	"short int\000"
 6631      7420696E 
 6631      7400
 6632              	.LASF43:
 6633 04c7 70726576 		.ascii	"prevSeqNum\000"
 6633      5365714E 
 6633      756D00
 6634              	.LASF104:
 6635 04d2 4379466C 		.ascii	"CyFlushCache\000"
 6635      75736843 
 6635      61636865 
 6635      00
 6636              	.LASF96:
 6637 04df 736B6970 		.ascii	"skipOperation\000"
 6637      4F706572 
 6637      6174696F 
 6637      6E00
 6638              	.LASF76:
 6639 04ed 64617461 		.ascii	"dataStartEepromRowNum\000"
 6639      53746172 
 6639      74456570 
 6639      726F6D52 
 6639      6F774E75 
 6640              	.LASF65:
 6641 0503 43795F45 		.ascii	"Cy_Em_EEPROM_Init\000"
 6641      6D5F4545 
 6641      50524F4D 
 6641      5F496E69 
 6641      7400
 6642              	.LASF54:
 6643 0515 77726974 		.ascii	"writeRamBuffer\000"
 6643      6552616D 
 6643      42756666 
 6643      657200
 6644              	.LASF52:
 6645 0524 726F774F 		.ascii	"rowOffset\000"
 6645      66667365 
 6645      7400
 6646              	.LASF55:
 6647 052e 72635374 		.ascii	"rcStartRowAddr\000"
 6647      61727452 
 6647      6F774164 
 6647      647200
ARM GAS  C:\Users\RABBIT~1\AppData\Local\Temp\ccgw4IdU.s 			page 151


 6648              	.LASF14:
 6649 053d 63686172 		.ascii	"char\000"
 6649      00
 6650              	.LASF62:
 6651 0542 636F6E66 		.ascii	"config\000"
 6651      696700
 6652              	.LASF70:
 6653 0549 6E756D42 		.ascii	"numBytesToRead\000"
 6653      79746573 
 6653      546F5265 
 6653      616400
 6654              	.LASF50:
 6655 0558 73746172 		.ascii	"startAddr\000"
 6655      74416464 
 6655      7200
 6656              	.LASF87:
 6657 0562 736B6970 		.ascii	"skip\000"
 6657      00
 6658              	.LASF85:
 6659 0567 6F666673 		.ascii	"offset\000"
 6659      657400
 6660              	.LASF36:
 6661 056e 636F6E74 		.ascii	"context\000"
 6661      65787400 
 6662              	.LASF26:
 6663 0576 6C617374 		.ascii	"lastWrRowAddr\000"
 6663      5772526F 
 6663      77416464 
 6663      7200
 6664              	.LASF72:
 6665 0584 63757252 		.ascii	"curRowOffset\000"
 6665      6F774F66 
 6665      66736574 
 6665      00
 6666              	.LASF23:
 6667 0591 63795F73 		.ascii	"cy_stc_eeprom_config_t\000"
 6667      74635F65 
 6667      6570726F 
 6667      6D5F636F 
 6667      6E666967 
 6668              	.LASF78:
 6669 05a8 72645369 		.ascii	"rdSize\000"
 6669      7A6500
 6670              	.LASF19:
 6671 05af 77656172 		.ascii	"wearLevelingFactor\000"
 6671      4C657665 
 6671      6C696E67 
 6671      46616374 
 6671      6F7200
 6672              	.LASF106:
 6673 05c2 6D656D73 		.ascii	"memset\000"
 6673      657400
 6674              	.LASF58:
 6675 05c9 72644164 		.ascii	"rdAddr\000"
 6675      647200
 6676              	.LASF83:
 6677 05d0 6473744F 		.ascii	"dstOffset\000"
ARM GAS  C:\Users\RABBIT~1\AppData\Local\Temp\ccgw4IdU.s 			page 152


 6677      66667365 
 6677      7400
 6678              	.LASF64:
 6679 05da 47657452 		.ascii	"GetRowAddrBySeqNum\000"
 6679      6F774164 
 6679      64724279 
 6679      5365714E 
 6679      756D00
 6680              	.LASF28:
 6681 05ed 43595F45 		.ascii	"CY_EM_EEPROM_SUCCESS\000"
 6681      4D5F4545 
 6681      50524F4D 
 6681      5F535543 
 6681      43455353 
 6682              	.LASF21:
 6683 0602 626C6F63 		.ascii	"blockingWrite\000"
 6683      6B696E67 
 6683      57726974 
 6683      6500
 6684              	.LASF75:
 6685 0610 63757252 		.ascii	"curRdEepromRowNum\000"
 6685      64456570 
 6685      726F6D52 
 6685      6F774E75 
 6685      6D00
 6686              	.LASF15:
 6687 0622 63797374 		.ascii	"cystatus\000"
 6687      61747573 
 6687      00
 6688              	.LASF40:
 6689 062b 43616C63 		.ascii	"CalcChecksum\000"
 6689      43686563 
 6689      6B73756D 
 6689      00
 6690              	.LASF35:
 6691 0638 726F7744 		.ascii	"rowData\000"
 6691      61746100 
 6692              	.LASF81:
 6693 0640 64617461 		.ascii	"dataEndEepromRowNum\000"
 6693      456E6445 
 6693      6570726F 
 6693      6D526F77 
 6693      4E756D00 
 6694              	.LASF80:
 6695 0654 6E756D52 		.ascii	"numRowReads\000"
 6695      6F775265 
 6695      61647300 
 6696              	.LASF91:
 6697 0660 656D4565 		.ascii	"emEepromRowAddr\000"
 6697      70726F6D 
 6697      526F7741 
 6697      64647200 
 6698              	.LASF77:
 6699 0670 65654461 		.ascii	"eeData\000"
 6699      746100
 6700              		.ident	"GCC: (GNU Tools for ARM Embedded Processors) 5.4.1 20160609 (release) [ARM/embedded-5-bran
