ARM GAS  C:\Users\RABBIT~1\AppData\Local\Temp\cchp9hGz.s 			page 1


   1              		.syntax unified
   2              		.cpu cortex-m3
   3              		.fpu softvfp
   4              		.eabi_attribute 20, 1
   5              		.eabi_attribute 21, 1
   6              		.eabi_attribute 23, 3
   7              		.eabi_attribute 24, 1
   8              		.eabi_attribute 25, 1
   9              		.eabi_attribute 26, 1
  10              		.eabi_attribute 30, 4
  11              		.eabi_attribute 34, 1
  12              		.eabi_attribute 18, 4
  13              		.thumb
  14              		.syntax unified
  15              		.file	"CyFlash.c"
  16              		.text
  17              	.Ltext0:
  18              		.cfi_sections	.debug_frame
  19              		.section	.text.CyFlash_Start,"ax",%progbits
  20              		.align	1
  21              		.global	CyFlash_Start
  22              		.thumb
  23              		.thumb_func
  24              		.type	CyFlash_Start, %function
  25              	CyFlash_Start:
  26              	.LFB0:
  27              		.file 1 "Generated_Source\\PSoC5\\CyFlash.c"
   1:Generated_Source\PSoC5/CyFlash.c **** /*******************************************************************************
   2:Generated_Source\PSoC5/CyFlash.c **** * File Name: CyFlash.c
   3:Generated_Source\PSoC5/CyFlash.c **** * Version 4.20
   4:Generated_Source\PSoC5/CyFlash.c **** *
   5:Generated_Source\PSoC5/CyFlash.c **** *  Description:
   6:Generated_Source\PSoC5/CyFlash.c **** *   Provides an API for the FLASH/EEPROM.
   7:Generated_Source\PSoC5/CyFlash.c **** *
   8:Generated_Source\PSoC5/CyFlash.c **** *  Note:
   9:Generated_Source\PSoC5/CyFlash.c **** *   This code is endian agnostic.
  10:Generated_Source\PSoC5/CyFlash.c **** *
  11:Generated_Source\PSoC5/CyFlash.c **** *  Note:
  12:Generated_Source\PSoC5/CyFlash.c **** *   Documentation of the API's in this file is located in the
  13:Generated_Source\PSoC5/CyFlash.c **** *   System Reference Guide provided with PSoC Creator.
  14:Generated_Source\PSoC5/CyFlash.c **** *
  15:Generated_Source\PSoC5/CyFlash.c **** ********************************************************************************
  16:Generated_Source\PSoC5/CyFlash.c **** * Copyright 2008-2014, Cypress Semiconductor Corporation. All rights reserved.
  17:Generated_Source\PSoC5/CyFlash.c **** * You may use this file only in accordance with the license, terms, conditions,
  18:Generated_Source\PSoC5/CyFlash.c **** * disclaimers, and limitations in the end user license agreement accompanying
  19:Generated_Source\PSoC5/CyFlash.c **** * the software package with which this file was provided.
  20:Generated_Source\PSoC5/CyFlash.c **** *******************************************************************************/
  21:Generated_Source\PSoC5/CyFlash.c **** 
  22:Generated_Source\PSoC5/CyFlash.c **** #include "CyFlash.h"
  23:Generated_Source\PSoC5/CyFlash.c **** 
  24:Generated_Source\PSoC5/CyFlash.c **** /*  The number of EEPROM arrays */
  25:Generated_Source\PSoC5/CyFlash.c **** #define CY_FLASH_EEPROM_NUMBER_ARRAYS                 (1u)
  26:Generated_Source\PSoC5/CyFlash.c **** 
  27:Generated_Source\PSoC5/CyFlash.c **** 
  28:Generated_Source\PSoC5/CyFlash.c **** /*******************************************************************************
  29:Generated_Source\PSoC5/CyFlash.c **** * Holds the die temperature, updated by CySetTemp(). Used for flash writing.
  30:Generated_Source\PSoC5/CyFlash.c **** * The first byte is the sign of the temperature (0 = negative, 1 = positive).
ARM GAS  C:\Users\RABBIT~1\AppData\Local\Temp\cchp9hGz.s 			page 2


  31:Generated_Source\PSoC5/CyFlash.c **** * The second byte is the magnitude.
  32:Generated_Source\PSoC5/CyFlash.c **** *******************************************************************************/
  33:Generated_Source\PSoC5/CyFlash.c **** uint8 dieTemperature[CY_FLASH_DIE_TEMP_DATA_SIZE];
  34:Generated_Source\PSoC5/CyFlash.c **** 
  35:Generated_Source\PSoC5/CyFlash.c **** #if(CYDEV_ECC_ENABLE == 0)
  36:Generated_Source\PSoC5/CyFlash.c ****     static uint8 * rowBuffer = 0;
  37:Generated_Source\PSoC5/CyFlash.c **** #endif  /* (CYDEV_ECC_ENABLE == 0) */
  38:Generated_Source\PSoC5/CyFlash.c **** 
  39:Generated_Source\PSoC5/CyFlash.c **** 
  40:Generated_Source\PSoC5/CyFlash.c **** static cystatus CySetTempInt(void);
  41:Generated_Source\PSoC5/CyFlash.c **** static cystatus CyFlashGetSpcAlgorithm(void);
  42:Generated_Source\PSoC5/CyFlash.c **** 
  43:Generated_Source\PSoC5/CyFlash.c **** 
  44:Generated_Source\PSoC5/CyFlash.c **** /*******************************************************************************
  45:Generated_Source\PSoC5/CyFlash.c **** * Function Name: CyFlash_Start
  46:Generated_Source\PSoC5/CyFlash.c **** ********************************************************************************
  47:Generated_Source\PSoC5/CyFlash.c **** *
  48:Generated_Source\PSoC5/CyFlash.c **** * Summary:
  49:Generated_Source\PSoC5/CyFlash.c **** *  Enable the Flash.
  50:Generated_Source\PSoC5/CyFlash.c **** *
  51:Generated_Source\PSoC5/CyFlash.c **** * Parameters:
  52:Generated_Source\PSoC5/CyFlash.c **** *  None
  53:Generated_Source\PSoC5/CyFlash.c **** *
  54:Generated_Source\PSoC5/CyFlash.c **** * Return:
  55:Generated_Source\PSoC5/CyFlash.c **** *  None
  56:Generated_Source\PSoC5/CyFlash.c **** *
  57:Generated_Source\PSoC5/CyFlash.c **** *******************************************************************************/
  58:Generated_Source\PSoC5/CyFlash.c **** void CyFlash_Start(void) 
  59:Generated_Source\PSoC5/CyFlash.c **** {
  28              		.loc 1 59 0
  29              		.cfi_startproc
  30              		@ args = 0, pretend = 0, frame = 0
  31              		@ frame_needed = 0, uses_anonymous_args = 0
  32 0000 08B5     		push	{r3, lr}
  33              		.cfi_def_cfa_offset 8
  34              		.cfi_offset 3, -8
  35              		.cfi_offset 14, -4
  60:Generated_Source\PSoC5/CyFlash.c ****     uint8 interruptState;
  61:Generated_Source\PSoC5/CyFlash.c **** 
  62:Generated_Source\PSoC5/CyFlash.c ****     interruptState = CyEnterCriticalSection();
  36              		.loc 1 62 0
  37 0002 FFF7FEFF 		bl	CyEnterCriticalSection
  38              	.LVL0:
  63:Generated_Source\PSoC5/CyFlash.c **** 
  64:Generated_Source\PSoC5/CyFlash.c **** 
  65:Generated_Source\PSoC5/CyFlash.c ****     /***************************************************************************
  66:Generated_Source\PSoC5/CyFlash.c ****     * Enable SPC clock. This also internally enables the 36MHz IMO, since this
  67:Generated_Source\PSoC5/CyFlash.c ****     * is required for the SPC to function.
  68:Generated_Source\PSoC5/CyFlash.c ****     ***************************************************************************/
  69:Generated_Source\PSoC5/CyFlash.c ****     CY_FLASH_PM_ACT_CFG0_REG    |= CY_FLASH_PM_ACT_CFG0_EN_CLK_SPC;
  39              		.loc 1 69 0
  40 0006 0F4A     		ldr	r2, .L6
  41 0008 1378     		ldrb	r3, [r2]	@ zero_extendqisi2
  42 000a 43F00803 		orr	r3, r3, #8
  43 000e 1370     		strb	r3, [r2]
  70:Generated_Source\PSoC5/CyFlash.c ****     CY_FLASH_PM_ALTACT_CFG0_REG |= CY_FLASH_PM_ALTACT_CFG0_EN_CLK_SPC;
  44              		.loc 1 70 0
ARM GAS  C:\Users\RABBIT~1\AppData\Local\Temp\cchp9hGz.s 			page 3


  45 0010 137C     		ldrb	r3, [r2, #16]	@ zero_extendqisi2
  46 0012 43F00803 		orr	r3, r3, #8
  47 0016 1374     		strb	r3, [r2, #16]
  71:Generated_Source\PSoC5/CyFlash.c **** 
  72:Generated_Source\PSoC5/CyFlash.c **** 
  73:Generated_Source\PSoC5/CyFlash.c ****     /***************************************************************************
  74:Generated_Source\PSoC5/CyFlash.c ****     * The wake count defines the number of Bus Clock cycles it takes for the
  75:Generated_Source\PSoC5/CyFlash.c ****     * flash or eeprom to wake up from a low power mode independent of the chip
  76:Generated_Source\PSoC5/CyFlash.c ****     * power mode. Wake up time for these blocks is 5 us.
  77:Generated_Source\PSoC5/CyFlash.c ****     * The granularity of this register is 2 Bus Clock cycles, so a value of 0x1E
  78:Generated_Source\PSoC5/CyFlash.c ****     * (30d) defines the wake up time as 60 cycles of the Bus Clock.
  79:Generated_Source\PSoC5/CyFlash.c ****     * This register needs to be written with a value dependent on the Bus Clock
  80:Generated_Source\PSoC5/CyFlash.c ****     * frequency so that the duration of the cycles is equal to or greater than
  81:Generated_Source\PSoC5/CyFlash.c ****     * the 5 us delay required.
  82:Generated_Source\PSoC5/CyFlash.c ****     ***************************************************************************/
  83:Generated_Source\PSoC5/CyFlash.c ****     CY_FLASH_SPC_FM_EE_WAKE_CNT_REG = CY_FLASH_SPC_FM_EE_WAKE_CNT_80MHZ;
  48              		.loc 1 83 0
  49 0018 0B4B     		ldr	r3, .L6+4
  50 001a C822     		movs	r2, #200
  51 001c 1A70     		strb	r2, [r3]
  84:Generated_Source\PSoC5/CyFlash.c **** 
  85:Generated_Source\PSoC5/CyFlash.c **** 
  86:Generated_Source\PSoC5/CyFlash.c ****     /***************************************************************************
  87:Generated_Source\PSoC5/CyFlash.c ****     * Enable flash. Active flash macros consume current, but re-enabling a
  88:Generated_Source\PSoC5/CyFlash.c ****     * disabled flash macro takes 5us. If the CPU attempts to fetch out of the
  89:Generated_Source\PSoC5/CyFlash.c ****     * macro during that time, it will be stalled. This bit allows the flash to
  90:Generated_Source\PSoC5/CyFlash.c ****     * be enabled even if the CPU is disabled, which allows a quicker return to
  91:Generated_Source\PSoC5/CyFlash.c ****     * code execution.
  92:Generated_Source\PSoC5/CyFlash.c ****     ***************************************************************************/
  93:Generated_Source\PSoC5/CyFlash.c ****     CY_FLASH_PM_ACT_CFG12_REG    |= CY_FLASH_PM_ACT_CFG12_EN_FM;
  52              		.loc 1 93 0
  53 001e 0B4A     		ldr	r2, .L6+8
  54 0020 1378     		ldrb	r3, [r2]	@ zero_extendqisi2
  55 0022 43F00F03 		orr	r3, r3, #15
  56 0026 1370     		strb	r3, [r2]
  94:Generated_Source\PSoC5/CyFlash.c ****     CY_FLASH_PM_ALTACT_CFG12_REG |= CY_FLASH_PM_ALTACT_CFG12_EN_FM;
  57              		.loc 1 94 0
  58 0028 137C     		ldrb	r3, [r2, #16]	@ zero_extendqisi2
  59 002a 43F00F03 		orr	r3, r3, #15
  60 002e 1374     		strb	r3, [r2, #16]
  95:Generated_Source\PSoC5/CyFlash.c **** 
  96:Generated_Source\PSoC5/CyFlash.c ****     while(0u == (CY_FLASH_SPC_FM_EE_CR_REG & CY_FLASH_EE_EE_AWAKE))
  61              		.loc 1 96 0
  62 0030 02F55572 		add	r2, r2, #852
  63              	.L2:
  64              		.loc 1 96 0 is_stmt 0 discriminator 1
  65 0034 1378     		ldrb	r3, [r2]	@ zero_extendqisi2
  66 0036 9B06     		lsls	r3, r3, #26
  67 0038 FCD5     		bpl	.L2
  97:Generated_Source\PSoC5/CyFlash.c ****     {
  98:Generated_Source\PSoC5/CyFlash.c ****         /* Non-zero status denotes that the EEPROM/Flash is awake & powered. */
  99:Generated_Source\PSoC5/CyFlash.c ****     }
 100:Generated_Source\PSoC5/CyFlash.c **** 
 101:Generated_Source\PSoC5/CyFlash.c ****     CyExitCriticalSection(interruptState);
 102:Generated_Source\PSoC5/CyFlash.c **** }
  68              		.loc 1 102 0 is_stmt 1
  69 003a BDE80840 		pop	{r3, lr}
ARM GAS  C:\Users\RABBIT~1\AppData\Local\Temp\cchp9hGz.s 			page 4


  70              		.cfi_restore 14
  71              		.cfi_restore 3
  72              		.cfi_def_cfa_offset 0
 101:Generated_Source\PSoC5/CyFlash.c **** }
  73              		.loc 1 101 0
  74 003e FFF7FEBF 		b	CyExitCriticalSection
  75              	.LVL1:
  76              	.L7:
  77 0042 00BF     		.align	2
  78              	.L6:
  79 0044 A0430040 		.word	1073759136
  80 0048 01470040 		.word	1073760001
  81 004c AC430040 		.word	1073759148
  82              		.cfi_endproc
  83              	.LFE0:
  84              		.size	CyFlash_Start, .-CyFlash_Start
  85              		.section	.text.CyFlash_Stop,"ax",%progbits
  86              		.align	1
  87              		.global	CyFlash_Stop
  88              		.thumb
  89              		.thumb_func
  90              		.type	CyFlash_Stop, %function
  91              	CyFlash_Stop:
  92              	.LFB1:
 103:Generated_Source\PSoC5/CyFlash.c **** 
 104:Generated_Source\PSoC5/CyFlash.c **** 
 105:Generated_Source\PSoC5/CyFlash.c **** /*******************************************************************************
 106:Generated_Source\PSoC5/CyFlash.c **** * Function Name: CyFlash_Stop
 107:Generated_Source\PSoC5/CyFlash.c **** ********************************************************************************
 108:Generated_Source\PSoC5/CyFlash.c **** *
 109:Generated_Source\PSoC5/CyFlash.c **** * Summary:
 110:Generated_Source\PSoC5/CyFlash.c **** *  Disable the Flash.
 111:Generated_Source\PSoC5/CyFlash.c **** *
 112:Generated_Source\PSoC5/CyFlash.c **** * Parameters:
 113:Generated_Source\PSoC5/CyFlash.c **** *  None
 114:Generated_Source\PSoC5/CyFlash.c **** *
 115:Generated_Source\PSoC5/CyFlash.c **** * Return:
 116:Generated_Source\PSoC5/CyFlash.c **** *  None
 117:Generated_Source\PSoC5/CyFlash.c **** *
 118:Generated_Source\PSoC5/CyFlash.c **** * Side Effects:
 119:Generated_Source\PSoC5/CyFlash.c **** *  This setting is ignored as long as the CPU is currently running.  This will
 120:Generated_Source\PSoC5/CyFlash.c **** *  only take effect when the CPU is later disabled.
 121:Generated_Source\PSoC5/CyFlash.c **** *
 122:Generated_Source\PSoC5/CyFlash.c **** *******************************************************************************/
 123:Generated_Source\PSoC5/CyFlash.c **** void CyFlash_Stop(void) 
 124:Generated_Source\PSoC5/CyFlash.c **** {
  93              		.loc 1 124 0
  94              		.cfi_startproc
  95              		@ args = 0, pretend = 0, frame = 0
  96              		@ frame_needed = 0, uses_anonymous_args = 0
  97 0000 08B5     		push	{r3, lr}
  98              		.cfi_def_cfa_offset 8
  99              		.cfi_offset 3, -8
 100              		.cfi_offset 14, -4
 125:Generated_Source\PSoC5/CyFlash.c ****     uint8 interruptState;
 126:Generated_Source\PSoC5/CyFlash.c **** 
 127:Generated_Source\PSoC5/CyFlash.c ****     interruptState = CyEnterCriticalSection();
ARM GAS  C:\Users\RABBIT~1\AppData\Local\Temp\cchp9hGz.s 			page 5


 101              		.loc 1 127 0
 102 0002 FFF7FEFF 		bl	CyEnterCriticalSection
 103              	.LVL2:
 128:Generated_Source\PSoC5/CyFlash.c **** 
 129:Generated_Source\PSoC5/CyFlash.c ****     CY_FLASH_PM_ACT_CFG12_REG    &= ((uint8)(~CY_FLASH_PM_ACT_CFG12_EN_FM));
 104              		.loc 1 129 0
 105 0006 064A     		ldr	r2, .L9
 106 0008 1378     		ldrb	r3, [r2]	@ zero_extendqisi2
 107 000a 03F0F003 		and	r3, r3, #240
 108 000e 1370     		strb	r3, [r2]
 130:Generated_Source\PSoC5/CyFlash.c ****     CY_FLASH_PM_ALTACT_CFG12_REG &= ((uint8)(~CY_FLASH_PM_ALTACT_CFG12_EN_FM));
 109              		.loc 1 130 0
 110 0010 137C     		ldrb	r3, [r2, #16]	@ zero_extendqisi2
 111 0012 03F0F003 		and	r3, r3, #240
 112 0016 1374     		strb	r3, [r2, #16]
 131:Generated_Source\PSoC5/CyFlash.c **** 
 132:Generated_Source\PSoC5/CyFlash.c ****     CyExitCriticalSection(interruptState);
 133:Generated_Source\PSoC5/CyFlash.c **** }
 113              		.loc 1 133 0
 114 0018 BDE80840 		pop	{r3, lr}
 115              		.cfi_restore 14
 116              		.cfi_restore 3
 117              		.cfi_def_cfa_offset 0
 132:Generated_Source\PSoC5/CyFlash.c **** }
 118              		.loc 1 132 0
 119 001c FFF7FEBF 		b	CyExitCriticalSection
 120              	.LVL3:
 121              	.L10:
 122              		.align	2
 123              	.L9:
 124 0020 AC430040 		.word	1073759148
 125              		.cfi_endproc
 126              	.LFE1:
 127              		.size	CyFlash_Stop, .-CyFlash_Stop
 128              		.section	.text.CySetTemp,"ax",%progbits
 129              		.align	1
 130              		.global	CySetTemp
 131              		.thumb
 132              		.thumb_func
 133              		.type	CySetTemp, %function
 134              	CySetTemp:
 135              	.LFB4:
 134:Generated_Source\PSoC5/CyFlash.c **** 
 135:Generated_Source\PSoC5/CyFlash.c **** 
 136:Generated_Source\PSoC5/CyFlash.c **** /*******************************************************************************
 137:Generated_Source\PSoC5/CyFlash.c **** * Function Name: CySetTempInt
 138:Generated_Source\PSoC5/CyFlash.c **** ********************************************************************************
 139:Generated_Source\PSoC5/CyFlash.c **** *
 140:Generated_Source\PSoC5/CyFlash.c **** * Summary:
 141:Generated_Source\PSoC5/CyFlash.c **** *  Sends a command to the SPC to read the die temperature. Sets a global value
 142:Generated_Source\PSoC5/CyFlash.c **** *  used by the Write function. This function must be called once before
 143:Generated_Source\PSoC5/CyFlash.c **** *  executing a series of Flash writing functions.
 144:Generated_Source\PSoC5/CyFlash.c **** *
 145:Generated_Source\PSoC5/CyFlash.c **** * Parameters:
 146:Generated_Source\PSoC5/CyFlash.c **** *  None
 147:Generated_Source\PSoC5/CyFlash.c **** *
 148:Generated_Source\PSoC5/CyFlash.c **** * Return:
ARM GAS  C:\Users\RABBIT~1\AppData\Local\Temp\cchp9hGz.s 			page 6


 149:Generated_Source\PSoC5/CyFlash.c **** *  status:
 150:Generated_Source\PSoC5/CyFlash.c **** *   CYRET_SUCCESS - if successful
 151:Generated_Source\PSoC5/CyFlash.c **** *   CYRET_LOCKED  - if Flash writing already in use
 152:Generated_Source\PSoC5/CyFlash.c **** *   CYRET_UNKNOWN - if there was an SPC error
 153:Generated_Source\PSoC5/CyFlash.c **** *
 154:Generated_Source\PSoC5/CyFlash.c **** *******************************************************************************/
 155:Generated_Source\PSoC5/CyFlash.c **** static cystatus CySetTempInt(void) 
 156:Generated_Source\PSoC5/CyFlash.c **** {
 157:Generated_Source\PSoC5/CyFlash.c ****     cystatus status;
 158:Generated_Source\PSoC5/CyFlash.c **** 
 159:Generated_Source\PSoC5/CyFlash.c ****     /* Make sure SPC is powered */
 160:Generated_Source\PSoC5/CyFlash.c ****     CySpcStart();
 161:Generated_Source\PSoC5/CyFlash.c **** 
 162:Generated_Source\PSoC5/CyFlash.c ****     /* Plan for failure. */
 163:Generated_Source\PSoC5/CyFlash.c ****     status = CYRET_UNKNOWN;
 164:Generated_Source\PSoC5/CyFlash.c **** 
 165:Generated_Source\PSoC5/CyFlash.c ****     if(CySpcLock() == CYRET_SUCCESS)
 166:Generated_Source\PSoC5/CyFlash.c ****     {
 167:Generated_Source\PSoC5/CyFlash.c ****         /* Write the command. */
 168:Generated_Source\PSoC5/CyFlash.c ****         if(CYRET_STARTED == CySpcGetTemp(CY_TEMP_NUMBER_OF_SAMPLES))
 169:Generated_Source\PSoC5/CyFlash.c ****         {
 170:Generated_Source\PSoC5/CyFlash.c ****             do
 171:Generated_Source\PSoC5/CyFlash.c ****             {
 172:Generated_Source\PSoC5/CyFlash.c ****                 if(CySpcReadData(dieTemperature, CY_FLASH_DIE_TEMP_DATA_SIZE) == CY_FLASH_DIE_TEMP_
 173:Generated_Source\PSoC5/CyFlash.c ****                 {
 174:Generated_Source\PSoC5/CyFlash.c ****                     status = CYRET_SUCCESS;
 175:Generated_Source\PSoC5/CyFlash.c **** 
 176:Generated_Source\PSoC5/CyFlash.c ****                     while(CY_SPC_BUSY)
 177:Generated_Source\PSoC5/CyFlash.c ****                     {
 178:Generated_Source\PSoC5/CyFlash.c ****                         /* Spin until idle. */
 179:Generated_Source\PSoC5/CyFlash.c ****                         CyDelayUs(1u);
 180:Generated_Source\PSoC5/CyFlash.c ****                     }
 181:Generated_Source\PSoC5/CyFlash.c ****                     break;
 182:Generated_Source\PSoC5/CyFlash.c ****                 }
 183:Generated_Source\PSoC5/CyFlash.c **** 
 184:Generated_Source\PSoC5/CyFlash.c ****             } while(CY_SPC_BUSY);
 185:Generated_Source\PSoC5/CyFlash.c ****         }
 186:Generated_Source\PSoC5/CyFlash.c **** 
 187:Generated_Source\PSoC5/CyFlash.c ****         CySpcUnlock();
 188:Generated_Source\PSoC5/CyFlash.c ****     }
 189:Generated_Source\PSoC5/CyFlash.c ****     else
 190:Generated_Source\PSoC5/CyFlash.c ****     {
 191:Generated_Source\PSoC5/CyFlash.c ****         status = CYRET_LOCKED;
 192:Generated_Source\PSoC5/CyFlash.c ****     }
 193:Generated_Source\PSoC5/CyFlash.c **** 
 194:Generated_Source\PSoC5/CyFlash.c ****     return (status);
 195:Generated_Source\PSoC5/CyFlash.c **** }
 196:Generated_Source\PSoC5/CyFlash.c **** 
 197:Generated_Source\PSoC5/CyFlash.c **** 
 198:Generated_Source\PSoC5/CyFlash.c **** /*******************************************************************************
 199:Generated_Source\PSoC5/CyFlash.c **** * Function Name: CyFlashGetSpcAlgorithm
 200:Generated_Source\PSoC5/CyFlash.c **** ********************************************************************************
 201:Generated_Source\PSoC5/CyFlash.c **** *
 202:Generated_Source\PSoC5/CyFlash.c **** * Summary:
 203:Generated_Source\PSoC5/CyFlash.c **** *  Sends a command to the SPC to download code into RAM.
 204:Generated_Source\PSoC5/CyFlash.c **** *
 205:Generated_Source\PSoC5/CyFlash.c **** * Parameters:
ARM GAS  C:\Users\RABBIT~1\AppData\Local\Temp\cchp9hGz.s 			page 7


 206:Generated_Source\PSoC5/CyFlash.c **** *  None
 207:Generated_Source\PSoC5/CyFlash.c **** *
 208:Generated_Source\PSoC5/CyFlash.c **** * Return:
 209:Generated_Source\PSoC5/CyFlash.c **** *  status:
 210:Generated_Source\PSoC5/CyFlash.c **** *   CYRET_SUCCESS - if successful
 211:Generated_Source\PSoC5/CyFlash.c **** *   CYRET_LOCKED  - if Flash writing already in use
 212:Generated_Source\PSoC5/CyFlash.c **** *   CYRET_UNKNOWN - if there was an SPC error
 213:Generated_Source\PSoC5/CyFlash.c **** *
 214:Generated_Source\PSoC5/CyFlash.c **** *******************************************************************************/
 215:Generated_Source\PSoC5/CyFlash.c **** static cystatus CyFlashGetSpcAlgorithm(void) 
 216:Generated_Source\PSoC5/CyFlash.c **** {
 217:Generated_Source\PSoC5/CyFlash.c ****     cystatus status;
 218:Generated_Source\PSoC5/CyFlash.c **** 
 219:Generated_Source\PSoC5/CyFlash.c ****     /* Make sure SPC is powered */
 220:Generated_Source\PSoC5/CyFlash.c ****     CySpcStart();
 221:Generated_Source\PSoC5/CyFlash.c **** 
 222:Generated_Source\PSoC5/CyFlash.c ****     if(CySpcLock() == CYRET_SUCCESS)
 223:Generated_Source\PSoC5/CyFlash.c ****     {
 224:Generated_Source\PSoC5/CyFlash.c ****         status = CySpcGetAlgorithm();
 225:Generated_Source\PSoC5/CyFlash.c **** 
 226:Generated_Source\PSoC5/CyFlash.c ****         if(CYRET_STARTED == status)
 227:Generated_Source\PSoC5/CyFlash.c ****         {
 228:Generated_Source\PSoC5/CyFlash.c ****             while(CY_SPC_BUSY)
 229:Generated_Source\PSoC5/CyFlash.c ****             {
 230:Generated_Source\PSoC5/CyFlash.c ****                 /* Spin until idle. */
 231:Generated_Source\PSoC5/CyFlash.c ****                 CyDelayUs(1u);
 232:Generated_Source\PSoC5/CyFlash.c ****             }
 233:Generated_Source\PSoC5/CyFlash.c **** 
 234:Generated_Source\PSoC5/CyFlash.c ****             if(CY_SPC_STATUS_SUCCESS == CY_SPC_READ_STATUS)
 235:Generated_Source\PSoC5/CyFlash.c ****             {
 236:Generated_Source\PSoC5/CyFlash.c ****                 status = CYRET_SUCCESS;
 237:Generated_Source\PSoC5/CyFlash.c ****             }
 238:Generated_Source\PSoC5/CyFlash.c ****         }
 239:Generated_Source\PSoC5/CyFlash.c ****         CySpcUnlock();
 240:Generated_Source\PSoC5/CyFlash.c ****     }
 241:Generated_Source\PSoC5/CyFlash.c ****     else
 242:Generated_Source\PSoC5/CyFlash.c ****     {
 243:Generated_Source\PSoC5/CyFlash.c ****         status = CYRET_LOCKED;
 244:Generated_Source\PSoC5/CyFlash.c ****     }
 245:Generated_Source\PSoC5/CyFlash.c **** 
 246:Generated_Source\PSoC5/CyFlash.c ****     return (status);
 247:Generated_Source\PSoC5/CyFlash.c **** }
 248:Generated_Source\PSoC5/CyFlash.c **** 
 249:Generated_Source\PSoC5/CyFlash.c **** 
 250:Generated_Source\PSoC5/CyFlash.c **** /*******************************************************************************
 251:Generated_Source\PSoC5/CyFlash.c **** * Function Name: CySetTemp
 252:Generated_Source\PSoC5/CyFlash.c **** ********************************************************************************
 253:Generated_Source\PSoC5/CyFlash.c **** *
 254:Generated_Source\PSoC5/CyFlash.c **** * Summary:
 255:Generated_Source\PSoC5/CyFlash.c **** *  This is a wraparound for CySetTempInt(). It is used to return the second
 256:Generated_Source\PSoC5/CyFlash.c **** *  successful read of the temperature value.
 257:Generated_Source\PSoC5/CyFlash.c **** *
 258:Generated_Source\PSoC5/CyFlash.c **** * Parameters:
 259:Generated_Source\PSoC5/CyFlash.c **** *  None
 260:Generated_Source\PSoC5/CyFlash.c **** *
 261:Generated_Source\PSoC5/CyFlash.c **** * Return:
 262:Generated_Source\PSoC5/CyFlash.c **** *  status:
ARM GAS  C:\Users\RABBIT~1\AppData\Local\Temp\cchp9hGz.s 			page 8


 263:Generated_Source\PSoC5/CyFlash.c **** *   CYRET_SUCCESS if successful.
 264:Generated_Source\PSoC5/CyFlash.c **** *   CYRET_LOCKED  if Flash writing already in use
 265:Generated_Source\PSoC5/CyFlash.c **** *   CYRET_UNKNOWN if there was an SPC error.
 266:Generated_Source\PSoC5/CyFlash.c **** *
 267:Generated_Source\PSoC5/CyFlash.c **** *  uint8 dieTemperature[2]:
 268:Generated_Source\PSoC5/CyFlash.c **** *   Holds the die temperature for the flash writing algorithm. The first byte is
 269:Generated_Source\PSoC5/CyFlash.c **** *   the sign of the temperature (0 = negative, 1 = positive). The second byte is
 270:Generated_Source\PSoC5/CyFlash.c **** *   the magnitude.
 271:Generated_Source\PSoC5/CyFlash.c **** *
 272:Generated_Source\PSoC5/CyFlash.c **** *******************************************************************************/
 273:Generated_Source\PSoC5/CyFlash.c **** cystatus CySetTemp(void) 
 274:Generated_Source\PSoC5/CyFlash.c **** {
 136              		.loc 1 274 0
 137              		.cfi_startproc
 138              		@ args = 0, pretend = 0, frame = 0
 139              		@ frame_needed = 0, uses_anonymous_args = 0
 140 0000 70B5     		push	{r4, r5, r6, lr}
 141              		.cfi_def_cfa_offset 16
 142              		.cfi_offset 4, -16
 143              		.cfi_offset 5, -12
 144              		.cfi_offset 6, -8
 145              		.cfi_offset 14, -4
 146              	.LBB6:
 147              	.LBB7:
 220:Generated_Source\PSoC5/CyFlash.c **** 
 148              		.loc 1 220 0
 149 0002 FFF7FEFF 		bl	CySpcStart
 150              	.LVL4:
 222:Generated_Source\PSoC5/CyFlash.c ****     {
 151              		.loc 1 222 0
 152 0006 FFF7FEFF 		bl	CySpcLock
 153              	.LVL5:
 154 000a 08B1     		cbz	r0, .L12
 155              	.L17:
 243:Generated_Source\PSoC5/CyFlash.c ****     }
 156              		.loc 1 243 0
 157 000c 0424     		movs	r4, #4
 158 000e 3AE0     		b	.L13
 159              	.L12:
 224:Generated_Source\PSoC5/CyFlash.c **** 
 160              		.loc 1 224 0
 161 0010 FFF7FEFF 		bl	CySpcGetAlgorithm
 162              	.LVL6:
 226:Generated_Source\PSoC5/CyFlash.c ****         {
 163              		.loc 1 226 0
 164 0014 0728     		cmp	r0, #7
 224:Generated_Source\PSoC5/CyFlash.c **** 
 165              		.loc 1 224 0
 166 0016 0446     		mov	r4, r0
 167              	.LVL7:
 226:Generated_Source\PSoC5/CyFlash.c ****         {
 168              		.loc 1 226 0
 169 0018 10D1     		bne	.L15
 228:Generated_Source\PSoC5/CyFlash.c ****             {
 170              		.loc 1 228 0
 171 001a 1C4D     		ldr	r5, .L34
 172              	.LVL8:
ARM GAS  C:\Users\RABBIT~1\AppData\Local\Temp\cchp9hGz.s 			page 9


 173              	.L14:
 174 001c 2A78     		ldrb	r2, [r5]	@ zero_extendqisi2
 175 001e 1B4B     		ldr	r3, .L34
 176 0020 9007     		lsls	r0, r2, #30
 177 0022 03D4     		bmi	.L33
 231:Generated_Source\PSoC5/CyFlash.c ****             }
 178              		.loc 1 231 0
 179 0024 0120     		movs	r0, #1
 180 0026 FFF7FEFF 		bl	CyDelayUs
 181              	.LVL9:
 182 002a F7E7     		b	.L14
 183              	.L33:
 234:Generated_Source\PSoC5/CyFlash.c ****             {
 184              		.loc 1 234 0
 185 002c 1A78     		ldrb	r2, [r3]	@ zero_extendqisi2
 186 002e 9107     		lsls	r1, r2, #30
 187 0030 04D5     		bpl	.L15
 188 0032 1B78     		ldrb	r3, [r3]	@ zero_extendqisi2
 236:Generated_Source\PSoC5/CyFlash.c ****             }
 189              		.loc 1 236 0
 190 0034 9B08     		lsrs	r3, r3, #2
 191 0036 14BF     		ite	ne
 192 0038 0724     		movne	r4, #7
 193              	.LVL10:
 194 003a 0024     		moveq	r4, #0
 195              	.L15:
 196              	.LVL11:
 239:Generated_Source\PSoC5/CyFlash.c ****     }
 197              		.loc 1 239 0
 198 003c FFF7FEFF 		bl	CySpcUnlock
 199              	.LVL12:
 200              	.LBE7:
 201              	.LBE6:
 275:Generated_Source\PSoC5/CyFlash.c ****     cystatus status = CyFlashGetSpcAlgorithm();
 276:Generated_Source\PSoC5/CyFlash.c **** 
 277:Generated_Source\PSoC5/CyFlash.c ****     if(status == CYRET_SUCCESS)
 202              		.loc 1 277 0
 203 0040 0CBB     		cbnz	r4, .L13
 204              	.LBB8:
 205              	.LBB9:
 160:Generated_Source\PSoC5/CyFlash.c **** 
 206              		.loc 1 160 0
 207 0042 FFF7FEFF 		bl	CySpcStart
 208              	.LVL13:
 165:Generated_Source\PSoC5/CyFlash.c ****     {
 209              		.loc 1 165 0
 210 0046 FFF7FEFF 		bl	CySpcLock
 211              	.LVL14:
 212 004a 0028     		cmp	r0, #0
 213 004c DED1     		bne	.L17
 168:Generated_Source\PSoC5/CyFlash.c ****         {
 214              		.loc 1 168 0
 215 004e 0120     		movs	r0, #1
 216 0050 FFF7FEFF 		bl	CySpcGetTemp
 217              	.LVL15:
 218 0054 0728     		cmp	r0, #7
 219 0056 0AD1     		bne	.L23
ARM GAS  C:\Users\RABBIT~1\AppData\Local\Temp\cchp9hGz.s 			page 10


 220 0058 0C4D     		ldr	r5, .L34
 221              	.L18:
 172:Generated_Source\PSoC5/CyFlash.c ****                 {
 222              		.loc 1 172 0
 223 005a 0221     		movs	r1, #2
 224 005c 0C48     		ldr	r0, .L34+4
 225 005e FFF7FEFF 		bl	CySpcReadData
 226              	.LVL16:
 227 0062 0228     		cmp	r0, #2
 228 0064 094E     		ldr	r6, .L34
 229 0066 05D0     		beq	.L20
 184:Generated_Source\PSoC5/CyFlash.c ****         }
 230              		.loc 1 184 0
 231 0068 2B78     		ldrb	r3, [r5]	@ zero_extendqisi2
 232 006a 9B07     		lsls	r3, r3, #30
 233 006c F5D5     		bpl	.L18
 234              	.L23:
 163:Generated_Source\PSoC5/CyFlash.c **** 
 235              		.loc 1 163 0
 236 006e 4FF0FF34 		mov	r4, #-1
 237 0072 06E0     		b	.L19
 238              	.L20:
 176:Generated_Source\PSoC5/CyFlash.c ****                     {
 239              		.loc 1 176 0
 240 0074 3378     		ldrb	r3, [r6]	@ zero_extendqisi2
 241 0076 9A07     		lsls	r2, r3, #30
 242 0078 03D4     		bmi	.L19
 179:Generated_Source\PSoC5/CyFlash.c ****                     }
 243              		.loc 1 179 0
 244 007a 0120     		movs	r0, #1
 245 007c FFF7FEFF 		bl	CyDelayUs
 246              	.LVL17:
 247 0080 F8E7     		b	.L20
 248              	.L19:
 249              	.LVL18:
 187:Generated_Source\PSoC5/CyFlash.c ****     }
 250              		.loc 1 187 0
 251 0082 FFF7FEFF 		bl	CySpcUnlock
 252              	.LVL19:
 253              	.L13:
 254              	.LBE9:
 255              	.LBE8:
 278:Generated_Source\PSoC5/CyFlash.c ****     {
 279:Generated_Source\PSoC5/CyFlash.c ****         status = CySetTempInt();
 280:Generated_Source\PSoC5/CyFlash.c ****     }
 281:Generated_Source\PSoC5/CyFlash.c **** 
 282:Generated_Source\PSoC5/CyFlash.c ****     return (status);
 283:Generated_Source\PSoC5/CyFlash.c **** }
 256              		.loc 1 283 0
 257 0086 2046     		mov	r0, r4
 258 0088 70BD     		pop	{r4, r5, r6, pc}
 259              	.LVL20:
 260              	.L35:
 261 008a 00BF     		.align	2
 262              	.L34:
 263 008c 22470040 		.word	1073760034
 264 0090 00000000 		.word	dieTemperature
ARM GAS  C:\Users\RABBIT~1\AppData\Local\Temp\cchp9hGz.s 			page 11


 265              		.cfi_endproc
 266              	.LFE4:
 267              		.size	CySetTemp, .-CySetTemp
 268              		.section	.text.CySetFlashEEBuffer,"ax",%progbits
 269              		.align	1
 270              		.global	CySetFlashEEBuffer
 271              		.thumb
 272              		.thumb_func
 273              		.type	CySetFlashEEBuffer, %function
 274              	CySetFlashEEBuffer:
 275              	.LFB5:
 284:Generated_Source\PSoC5/CyFlash.c **** 
 285:Generated_Source\PSoC5/CyFlash.c **** 
 286:Generated_Source\PSoC5/CyFlash.c **** /*******************************************************************************
 287:Generated_Source\PSoC5/CyFlash.c **** * Function Name: CySetFlashEEBuffer
 288:Generated_Source\PSoC5/CyFlash.c **** ********************************************************************************
 289:Generated_Source\PSoC5/CyFlash.c **** *
 290:Generated_Source\PSoC5/CyFlash.c **** * Summary:
 291:Generated_Source\PSoC5/CyFlash.c **** *  Sets the user supplied temporary buffer to store SPC data while performing
 292:Generated_Source\PSoC5/CyFlash.c **** *  Flash and EEPROM commands. This buffer is only necessary when the Flash ECC is
 293:Generated_Source\PSoC5/CyFlash.c **** *  disabled.
 294:Generated_Source\PSoC5/CyFlash.c **** *
 295:Generated_Source\PSoC5/CyFlash.c **** * Parameters:
 296:Generated_Source\PSoC5/CyFlash.c **** *  buffer:
 297:Generated_Source\PSoC5/CyFlash.c **** *   The address of a block of memory to store temporary memory. The size of the block
 298:Generated_Source\PSoC5/CyFlash.c **** *   of memory is CYDEV_FLS_ROW_SIZE + CYDEV_ECC_ROW_SIZE.
 299:Generated_Source\PSoC5/CyFlash.c **** *
 300:Generated_Source\PSoC5/CyFlash.c **** * Return:
 301:Generated_Source\PSoC5/CyFlash.c **** *  status:
 302:Generated_Source\PSoC5/CyFlash.c **** *   CYRET_SUCCESS if successful.
 303:Generated_Source\PSoC5/CyFlash.c **** *   CYRET_BAD_PARAM if the buffer is NULL
 304:Generated_Source\PSoC5/CyFlash.c **** *
 305:Generated_Source\PSoC5/CyFlash.c **** *******************************************************************************/
 306:Generated_Source\PSoC5/CyFlash.c **** cystatus CySetFlashEEBuffer(uint8 * buffer) 
 307:Generated_Source\PSoC5/CyFlash.c **** {
 276              		.loc 1 307 0
 277              		.cfi_startproc
 278              		@ args = 0, pretend = 0, frame = 0
 279              		@ frame_needed = 0, uses_anonymous_args = 0
 280              	.LVL21:
 281 0000 10B5     		push	{r4, lr}
 282              		.cfi_def_cfa_offset 8
 283              		.cfi_offset 4, -8
 284              		.cfi_offset 14, -4
 285              		.loc 1 307 0
 286 0002 0446     		mov	r4, r0
 308:Generated_Source\PSoC5/CyFlash.c ****     cystatus status = CYRET_SUCCESS;
 309:Generated_Source\PSoC5/CyFlash.c **** 
 310:Generated_Source\PSoC5/CyFlash.c ****     CySpcStart();
 287              		.loc 1 310 0
 288 0004 FFF7FEFF 		bl	CySpcStart
 289              	.LVL22:
 311:Generated_Source\PSoC5/CyFlash.c **** 
 312:Generated_Source\PSoC5/CyFlash.c ****     #if(CYDEV_ECC_ENABLE == 0)
 313:Generated_Source\PSoC5/CyFlash.c **** 
 314:Generated_Source\PSoC5/CyFlash.c ****         if(NULL == buffer)
 290              		.loc 1 314 0
ARM GAS  C:\Users\RABBIT~1\AppData\Local\Temp\cchp9hGz.s 			page 12


 291 0008 3CB1     		cbz	r4, .L38
 315:Generated_Source\PSoC5/CyFlash.c ****         {
 316:Generated_Source\PSoC5/CyFlash.c ****             rowBuffer = rowBuffer;
 317:Generated_Source\PSoC5/CyFlash.c ****             status = CYRET_BAD_PARAM;
 318:Generated_Source\PSoC5/CyFlash.c ****         }
 319:Generated_Source\PSoC5/CyFlash.c ****         else if(CySpcLock() != CYRET_SUCCESS)
 292              		.loc 1 319 0
 293 000a FFF7FEFF 		bl	CySpcLock
 294              	.LVL23:
 295 000e 0446     		mov	r4, r0
 296              	.LVL24:
 297 0010 28B9     		cbnz	r0, .L39
 320:Generated_Source\PSoC5/CyFlash.c ****         {
 321:Generated_Source\PSoC5/CyFlash.c ****             rowBuffer = rowBuffer;
 322:Generated_Source\PSoC5/CyFlash.c ****             status = CYRET_LOCKED;
 323:Generated_Source\PSoC5/CyFlash.c ****         }
 324:Generated_Source\PSoC5/CyFlash.c ****         else
 325:Generated_Source\PSoC5/CyFlash.c ****         {
 326:Generated_Source\PSoC5/CyFlash.c ****             rowBuffer = buffer;
 327:Generated_Source\PSoC5/CyFlash.c ****             CySpcUnlock();
 298              		.loc 1 327 0
 299 0012 FFF7FEFF 		bl	CySpcUnlock
 300              	.LVL25:
 308:Generated_Source\PSoC5/CyFlash.c **** 
 301              		.loc 1 308 0
 302 0016 2046     		mov	r0, r4
 303 0018 10BD     		pop	{r4, pc}
 304              	.LVL26:
 305              	.L38:
 317:Generated_Source\PSoC5/CyFlash.c ****         }
 306              		.loc 1 317 0
 307 001a 0120     		movs	r0, #1
 308 001c 10BD     		pop	{r4, pc}
 309              	.LVL27:
 310              	.L39:
 322:Generated_Source\PSoC5/CyFlash.c ****         }
 311              		.loc 1 322 0
 312 001e 0420     		movs	r0, #4
 313              	.LVL28:
 328:Generated_Source\PSoC5/CyFlash.c ****         }
 329:Generated_Source\PSoC5/CyFlash.c **** 
 330:Generated_Source\PSoC5/CyFlash.c ****     #else
 331:Generated_Source\PSoC5/CyFlash.c **** 
 332:Generated_Source\PSoC5/CyFlash.c ****         /* To suppress warning */
 333:Generated_Source\PSoC5/CyFlash.c ****         buffer = buffer;
 334:Generated_Source\PSoC5/CyFlash.c **** 
 335:Generated_Source\PSoC5/CyFlash.c ****     #endif  /* (CYDEV_ECC_ENABLE == 0u) */
 336:Generated_Source\PSoC5/CyFlash.c **** 
 337:Generated_Source\PSoC5/CyFlash.c ****     return(status);
 338:Generated_Source\PSoC5/CyFlash.c **** }
 314              		.loc 1 338 0
 315 0020 10BD     		pop	{r4, pc}
 316              		.cfi_endproc
 317              	.LFE5:
 318              		.size	CySetFlashEEBuffer, .-CySetFlashEEBuffer
 319              		.section	.text.CyWriteRowFull,"ax",%progbits
 320              		.align	1
ARM GAS  C:\Users\RABBIT~1\AppData\Local\Temp\cchp9hGz.s 			page 13


 321              		.global	CyWriteRowFull
 322              		.thumb
 323              		.thumb_func
 324              		.type	CyWriteRowFull, %function
 325              	CyWriteRowFull:
 326              	.LFB7:
 339:Generated_Source\PSoC5/CyFlash.c **** 
 340:Generated_Source\PSoC5/CyFlash.c **** 
 341:Generated_Source\PSoC5/CyFlash.c **** /*******************************************************************************
 342:Generated_Source\PSoC5/CyFlash.c **** * Function Name: CyWriteRowData
 343:Generated_Source\PSoC5/CyFlash.c **** ********************************************************************************
 344:Generated_Source\PSoC5/CyFlash.c **** *
 345:Generated_Source\PSoC5/CyFlash.c **** * Summary:
 346:Generated_Source\PSoC5/CyFlash.c **** *  Sends a command to the SPC to load and program a row of data in
 347:Generated_Source\PSoC5/CyFlash.c **** *  Flash or EEPROM.
 348:Generated_Source\PSoC5/CyFlash.c **** *
 349:Generated_Source\PSoC5/CyFlash.c **** * Parameters:
 350:Generated_Source\PSoC5/CyFlash.c **** *  arrayID:    ID of the array to write.
 351:Generated_Source\PSoC5/CyFlash.c **** *   The type of write, Flash or EEPROM, is determined from the array ID.
 352:Generated_Source\PSoC5/CyFlash.c **** *   The arrays in the part are sequential starting at the first ID for the
 353:Generated_Source\PSoC5/CyFlash.c **** *   specific memory type. The array ID for the Flash memory lasts from 0x00 to
 354:Generated_Source\PSoC5/CyFlash.c **** *   0x3F and for the EEPROM memory it lasts from 0x40 to 0x7F.
 355:Generated_Source\PSoC5/CyFlash.c **** *  rowAddress: rowAddress of flash row to program.
 356:Generated_Source\PSoC5/CyFlash.c **** *  rowData:    Array of bytes to write.
 357:Generated_Source\PSoC5/CyFlash.c **** *
 358:Generated_Source\PSoC5/CyFlash.c **** * Return:
 359:Generated_Source\PSoC5/CyFlash.c **** *  status:
 360:Generated_Source\PSoC5/CyFlash.c **** *   CYRET_SUCCESS if successful.
 361:Generated_Source\PSoC5/CyFlash.c **** *   CYRET_LOCKED if the SPC is already in use.
 362:Generated_Source\PSoC5/CyFlash.c **** *   CYRET_CANCELED if command not accepted
 363:Generated_Source\PSoC5/CyFlash.c **** *   CYRET_UNKNOWN if there was an SPC error.
 364:Generated_Source\PSoC5/CyFlash.c **** *
 365:Generated_Source\PSoC5/CyFlash.c **** *******************************************************************************/
 366:Generated_Source\PSoC5/CyFlash.c **** cystatus CyWriteRowData(uint8 arrayId, uint16 rowAddress, const uint8 * rowData) 
 367:Generated_Source\PSoC5/CyFlash.c **** {
 368:Generated_Source\PSoC5/CyFlash.c ****     uint16 rowSize;
 369:Generated_Source\PSoC5/CyFlash.c ****     cystatus status;
 370:Generated_Source\PSoC5/CyFlash.c **** 
 371:Generated_Source\PSoC5/CyFlash.c ****     rowSize = (arrayId > CY_SPC_LAST_FLASH_ARRAYID) ? CYDEV_EEPROM_ROW_SIZE : CYDEV_FLS_ROW_SIZE;
 372:Generated_Source\PSoC5/CyFlash.c ****     status = CyWriteRowFull(arrayId, rowAddress, rowData, rowSize);
 373:Generated_Source\PSoC5/CyFlash.c **** 
 374:Generated_Source\PSoC5/CyFlash.c ****     return(status);
 375:Generated_Source\PSoC5/CyFlash.c **** }
 376:Generated_Source\PSoC5/CyFlash.c **** 
 377:Generated_Source\PSoC5/CyFlash.c **** 
 378:Generated_Source\PSoC5/CyFlash.c **** /*******************************************************************
 379:Generated_Source\PSoC5/CyFlash.c **** * If "Enable Error Correcting Code (ECC)" and "Store Configuration
 380:Generated_Source\PSoC5/CyFlash.c **** * Data in ECC" DWR options are disabled, ECC section is available
 381:Generated_Source\PSoC5/CyFlash.c **** * for user data.
 382:Generated_Source\PSoC5/CyFlash.c **** *******************************************************************/
 383:Generated_Source\PSoC5/CyFlash.c **** #if ((CYDEV_ECC_ENABLE == 0u) && (CYDEV_CONFIGURATION_ECC == 0u))
 384:Generated_Source\PSoC5/CyFlash.c **** 
 385:Generated_Source\PSoC5/CyFlash.c ****     /*******************************************************************************
 386:Generated_Source\PSoC5/CyFlash.c ****     * Function Name: CyWriteRowConfig
 387:Generated_Source\PSoC5/CyFlash.c ****     ********************************************************************************
 388:Generated_Source\PSoC5/CyFlash.c ****     *
 389:Generated_Source\PSoC5/CyFlash.c ****     * Summary:
ARM GAS  C:\Users\RABBIT~1\AppData\Local\Temp\cchp9hGz.s 			page 14


 390:Generated_Source\PSoC5/CyFlash.c ****     *  Sends a command to the SPC to load and program a row of config data in the Flash.
 391:Generated_Source\PSoC5/CyFlash.c ****     *  This function is only valid for Flash array IDs (not for EEPROM).
 392:Generated_Source\PSoC5/CyFlash.c ****     *
 393:Generated_Source\PSoC5/CyFlash.c ****     * Parameters:
 394:Generated_Source\PSoC5/CyFlash.c ****     *  arrayId:      ID of the array to write
 395:Generated_Source\PSoC5/CyFlash.c ****     *   The arrays in the part are sequential starting at the first ID for the
 396:Generated_Source\PSoC5/CyFlash.c ****     *   specific memory type. The array ID for the Flash memory lasts
 397:Generated_Source\PSoC5/CyFlash.c ****     *   from 0x00 to 0x3F.
 398:Generated_Source\PSoC5/CyFlash.c ****     *  rowAddress:   The address of the sector to erase.
 399:Generated_Source\PSoC5/CyFlash.c ****     *  rowECC:       The array of bytes to write.
 400:Generated_Source\PSoC5/CyFlash.c ****     *
 401:Generated_Source\PSoC5/CyFlash.c ****     * Return:
 402:Generated_Source\PSoC5/CyFlash.c ****     *  status:
 403:Generated_Source\PSoC5/CyFlash.c ****     *   CYRET_SUCCESS if successful.
 404:Generated_Source\PSoC5/CyFlash.c ****     *   CYRET_LOCKED if the SPC is already in use.
 405:Generated_Source\PSoC5/CyFlash.c ****     *   CYRET_CANCELED if command not accepted
 406:Generated_Source\PSoC5/CyFlash.c ****     *   CYRET_UNKNOWN if there was an SPC error.
 407:Generated_Source\PSoC5/CyFlash.c ****     *
 408:Generated_Source\PSoC5/CyFlash.c ****     *******************************************************************************/
 409:Generated_Source\PSoC5/CyFlash.c ****     cystatus CyWriteRowConfig(uint8 arrayId, uint16 rowAddress, const uint8 * rowECC)\
 410:Generated_Source\PSoC5/CyFlash.c ****     
 411:Generated_Source\PSoC5/CyFlash.c ****     {
 412:Generated_Source\PSoC5/CyFlash.c ****         cystatus status;
 413:Generated_Source\PSoC5/CyFlash.c **** 
 414:Generated_Source\PSoC5/CyFlash.c ****         status = CyWriteRowFull(arrayId, rowAddress, rowECC, CYDEV_ECC_ROW_SIZE);
 415:Generated_Source\PSoC5/CyFlash.c **** 
 416:Generated_Source\PSoC5/CyFlash.c ****         return (status);
 417:Generated_Source\PSoC5/CyFlash.c ****     }
 418:Generated_Source\PSoC5/CyFlash.c **** 
 419:Generated_Source\PSoC5/CyFlash.c **** #endif  /* ((CYDEV_ECC_ENABLE == 0u) && (CYDEV_CONFIGURATION_ECC == 0u)) */
 420:Generated_Source\PSoC5/CyFlash.c **** 
 421:Generated_Source\PSoC5/CyFlash.c **** 
 422:Generated_Source\PSoC5/CyFlash.c **** 
 423:Generated_Source\PSoC5/CyFlash.c **** /*******************************************************************************
 424:Generated_Source\PSoC5/CyFlash.c **** * Function Name: CyWriteRowFull
 425:Generated_Source\PSoC5/CyFlash.c **** ********************************************************************************
 426:Generated_Source\PSoC5/CyFlash.c **** * Summary:
 427:Generated_Source\PSoC5/CyFlash.c **** *  Sends a command to the SPC to load and program a row of data in the Flash.
 428:Generated_Source\PSoC5/CyFlash.c **** *  rowData array is expected to contain Flash and ECC data if needed.
 429:Generated_Source\PSoC5/CyFlash.c **** *
 430:Generated_Source\PSoC5/CyFlash.c **** * Parameters:
 431:Generated_Source\PSoC5/CyFlash.c **** *  arrayId:    FLASH or EEPROM array id.
 432:Generated_Source\PSoC5/CyFlash.c **** *  rowData:    Pointer to a row of data to write.
 433:Generated_Source\PSoC5/CyFlash.c **** *  rowNumber:  Zero based number of the row.
 434:Generated_Source\PSoC5/CyFlash.c **** *  rowSize:    Size of the row.
 435:Generated_Source\PSoC5/CyFlash.c **** *
 436:Generated_Source\PSoC5/CyFlash.c **** * Return:
 437:Generated_Source\PSoC5/CyFlash.c **** *  CYRET_SUCCESS if successful.
 438:Generated_Source\PSoC5/CyFlash.c **** *  CYRET_LOCKED if the SPC is already in use.
 439:Generated_Source\PSoC5/CyFlash.c **** *  CYRET_CANCELED if command not accepted
 440:Generated_Source\PSoC5/CyFlash.c **** *  CYRET_UNKNOWN if there was an SPC error.
 441:Generated_Source\PSoC5/CyFlash.c **** *
 442:Generated_Source\PSoC5/CyFlash.c **** *******************************************************************************/
 443:Generated_Source\PSoC5/CyFlash.c **** cystatus CyWriteRowFull(uint8 arrayId, uint16 rowNumber, const uint8* rowData, uint16 rowSize) \
 444:Generated_Source\PSoC5/CyFlash.c ****         
 445:Generated_Source\PSoC5/CyFlash.c **** {
 327              		.loc 1 445 0
ARM GAS  C:\Users\RABBIT~1\AppData\Local\Temp\cchp9hGz.s 			page 15


 328              		.cfi_startproc
 329              		@ args = 0, pretend = 0, frame = 0
 330              		@ frame_needed = 0, uses_anonymous_args = 0
 331              	.LVL29:
 446:Generated_Source\PSoC5/CyFlash.c ****     cystatus status = CYRET_SUCCESS;
 447:Generated_Source\PSoC5/CyFlash.c **** 
 448:Generated_Source\PSoC5/CyFlash.c ****     if((arrayId <=  CY_SPC_LAST_FLASH_ARRAYID) && (arrayId > (CY_FLASH_NUMBER_ARRAYS  + CY_SPC_FIRS
 449:Generated_Source\PSoC5/CyFlash.c ****     {
 450:Generated_Source\PSoC5/CyFlash.c ****         status = CYRET_BAD_PARAM;
 451:Generated_Source\PSoC5/CyFlash.c ****     }
 452:Generated_Source\PSoC5/CyFlash.c **** 
 453:Generated_Source\PSoC5/CyFlash.c ****     if(arrayId > CY_SPC_LAST_EE_ARRAYID)
 454:Generated_Source\PSoC5/CyFlash.c ****     {
 455:Generated_Source\PSoC5/CyFlash.c ****         status = CYRET_BAD_PARAM;
 456:Generated_Source\PSoC5/CyFlash.c ****     }
 457:Generated_Source\PSoC5/CyFlash.c **** 
 458:Generated_Source\PSoC5/CyFlash.c ****     if((arrayId >= CY_SPC_FIRST_EE_ARRAYID) && (arrayId > (CY_FLASH_EEPROM_NUMBER_ARRAYS + CY_SPC_F
 332              		.loc 1 458 0
 333 0000 4128     		cmp	r0, #65
 445:Generated_Source\PSoC5/CyFlash.c ****     cystatus status = CYRET_SUCCESS;
 334              		.loc 1 445 0
 335 0002 2DE9F041 		push	{r4, r5, r6, r7, r8, lr}
 336              		.cfi_def_cfa_offset 24
 337              		.cfi_offset 4, -24
 338              		.cfi_offset 5, -20
 339              		.cfi_offset 6, -16
 340              		.cfi_offset 7, -12
 341              		.cfi_offset 8, -8
 342              		.cfi_offset 14, -4
 445:Generated_Source\PSoC5/CyFlash.c ****     cystatus status = CYRET_SUCCESS;
 343              		.loc 1 445 0
 344 0006 0546     		mov	r5, r0
 345 0008 0E46     		mov	r6, r1
 346 000a 1746     		mov	r7, r2
 347 000c 9846     		mov	r8, r3
 348              		.loc 1 458 0
 349 000e 0AD8     		bhi	.L52
 446:Generated_Source\PSoC5/CyFlash.c ****     cystatus status = CYRET_SUCCESS;
 350              		.loc 1 446 0
 351 0010 C41E     		subs	r4, r0, #3
 352 0012 3C2C     		cmp	r4, #60
 353 0014 8CBF     		ite	hi
 354 0016 0024     		movhi	r4, #0
 355 0018 0124     		movls	r4, #1
 459:Generated_Source\PSoC5/CyFlash.c ****     {
 460:Generated_Source\PSoC5/CyFlash.c ****         status = CYRET_BAD_PARAM;
 461:Generated_Source\PSoC5/CyFlash.c ****     }
 462:Generated_Source\PSoC5/CyFlash.c **** 
 463:Generated_Source\PSoC5/CyFlash.c ****     if(arrayId <=  CY_SPC_LAST_FLASH_ARRAYID)
 356              		.loc 1 463 0
 357 001a 3F28     		cmp	r0, #63
 358 001c 04D8     		bhi	.L41
 464:Generated_Source\PSoC5/CyFlash.c ****     {
 465:Generated_Source\PSoC5/CyFlash.c ****         /* Flash */
 466:Generated_Source\PSoC5/CyFlash.c ****         if(rowNumber > (CY_FLASH_NUMBER_ROWS/CY_FLASH_NUMBER_ARRAYS))
 359              		.loc 1 466 0
 360 001e B1F5807F 		cmp	r1, #256
ARM GAS  C:\Users\RABBIT~1\AppData\Local\Temp\cchp9hGz.s 			page 16


 361 0022 30D8     		bhi	.L56
 362 0024 06E0     		b	.L43
 363              	.L52:
 364 0026 0124     		movs	r4, #1
 365              	.L41:
 366              	.LVL30:
 467:Generated_Source\PSoC5/CyFlash.c ****         {
 468:Generated_Source\PSoC5/CyFlash.c ****             status = CYRET_BAD_PARAM;
 469:Generated_Source\PSoC5/CyFlash.c ****         }
 470:Generated_Source\PSoC5/CyFlash.c ****     }
 471:Generated_Source\PSoC5/CyFlash.c ****     else
 472:Generated_Source\PSoC5/CyFlash.c ****     {
 473:Generated_Source\PSoC5/CyFlash.c ****         /* EEPROM */
 474:Generated_Source\PSoC5/CyFlash.c ****         if(rowNumber > (CY_EEPROM_NUMBER_ROWS/CY_FLASH_EEPROM_NUMBER_ARRAYS))
 475:Generated_Source\PSoC5/CyFlash.c ****         {
 476:Generated_Source\PSoC5/CyFlash.c ****             status = CYRET_BAD_PARAM;
 367              		.loc 1 476 0
 368 0028 812E     		cmp	r6, #129
 369 002a 28BF     		it	cs
 370 002c 0124     		movcs	r4, #1
 371              	.LVL31:
 477:Generated_Source\PSoC5/CyFlash.c ****         }
 478:Generated_Source\PSoC5/CyFlash.c **** 
 479:Generated_Source\PSoC5/CyFlash.c ****         if(CY_EEPROM_SIZEOF_ROW != rowSize)
 372              		.loc 1 479 0
 373 002e B8F1100F 		cmp	r8, #16
 374 0032 28D1     		bne	.L56
 375              	.LVL32:
 376              	.L43:
 480:Generated_Source\PSoC5/CyFlash.c ****         {
 481:Generated_Source\PSoC5/CyFlash.c ****             status = CYRET_BAD_PARAM;
 482:Generated_Source\PSoC5/CyFlash.c ****         }
 483:Generated_Source\PSoC5/CyFlash.c ****     }
 484:Generated_Source\PSoC5/CyFlash.c **** 
 485:Generated_Source\PSoC5/CyFlash.c ****     if(rowData == NULL)
 377              		.loc 1 485 0
 378 0034 3FB3     		cbz	r7, .L56
 486:Generated_Source\PSoC5/CyFlash.c ****     {
 487:Generated_Source\PSoC5/CyFlash.c ****         status = CYRET_BAD_PARAM;
 488:Generated_Source\PSoC5/CyFlash.c ****     }
 489:Generated_Source\PSoC5/CyFlash.c **** 
 490:Generated_Source\PSoC5/CyFlash.c **** 
 491:Generated_Source\PSoC5/CyFlash.c ****     if(status == CYRET_SUCCESS)
 379              		.loc 1 491 0
 380 0036 34BB     		cbnz	r4, .L56
 492:Generated_Source\PSoC5/CyFlash.c ****     {
 493:Generated_Source\PSoC5/CyFlash.c ****         if(CySpcLock() == CYRET_SUCCESS)
 381              		.loc 1 493 0
 382 0038 FFF7FEFF 		bl	CySpcLock
 383              	.LVL33:
 384 003c 28BB     		cbnz	r0, .L57
 385              	.LVL34:
 386              	.LBB12:
 387              	.LBB13:
 494:Generated_Source\PSoC5/CyFlash.c ****         {
 495:Generated_Source\PSoC5/CyFlash.c ****             /* Load row data into SPC internal latch */
 496:Generated_Source\PSoC5/CyFlash.c ****             status = CySpcLoadRowFull(arrayId, rowNumber, rowData, rowSize);
ARM GAS  C:\Users\RABBIT~1\AppData\Local\Temp\cchp9hGz.s 			page 17


 388              		.loc 1 496 0
 389 003e 4346     		mov	r3, r8
 390 0040 3A46     		mov	r2, r7
 391 0042 3146     		mov	r1, r6
 392 0044 2846     		mov	r0, r5
 393 0046 FFF7FEFF 		bl	CySpcLoadRowFull
 394              	.LVL35:
 497:Generated_Source\PSoC5/CyFlash.c **** 
 498:Generated_Source\PSoC5/CyFlash.c ****             if(CYRET_STARTED == status)
 395              		.loc 1 498 0
 396 004a 0728     		cmp	r0, #7
 397 004c 34D1     		bne	.L71
 499:Generated_Source\PSoC5/CyFlash.c ****             {
 500:Generated_Source\PSoC5/CyFlash.c ****                 while(CY_SPC_BUSY)
 398              		.loc 1 500 0
 399 004e DFF87480 		ldr	r8, .L75
 400              	.LVL36:
 401              	.L45:
 402 0052 98F80020 		ldrb	r2, [r8]	@ zero_extendqisi2
 403 0056 1B4B     		ldr	r3, .L75
 404 0058 12F0020F 		tst	r2, #2
 405 005c 1F46     		mov	r7, r3
 406 005e 03D1     		bne	.L72
 501:Generated_Source\PSoC5/CyFlash.c ****                 {
 502:Generated_Source\PSoC5/CyFlash.c ****                     /* Wait for SPC to finish and get SPC status */
 503:Generated_Source\PSoC5/CyFlash.c ****                     CyDelayUs(1u);
 407              		.loc 1 503 0
 408 0060 0120     		movs	r0, #1
 409 0062 FFF7FEFF 		bl	CyDelayUs
 410              	.LVL37:
 411 0066 F4E7     		b	.L45
 412              	.L72:
 504:Generated_Source\PSoC5/CyFlash.c ****                 }
 505:Generated_Source\PSoC5/CyFlash.c **** 
 506:Generated_Source\PSoC5/CyFlash.c ****                 /* Hide SPC status */
 507:Generated_Source\PSoC5/CyFlash.c ****                 if(CY_SPC_STATUS_SUCCESS == CY_SPC_READ_STATUS)
 413              		.loc 1 507 0
 414 0068 1A78     		ldrb	r2, [r3]	@ zero_extendqisi2
 415 006a 9007     		lsls	r0, r2, #30
 416 006c 06D5     		bpl	.L48
 417 006e 1B78     		ldrb	r3, [r3]	@ zero_extendqisi2
 418 0070 9B08     		lsrs	r3, r3, #2
 419 0072 0CD0     		beq	.L49
 420 0074 02E0     		b	.L48
 421              	.L74:
 508:Generated_Source\PSoC5/CyFlash.c ****                 {
 509:Generated_Source\PSoC5/CyFlash.c ****                     status = CYRET_SUCCESS;
 510:Generated_Source\PSoC5/CyFlash.c ****                 }
 511:Generated_Source\PSoC5/CyFlash.c ****                 else
 512:Generated_Source\PSoC5/CyFlash.c ****                 {
 513:Generated_Source\PSoC5/CyFlash.c ****                     status = CYRET_UNKNOWN;
 514:Generated_Source\PSoC5/CyFlash.c ****                 }
 515:Generated_Source\PSoC5/CyFlash.c **** 
 516:Generated_Source\PSoC5/CyFlash.c ****                 if(CYRET_SUCCESS == status)
 517:Generated_Source\PSoC5/CyFlash.c ****                 {
 518:Generated_Source\PSoC5/CyFlash.c ****                     /* Erase and program flash with data from SPC interval latch */
 519:Generated_Source\PSoC5/CyFlash.c ****                     status = CySpcWriteRow(arrayId, rowNumber, dieTemperature[0u], dieTemperature[1
ARM GAS  C:\Users\RABBIT~1\AppData\Local\Temp\cchp9hGz.s 			page 18


 520:Generated_Source\PSoC5/CyFlash.c **** 
 521:Generated_Source\PSoC5/CyFlash.c ****                     if(CYRET_STARTED == status)
 522:Generated_Source\PSoC5/CyFlash.c ****                     {
 523:Generated_Source\PSoC5/CyFlash.c ****                         while(CY_SPC_BUSY)
 524:Generated_Source\PSoC5/CyFlash.c ****                         {
 525:Generated_Source\PSoC5/CyFlash.c ****                             /* Wait for SPC to finish and get SPC status */
 526:Generated_Source\PSoC5/CyFlash.c ****                             CyDelayUs(1u);
 527:Generated_Source\PSoC5/CyFlash.c ****                         }
 528:Generated_Source\PSoC5/CyFlash.c **** 
 529:Generated_Source\PSoC5/CyFlash.c ****                         /* Hide SPC status */
 530:Generated_Source\PSoC5/CyFlash.c ****                         if(CY_SPC_STATUS_SUCCESS == CY_SPC_READ_STATUS)
 422              		.loc 1 530 0
 423 0076 1A78     		ldrb	r2, [r3]	@ zero_extendqisi2
 424 0078 9207     		lsls	r2, r2, #30
 425 007a 19D4     		bmi	.L73
 426              	.L48:
 427              	.LVL38:
 531:Generated_Source\PSoC5/CyFlash.c ****                         {
 532:Generated_Source\PSoC5/CyFlash.c ****                             status = CYRET_SUCCESS;
 533:Generated_Source\PSoC5/CyFlash.c ****                         }
 534:Generated_Source\PSoC5/CyFlash.c ****                         else
 535:Generated_Source\PSoC5/CyFlash.c ****                         {
 536:Generated_Source\PSoC5/CyFlash.c ****                             status = CYRET_UNKNOWN;
 428              		.loc 1 536 0
 429 007c 4FF0FF34 		mov	r4, #-1
 430              	.LVL39:
 431              	.L46:
 537:Generated_Source\PSoC5/CyFlash.c ****                         }
 538:Generated_Source\PSoC5/CyFlash.c ****                     }
 539:Generated_Source\PSoC5/CyFlash.c ****                 }
 540:Generated_Source\PSoC5/CyFlash.c ****             }
 541:Generated_Source\PSoC5/CyFlash.c ****             CySpcUnlock();
 432              		.loc 1 541 0
 433 0080 FFF7FEFF 		bl	CySpcUnlock
 434              	.LVL40:
 435 0084 1AE0     		b	.L70
 436              	.LVL41:
 437              	.L56:
 438              	.LBE13:
 439              	.LBE12:
 440 0086 0124     		movs	r4, #1
 441 0088 18E0     		b	.L70
 442              	.LVL42:
 443              	.L57:
 542:Generated_Source\PSoC5/CyFlash.c ****         }   /* if(CySpcLock() == CYRET_SUCCESS) */
 543:Generated_Source\PSoC5/CyFlash.c ****         else
 544:Generated_Source\PSoC5/CyFlash.c ****         {
 545:Generated_Source\PSoC5/CyFlash.c ****             status = CYRET_LOCKED;
 444              		.loc 1 545 0
 445 008a 0424     		movs	r4, #4
 446              	.LVL43:
 546:Generated_Source\PSoC5/CyFlash.c ****         }
 547:Generated_Source\PSoC5/CyFlash.c ****     }
 548:Generated_Source\PSoC5/CyFlash.c **** 
 549:Generated_Source\PSoC5/CyFlash.c ****     return(status);
 447              		.loc 1 549 0
 448 008c 16E0     		b	.L70
ARM GAS  C:\Users\RABBIT~1\AppData\Local\Temp\cchp9hGz.s 			page 19


 449              	.LVL44:
 450              	.L49:
 451              	.LBB15:
 452              	.LBB14:
 519:Generated_Source\PSoC5/CyFlash.c **** 
 453              		.loc 1 519 0
 454 008e 0E4A     		ldr	r2, .L75+4
 455 0090 3146     		mov	r1, r6
 456 0092 5378     		ldrb	r3, [r2, #1]	@ zero_extendqisi2
 457 0094 2846     		mov	r0, r5
 458 0096 1278     		ldrb	r2, [r2]	@ zero_extendqisi2
 459 0098 FFF7FEFF 		bl	CySpcWriteRow
 460              	.LVL45:
 521:Generated_Source\PSoC5/CyFlash.c ****                     {
 461              		.loc 1 521 0
 462 009c 0728     		cmp	r0, #7
 463 009e 0BD1     		bne	.L71
 464              	.LVL46:
 465              	.L51:
 523:Generated_Source\PSoC5/CyFlash.c ****                         {
 466              		.loc 1 523 0
 467 00a0 3A78     		ldrb	r2, [r7]	@ zero_extendqisi2
 468 00a2 084B     		ldr	r3, .L75
 469 00a4 9107     		lsls	r1, r2, #30
 470 00a6 E6D4     		bmi	.L74
 526:Generated_Source\PSoC5/CyFlash.c ****                         }
 471              		.loc 1 526 0
 472 00a8 0120     		movs	r0, #1
 473 00aa FFF7FEFF 		bl	CyDelayUs
 474              	.LVL47:
 475 00ae F7E7     		b	.L51
 476              	.L73:
 530:Generated_Source\PSoC5/CyFlash.c ****                         {
 477              		.loc 1 530 0
 478 00b0 1B78     		ldrb	r3, [r3]	@ zero_extendqisi2
 479 00b2 9B08     		lsrs	r3, r3, #2
 480 00b4 E4D0     		beq	.L46
 481 00b6 E1E7     		b	.L48
 482              	.LVL48:
 483              	.L71:
 521:Generated_Source\PSoC5/CyFlash.c ****                     {
 484              		.loc 1 521 0
 485 00b8 0446     		mov	r4, r0
 486              	.LVL49:
 487 00ba E1E7     		b	.L46
 488              	.LVL50:
 489              	.L70:
 490              	.LBE14:
 491              	.LBE15:
 550:Generated_Source\PSoC5/CyFlash.c **** }
 492              		.loc 1 550 0
 493 00bc 2046     		mov	r0, r4
 494 00be BDE8F081 		pop	{r4, r5, r6, r7, r8, pc}
 495              	.L76:
 496 00c2 00BF     		.align	2
 497              	.L75:
 498 00c4 22470040 		.word	1073760034
ARM GAS  C:\Users\RABBIT~1\AppData\Local\Temp\cchp9hGz.s 			page 20


 499 00c8 00000000 		.word	dieTemperature
 500              		.cfi_endproc
 501              	.LFE7:
 502              		.size	CyWriteRowFull, .-CyWriteRowFull
 503              		.section	.text.CyWriteRowData,"ax",%progbits
 504              		.align	1
 505              		.global	CyWriteRowData
 506              		.thumb
 507              		.thumb_func
 508              		.type	CyWriteRowData, %function
 509              	CyWriteRowData:
 510              	.LFB6:
 367:Generated_Source\PSoC5/CyFlash.c ****     uint16 rowSize;
 511              		.loc 1 367 0
 512              		.cfi_startproc
 513              		@ args = 0, pretend = 0, frame = 0
 514              		@ frame_needed = 0, uses_anonymous_args = 0
 515              		@ link register save eliminated.
 516              	.LVL51:
 371:Generated_Source\PSoC5/CyFlash.c ****     status = CyWriteRowFull(arrayId, rowAddress, rowData, rowSize);
 517              		.loc 1 371 0
 518 0000 3F28     		cmp	r0, #63
 519              	.LVL52:
 372:Generated_Source\PSoC5/CyFlash.c **** 
 520              		.loc 1 372 0
 521 0002 8CBF     		ite	hi
 522 0004 1023     		movhi	r3, #16
 523 0006 4FF48073 		movls	r3, #256
 524 000a FFF7FEBF 		b	CyWriteRowFull
 525              	.LVL53:
 526              		.cfi_endproc
 527              	.LFE6:
 528              		.size	CyWriteRowData, .-CyWriteRowData
 529              		.section	.text.CyFlash_SetWaitCycles,"ax",%progbits
 530              		.align	1
 531              		.global	CyFlash_SetWaitCycles
 532              		.thumb
 533              		.thumb_func
 534              		.type	CyFlash_SetWaitCycles, %function
 535              	CyFlash_SetWaitCycles:
 536              	.LFB8:
 551:Generated_Source\PSoC5/CyFlash.c **** 
 552:Generated_Source\PSoC5/CyFlash.c **** 
 553:Generated_Source\PSoC5/CyFlash.c **** /*******************************************************************************
 554:Generated_Source\PSoC5/CyFlash.c **** * Function Name: CyFlash_SetWaitCycles
 555:Generated_Source\PSoC5/CyFlash.c **** ********************************************************************************
 556:Generated_Source\PSoC5/CyFlash.c **** *
 557:Generated_Source\PSoC5/CyFlash.c **** * Summary:
 558:Generated_Source\PSoC5/CyFlash.c **** *  Sets the number of clock cycles the cache will wait before it samples data
 559:Generated_Source\PSoC5/CyFlash.c **** *  coming back from the Flash. This function must be called before increasing the CPU
 560:Generated_Source\PSoC5/CyFlash.c **** *  clock frequency. It can optionally be called after lowering the CPU clock
 561:Generated_Source\PSoC5/CyFlash.c **** *  frequency in order to improve the CPU performance.
 562:Generated_Source\PSoC5/CyFlash.c **** *
 563:Generated_Source\PSoC5/CyFlash.c **** * Parameters:
 564:Generated_Source\PSoC5/CyFlash.c **** *  uint8 freq:
 565:Generated_Source\PSoC5/CyFlash.c **** *   Frequency of operation in Megahertz.
 566:Generated_Source\PSoC5/CyFlash.c **** *
ARM GAS  C:\Users\RABBIT~1\AppData\Local\Temp\cchp9hGz.s 			page 21


 567:Generated_Source\PSoC5/CyFlash.c **** * Return:
 568:Generated_Source\PSoC5/CyFlash.c **** *  None
 569:Generated_Source\PSoC5/CyFlash.c **** *
 570:Generated_Source\PSoC5/CyFlash.c **** *******************************************************************************/
 571:Generated_Source\PSoC5/CyFlash.c **** void CyFlash_SetWaitCycles(uint8 freq) 
 572:Generated_Source\PSoC5/CyFlash.c **** {
 537              		.loc 1 572 0
 538              		.cfi_startproc
 539              		@ args = 0, pretend = 0, frame = 0
 540              		@ frame_needed = 0, uses_anonymous_args = 0
 541              	.LVL54:
 542 0000 10B5     		push	{r4, lr}
 543              		.cfi_def_cfa_offset 8
 544              		.cfi_offset 4, -8
 545              		.cfi_offset 14, -4
 546              		.loc 1 572 0
 547 0002 0446     		mov	r4, r0
 573:Generated_Source\PSoC5/CyFlash.c ****     uint8 interruptState;
 574:Generated_Source\PSoC5/CyFlash.c **** 
 575:Generated_Source\PSoC5/CyFlash.c ****     /* Save current global interrupt enable and disable it */
 576:Generated_Source\PSoC5/CyFlash.c ****     interruptState = CyEnterCriticalSection();
 548              		.loc 1 576 0
 549 0004 FFF7FEFF 		bl	CyEnterCriticalSection
 550              	.LVL55:
 577:Generated_Source\PSoC5/CyFlash.c **** 
 578:Generated_Source\PSoC5/CyFlash.c ****     /***************************************************************************
 579:Generated_Source\PSoC5/CyFlash.c ****     * The number of clock cycles the cache will wait before it samples data
 580:Generated_Source\PSoC5/CyFlash.c ****     * coming back from the Flash must be equal or greater to to the CPU frequency
 581:Generated_Source\PSoC5/CyFlash.c ****     * outlined in clock cycles.
 582:Generated_Source\PSoC5/CyFlash.c ****     ***************************************************************************/
 583:Generated_Source\PSoC5/CyFlash.c **** 
 584:Generated_Source\PSoC5/CyFlash.c ****     if (freq < CY_FLASH_CACHE_WS_1_FREQ_MAX)
 551              		.loc 1 584 0
 552 0008 0F2C     		cmp	r4, #15
 553 000a 06D8     		bhi	.L81
 585:Generated_Source\PSoC5/CyFlash.c ****     {
 586:Generated_Source\PSoC5/CyFlash.c ****         CY_FLASH_CONTROL_REG = (CY_FLASH_CONTROL_REG & (uint8)(~CY_FLASH_CACHE_WS_VALUE_MASK)) |
 554              		.loc 1 586 0
 555 000c 164A     		ldr	r2, .L87
 556 000e 1378     		ldrb	r3, [r2]	@ zero_extendqisi2
 557 0010 03F01F03 		and	r3, r3, #31
 558 0014 43F04003 		orr	r3, r3, #64
 559 0018 20E0     		b	.L86
 560              	.L81:
 587:Generated_Source\PSoC5/CyFlash.c ****                                     CY_FLASH_CACHE_WS_1_VALUE_MASK;
 588:Generated_Source\PSoC5/CyFlash.c ****     }
 589:Generated_Source\PSoC5/CyFlash.c ****     else if (freq < CY_FLASH_CACHE_WS_2_FREQ_MAX)
 561              		.loc 1 589 0
 562 001a 202C     		cmp	r4, #32
 563 001c 06D8     		bhi	.L83
 590:Generated_Source\PSoC5/CyFlash.c ****     {
 591:Generated_Source\PSoC5/CyFlash.c ****         CY_FLASH_CONTROL_REG = (CY_FLASH_CONTROL_REG & (uint8)(~CY_FLASH_CACHE_WS_VALUE_MASK)) |
 564              		.loc 1 591 0
 565 001e 124A     		ldr	r2, .L87
 566 0020 1378     		ldrb	r3, [r2]	@ zero_extendqisi2
 567 0022 03F01F03 		and	r3, r3, #31
 568 0026 43F08003 		orr	r3, r3, #128
ARM GAS  C:\Users\RABBIT~1\AppData\Local\Temp\cchp9hGz.s 			page 22


 569 002a 17E0     		b	.L86
 570              	.L83:
 592:Generated_Source\PSoC5/CyFlash.c ****                                     CY_FLASH_CACHE_WS_2_VALUE_MASK;
 593:Generated_Source\PSoC5/CyFlash.c ****     }
 594:Generated_Source\PSoC5/CyFlash.c ****     else if (freq < CY_FLASH_CACHE_WS_3_FREQ_MAX)
 571              		.loc 1 594 0
 572 002c 312C     		cmp	r4, #49
 573 002e 06D8     		bhi	.L84
 595:Generated_Source\PSoC5/CyFlash.c ****     {
 596:Generated_Source\PSoC5/CyFlash.c ****         CY_FLASH_CONTROL_REG = (CY_FLASH_CONTROL_REG & (uint8)(~CY_FLASH_CACHE_WS_VALUE_MASK)) |
 574              		.loc 1 596 0
 575 0030 0D4A     		ldr	r2, .L87
 576 0032 1378     		ldrb	r3, [r2]	@ zero_extendqisi2
 577 0034 03F01F03 		and	r3, r3, #31
 578 0038 43F0C003 		orr	r3, r3, #192
 579 003c 0EE0     		b	.L86
 580              	.L84:
 597:Generated_Source\PSoC5/CyFlash.c ****                                     CY_FLASH_CACHE_WS_3_VALUE_MASK;
 598:Generated_Source\PSoC5/CyFlash.c ****     }
 599:Generated_Source\PSoC5/CyFlash.c **** #if (CY_PSOC5)
 600:Generated_Source\PSoC5/CyFlash.c ****     else if (freq < CY_FLASH_CACHE_WS_4_FREQ_MAX)
 581              		.loc 1 600 0
 582 003e 422C     		cmp	r4, #66
 583 0040 04D8     		bhi	.L85
 601:Generated_Source\PSoC5/CyFlash.c ****     {
 602:Generated_Source\PSoC5/CyFlash.c ****         CY_FLASH_CONTROL_REG = (CY_FLASH_CONTROL_REG & (uint8)(~CY_FLASH_CACHE_WS_VALUE_MASK)) |
 584              		.loc 1 602 0
 585 0042 094A     		ldr	r2, .L87
 586 0044 1378     		ldrb	r3, [r2]	@ zero_extendqisi2
 587 0046 03F01F03 		and	r3, r3, #31
 588 004a 07E0     		b	.L86
 589              	.L85:
 603:Generated_Source\PSoC5/CyFlash.c ****                                     CY_FLASH_CACHE_WS_4_VALUE_MASK;
 604:Generated_Source\PSoC5/CyFlash.c ****     }
 605:Generated_Source\PSoC5/CyFlash.c ****     else if (freq <= CY_FLASH_CACHE_WS_5_FREQ_MAX)
 590              		.loc 1 605 0
 591 004c 532C     		cmp	r4, #83
 592 004e 06D8     		bhi	.L82
 606:Generated_Source\PSoC5/CyFlash.c ****     {
 607:Generated_Source\PSoC5/CyFlash.c ****         CY_FLASH_CONTROL_REG = (CY_FLASH_CONTROL_REG & (uint8)(~CY_FLASH_CACHE_WS_VALUE_MASK)) |
 593              		.loc 1 607 0
 594 0050 054A     		ldr	r2, .L87
 595 0052 1378     		ldrb	r3, [r2]	@ zero_extendqisi2
 596 0054 03F01F03 		and	r3, r3, #31
 597 0058 43F02003 		orr	r3, r3, #32
 598              	.L86:
 599 005c 1370     		strb	r3, [r2]
 600              	.L82:
 608:Generated_Source\PSoC5/CyFlash.c ****                                     CY_FLASH_CACHE_WS_5_VALUE_MASK;
 609:Generated_Source\PSoC5/CyFlash.c ****     }
 610:Generated_Source\PSoC5/CyFlash.c **** #endif  /* (CY_PSOC5) */
 611:Generated_Source\PSoC5/CyFlash.c ****     else
 612:Generated_Source\PSoC5/CyFlash.c ****     {
 613:Generated_Source\PSoC5/CyFlash.c ****         /* Halt CPU in debug mode if frequency is invalid */
 614:Generated_Source\PSoC5/CyFlash.c ****         CYASSERT(0u != 0u);
 615:Generated_Source\PSoC5/CyFlash.c ****     }
 616:Generated_Source\PSoC5/CyFlash.c **** 
ARM GAS  C:\Users\RABBIT~1\AppData\Local\Temp\cchp9hGz.s 			page 23


 617:Generated_Source\PSoC5/CyFlash.c ****     /* Restore global interrupt enable state */
 618:Generated_Source\PSoC5/CyFlash.c ****     CyExitCriticalSection(interruptState);
 619:Generated_Source\PSoC5/CyFlash.c **** }
 601              		.loc 1 619 0
 602 005e BDE81040 		pop	{r4, lr}
 603              		.cfi_restore 14
 604              		.cfi_restore 4
 605              		.cfi_def_cfa_offset 0
 618:Generated_Source\PSoC5/CyFlash.c **** }
 606              		.loc 1 618 0
 607 0062 FFF7FEBF 		b	CyExitCriticalSection
 608              	.LVL56:
 609              	.L88:
 610 0066 00BF     		.align	2
 611              	.L87:
 612 0068 00480040 		.word	1073760256
 613              		.cfi_endproc
 614              	.LFE8:
 615              		.size	CyFlash_SetWaitCycles, .-CyFlash_SetWaitCycles
 616              		.section	.text.CyEEPROM_Start,"ax",%progbits
 617              		.align	1
 618              		.global	CyEEPROM_Start
 619              		.thumb
 620              		.thumb_func
 621              		.type	CyEEPROM_Start, %function
 622              	CyEEPROM_Start:
 623              	.LFB9:
 620:Generated_Source\PSoC5/CyFlash.c **** 
 621:Generated_Source\PSoC5/CyFlash.c **** 
 622:Generated_Source\PSoC5/CyFlash.c **** /*******************************************************************************
 623:Generated_Source\PSoC5/CyFlash.c **** * Function Name: CyEEPROM_Start
 624:Generated_Source\PSoC5/CyFlash.c **** ********************************************************************************
 625:Generated_Source\PSoC5/CyFlash.c **** *
 626:Generated_Source\PSoC5/CyFlash.c **** * Summary:
 627:Generated_Source\PSoC5/CyFlash.c **** *  Enable the EEPROM.
 628:Generated_Source\PSoC5/CyFlash.c **** *
 629:Generated_Source\PSoC5/CyFlash.c **** * Parameters:
 630:Generated_Source\PSoC5/CyFlash.c **** *  None
 631:Generated_Source\PSoC5/CyFlash.c **** *
 632:Generated_Source\PSoC5/CyFlash.c **** * Return:
 633:Generated_Source\PSoC5/CyFlash.c **** *  None
 634:Generated_Source\PSoC5/CyFlash.c **** *
 635:Generated_Source\PSoC5/CyFlash.c **** *******************************************************************************/
 636:Generated_Source\PSoC5/CyFlash.c **** void CyEEPROM_Start(void) 
 637:Generated_Source\PSoC5/CyFlash.c **** {
 624              		.loc 1 637 0
 625              		.cfi_startproc
 626              		@ args = 0, pretend = 0, frame = 0
 627              		@ frame_needed = 0, uses_anonymous_args = 0
 628 0000 08B5     		push	{r3, lr}
 629              		.cfi_def_cfa_offset 8
 630              		.cfi_offset 3, -8
 631              		.cfi_offset 14, -4
 638:Generated_Source\PSoC5/CyFlash.c ****     uint8 interruptState;
 639:Generated_Source\PSoC5/CyFlash.c **** 
 640:Generated_Source\PSoC5/CyFlash.c ****     interruptState = CyEnterCriticalSection();
 632              		.loc 1 640 0
ARM GAS  C:\Users\RABBIT~1\AppData\Local\Temp\cchp9hGz.s 			page 24


 633 0002 FFF7FEFF 		bl	CyEnterCriticalSection
 634              	.LVL57:
 641:Generated_Source\PSoC5/CyFlash.c **** 
 642:Generated_Source\PSoC5/CyFlash.c **** 
 643:Generated_Source\PSoC5/CyFlash.c ****     /***************************************************************************
 644:Generated_Source\PSoC5/CyFlash.c ****     * Enable SPC clock. This also internally enables the 36MHz IMO, since this
 645:Generated_Source\PSoC5/CyFlash.c ****     * is required for the SPC to function.
 646:Generated_Source\PSoC5/CyFlash.c ****     ***************************************************************************/
 647:Generated_Source\PSoC5/CyFlash.c ****     CY_FLASH_PM_ACT_CFG0_REG    |= CY_FLASH_PM_ACT_CFG0_EN_CLK_SPC;
 635              		.loc 1 647 0
 636 0006 0F4A     		ldr	r2, .L93
 637 0008 1378     		ldrb	r3, [r2]	@ zero_extendqisi2
 638 000a 43F00803 		orr	r3, r3, #8
 639 000e 1370     		strb	r3, [r2]
 648:Generated_Source\PSoC5/CyFlash.c ****     CY_FLASH_PM_ALTACT_CFG0_REG |= CY_FLASH_PM_ALTACT_CFG0_EN_CLK_SPC;
 640              		.loc 1 648 0
 641 0010 137C     		ldrb	r3, [r2, #16]	@ zero_extendqisi2
 642 0012 43F00803 		orr	r3, r3, #8
 643 0016 1374     		strb	r3, [r2, #16]
 649:Generated_Source\PSoC5/CyFlash.c **** 
 650:Generated_Source\PSoC5/CyFlash.c **** 
 651:Generated_Source\PSoC5/CyFlash.c ****     /***************************************************************************
 652:Generated_Source\PSoC5/CyFlash.c ****     * The wake count defines the number of Bus Clock cycles it takes for the
 653:Generated_Source\PSoC5/CyFlash.c ****     * flash or EEPROM to wake up from a low power mode independent of the chip
 654:Generated_Source\PSoC5/CyFlash.c ****     * power mode. Wake up time for these blocks is 5 us.
 655:Generated_Source\PSoC5/CyFlash.c ****     * The granularity of this register is 2 Bus Clock cycles, so a value of 0x1E
 656:Generated_Source\PSoC5/CyFlash.c ****     * (30d) defines the wake up time as 60 cycles of the Bus Clock.
 657:Generated_Source\PSoC5/CyFlash.c ****     * This register needs to be written with a value dependent on the Bus Clock
 658:Generated_Source\PSoC5/CyFlash.c ****     * frequency so that the duration of the cycles is equal to or greater than
 659:Generated_Source\PSoC5/CyFlash.c ****     * the 5 us delay required.
 660:Generated_Source\PSoC5/CyFlash.c ****     ***************************************************************************/
 661:Generated_Source\PSoC5/CyFlash.c ****     CY_FLASH_SPC_FM_EE_WAKE_CNT_REG = CY_FLASH_SPC_FM_EE_WAKE_CNT_80MHZ;
 644              		.loc 1 661 0
 645 0018 0B4B     		ldr	r3, .L93+4
 646 001a C822     		movs	r2, #200
 647 001c 1A70     		strb	r2, [r3]
 662:Generated_Source\PSoC5/CyFlash.c **** 
 663:Generated_Source\PSoC5/CyFlash.c **** 
 664:Generated_Source\PSoC5/CyFlash.c ****     /***************************************************************************
 665:Generated_Source\PSoC5/CyFlash.c ****     * Enable EEPROM. Re-enabling an EEPROM macro takes 5us. During this time,
 666:Generated_Source\PSoC5/CyFlash.c ****     * the EE will not acknowledge a PHUB request.
 667:Generated_Source\PSoC5/CyFlash.c ****     ***************************************************************************/
 668:Generated_Source\PSoC5/CyFlash.c ****     CY_FLASH_PM_ACT_CFG12_REG    |= CY_FLASH_PM_ACT_CFG12_EN_EE;
 648              		.loc 1 668 0
 649 001e 0B4A     		ldr	r2, .L93+8
 650 0020 1378     		ldrb	r3, [r2]	@ zero_extendqisi2
 651 0022 43F01003 		orr	r3, r3, #16
 652 0026 1370     		strb	r3, [r2]
 669:Generated_Source\PSoC5/CyFlash.c ****     CY_FLASH_PM_ALTACT_CFG12_REG |= CY_FLASH_PM_ALTACT_CFG12_EN_EE;
 653              		.loc 1 669 0
 654 0028 137C     		ldrb	r3, [r2, #16]	@ zero_extendqisi2
 655 002a 43F01003 		orr	r3, r3, #16
 656 002e 1374     		strb	r3, [r2, #16]
 670:Generated_Source\PSoC5/CyFlash.c **** 
 671:Generated_Source\PSoC5/CyFlash.c ****     while(0u == (CY_FLASH_SPC_FM_EE_CR_REG & CY_FLASH_EE_EE_AWAKE))
 657              		.loc 1 671 0
 658 0030 02F55572 		add	r2, r2, #852
ARM GAS  C:\Users\RABBIT~1\AppData\Local\Temp\cchp9hGz.s 			page 25


 659              	.L90:
 660              		.loc 1 671 0 is_stmt 0 discriminator 1
 661 0034 1378     		ldrb	r3, [r2]	@ zero_extendqisi2
 662 0036 9B06     		lsls	r3, r3, #26
 663 0038 FCD5     		bpl	.L90
 672:Generated_Source\PSoC5/CyFlash.c ****     {
 673:Generated_Source\PSoC5/CyFlash.c ****         /* Non-zero status denotes that the EEPROM/Flash is awake & powered. */
 674:Generated_Source\PSoC5/CyFlash.c ****     }
 675:Generated_Source\PSoC5/CyFlash.c **** 
 676:Generated_Source\PSoC5/CyFlash.c ****     CyExitCriticalSection(interruptState);
 677:Generated_Source\PSoC5/CyFlash.c **** }
 664              		.loc 1 677 0 is_stmt 1
 665 003a BDE80840 		pop	{r3, lr}
 666              		.cfi_restore 14
 667              		.cfi_restore 3
 668              		.cfi_def_cfa_offset 0
 676:Generated_Source\PSoC5/CyFlash.c **** }
 669              		.loc 1 676 0
 670 003e FFF7FEBF 		b	CyExitCriticalSection
 671              	.LVL58:
 672              	.L94:
 673 0042 00BF     		.align	2
 674              	.L93:
 675 0044 A0430040 		.word	1073759136
 676 0048 01470040 		.word	1073760001
 677 004c AC430040 		.word	1073759148
 678              		.cfi_endproc
 679              	.LFE9:
 680              		.size	CyEEPROM_Start, .-CyEEPROM_Start
 681              		.section	.text.CyEEPROM_Stop,"ax",%progbits
 682              		.align	1
 683              		.global	CyEEPROM_Stop
 684              		.thumb
 685              		.thumb_func
 686              		.type	CyEEPROM_Stop, %function
 687              	CyEEPROM_Stop:
 688              	.LFB10:
 678:Generated_Source\PSoC5/CyFlash.c **** 
 679:Generated_Source\PSoC5/CyFlash.c **** 
 680:Generated_Source\PSoC5/CyFlash.c **** /*******************************************************************************
 681:Generated_Source\PSoC5/CyFlash.c **** * Function Name: CyEEPROM_Stop
 682:Generated_Source\PSoC5/CyFlash.c **** ********************************************************************************
 683:Generated_Source\PSoC5/CyFlash.c **** *
 684:Generated_Source\PSoC5/CyFlash.c **** * Summary:
 685:Generated_Source\PSoC5/CyFlash.c **** *  Disable the EEPROM.
 686:Generated_Source\PSoC5/CyFlash.c **** *
 687:Generated_Source\PSoC5/CyFlash.c **** * Parameters:
 688:Generated_Source\PSoC5/CyFlash.c **** *  None
 689:Generated_Source\PSoC5/CyFlash.c **** *
 690:Generated_Source\PSoC5/CyFlash.c **** * Return:
 691:Generated_Source\PSoC5/CyFlash.c **** *  None
 692:Generated_Source\PSoC5/CyFlash.c **** *
 693:Generated_Source\PSoC5/CyFlash.c **** *******************************************************************************/
 694:Generated_Source\PSoC5/CyFlash.c **** void CyEEPROM_Stop (void) 
 695:Generated_Source\PSoC5/CyFlash.c **** {
 689              		.loc 1 695 0
 690              		.cfi_startproc
ARM GAS  C:\Users\RABBIT~1\AppData\Local\Temp\cchp9hGz.s 			page 26


 691              		@ args = 0, pretend = 0, frame = 0
 692              		@ frame_needed = 0, uses_anonymous_args = 0
 693 0000 08B5     		push	{r3, lr}
 694              		.cfi_def_cfa_offset 8
 695              		.cfi_offset 3, -8
 696              		.cfi_offset 14, -4
 696:Generated_Source\PSoC5/CyFlash.c ****     uint8 interruptState;
 697:Generated_Source\PSoC5/CyFlash.c **** 
 698:Generated_Source\PSoC5/CyFlash.c ****     interruptState = CyEnterCriticalSection();
 697              		.loc 1 698 0
 698 0002 FFF7FEFF 		bl	CyEnterCriticalSection
 699              	.LVL59:
 699:Generated_Source\PSoC5/CyFlash.c **** 
 700:Generated_Source\PSoC5/CyFlash.c ****     CY_FLASH_PM_ACT_CFG12_REG    &= ((uint8)(~CY_FLASH_PM_ACT_CFG12_EN_EE));
 700              		.loc 1 700 0
 701 0006 064A     		ldr	r2, .L96
 702 0008 1378     		ldrb	r3, [r2]	@ zero_extendqisi2
 703 000a 03F0EF03 		and	r3, r3, #239
 704 000e 1370     		strb	r3, [r2]
 701:Generated_Source\PSoC5/CyFlash.c ****     CY_FLASH_PM_ALTACT_CFG12_REG &= ((uint8)(~CY_FLASH_PM_ALTACT_CFG12_EN_EE));
 705              		.loc 1 701 0
 706 0010 137C     		ldrb	r3, [r2, #16]	@ zero_extendqisi2
 707 0012 03F0EF03 		and	r3, r3, #239
 708 0016 1374     		strb	r3, [r2, #16]
 702:Generated_Source\PSoC5/CyFlash.c **** 
 703:Generated_Source\PSoC5/CyFlash.c ****     CyExitCriticalSection(interruptState);
 704:Generated_Source\PSoC5/CyFlash.c **** }
 709              		.loc 1 704 0
 710 0018 BDE80840 		pop	{r3, lr}
 711              		.cfi_restore 14
 712              		.cfi_restore 3
 713              		.cfi_def_cfa_offset 0
 703:Generated_Source\PSoC5/CyFlash.c **** }
 714              		.loc 1 703 0
 715 001c FFF7FEBF 		b	CyExitCriticalSection
 716              	.LVL60:
 717              	.L97:
 718              		.align	2
 719              	.L96:
 720 0020 AC430040 		.word	1073759148
 721              		.cfi_endproc
 722              	.LFE10:
 723              		.size	CyEEPROM_Stop, .-CyEEPROM_Stop
 724              		.section	.text.CyEEPROM_ReadReserve,"ax",%progbits
 725              		.align	1
 726              		.global	CyEEPROM_ReadReserve
 727              		.thumb
 728              		.thumb_func
 729              		.type	CyEEPROM_ReadReserve, %function
 730              	CyEEPROM_ReadReserve:
 731              	.LFB11:
 705:Generated_Source\PSoC5/CyFlash.c **** 
 706:Generated_Source\PSoC5/CyFlash.c **** 
 707:Generated_Source\PSoC5/CyFlash.c **** /*******************************************************************************
 708:Generated_Source\PSoC5/CyFlash.c **** * Function Name: CyEEPROM_ReadReserve
 709:Generated_Source\PSoC5/CyFlash.c **** ********************************************************************************
 710:Generated_Source\PSoC5/CyFlash.c **** *
ARM GAS  C:\Users\RABBIT~1\AppData\Local\Temp\cchp9hGz.s 			page 27


 711:Generated_Source\PSoC5/CyFlash.c **** * Summary:
 712:Generated_Source\PSoC5/CyFlash.c **** *  Request access to the EEPROM for reading and wait until access is available.
 713:Generated_Source\PSoC5/CyFlash.c **** *
 714:Generated_Source\PSoC5/CyFlash.c **** * Parameters:
 715:Generated_Source\PSoC5/CyFlash.c **** *  None
 716:Generated_Source\PSoC5/CyFlash.c **** *
 717:Generated_Source\PSoC5/CyFlash.c **** * Return:
 718:Generated_Source\PSoC5/CyFlash.c **** *  None
 719:Generated_Source\PSoC5/CyFlash.c **** *
 720:Generated_Source\PSoC5/CyFlash.c **** *******************************************************************************/
 721:Generated_Source\PSoC5/CyFlash.c **** void CyEEPROM_ReadReserve(void) 
 722:Generated_Source\PSoC5/CyFlash.c **** {
 732              		.loc 1 722 0
 733              		.cfi_startproc
 734              		@ args = 0, pretend = 0, frame = 0
 735              		@ frame_needed = 0, uses_anonymous_args = 0
 736              		@ link register save eliminated.
 723:Generated_Source\PSoC5/CyFlash.c ****     /* Make request for PHUB to have access */
 724:Generated_Source\PSoC5/CyFlash.c ****     CY_FLASH_EE_SCR_REG |= CY_FLASH_EE_SCR_AHB_EE_REQ;
 737              		.loc 1 724 0
 738 0000 044B     		ldr	r3, .L102
 739 0002 1A78     		ldrb	r2, [r3]	@ zero_extendqisi2
 740 0004 42F00102 		orr	r2, r2, #1
 741 0008 1A70     		strb	r2, [r3]
 742              	.L99:
 725:Generated_Source\PSoC5/CyFlash.c **** 
 726:Generated_Source\PSoC5/CyFlash.c ****     while (0u == (CY_FLASH_EE_SCR_REG & CY_FLASH_EE_SCR_AHB_EE_ACK))
 743              		.loc 1 726 0 discriminator 1
 744 000a 1A78     		ldrb	r2, [r3]	@ zero_extendqisi2
 745 000c 9207     		lsls	r2, r2, #30
 746 000e FCD5     		bpl	.L99
 727:Generated_Source\PSoC5/CyFlash.c ****     {
 728:Generated_Source\PSoC5/CyFlash.c ****         /* Wait for acknowledgment from PHUB */
 729:Generated_Source\PSoC5/CyFlash.c ****     }
 730:Generated_Source\PSoC5/CyFlash.c **** }
 747              		.loc 1 730 0
 748 0010 7047     		bx	lr
 749              	.L103:
 750 0012 00BF     		.align	2
 751              	.L102:
 752 0014 02470040 		.word	1073760002
 753              		.cfi_endproc
 754              	.LFE11:
 755              		.size	CyEEPROM_ReadReserve, .-CyEEPROM_ReadReserve
 756              		.section	.text.CyEEPROM_ReadRelease,"ax",%progbits
 757              		.align	1
 758              		.global	CyEEPROM_ReadRelease
 759              		.thumb
 760              		.thumb_func
 761              		.type	CyEEPROM_ReadRelease, %function
 762              	CyEEPROM_ReadRelease:
 763              	.LFB12:
 731:Generated_Source\PSoC5/CyFlash.c **** 
 732:Generated_Source\PSoC5/CyFlash.c **** 
 733:Generated_Source\PSoC5/CyFlash.c **** /*******************************************************************************
 734:Generated_Source\PSoC5/CyFlash.c **** * Function Name: CyEEPROM_ReadRelease
 735:Generated_Source\PSoC5/CyFlash.c **** ********************************************************************************
ARM GAS  C:\Users\RABBIT~1\AppData\Local\Temp\cchp9hGz.s 			page 28


 736:Generated_Source\PSoC5/CyFlash.c **** *
 737:Generated_Source\PSoC5/CyFlash.c **** * Summary:
 738:Generated_Source\PSoC5/CyFlash.c **** *  Release the read reservation of the EEPROM.
 739:Generated_Source\PSoC5/CyFlash.c **** *
 740:Generated_Source\PSoC5/CyFlash.c **** * Parameters:
 741:Generated_Source\PSoC5/CyFlash.c **** *  None
 742:Generated_Source\PSoC5/CyFlash.c **** *
 743:Generated_Source\PSoC5/CyFlash.c **** * Return:
 744:Generated_Source\PSoC5/CyFlash.c **** *  None
 745:Generated_Source\PSoC5/CyFlash.c **** *
 746:Generated_Source\PSoC5/CyFlash.c **** *******************************************************************************/
 747:Generated_Source\PSoC5/CyFlash.c **** void CyEEPROM_ReadRelease(void) 
 748:Generated_Source\PSoC5/CyFlash.c **** {
 764              		.loc 1 748 0
 765              		.cfi_startproc
 766              		@ args = 0, pretend = 0, frame = 0
 767              		@ frame_needed = 0, uses_anonymous_args = 0
 768              		@ link register save eliminated.
 749:Generated_Source\PSoC5/CyFlash.c ****     CY_FLASH_EE_SCR_REG &= (uint8)(~CY_FLASH_EE_SCR_AHB_EE_REQ);
 769              		.loc 1 749 0
 770 0000 024A     		ldr	r2, .L105
 771 0002 1378     		ldrb	r3, [r2]	@ zero_extendqisi2
 772 0004 03F0FE03 		and	r3, r3, #254
 773 0008 1370     		strb	r3, [r2]
 774 000a 7047     		bx	lr
 775              	.L106:
 776              		.align	2
 777              	.L105:
 778 000c 02470040 		.word	1073760002
 779              		.cfi_endproc
 780              	.LFE12:
 781              		.size	CyEEPROM_ReadRelease, .-CyEEPROM_ReadRelease
 782              		.comm	dieTemperature,2,1
 783              		.text
 784              	.Letext0:
 785              		.file 2 "Generated_Source\\PSoC5\\cytypes.h"
 786              		.file 3 "Generated_Source\\PSoC5\\CyLib.h"
 787              		.file 4 "Generated_Source\\PSoC5\\CySpc.h"