ARM GAS  C:\Users\RABBIT~1\AppData\Local\Temp\ccBbYJ3X.s 			page 1


   1              		.syntax unified
   2              		.cpu cortex-m3
   3              		.fpu softvfp
   4              		.eabi_attribute 20, 1
   5              		.eabi_attribute 21, 1
   6              		.eabi_attribute 23, 3
   7              		.eabi_attribute 24, 1
   8              		.eabi_attribute 25, 1
   9              		.eabi_attribute 26, 1
  10              		.eabi_attribute 30, 4
  11              		.eabi_attribute 34, 1
  12              		.eabi_attribute 18, 4
  13              		.thumb
  14              		.syntax unified
  15              		.file	"LED.c"
  16              		.text
  17              	.Ltext0:
  18              		.cfi_sections	.debug_frame
  19              		.section	.text.LED_Write,"ax",%progbits
  20              		.align	1
  21              		.global	LED_Write
  22              		.thumb
  23              		.thumb_func
  24              		.type	LED_Write, %function
  25              	LED_Write:
  26              	.LFB0:
  27              		.file 1 "Generated_Source\\PSoC5\\LED.c"
   1:Generated_Source\PSoC5/LED.c **** /*******************************************************************************
   2:Generated_Source\PSoC5/LED.c **** * File Name: LED.c  
   3:Generated_Source\PSoC5/LED.c **** * Version 2.10
   4:Generated_Source\PSoC5/LED.c **** *
   5:Generated_Source\PSoC5/LED.c **** * Description:
   6:Generated_Source\PSoC5/LED.c **** *  This file contains API to enable firmware control of a Pins component.
   7:Generated_Source\PSoC5/LED.c **** *
   8:Generated_Source\PSoC5/LED.c **** * Note:
   9:Generated_Source\PSoC5/LED.c **** *
  10:Generated_Source\PSoC5/LED.c **** ********************************************************************************
  11:Generated_Source\PSoC5/LED.c **** * Copyright 2008-2014, Cypress Semiconductor Corporation.  All rights reserved.
  12:Generated_Source\PSoC5/LED.c **** * You may use this file only in accordance with the license, terms, conditions, 
  13:Generated_Source\PSoC5/LED.c **** * disclaimers, and limitations in the end user license agreement accompanying 
  14:Generated_Source\PSoC5/LED.c **** * the software package with which this file was provided.
  15:Generated_Source\PSoC5/LED.c **** *******************************************************************************/
  16:Generated_Source\PSoC5/LED.c **** 
  17:Generated_Source\PSoC5/LED.c **** #include "cytypes.h"
  18:Generated_Source\PSoC5/LED.c **** #include "LED.h"
  19:Generated_Source\PSoC5/LED.c **** 
  20:Generated_Source\PSoC5/LED.c **** /* APIs are not generated for P15[7:6] on PSoC 5 */
  21:Generated_Source\PSoC5/LED.c **** #if !(CY_PSOC5A &&\
  22:Generated_Source\PSoC5/LED.c **** 	 LED__PORT == 15 && ((LED__MASK & 0xC0) != 0))
  23:Generated_Source\PSoC5/LED.c **** 
  24:Generated_Source\PSoC5/LED.c **** 
  25:Generated_Source\PSoC5/LED.c **** /*******************************************************************************
  26:Generated_Source\PSoC5/LED.c **** * Function Name: LED_Write
  27:Generated_Source\PSoC5/LED.c **** ********************************************************************************
  28:Generated_Source\PSoC5/LED.c **** *
  29:Generated_Source\PSoC5/LED.c **** * Summary:
  30:Generated_Source\PSoC5/LED.c **** *  Assign a new value to the digital port's data output register.  
ARM GAS  C:\Users\RABBIT~1\AppData\Local\Temp\ccBbYJ3X.s 			page 2


  31:Generated_Source\PSoC5/LED.c **** *
  32:Generated_Source\PSoC5/LED.c **** * Parameters:  
  33:Generated_Source\PSoC5/LED.c **** *  prtValue:  The value to be assigned to the Digital Port. 
  34:Generated_Source\PSoC5/LED.c **** *
  35:Generated_Source\PSoC5/LED.c **** * Return: 
  36:Generated_Source\PSoC5/LED.c **** *  None
  37:Generated_Source\PSoC5/LED.c **** *  
  38:Generated_Source\PSoC5/LED.c **** *******************************************************************************/
  39:Generated_Source\PSoC5/LED.c **** void LED_Write(uint8 value) 
  40:Generated_Source\PSoC5/LED.c **** {
  28              		.loc 1 40 0
  29              		.cfi_startproc
  30              		@ args = 0, pretend = 0, frame = 0
  31              		@ frame_needed = 0, uses_anonymous_args = 0
  32              		@ link register save eliminated.
  33              	.LVL0:
  41:Generated_Source\PSoC5/LED.c ****     uint8 staticBits = (LED_DR & (uint8)(~LED_MASK));
  34              		.loc 1 41 0
  35 0000 044A     		ldr	r2, .L2
  42:Generated_Source\PSoC5/LED.c ****     LED_DR = staticBits | ((uint8)(value << LED_SHIFT) & LED_MASK);
  36              		.loc 1 42 0
  37 0002 8000     		lsls	r0, r0, #2
  38              	.LVL1:
  41:Generated_Source\PSoC5/LED.c ****     uint8 staticBits = (LED_DR & (uint8)(~LED_MASK));
  39              		.loc 1 41 0
  40 0004 1378     		ldrb	r3, [r2]	@ zero_extendqisi2
  41              	.LVL2:
  42              		.loc 1 42 0
  43 0006 00F00C00 		and	r0, r0, #12
  44 000a 03F0F303 		and	r3, r3, #243
  45              	.LVL3:
  46 000e 0343     		orrs	r3, r3, r0
  47 0010 1370     		strb	r3, [r2]
  48 0012 7047     		bx	lr
  49              	.L3:
  50              		.align	2
  51              	.L2:
  52 0014 C0510040 		.word	1073762752
  53              		.cfi_endproc
  54              	.LFE0:
  55              		.size	LED_Write, .-LED_Write
  56              		.section	.text.LED_SetDriveMode,"ax",%progbits
  57              		.align	1
  58              		.global	LED_SetDriveMode
  59              		.thumb
  60              		.thumb_func
  61              		.type	LED_SetDriveMode, %function
  62              	LED_SetDriveMode:
  63              	.LFB1:
  43:Generated_Source\PSoC5/LED.c **** }
  44:Generated_Source\PSoC5/LED.c **** 
  45:Generated_Source\PSoC5/LED.c **** 
  46:Generated_Source\PSoC5/LED.c **** /*******************************************************************************
  47:Generated_Source\PSoC5/LED.c **** * Function Name: LED_SetDriveMode
  48:Generated_Source\PSoC5/LED.c **** ********************************************************************************
  49:Generated_Source\PSoC5/LED.c **** *
  50:Generated_Source\PSoC5/LED.c **** * Summary:
ARM GAS  C:\Users\RABBIT~1\AppData\Local\Temp\ccBbYJ3X.s 			page 3


  51:Generated_Source\PSoC5/LED.c **** *  Change the drive mode on the pins of the port.
  52:Generated_Source\PSoC5/LED.c **** * 
  53:Generated_Source\PSoC5/LED.c **** * Parameters:  
  54:Generated_Source\PSoC5/LED.c **** *  mode:  Change the pins to one of the following drive modes.
  55:Generated_Source\PSoC5/LED.c **** *
  56:Generated_Source\PSoC5/LED.c **** *  LED_DM_STRONG     Strong Drive 
  57:Generated_Source\PSoC5/LED.c **** *  LED_DM_OD_HI      Open Drain, Drives High 
  58:Generated_Source\PSoC5/LED.c **** *  LED_DM_OD_LO      Open Drain, Drives Low 
  59:Generated_Source\PSoC5/LED.c **** *  LED_DM_RES_UP     Resistive Pull Up 
  60:Generated_Source\PSoC5/LED.c **** *  LED_DM_RES_DWN    Resistive Pull Down 
  61:Generated_Source\PSoC5/LED.c **** *  LED_DM_RES_UPDWN  Resistive Pull Up/Down 
  62:Generated_Source\PSoC5/LED.c **** *  LED_DM_DIG_HIZ    High Impedance Digital 
  63:Generated_Source\PSoC5/LED.c **** *  LED_DM_ALG_HIZ    High Impedance Analog 
  64:Generated_Source\PSoC5/LED.c **** *
  65:Generated_Source\PSoC5/LED.c **** * Return: 
  66:Generated_Source\PSoC5/LED.c **** *  None
  67:Generated_Source\PSoC5/LED.c **** *
  68:Generated_Source\PSoC5/LED.c **** *******************************************************************************/
  69:Generated_Source\PSoC5/LED.c **** void LED_SetDriveMode(uint8 mode) 
  70:Generated_Source\PSoC5/LED.c **** {
  64              		.loc 1 70 0
  65              		.cfi_startproc
  66              		@ args = 0, pretend = 0, frame = 0
  67              		@ frame_needed = 0, uses_anonymous_args = 0
  68              		@ link register save eliminated.
  69              	.LVL4:
  71:Generated_Source\PSoC5/LED.c **** 	CyPins_SetPinDriveMode(LED_0, mode);
  70              		.loc 1 71 0
  71 0000 064A     		ldr	r2, .L5
  72 0002 00F00E00 		and	r0, r0, #14
  73              	.LVL5:
  74 0006 1378     		ldrb	r3, [r2]	@ zero_extendqisi2
  75 0008 03F0F103 		and	r3, r3, #241
  76 000c 0343     		orrs	r3, r3, r0
  77 000e 1370     		strb	r3, [r2]
  72:Generated_Source\PSoC5/LED.c **** 	CyPins_SetPinDriveMode(LED_1, mode);
  78              		.loc 1 72 0
  79 0010 5378     		ldrb	r3, [r2, #1]	@ zero_extendqisi2
  80 0012 03F0F103 		and	r3, r3, #241
  81 0016 1843     		orrs	r0, r0, r3
  82 0018 5070     		strb	r0, [r2, #1]
  83 001a 7047     		bx	lr
  84              	.L6:
  85              		.align	2
  86              	.L5:
  87 001c 62500040 		.word	1073762402
  88              		.cfi_endproc
  89              	.LFE1:
  90              		.size	LED_SetDriveMode, .-LED_SetDriveMode
  91              		.section	.text.LED_Read,"ax",%progbits
  92              		.align	1
  93              		.global	LED_Read
  94              		.thumb
  95              		.thumb_func
  96              		.type	LED_Read, %function
  97              	LED_Read:
  98              	.LFB2:
ARM GAS  C:\Users\RABBIT~1\AppData\Local\Temp\ccBbYJ3X.s 			page 4


  73:Generated_Source\PSoC5/LED.c **** }
  74:Generated_Source\PSoC5/LED.c **** 
  75:Generated_Source\PSoC5/LED.c **** 
  76:Generated_Source\PSoC5/LED.c **** /*******************************************************************************
  77:Generated_Source\PSoC5/LED.c **** * Function Name: LED_Read
  78:Generated_Source\PSoC5/LED.c **** ********************************************************************************
  79:Generated_Source\PSoC5/LED.c **** *
  80:Generated_Source\PSoC5/LED.c **** * Summary:
  81:Generated_Source\PSoC5/LED.c **** *  Read the current value on the pins of the Digital Port in right justified 
  82:Generated_Source\PSoC5/LED.c **** *  form.
  83:Generated_Source\PSoC5/LED.c **** *
  84:Generated_Source\PSoC5/LED.c **** * Parameters:  
  85:Generated_Source\PSoC5/LED.c **** *  None
  86:Generated_Source\PSoC5/LED.c **** *
  87:Generated_Source\PSoC5/LED.c **** * Return: 
  88:Generated_Source\PSoC5/LED.c **** *  Returns the current value of the Digital Port as a right justified number
  89:Generated_Source\PSoC5/LED.c **** *  
  90:Generated_Source\PSoC5/LED.c **** * Note:
  91:Generated_Source\PSoC5/LED.c **** *  Macro LED_ReadPS calls this function. 
  92:Generated_Source\PSoC5/LED.c **** *  
  93:Generated_Source\PSoC5/LED.c **** *******************************************************************************/
  94:Generated_Source\PSoC5/LED.c **** uint8 LED_Read(void) 
  95:Generated_Source\PSoC5/LED.c **** {
  99              		.loc 1 95 0
 100              		.cfi_startproc
 101              		@ args = 0, pretend = 0, frame = 0
 102              		@ frame_needed = 0, uses_anonymous_args = 0
 103              		@ link register save eliminated.
  96:Generated_Source\PSoC5/LED.c ****     return (LED_PS & LED_MASK) >> LED_SHIFT;
 104              		.loc 1 96 0
 105 0000 024B     		ldr	r3, .L8
 106 0002 1878     		ldrb	r0, [r3]	@ zero_extendqisi2
  97:Generated_Source\PSoC5/LED.c **** }
 107              		.loc 1 97 0
 108 0004 C0F38100 		ubfx	r0, r0, #2, #2
 109 0008 7047     		bx	lr
 110              	.L9:
 111 000a 00BF     		.align	2
 112              	.L8:
 113 000c C1510040 		.word	1073762753
 114              		.cfi_endproc
 115              	.LFE2:
 116              		.size	LED_Read, .-LED_Read
 117              		.section	.text.LED_ReadDataReg,"ax",%progbits
 118              		.align	1
 119              		.global	LED_ReadDataReg
 120              		.thumb
 121              		.thumb_func
 122              		.type	LED_ReadDataReg, %function
 123              	LED_ReadDataReg:
 124              	.LFB3:
  98:Generated_Source\PSoC5/LED.c **** 
  99:Generated_Source\PSoC5/LED.c **** 
 100:Generated_Source\PSoC5/LED.c **** /*******************************************************************************
 101:Generated_Source\PSoC5/LED.c **** * Function Name: LED_ReadDataReg
 102:Generated_Source\PSoC5/LED.c **** ********************************************************************************
 103:Generated_Source\PSoC5/LED.c **** *
ARM GAS  C:\Users\RABBIT~1\AppData\Local\Temp\ccBbYJ3X.s 			page 5


 104:Generated_Source\PSoC5/LED.c **** * Summary:
 105:Generated_Source\PSoC5/LED.c **** *  Read the current value assigned to a Digital Port's data output register
 106:Generated_Source\PSoC5/LED.c **** *
 107:Generated_Source\PSoC5/LED.c **** * Parameters:  
 108:Generated_Source\PSoC5/LED.c **** *  None 
 109:Generated_Source\PSoC5/LED.c **** *
 110:Generated_Source\PSoC5/LED.c **** * Return: 
 111:Generated_Source\PSoC5/LED.c **** *  Returns the current value assigned to the Digital Port's data output register
 112:Generated_Source\PSoC5/LED.c **** *  
 113:Generated_Source\PSoC5/LED.c **** *******************************************************************************/
 114:Generated_Source\PSoC5/LED.c **** uint8 LED_ReadDataReg(void) 
 115:Generated_Source\PSoC5/LED.c **** {
 125              		.loc 1 115 0
 126              		.cfi_startproc
 127              		@ args = 0, pretend = 0, frame = 0
 128              		@ frame_needed = 0, uses_anonymous_args = 0
 129              		@ link register save eliminated.
 116:Generated_Source\PSoC5/LED.c ****     return (LED_DR & LED_MASK) >> LED_SHIFT;
 130              		.loc 1 116 0
 131 0000 024B     		ldr	r3, .L11
 132 0002 1878     		ldrb	r0, [r3]	@ zero_extendqisi2
 117:Generated_Source\PSoC5/LED.c **** }
 133              		.loc 1 117 0
 134 0004 C0F38100 		ubfx	r0, r0, #2, #2
 135 0008 7047     		bx	lr
 136              	.L12:
 137 000a 00BF     		.align	2
 138              	.L11:
 139 000c C0510040 		.word	1073762752
 140              		.cfi_endproc
 141              	.LFE3:
 142              		.size	LED_ReadDataReg, .-LED_ReadDataReg
 143              		.text
 144              	.Letext0:
 145              		.file 2 "Generated_Source\\PSoC5\\cytypes.h"