ARM GAS  C:\Users\RABBIT~1\AppData\Local\Temp\ccr79h1z.s 			page 1


   1              		.syntax unified
   2              		.cpu cortex-m3
   3              		.fpu softvfp
   4              		.eabi_attribute 20, 1
   5              		.eabi_attribute 21, 1
   6              		.eabi_attribute 23, 3
   7              		.eabi_attribute 24, 1
   8              		.eabi_attribute 25, 1
   9              		.eabi_attribute 26, 1
  10              		.eabi_attribute 30, 4
  11              		.eabi_attribute 34, 1
  12              		.eabi_attribute 18, 4
  13              		.thumb
  14              		.syntax unified
  15              		.file	"main.c"
  16              		.text
  17              	.Ltext0:
  18              		.cfi_sections	.debug_frame
  19              		.section	.text.startup.main,"ax",%progbits
  20              		.align	1
  21              		.global	main
  22              		.thumb
  23              		.thumb_func
  24              		.type	main, %function
  25              	main:
  26              	.LFB57:
  27              		.file 1 "main.c"
   1:main.c        **** //	Copyright (C) 2013 Michael McMaster <michael@codesrc.com>
   2:main.c        **** //
   3:main.c        **** //	This file is part of SCSI2SD.
   4:main.c        **** //
   5:main.c        **** //	SCSI2SD is free software: you can redistribute it and/or modify
   6:main.c        **** //	it under the terms of the GNU General Public License as published by
   7:main.c        **** //	the Free Software Foundation, either version 3 of the License, or
   8:main.c        **** //	(at your option) any later version.
   9:main.c        **** //
  10:main.c        **** //	SCSI2SD is distributed in the hope that it will be useful,
  11:main.c        **** //	but WITHOUT ANY WARRANTY; without even the implied warranty of
  12:main.c        **** //	MERCHANTABILITY or FITNESS FOR A PARTICULAR PURPOSE.  See the
  13:main.c        **** //	GNU General Public License for more details.
  14:main.c        **** //
  15:main.c        **** //	You should have received a copy of the GNU General Public License
  16:main.c        **** //	along with SCSI2SD.  If not, see <http://www.gnu.org/licenses/>.
  17:main.c        **** #include <project.h>
  18:main.c        **** 
  19:main.c        **** static void resetSCSI()
  20:main.c        **** {
  21:main.c        **** 	CyPins_SetPin(TERM_EN_0); // Active low
  22:main.c        **** 	
  23:main.c        **** 	CyPins_ClearPin(SCSI_Out_IO_raw);
  24:main.c        **** 	CyPins_ClearPin(SCSI_Out_BSY);
  25:main.c        **** 	CyPins_ClearPin(SCSI_Out_RST);
  26:main.c        **** 	CyPins_ClearPin(SCSI_Out_SEL);
  27:main.c        **** 	CyPins_ClearPin(SCSI_Out_REQ);
  28:main.c        **** 	CyPins_ClearPin(SCSI_Out_MSG);
  29:main.c        **** 	CyPins_ClearPin(SCSI_Out_CD);
  30:main.c        **** 	CyPins_ClearPin(SCSI_Out_DBx_DB0);
ARM GAS  C:\Users\RABBIT~1\AppData\Local\Temp\ccr79h1z.s 			page 2


  31:main.c        **** 	CyPins_ClearPin(SCSI_Out_DBx_DB1);
  32:main.c        **** 	CyPins_ClearPin(SCSI_Out_DBx_DB2);
  33:main.c        **** 	CyPins_ClearPin(SCSI_Out_DBx_DB3);
  34:main.c        **** 	CyPins_ClearPin(SCSI_Out_DBx_DB4);
  35:main.c        **** 	CyPins_ClearPin(SCSI_Out_DBx_DB5);
  36:main.c        **** 	CyPins_ClearPin(SCSI_Out_DBx_DB6);
  37:main.c        **** 	CyPins_ClearPin(SCSI_Out_DBx_DB7);
  38:main.c        **** 	CyPins_ClearPin(SCSI_Out_DBP_raw);
  39:main.c        **** 
  40:main.c        **** 	// active low
  41:main.c        **** 	CyPins_SetPin(LED_0);
  42:main.c        **** 	CyPins_SetPin(LED_1);
  43:main.c        **** }
  44:main.c        **** 
  45:main.c        **** int main()
  46:main.c        **** {
  28              		.loc 1 46 0
  29              		.cfi_startproc
  30              		@ args = 0, pretend = 0, frame = 0
  31              		@ frame_needed = 0, uses_anonymous_args = 0
  32 0000 70B5     		push	{r4, r5, r6, lr}
  33              		.cfi_def_cfa_offset 16
  34              		.cfi_offset 4, -16
  35              		.cfi_offset 5, -12
  36              		.cfi_offset 6, -8
  37              		.cfi_offset 14, -4
  38              	.LBB4:
  39              	.LBB5:
  21:main.c        **** 	
  40              		.loc 1 21 0
  41 0002 454A     		ldr	r2, .L10
  41:main.c        **** 	CyPins_SetPin(LED_1);
  42              		.loc 1 41 0
  43 0004 454D     		ldr	r5, .L10+4
  21:main.c        **** 	
  44              		.loc 1 21 0
  45 0006 1378     		ldrb	r3, [r2]	@ zero_extendqisi2
  23:main.c        **** 	CyPins_ClearPin(SCSI_Out_BSY);
  46              		.loc 1 23 0
  47 0008 5B3A     		subs	r2, r2, #91
  21:main.c        **** 	
  48              		.loc 1 21 0
  49 000a 43F00103 		orr	r3, r3, #1
  50 000e 82F85B30 		strb	r3, [r2, #91]
  23:main.c        **** 	CyPins_ClearPin(SCSI_Out_BSY);
  51              		.loc 1 23 0
  52 0012 1378     		ldrb	r3, [r2]	@ zero_extendqisi2
  42:main.c        **** }
  53              		.loc 1 42 0
  54 0014 424C     		ldr	r4, .L10+8
  23:main.c        **** 	CyPins_ClearPin(SCSI_Out_BSY);
  55              		.loc 1 23 0
  56 0016 03F0FE03 		and	r3, r3, #254
  57 001a 1370     		strb	r3, [r2]
  24:main.c        **** 	CyPins_ClearPin(SCSI_Out_RST);
  58              		.loc 1 24 0
  59 001c 9379     		ldrb	r3, [r2, #6]	@ zero_extendqisi2
ARM GAS  C:\Users\RABBIT~1\AppData\Local\Temp\ccr79h1z.s 			page 3


  42:main.c        **** }
  60              		.loc 1 42 0
  61 001e 6426     		movs	r6, #100
  24:main.c        **** 	CyPins_ClearPin(SCSI_Out_RST);
  62              		.loc 1 24 0
  63 0020 03F0FE03 		and	r3, r3, #254
  64 0024 9371     		strb	r3, [r2, #6]
  25:main.c        **** 	CyPins_ClearPin(SCSI_Out_SEL);
  65              		.loc 1 25 0
  66 0026 12F8193C 		ldrb	r3, [r2, #-25]	@ zero_extendqisi2
  67 002a 03F0FE03 		and	r3, r3, #254
  68 002e 02F8193C 		strb	r3, [r2, #-25]
  26:main.c        **** 	CyPins_ClearPin(SCSI_Out_REQ);
  69              		.loc 1 26 0
  70 0032 12F81D3C 		ldrb	r3, [r2, #-29]	@ zero_extendqisi2
  71 0036 03F0FE03 		and	r3, r3, #254
  72 003a 02F81D3C 		strb	r3, [r2, #-29]
  27:main.c        **** 	CyPins_ClearPin(SCSI_Out_MSG);
  73              		.loc 1 27 0
  74 003e 5378     		ldrb	r3, [r2, #1]	@ zero_extendqisi2
  75 0040 03F0FE03 		and	r3, r3, #254
  76 0044 5370     		strb	r3, [r2, #1]
  28:main.c        **** 	CyPins_ClearPin(SCSI_Out_CD);
  77              		.loc 1 28 0
  78 0046 12F81B3C 		ldrb	r3, [r2, #-27]	@ zero_extendqisi2
  79 004a 03F0FE03 		and	r3, r3, #254
  80 004e 02F81B3C 		strb	r3, [r2, #-27]
  29:main.c        **** 	CyPins_ClearPin(SCSI_Out_DBx_DB0);
  81              		.loc 1 29 0
  82 0052 12F81F3C 		ldrb	r3, [r2, #-31]	@ zero_extendqisi2
  83 0056 03F0FE03 		and	r3, r3, #254
  84 005a 02F81F3C 		strb	r3, [r2, #-31]
  30:main.c        **** 	CyPins_ClearPin(SCSI_Out_DBx_DB1);
  85              		.loc 1 30 0
  86 005e D37D     		ldrb	r3, [r2, #23]	@ zero_extendqisi2
  87 0060 03F0FE03 		and	r3, r3, #254
  88 0064 D375     		strb	r3, [r2, #23]
  31:main.c        **** 	CyPins_ClearPin(SCSI_Out_DBx_DB2);
  89              		.loc 1 31 0
  90 0066 1532     		adds	r2, r2, #21
  91 0068 1378     		ldrb	r3, [r2]	@ zero_extendqisi2
  92 006a 03F0FE03 		and	r3, r3, #254
  93 006e 1370     		strb	r3, [r2]
  32:main.c        **** 	CyPins_ClearPin(SCSI_Out_DBx_DB3);
  94              		.loc 1 32 0
  95 0070 92F83030 		ldrb	r3, [r2, #48]	@ zero_extendqisi2
  96 0074 03F0FE03 		and	r3, r3, #254
  97 0078 82F83030 		strb	r3, [r2, #48]
  33:main.c        **** 	CyPins_ClearPin(SCSI_Out_DBx_DB4);
  98              		.loc 1 33 0
  99 007c 12F81E3C 		ldrb	r3, [r2, #-30]	@ zero_extendqisi2
 100 0080 03F0FE03 		and	r3, r3, #254
 101 0084 02F81E3C 		strb	r3, [r2, #-30]
  34:main.c        **** 	CyPins_ClearPin(SCSI_Out_DBx_DB5);
 102              		.loc 1 34 0
 103 0088 12F8203C 		ldrb	r3, [r2, #-32]	@ zero_extendqisi2
 104 008c 03F0FE03 		and	r3, r3, #254
ARM GAS  C:\Users\RABBIT~1\AppData\Local\Temp\ccr79h1z.s 			page 4


 105 0090 02F8203C 		strb	r3, [r2, #-32]
  35:main.c        **** 	CyPins_ClearPin(SCSI_Out_DBx_DB6);
 106              		.loc 1 35 0
 107 0094 12F8223C 		ldrb	r3, [r2, #-34]	@ zero_extendqisi2
 108 0098 03F0FE03 		and	r3, r3, #254
 109 009c 02F8223C 		strb	r3, [r2, #-34]
  36:main.c        **** 	CyPins_ClearPin(SCSI_Out_DBx_DB7);
 110              		.loc 1 36 0
 111 00a0 12F8243C 		ldrb	r3, [r2, #-36]	@ zero_extendqisi2
 112 00a4 03F0FE03 		and	r3, r3, #254
 113 00a8 02F8243C 		strb	r3, [r2, #-36]
  37:main.c        **** 	CyPins_ClearPin(SCSI_Out_DBP_raw);
 114              		.loc 1 37 0
 115 00ac 92F84830 		ldrb	r3, [r2, #72]	@ zero_extendqisi2
 116 00b0 03F0FE03 		and	r3, r3, #254
 117 00b4 82F84830 		strb	r3, [r2, #72]
  38:main.c        **** 
 118              		.loc 1 38 0
 119 00b8 12F8033C 		ldrb	r3, [r2, #-3]	@ zero_extendqisi2
 120 00bc 03F0FE03 		and	r3, r3, #254
 121 00c0 02F8033C 		strb	r3, [r2, #-3]
  41:main.c        **** 	CyPins_SetPin(LED_1);
 122              		.loc 1 41 0
 123 00c4 2B78     		ldrb	r3, [r5]	@ zero_extendqisi2
 124 00c6 43F00103 		orr	r3, r3, #1
 125 00ca 2B70     		strb	r3, [r5]
  42:main.c        **** }
 126              		.loc 1 42 0
 127 00cc 2378     		ldrb	r3, [r4]	@ zero_extendqisi2
 128 00ce 43F00103 		orr	r3, r3, #1
 129 00d2 2370     		strb	r3, [r4]
 130              	.LVL0:
 131              	.L2:
 132              	.LBE5:
 133              	.LBE4:
  47:main.c        ****     resetSCSI();
  48:main.c        **** 	
  49:main.c        **** 	// We need some delay before reading the BOOTLDR pin gives us the correct
  50:main.c        **** 	// answer. I don't know if it's due to the pullup enabled, or use of the 
  51:main.c        **** 	// 32k xtal pins as GPIO immediately after power on.
  52:main.c        **** 	// Try to startup as fast as possible in the normal case of no-bootloader-jumper
  53:main.c        **** 	int limit = 100;
  54:main.c        **** 	while (limit > 0 && BOOTLDR_Read() == 0) // active low
 134              		.loc 1 54 0 discriminator 1
 135 00d4 FFF7FEFF 		bl	BOOTLDR_Read
 136              	.LVL1:
 137 00d8 20B9     		cbnz	r0, .L6
  55:main.c        **** 	{
  56:main.c        **** 		CyDelayUs(100);
 138              		.loc 1 56 0
 139 00da 6420     		movs	r0, #100
 140 00dc FFF7FEFF 		bl	CyDelayUs
 141              	.LVL2:
  54:main.c        **** 	{
 142              		.loc 1 54 0
 143 00e0 013E     		subs	r6, r6, #1
 144              	.LVL3:
ARM GAS  C:\Users\RABBIT~1\AppData\Local\Temp\ccr79h1z.s 			page 5


 145 00e2 F7D1     		bne	.L2
 146              	.LVL4:
 147              	.L6:
  57:main.c        **** 		limit--;
  58:main.c        **** 	}
  59:main.c        **** 	
  60:main.c        **** 	if (BOOTLDR_Read() == 0)
 148              		.loc 1 60 0
 149 00e4 FFF7FEFF 		bl	BOOTLDR_Read
 150              	.LVL5:
 151 00e8 50B9     		cbnz	r0, .L4
  61:main.c        **** 	{
  62:main.c        **** 		CyPins_ClearPin(LED_0);
 152              		.loc 1 62 0
 153 00ea 2B78     		ldrb	r3, [r5]	@ zero_extendqisi2
  63:main.c        **** 		CyPins_ClearPin(LED_1);
  64:main.c        **** 		BL_SET_RUN_TYPE(BL_START_BTLDR);
 154              		.loc 1 64 0
 155 00ec 4022     		movs	r2, #64
  62:main.c        **** 		CyPins_ClearPin(LED_1);
 156              		.loc 1 62 0
 157 00ee 03F0FE03 		and	r3, r3, #254
 158 00f2 2B70     		strb	r3, [r5]
  63:main.c        **** 		CyPins_ClearPin(LED_1);
 159              		.loc 1 63 0
 160 00f4 2378     		ldrb	r3, [r4]	@ zero_extendqisi2
 161 00f6 03F0FE03 		and	r3, r3, #254
 162 00fa 2370     		strb	r3, [r4]
 163              		.loc 1 64 0
 164 00fc 094B     		ldr	r3, .L10+12
 165 00fe 1A70     		strb	r2, [r3]
 166              	.L4:
  65:main.c        **** 	}
  66:main.c        **** 
  67:main.c        **** 	// The call to the bootloader should not return
  68:main.c        ****     BL_Start();
 167              		.loc 1 68 0
 168 0100 FFF7FEFF 		bl	BL_Start
 169              	.LVL6:
 170              	.L7:
  69:main.c        **** 
  70:main.c        ****     /* CyGlobalIntEnable; */ /* Uncomment this line to enable global interrupts. */
  71:main.c        ****     for(;;)
  72:main.c        ****     {
  73:main.c        **** 		CyPins_ClearPin(LED_0);
 171              		.loc 1 73 0 discriminator 1
 172 0104 2B78     		ldrb	r3, [r5]	@ zero_extendqisi2
 173 0106 03F0FE03 		and	r3, r3, #254
 174 010a 2B70     		strb	r3, [r5]
  74:main.c        **** 		CyPins_ClearPin(LED_1);
 175              		.loc 1 74 0 discriminator 1
 176 010c 2378     		ldrb	r3, [r4]	@ zero_extendqisi2
 177 010e 03F0FE03 		and	r3, r3, #254
 178 0112 2370     		strb	r3, [r4]
 179 0114 F6E7     		b	.L7
 180              	.L11:
 181 0116 00BF     		.align	2
ARM GAS  C:\Users\RABBIT~1\AppData\Local\Temp\ccr79h1z.s 			page 6


 182              	.L10:
 183 0118 7B500040 		.word	1073762427
 184 011c 62500040 		.word	1073762402
 185 0120 63500040 		.word	1073762403
 186 0124 FA460040 		.word	1073759994
 187              		.cfi_endproc
 188              	.LFE57:
 189              		.size	main, .-main
 190              		.text
 191              	.Letext0:
 192              		.file 2 "c:\\program files (x86)\\cypress\\psoc creator\\4.2\\psoc creator\\import\\gnu\\arm\\5.4.
 193              		.file 3 "c:\\program files (x86)\\cypress\\psoc creator\\4.2\\psoc creator\\import\\gnu\\arm\\5.4.
 194              		.file 4 "Generated_Source\\PSoC5/cytypes.h"
 195              		.file 5 "Generated_Source\\PSoC5/BOOTLDR.h"
 196              		.file 6 "Generated_Source\\PSoC5/CyLib.h"
 197              		.file 7 "Generated_Source\\PSoC5/BL.h"
 198              		.file 8 "Generated_Source\\PSoC5/core_cm3.h"