ARM GAS  C:\Users\RABBIT~1\AppData\Local\Temp\cclzRkNx.s 			page 1


   1              		.syntax unified
   2              		.cpu cortex-m3
   3              		.fpu softvfp
   4              		.eabi_attribute 20, 1
   5              		.eabi_attribute 21, 1
   6              		.eabi_attribute 23, 3
   7              		.eabi_attribute 24, 1
   8              		.eabi_attribute 25, 1
   9              		.eabi_attribute 26, 1
  10              		.eabi_attribute 30, 4
  11              		.eabi_attribute 34, 1
  12              		.eabi_attribute 18, 4
  13              		.thumb
  14              		.syntax unified
  15              		.file	"SD_PULLUP.c"
  16              		.text
  17              	.Ltext0:
  18              		.cfi_sections	.debug_frame
  19              		.section	.text.SD_PULLUP_Write,"ax",%progbits
  20              		.align	1
  21              		.global	SD_PULLUP_Write
  22              		.thumb
  23              		.thumb_func
  24              		.type	SD_PULLUP_Write, %function
  25              	SD_PULLUP_Write:
  26              	.LFB0:
  27              		.file 1 "Generated_Source\\PSoC5\\SD_PULLUP.c"
   1:Generated_Source\PSoC5/SD_PULLUP.c **** /*******************************************************************************
   2:Generated_Source\PSoC5/SD_PULLUP.c **** * File Name: SD_PULLUP.c  
   3:Generated_Source\PSoC5/SD_PULLUP.c **** * Version 2.10
   4:Generated_Source\PSoC5/SD_PULLUP.c **** *
   5:Generated_Source\PSoC5/SD_PULLUP.c **** * Description:
   6:Generated_Source\PSoC5/SD_PULLUP.c **** *  This file contains API to enable firmware control of a Pins component.
   7:Generated_Source\PSoC5/SD_PULLUP.c **** *
   8:Generated_Source\PSoC5/SD_PULLUP.c **** * Note:
   9:Generated_Source\PSoC5/SD_PULLUP.c **** *
  10:Generated_Source\PSoC5/SD_PULLUP.c **** ********************************************************************************
  11:Generated_Source\PSoC5/SD_PULLUP.c **** * Copyright 2008-2014, Cypress Semiconductor Corporation.  All rights reserved.
  12:Generated_Source\PSoC5/SD_PULLUP.c **** * You may use this file only in accordance with the license, terms, conditions, 
  13:Generated_Source\PSoC5/SD_PULLUP.c **** * disclaimers, and limitations in the end user license agreement accompanying 
  14:Generated_Source\PSoC5/SD_PULLUP.c **** * the software package with which this file was provided.
  15:Generated_Source\PSoC5/SD_PULLUP.c **** *******************************************************************************/
  16:Generated_Source\PSoC5/SD_PULLUP.c **** 
  17:Generated_Source\PSoC5/SD_PULLUP.c **** #include "cytypes.h"
  18:Generated_Source\PSoC5/SD_PULLUP.c **** #include "SD_PULLUP.h"
  19:Generated_Source\PSoC5/SD_PULLUP.c **** 
  20:Generated_Source\PSoC5/SD_PULLUP.c **** /* APIs are not generated for P15[7:6] on PSoC 5 */
  21:Generated_Source\PSoC5/SD_PULLUP.c **** #if !(CY_PSOC5A &&\
  22:Generated_Source\PSoC5/SD_PULLUP.c **** 	 SD_PULLUP__PORT == 15 && ((SD_PULLUP__MASK & 0xC0) != 0))
  23:Generated_Source\PSoC5/SD_PULLUP.c **** 
  24:Generated_Source\PSoC5/SD_PULLUP.c **** 
  25:Generated_Source\PSoC5/SD_PULLUP.c **** /*******************************************************************************
  26:Generated_Source\PSoC5/SD_PULLUP.c **** * Function Name: SD_PULLUP_Write
  27:Generated_Source\PSoC5/SD_PULLUP.c **** ********************************************************************************
  28:Generated_Source\PSoC5/SD_PULLUP.c **** *
  29:Generated_Source\PSoC5/SD_PULLUP.c **** * Summary:
  30:Generated_Source\PSoC5/SD_PULLUP.c **** *  Assign a new value to the digital port's data output register.  
ARM GAS  C:\Users\RABBIT~1\AppData\Local\Temp\cclzRkNx.s 			page 2


  31:Generated_Source\PSoC5/SD_PULLUP.c **** *
  32:Generated_Source\PSoC5/SD_PULLUP.c **** * Parameters:  
  33:Generated_Source\PSoC5/SD_PULLUP.c **** *  prtValue:  The value to be assigned to the Digital Port. 
  34:Generated_Source\PSoC5/SD_PULLUP.c **** *
  35:Generated_Source\PSoC5/SD_PULLUP.c **** * Return: 
  36:Generated_Source\PSoC5/SD_PULLUP.c **** *  None
  37:Generated_Source\PSoC5/SD_PULLUP.c **** *  
  38:Generated_Source\PSoC5/SD_PULLUP.c **** *******************************************************************************/
  39:Generated_Source\PSoC5/SD_PULLUP.c **** void SD_PULLUP_Write(uint8 value) 
  40:Generated_Source\PSoC5/SD_PULLUP.c **** {
  28              		.loc 1 40 0
  29              		.cfi_startproc
  30              		@ args = 0, pretend = 0, frame = 0
  31              		@ frame_needed = 0, uses_anonymous_args = 0
  32              		@ link register save eliminated.
  33              	.LVL0:
  41:Generated_Source\PSoC5/SD_PULLUP.c ****     uint8 staticBits = (SD_PULLUP_DR & (uint8)(~SD_PULLUP_MASK));
  34              		.loc 1 41 0
  35 0000 044A     		ldr	r2, .L2
  42:Generated_Source\PSoC5/SD_PULLUP.c ****     SD_PULLUP_DR = staticBits | ((uint8)(value << SD_PULLUP_SHIFT) & SD_PULLUP_MASK);
  36              		.loc 1 42 0
  37 0002 8000     		lsls	r0, r0, #2
  38              	.LVL1:
  41:Generated_Source\PSoC5/SD_PULLUP.c ****     uint8 staticBits = (SD_PULLUP_DR & (uint8)(~SD_PULLUP_MASK));
  39              		.loc 1 41 0
  40 0004 1378     		ldrb	r3, [r2]	@ zero_extendqisi2
  41              	.LVL2:
  42              		.loc 1 42 0
  43 0006 00F03C00 		and	r0, r0, #60
  44 000a 03F0C303 		and	r3, r3, #195
  45              	.LVL3:
  46 000e 0343     		orrs	r3, r3, r0
  47 0010 1370     		strb	r3, [r2]
  48 0012 7047     		bx	lr
  49              	.L3:
  50              		.align	2
  51              	.L2:
  52 0014 30510040 		.word	1073762608
  53              		.cfi_endproc
  54              	.LFE0:
  55              		.size	SD_PULLUP_Write, .-SD_PULLUP_Write
  56              		.section	.text.SD_PULLUP_SetDriveMode,"ax",%progbits
  57              		.align	1
  58              		.global	SD_PULLUP_SetDriveMode
  59              		.thumb
  60              		.thumb_func
  61              		.type	SD_PULLUP_SetDriveMode, %function
  62              	SD_PULLUP_SetDriveMode:
  63              	.LFB1:
  43:Generated_Source\PSoC5/SD_PULLUP.c **** }
  44:Generated_Source\PSoC5/SD_PULLUP.c **** 
  45:Generated_Source\PSoC5/SD_PULLUP.c **** 
  46:Generated_Source\PSoC5/SD_PULLUP.c **** /*******************************************************************************
  47:Generated_Source\PSoC5/SD_PULLUP.c **** * Function Name: SD_PULLUP_SetDriveMode
  48:Generated_Source\PSoC5/SD_PULLUP.c **** ********************************************************************************
  49:Generated_Source\PSoC5/SD_PULLUP.c **** *
  50:Generated_Source\PSoC5/SD_PULLUP.c **** * Summary:
ARM GAS  C:\Users\RABBIT~1\AppData\Local\Temp\cclzRkNx.s 			page 3


  51:Generated_Source\PSoC5/SD_PULLUP.c **** *  Change the drive mode on the pins of the port.
  52:Generated_Source\PSoC5/SD_PULLUP.c **** * 
  53:Generated_Source\PSoC5/SD_PULLUP.c **** * Parameters:  
  54:Generated_Source\PSoC5/SD_PULLUP.c **** *  mode:  Change the pins to one of the following drive modes.
  55:Generated_Source\PSoC5/SD_PULLUP.c **** *
  56:Generated_Source\PSoC5/SD_PULLUP.c **** *  SD_PULLUP_DM_STRONG     Strong Drive 
  57:Generated_Source\PSoC5/SD_PULLUP.c **** *  SD_PULLUP_DM_OD_HI      Open Drain, Drives High 
  58:Generated_Source\PSoC5/SD_PULLUP.c **** *  SD_PULLUP_DM_OD_LO      Open Drain, Drives Low 
  59:Generated_Source\PSoC5/SD_PULLUP.c **** *  SD_PULLUP_DM_RES_UP     Resistive Pull Up 
  60:Generated_Source\PSoC5/SD_PULLUP.c **** *  SD_PULLUP_DM_RES_DWN    Resistive Pull Down 
  61:Generated_Source\PSoC5/SD_PULLUP.c **** *  SD_PULLUP_DM_RES_UPDWN  Resistive Pull Up/Down 
  62:Generated_Source\PSoC5/SD_PULLUP.c **** *  SD_PULLUP_DM_DIG_HIZ    High Impedance Digital 
  63:Generated_Source\PSoC5/SD_PULLUP.c **** *  SD_PULLUP_DM_ALG_HIZ    High Impedance Analog 
  64:Generated_Source\PSoC5/SD_PULLUP.c **** *
  65:Generated_Source\PSoC5/SD_PULLUP.c **** * Return: 
  66:Generated_Source\PSoC5/SD_PULLUP.c **** *  None
  67:Generated_Source\PSoC5/SD_PULLUP.c **** *
  68:Generated_Source\PSoC5/SD_PULLUP.c **** *******************************************************************************/
  69:Generated_Source\PSoC5/SD_PULLUP.c **** void SD_PULLUP_SetDriveMode(uint8 mode) 
  70:Generated_Source\PSoC5/SD_PULLUP.c **** {
  64              		.loc 1 70 0
  65              		.cfi_startproc
  66              		@ args = 0, pretend = 0, frame = 0
  67              		@ frame_needed = 0, uses_anonymous_args = 0
  68              		@ link register save eliminated.
  69              	.LVL4:
  71:Generated_Source\PSoC5/SD_PULLUP.c **** 	CyPins_SetPinDriveMode(SD_PULLUP_0, mode);
  70              		.loc 1 71 0
  71 0000 0B4A     		ldr	r2, .L5
  72 0002 00F00E00 		and	r0, r0, #14
  73              	.LVL5:
  74 0006 1378     		ldrb	r3, [r2]	@ zero_extendqisi2
  75 0008 03F0F103 		and	r3, r3, #241
  76 000c 0343     		orrs	r3, r3, r0
  77 000e 1370     		strb	r3, [r2]
  72:Generated_Source\PSoC5/SD_PULLUP.c **** 	CyPins_SetPinDriveMode(SD_PULLUP_1, mode);
  78              		.loc 1 72 0
  79 0010 5378     		ldrb	r3, [r2, #1]	@ zero_extendqisi2
  80 0012 03F0F103 		and	r3, r3, #241
  81 0016 0343     		orrs	r3, r3, r0
  82 0018 5370     		strb	r3, [r2, #1]
  73:Generated_Source\PSoC5/SD_PULLUP.c **** 	CyPins_SetPinDriveMode(SD_PULLUP_2, mode);
  83              		.loc 1 73 0
  84 001a 9378     		ldrb	r3, [r2, #2]	@ zero_extendqisi2
  85 001c 03F0F103 		and	r3, r3, #241
  86 0020 0343     		orrs	r3, r3, r0
  87 0022 9370     		strb	r3, [r2, #2]
  74:Generated_Source\PSoC5/SD_PULLUP.c **** 	CyPins_SetPinDriveMode(SD_PULLUP_3, mode);
  88              		.loc 1 74 0
  89 0024 D378     		ldrb	r3, [r2, #3]	@ zero_extendqisi2
  90 0026 03F0F103 		and	r3, r3, #241
  91 002a 1843     		orrs	r0, r0, r3
  92 002c D070     		strb	r0, [r2, #3]
  93 002e 7047     		bx	lr
  94              	.L6:
  95              		.align	2
  96              	.L5:
ARM GAS  C:\Users\RABBIT~1\AppData\Local\Temp\cclzRkNx.s 			page 4


  97 0030 1A500040 		.word	1073762330
  98              		.cfi_endproc
  99              	.LFE1:
 100              		.size	SD_PULLUP_SetDriveMode, .-SD_PULLUP_SetDriveMode
 101              		.section	.text.SD_PULLUP_Read,"ax",%progbits
 102              		.align	1
 103              		.global	SD_PULLUP_Read
 104              		.thumb
 105              		.thumb_func
 106              		.type	SD_PULLUP_Read, %function
 107              	SD_PULLUP_Read:
 108              	.LFB2:
  75:Generated_Source\PSoC5/SD_PULLUP.c **** }
  76:Generated_Source\PSoC5/SD_PULLUP.c **** 
  77:Generated_Source\PSoC5/SD_PULLUP.c **** 
  78:Generated_Source\PSoC5/SD_PULLUP.c **** /*******************************************************************************
  79:Generated_Source\PSoC5/SD_PULLUP.c **** * Function Name: SD_PULLUP_Read
  80:Generated_Source\PSoC5/SD_PULLUP.c **** ********************************************************************************
  81:Generated_Source\PSoC5/SD_PULLUP.c **** *
  82:Generated_Source\PSoC5/SD_PULLUP.c **** * Summary:
  83:Generated_Source\PSoC5/SD_PULLUP.c **** *  Read the current value on the pins of the Digital Port in right justified 
  84:Generated_Source\PSoC5/SD_PULLUP.c **** *  form.
  85:Generated_Source\PSoC5/SD_PULLUP.c **** *
  86:Generated_Source\PSoC5/SD_PULLUP.c **** * Parameters:  
  87:Generated_Source\PSoC5/SD_PULLUP.c **** *  None
  88:Generated_Source\PSoC5/SD_PULLUP.c **** *
  89:Generated_Source\PSoC5/SD_PULLUP.c **** * Return: 
  90:Generated_Source\PSoC5/SD_PULLUP.c **** *  Returns the current value of the Digital Port as a right justified number
  91:Generated_Source\PSoC5/SD_PULLUP.c **** *  
  92:Generated_Source\PSoC5/SD_PULLUP.c **** * Note:
  93:Generated_Source\PSoC5/SD_PULLUP.c **** *  Macro SD_PULLUP_ReadPS calls this function. 
  94:Generated_Source\PSoC5/SD_PULLUP.c **** *  
  95:Generated_Source\PSoC5/SD_PULLUP.c **** *******************************************************************************/
  96:Generated_Source\PSoC5/SD_PULLUP.c **** uint8 SD_PULLUP_Read(void) 
  97:Generated_Source\PSoC5/SD_PULLUP.c **** {
 109              		.loc 1 97 0
 110              		.cfi_startproc
 111              		@ args = 0, pretend = 0, frame = 0
 112              		@ frame_needed = 0, uses_anonymous_args = 0
 113              		@ link register save eliminated.
  98:Generated_Source\PSoC5/SD_PULLUP.c ****     return (SD_PULLUP_PS & SD_PULLUP_MASK) >> SD_PULLUP_SHIFT;
 114              		.loc 1 98 0
 115 0000 024B     		ldr	r3, .L8
 116 0002 1878     		ldrb	r0, [r3]	@ zero_extendqisi2
  99:Generated_Source\PSoC5/SD_PULLUP.c **** }
 117              		.loc 1 99 0
 118 0004 C0F38300 		ubfx	r0, r0, #2, #4
 119 0008 7047     		bx	lr
 120              	.L9:
 121 000a 00BF     		.align	2
 122              	.L8:
 123 000c 31510040 		.word	1073762609
 124              		.cfi_endproc
 125              	.LFE2:
 126              		.size	SD_PULLUP_Read, .-SD_PULLUP_Read
 127              		.section	.text.SD_PULLUP_ReadDataReg,"ax",%progbits
 128              		.align	1
ARM GAS  C:\Users\RABBIT~1\AppData\Local\Temp\cclzRkNx.s 			page 5


 129              		.global	SD_PULLUP_ReadDataReg
 130              		.thumb
 131              		.thumb_func
 132              		.type	SD_PULLUP_ReadDataReg, %function
 133              	SD_PULLUP_ReadDataReg:
 134              	.LFB3:
 100:Generated_Source\PSoC5/SD_PULLUP.c **** 
 101:Generated_Source\PSoC5/SD_PULLUP.c **** 
 102:Generated_Source\PSoC5/SD_PULLUP.c **** /*******************************************************************************
 103:Generated_Source\PSoC5/SD_PULLUP.c **** * Function Name: SD_PULLUP_ReadDataReg
 104:Generated_Source\PSoC5/SD_PULLUP.c **** ********************************************************************************
 105:Generated_Source\PSoC5/SD_PULLUP.c **** *
 106:Generated_Source\PSoC5/SD_PULLUP.c **** * Summary:
 107:Generated_Source\PSoC5/SD_PULLUP.c **** *  Read the current value assigned to a Digital Port's data output register
 108:Generated_Source\PSoC5/SD_PULLUP.c **** *
 109:Generated_Source\PSoC5/SD_PULLUP.c **** * Parameters:  
 110:Generated_Source\PSoC5/SD_PULLUP.c **** *  None 
 111:Generated_Source\PSoC5/SD_PULLUP.c **** *
 112:Generated_Source\PSoC5/SD_PULLUP.c **** * Return: 
 113:Generated_Source\PSoC5/SD_PULLUP.c **** *  Returns the current value assigned to the Digital Port's data output register
 114:Generated_Source\PSoC5/SD_PULLUP.c **** *  
 115:Generated_Source\PSoC5/SD_PULLUP.c **** *******************************************************************************/
 116:Generated_Source\PSoC5/SD_PULLUP.c **** uint8 SD_PULLUP_ReadDataReg(void) 
 117:Generated_Source\PSoC5/SD_PULLUP.c **** {
 135              		.loc 1 117 0
 136              		.cfi_startproc
 137              		@ args = 0, pretend = 0, frame = 0
 138              		@ frame_needed = 0, uses_anonymous_args = 0
 139              		@ link register save eliminated.
 118:Generated_Source\PSoC5/SD_PULLUP.c ****     return (SD_PULLUP_DR & SD_PULLUP_MASK) >> SD_PULLUP_SHIFT;
 140              		.loc 1 118 0
 141 0000 024B     		ldr	r3, .L11
 142 0002 1878     		ldrb	r0, [r3]	@ zero_extendqisi2
 119:Generated_Source\PSoC5/SD_PULLUP.c **** }
 143              		.loc 1 119 0
 144 0004 C0F38300 		ubfx	r0, r0, #2, #4
 145 0008 7047     		bx	lr
 146              	.L12:
 147 000a 00BF     		.align	2
 148              	.L11:
 149 000c 30510040 		.word	1073762608
 150              		.cfi_endproc
 151              	.LFE3:
 152              		.size	SD_PULLUP_ReadDataReg, .-SD_PULLUP_ReadDataReg
 153              		.text
 154              	.Letext0:
 155              		.file 2 "Generated_Source\\PSoC5\\cytypes.h"