ARM GAS  C:\Users\RABBIT~1\AppData\Local\Temp\ccY4WoEb.s 			page 1


   1              		.syntax unified
   2              		.cpu cortex-m3
   3              		.fpu softvfp
   4              		.eabi_attribute 20, 1
   5              		.eabi_attribute 21, 1
   6              		.eabi_attribute 23, 3
   7              		.eabi_attribute 24, 1
   8              		.eabi_attribute 25, 1
   9              		.eabi_attribute 26, 1
  10              		.eabi_attribute 30, 4
  11              		.eabi_attribute 34, 1
  12              		.eabi_attribute 18, 4
  13              		.thumb
  14              		.syntax unified
  15              		.file	"TERM_EN.c"
  16              		.text
  17              	.Ltext0:
  18              		.cfi_sections	.debug_frame
  19              		.section	.text.TERM_EN_Write,"ax",%progbits
  20              		.align	1
  21              		.global	TERM_EN_Write
  22              		.thumb
  23              		.thumb_func
  24              		.type	TERM_EN_Write, %function
  25              	TERM_EN_Write:
  26              	.LFB0:
  27              		.file 1 "Generated_Source\\PSoC5\\TERM_EN.c"
   1:Generated_Source\PSoC5/TERM_EN.c **** /*******************************************************************************
   2:Generated_Source\PSoC5/TERM_EN.c **** * File Name: TERM_EN.c  
   3:Generated_Source\PSoC5/TERM_EN.c **** * Version 2.20
   4:Generated_Source\PSoC5/TERM_EN.c **** *
   5:Generated_Source\PSoC5/TERM_EN.c **** * Description:
   6:Generated_Source\PSoC5/TERM_EN.c **** *  This file contains API to enable firmware control of a Pins component.
   7:Generated_Source\PSoC5/TERM_EN.c **** *
   8:Generated_Source\PSoC5/TERM_EN.c **** * Note:
   9:Generated_Source\PSoC5/TERM_EN.c **** *
  10:Generated_Source\PSoC5/TERM_EN.c **** ********************************************************************************
  11:Generated_Source\PSoC5/TERM_EN.c **** * Copyright 2008-2015, Cypress Semiconductor Corporation.  All rights reserved.
  12:Generated_Source\PSoC5/TERM_EN.c **** * You may use this file only in accordance with the license, terms, conditions, 
  13:Generated_Source\PSoC5/TERM_EN.c **** * disclaimers, and limitations in the end user license agreement accompanying 
  14:Generated_Source\PSoC5/TERM_EN.c **** * the software package with which this file was provided.
  15:Generated_Source\PSoC5/TERM_EN.c **** *******************************************************************************/
  16:Generated_Source\PSoC5/TERM_EN.c **** 
  17:Generated_Source\PSoC5/TERM_EN.c **** #include "cytypes.h"
  18:Generated_Source\PSoC5/TERM_EN.c **** #include "TERM_EN.h"
  19:Generated_Source\PSoC5/TERM_EN.c **** 
  20:Generated_Source\PSoC5/TERM_EN.c **** /* APIs are not generated for P15[7:6] on PSoC 5 */
  21:Generated_Source\PSoC5/TERM_EN.c **** #if !(CY_PSOC5A &&\
  22:Generated_Source\PSoC5/TERM_EN.c **** 	 TERM_EN__PORT == 15 && ((TERM_EN__MASK & 0xC0) != 0))
  23:Generated_Source\PSoC5/TERM_EN.c **** 
  24:Generated_Source\PSoC5/TERM_EN.c **** 
  25:Generated_Source\PSoC5/TERM_EN.c **** /*******************************************************************************
  26:Generated_Source\PSoC5/TERM_EN.c **** * Function Name: TERM_EN_Write
  27:Generated_Source\PSoC5/TERM_EN.c **** ****************************************************************************//**
  28:Generated_Source\PSoC5/TERM_EN.c **** *
  29:Generated_Source\PSoC5/TERM_EN.c **** * \brief Writes the value to the physical port (data output register), masking
  30:Generated_Source\PSoC5/TERM_EN.c **** *  and shifting the bits appropriately. 
ARM GAS  C:\Users\RABBIT~1\AppData\Local\Temp\ccY4WoEb.s 			page 2


  31:Generated_Source\PSoC5/TERM_EN.c **** *
  32:Generated_Source\PSoC5/TERM_EN.c **** * The data output register controls the signal applied to the physical pin in 
  33:Generated_Source\PSoC5/TERM_EN.c **** * conjunction with the drive mode parameter. This function avoids changing 
  34:Generated_Source\PSoC5/TERM_EN.c **** * other bits in the port by using the appropriate method (read-modify-write or
  35:Generated_Source\PSoC5/TERM_EN.c **** * bit banding).
  36:Generated_Source\PSoC5/TERM_EN.c **** *
  37:Generated_Source\PSoC5/TERM_EN.c **** * <b>Note</b> This function should not be used on a hardware digital output pin 
  38:Generated_Source\PSoC5/TERM_EN.c **** * as it is driven by the hardware signal attached to it.
  39:Generated_Source\PSoC5/TERM_EN.c **** *
  40:Generated_Source\PSoC5/TERM_EN.c **** * \param value
  41:Generated_Source\PSoC5/TERM_EN.c **** *  Value to write to the component instance.
  42:Generated_Source\PSoC5/TERM_EN.c **** *
  43:Generated_Source\PSoC5/TERM_EN.c **** * \return 
  44:Generated_Source\PSoC5/TERM_EN.c **** *  None 
  45:Generated_Source\PSoC5/TERM_EN.c **** *
  46:Generated_Source\PSoC5/TERM_EN.c **** * \sideeffect
  47:Generated_Source\PSoC5/TERM_EN.c **** *  If you use read-modify-write operations that are not atomic; the Interrupt 
  48:Generated_Source\PSoC5/TERM_EN.c **** *  Service Routines (ISR) can cause corruption of this function. An ISR that 
  49:Generated_Source\PSoC5/TERM_EN.c **** *  interrupts this function and performs writes to the Pins component data 
  50:Generated_Source\PSoC5/TERM_EN.c **** *  register can cause corrupted port data. To avoid this issue, you should 
  51:Generated_Source\PSoC5/TERM_EN.c **** *  either use the Per-Pin APIs (primary method) or disable interrupts around 
  52:Generated_Source\PSoC5/TERM_EN.c **** *  this function.
  53:Generated_Source\PSoC5/TERM_EN.c **** *
  54:Generated_Source\PSoC5/TERM_EN.c **** * \funcusage
  55:Generated_Source\PSoC5/TERM_EN.c **** *  \snippet TERM_EN_SUT.c usage_TERM_EN_Write
  56:Generated_Source\PSoC5/TERM_EN.c **** *******************************************************************************/
  57:Generated_Source\PSoC5/TERM_EN.c **** void TERM_EN_Write(uint8 value)
  58:Generated_Source\PSoC5/TERM_EN.c **** {
  28              		.loc 1 58 0
  29              		.cfi_startproc
  30              		@ args = 0, pretend = 0, frame = 0
  31              		@ frame_needed = 0, uses_anonymous_args = 0
  32              		@ link register save eliminated.
  33              	.LVL0:
  59:Generated_Source\PSoC5/TERM_EN.c ****     uint8 staticBits = (TERM_EN_DR & (uint8)(~TERM_EN_MASK));
  34              		.loc 1 59 0
  35 0000 044A     		ldr	r2, .L2
  60:Generated_Source\PSoC5/TERM_EN.c ****     TERM_EN_DR = staticBits | ((uint8)(value << TERM_EN_SHIFT) & TERM_EN_MASK);
  36              		.loc 1 60 0
  37 0002 C000     		lsls	r0, r0, #3
  38              	.LVL1:
  59:Generated_Source\PSoC5/TERM_EN.c ****     uint8 staticBits = (TERM_EN_DR & (uint8)(~TERM_EN_MASK));
  39              		.loc 1 59 0
  40 0004 1378     		ldrb	r3, [r2]	@ zero_extendqisi2
  41              	.LVL2:
  42              		.loc 1 60 0
  43 0006 00F00800 		and	r0, r0, #8
  44 000a 03F0F703 		and	r3, r3, #247
  45              	.LVL3:
  46 000e 0343     		orrs	r3, r3, r0
  47 0010 1370     		strb	r3, [r2]
  48 0012 7047     		bx	lr
  49              	.L3:
  50              		.align	2
  51              	.L2:
  52 0014 F0510040 		.word	1073762800
  53              		.cfi_endproc
ARM GAS  C:\Users\RABBIT~1\AppData\Local\Temp\ccY4WoEb.s 			page 3


  54              	.LFE0:
  55              		.size	TERM_EN_Write, .-TERM_EN_Write
  56              		.section	.text.TERM_EN_SetDriveMode,"ax",%progbits
  57              		.align	1
  58              		.global	TERM_EN_SetDriveMode
  59              		.thumb
  60              		.thumb_func
  61              		.type	TERM_EN_SetDriveMode, %function
  62              	TERM_EN_SetDriveMode:
  63              	.LFB1:
  61:Generated_Source\PSoC5/TERM_EN.c **** }
  62:Generated_Source\PSoC5/TERM_EN.c **** 
  63:Generated_Source\PSoC5/TERM_EN.c **** 
  64:Generated_Source\PSoC5/TERM_EN.c **** /*******************************************************************************
  65:Generated_Source\PSoC5/TERM_EN.c **** * Function Name: TERM_EN_SetDriveMode
  66:Generated_Source\PSoC5/TERM_EN.c **** ****************************************************************************//**
  67:Generated_Source\PSoC5/TERM_EN.c **** *
  68:Generated_Source\PSoC5/TERM_EN.c **** * \brief Sets the drive mode for each of the Pins component's pins.
  69:Generated_Source\PSoC5/TERM_EN.c **** * 
  70:Generated_Source\PSoC5/TERM_EN.c **** * <b>Note</b> This affects all pins in the Pins component instance. Use the
  71:Generated_Source\PSoC5/TERM_EN.c **** * Per-Pin APIs if you wish to control individual pin's drive modes.
  72:Generated_Source\PSoC5/TERM_EN.c **** *
  73:Generated_Source\PSoC5/TERM_EN.c **** * \param mode
  74:Generated_Source\PSoC5/TERM_EN.c **** *  Mode for the selected signals. Valid options are documented in 
  75:Generated_Source\PSoC5/TERM_EN.c **** *  \ref driveMode.
  76:Generated_Source\PSoC5/TERM_EN.c **** *
  77:Generated_Source\PSoC5/TERM_EN.c **** * \return
  78:Generated_Source\PSoC5/TERM_EN.c **** *  None
  79:Generated_Source\PSoC5/TERM_EN.c **** *
  80:Generated_Source\PSoC5/TERM_EN.c **** * \sideeffect
  81:Generated_Source\PSoC5/TERM_EN.c **** *  If you use read-modify-write operations that are not atomic, the ISR can
  82:Generated_Source\PSoC5/TERM_EN.c **** *  cause corruption of this function. An ISR that interrupts this function 
  83:Generated_Source\PSoC5/TERM_EN.c **** *  and performs writes to the Pins component Drive Mode registers can cause 
  84:Generated_Source\PSoC5/TERM_EN.c **** *  corrupted port data. To avoid this issue, you should either use the Per-Pin
  85:Generated_Source\PSoC5/TERM_EN.c **** *  APIs (primary method) or disable interrupts around this function.
  86:Generated_Source\PSoC5/TERM_EN.c **** *
  87:Generated_Source\PSoC5/TERM_EN.c **** * \funcusage
  88:Generated_Source\PSoC5/TERM_EN.c **** *  \snippet TERM_EN_SUT.c usage_TERM_EN_SetDriveMode
  89:Generated_Source\PSoC5/TERM_EN.c **** *******************************************************************************/
  90:Generated_Source\PSoC5/TERM_EN.c **** void TERM_EN_SetDriveMode(uint8 mode)
  91:Generated_Source\PSoC5/TERM_EN.c **** {
  64              		.loc 1 91 0
  65              		.cfi_startproc
  66              		@ args = 0, pretend = 0, frame = 0
  67              		@ frame_needed = 0, uses_anonymous_args = 0
  68              		@ link register save eliminated.
  69              	.LVL4:
  92:Generated_Source\PSoC5/TERM_EN.c **** 	CyPins_SetPinDriveMode(TERM_EN_0, mode);
  70              		.loc 1 92 0
  71 0000 044A     		ldr	r2, .L5
  72 0002 00F00E00 		and	r0, r0, #14
  73              	.LVL5:
  74 0006 1378     		ldrb	r3, [r2]	@ zero_extendqisi2
  75 0008 03F0F103 		and	r3, r3, #241
  76 000c 1843     		orrs	r0, r0, r3
  77 000e 1070     		strb	r0, [r2]
  78 0010 7047     		bx	lr
ARM GAS  C:\Users\RABBIT~1\AppData\Local\Temp\ccY4WoEb.s 			page 4


  79              	.L6:
  80 0012 00BF     		.align	2
  81              	.L5:
  82 0014 7B500040 		.word	1073762427
  83              		.cfi_endproc
  84              	.LFE1:
  85              		.size	TERM_EN_SetDriveMode, .-TERM_EN_SetDriveMode
  86              		.section	.text.TERM_EN_Read,"ax",%progbits
  87              		.align	1
  88              		.global	TERM_EN_Read
  89              		.thumb
  90              		.thumb_func
  91              		.type	TERM_EN_Read, %function
  92              	TERM_EN_Read:
  93              	.LFB2:
  93:Generated_Source\PSoC5/TERM_EN.c **** }
  94:Generated_Source\PSoC5/TERM_EN.c **** 
  95:Generated_Source\PSoC5/TERM_EN.c **** 
  96:Generated_Source\PSoC5/TERM_EN.c **** /*******************************************************************************
  97:Generated_Source\PSoC5/TERM_EN.c **** * Function Name: TERM_EN_Read
  98:Generated_Source\PSoC5/TERM_EN.c **** ****************************************************************************//**
  99:Generated_Source\PSoC5/TERM_EN.c **** *
 100:Generated_Source\PSoC5/TERM_EN.c **** * \brief Reads the associated physical port (pin status register) and masks 
 101:Generated_Source\PSoC5/TERM_EN.c **** *  the required bits according to the width and bit position of the component
 102:Generated_Source\PSoC5/TERM_EN.c **** *  instance. 
 103:Generated_Source\PSoC5/TERM_EN.c **** *
 104:Generated_Source\PSoC5/TERM_EN.c **** * The pin's status register returns the current logic level present on the 
 105:Generated_Source\PSoC5/TERM_EN.c **** * physical pin.
 106:Generated_Source\PSoC5/TERM_EN.c **** *
 107:Generated_Source\PSoC5/TERM_EN.c **** * \return 
 108:Generated_Source\PSoC5/TERM_EN.c **** *  The current value for the pins in the component as a right justified number.
 109:Generated_Source\PSoC5/TERM_EN.c **** *
 110:Generated_Source\PSoC5/TERM_EN.c **** * \funcusage
 111:Generated_Source\PSoC5/TERM_EN.c **** *  \snippet TERM_EN_SUT.c usage_TERM_EN_Read  
 112:Generated_Source\PSoC5/TERM_EN.c **** *******************************************************************************/
 113:Generated_Source\PSoC5/TERM_EN.c **** uint8 TERM_EN_Read(void)
 114:Generated_Source\PSoC5/TERM_EN.c **** {
  94              		.loc 1 114 0
  95              		.cfi_startproc
  96              		@ args = 0, pretend = 0, frame = 0
  97              		@ frame_needed = 0, uses_anonymous_args = 0
  98              		@ link register save eliminated.
 115:Generated_Source\PSoC5/TERM_EN.c ****     return (TERM_EN_PS & TERM_EN_MASK) >> TERM_EN_SHIFT;
  99              		.loc 1 115 0
 100 0000 024B     		ldr	r3, .L8
 101 0002 1878     		ldrb	r0, [r3]	@ zero_extendqisi2
 116:Generated_Source\PSoC5/TERM_EN.c **** }
 102              		.loc 1 116 0
 103 0004 C0F3C000 		ubfx	r0, r0, #3, #1
 104 0008 7047     		bx	lr
 105              	.L9:
 106 000a 00BF     		.align	2
 107              	.L8:
 108 000c F1510040 		.word	1073762801
 109              		.cfi_endproc
 110              	.LFE2:
 111              		.size	TERM_EN_Read, .-TERM_EN_Read
ARM GAS  C:\Users\RABBIT~1\AppData\Local\Temp\ccY4WoEb.s 			page 5


 112              		.section	.text.TERM_EN_ReadDataReg,"ax",%progbits
 113              		.align	1
 114              		.global	TERM_EN_ReadDataReg
 115              		.thumb
 116              		.thumb_func
 117              		.type	TERM_EN_ReadDataReg, %function
 118              	TERM_EN_ReadDataReg:
 119              	.LFB3:
 117:Generated_Source\PSoC5/TERM_EN.c **** 
 118:Generated_Source\PSoC5/TERM_EN.c **** 
 119:Generated_Source\PSoC5/TERM_EN.c **** /*******************************************************************************
 120:Generated_Source\PSoC5/TERM_EN.c **** * Function Name: TERM_EN_ReadDataReg
 121:Generated_Source\PSoC5/TERM_EN.c **** ****************************************************************************//**
 122:Generated_Source\PSoC5/TERM_EN.c **** *
 123:Generated_Source\PSoC5/TERM_EN.c **** * \brief Reads the associated physical port's data output register and masks 
 124:Generated_Source\PSoC5/TERM_EN.c **** *  the correct bits according to the width and bit position of the component 
 125:Generated_Source\PSoC5/TERM_EN.c **** *  instance. 
 126:Generated_Source\PSoC5/TERM_EN.c **** *
 127:Generated_Source\PSoC5/TERM_EN.c **** * The data output register controls the signal applied to the physical pin in 
 128:Generated_Source\PSoC5/TERM_EN.c **** * conjunction with the drive mode parameter. This is not the same as the 
 129:Generated_Source\PSoC5/TERM_EN.c **** * preferred TERM_EN_Read() API because the 
 130:Generated_Source\PSoC5/TERM_EN.c **** * TERM_EN_ReadDataReg() reads the data register instead of the status 
 131:Generated_Source\PSoC5/TERM_EN.c **** * register. For output pins this is a useful function to determine the value 
 132:Generated_Source\PSoC5/TERM_EN.c **** * just written to the pin.
 133:Generated_Source\PSoC5/TERM_EN.c **** *
 134:Generated_Source\PSoC5/TERM_EN.c **** * \return 
 135:Generated_Source\PSoC5/TERM_EN.c **** *  The current value of the data register masked and shifted into a right 
 136:Generated_Source\PSoC5/TERM_EN.c **** *  justified number for the component instance.
 137:Generated_Source\PSoC5/TERM_EN.c **** *
 138:Generated_Source\PSoC5/TERM_EN.c **** * \funcusage
 139:Generated_Source\PSoC5/TERM_EN.c **** *  \snippet TERM_EN_SUT.c usage_TERM_EN_ReadDataReg 
 140:Generated_Source\PSoC5/TERM_EN.c **** *******************************************************************************/
 141:Generated_Source\PSoC5/TERM_EN.c **** uint8 TERM_EN_ReadDataReg(void)
 142:Generated_Source\PSoC5/TERM_EN.c **** {
 120              		.loc 1 142 0
 121              		.cfi_startproc
 122              		@ args = 0, pretend = 0, frame = 0
 123              		@ frame_needed = 0, uses_anonymous_args = 0
 124              		@ link register save eliminated.
 143:Generated_Source\PSoC5/TERM_EN.c ****     return (TERM_EN_DR & TERM_EN_MASK) >> TERM_EN_SHIFT;
 125              		.loc 1 143 0
 126 0000 024B     		ldr	r3, .L11
 127 0002 1878     		ldrb	r0, [r3]	@ zero_extendqisi2
 144:Generated_Source\PSoC5/TERM_EN.c **** }
 128              		.loc 1 144 0
 129 0004 C0F3C000 		ubfx	r0, r0, #3, #1
 130 0008 7047     		bx	lr
 131              	.L12:
 132 000a 00BF     		.align	2
 133              	.L11:
 134 000c F0510040 		.word	1073762800
 135              		.cfi_endproc
 136              	.LFE3:
 137              		.size	TERM_EN_ReadDataReg, .-TERM_EN_ReadDataReg
 138              		.text
 139              	.Letext0:
 140              		.file 2 "Generated_Source\\PSoC5\\cytypes.h"
ARM GAS  C:\Users\RABBIT~1\AppData\Local\Temp\ccY4WoEb.s 			page 6

