ARM GAS  C:\Users\RABBIT~1\AppData\Local\Temp\ccl4TAxK.s 			page 1


   1              		.syntax unified
   2              		.cpu cortex-m3
   3              		.fpu softvfp
   4              		.eabi_attribute 20, 1
   5              		.eabi_attribute 21, 1
   6              		.eabi_attribute 23, 3
   7              		.eabi_attribute 24, 1
   8              		.eabi_attribute 25, 1
   9              		.eabi_attribute 26, 1
  10              		.eabi_attribute 30, 4
  11              		.eabi_attribute 34, 1
  12              		.eabi_attribute 18, 4
  13              		.thumb
  14              		.syntax unified
  15              		.file	"USBFS_hid.c"
  16              		.text
  17              	.Ltext0:
  18              		.cfi_sections	.debug_frame
  19              		.section	.text.USBFS_UpdateHIDTimer,"ax",%progbits
  20              		.align	1
  21              		.global	USBFS_UpdateHIDTimer
  22              		.thumb
  23              		.thumb_func
  24              		.type	USBFS_UpdateHIDTimer, %function
  25              	USBFS_UpdateHIDTimer:
  26              	.LFB0:
  27              		.file 1 "Generated_Source\\PSoC5\\USBFS_hid.c"
   1:Generated_Source\PSoC5/USBFS_hid.c **** /*******************************************************************************
   2:Generated_Source\PSoC5/USBFS_hid.c **** * File Name: USBFS_hid.c
   3:Generated_Source\PSoC5/USBFS_hid.c **** * Version 2.80
   4:Generated_Source\PSoC5/USBFS_hid.c **** *
   5:Generated_Source\PSoC5/USBFS_hid.c **** * Description:
   6:Generated_Source\PSoC5/USBFS_hid.c **** *  USB HID Class request handler.
   7:Generated_Source\PSoC5/USBFS_hid.c **** *
   8:Generated_Source\PSoC5/USBFS_hid.c **** * Related Document:
   9:Generated_Source\PSoC5/USBFS_hid.c **** *  Device Class Definition for Human Interface Devices (HID) Version 1.11
  10:Generated_Source\PSoC5/USBFS_hid.c **** *
  11:Generated_Source\PSoC5/USBFS_hid.c **** * Note:
  12:Generated_Source\PSoC5/USBFS_hid.c **** *
  13:Generated_Source\PSoC5/USBFS_hid.c **** ********************************************************************************
  14:Generated_Source\PSoC5/USBFS_hid.c **** * Copyright 2008-2014, Cypress Semiconductor Corporation.  All rights reserved.
  15:Generated_Source\PSoC5/USBFS_hid.c **** * You may use this file only in accordance with the license, terms, conditions,
  16:Generated_Source\PSoC5/USBFS_hid.c **** * disclaimers, and limitations in the end user license agreement accompanying
  17:Generated_Source\PSoC5/USBFS_hid.c **** * the software package with which this file was provided.
  18:Generated_Source\PSoC5/USBFS_hid.c **** *******************************************************************************/
  19:Generated_Source\PSoC5/USBFS_hid.c **** 
  20:Generated_Source\PSoC5/USBFS_hid.c **** #include "USBFS.h"
  21:Generated_Source\PSoC5/USBFS_hid.c **** 
  22:Generated_Source\PSoC5/USBFS_hid.c **** #if defined(USBFS_ENABLE_HID_CLASS)
  23:Generated_Source\PSoC5/USBFS_hid.c **** 
  24:Generated_Source\PSoC5/USBFS_hid.c **** #include "USBFS_pvt.h"
  25:Generated_Source\PSoC5/USBFS_hid.c **** #include "USBFS_hid.h"
  26:Generated_Source\PSoC5/USBFS_hid.c **** 
  27:Generated_Source\PSoC5/USBFS_hid.c **** 
  28:Generated_Source\PSoC5/USBFS_hid.c **** 
  29:Generated_Source\PSoC5/USBFS_hid.c **** /***************************************
  30:Generated_Source\PSoC5/USBFS_hid.c **** *    HID Variables
ARM GAS  C:\Users\RABBIT~1\AppData\Local\Temp\ccl4TAxK.s 			page 2


  31:Generated_Source\PSoC5/USBFS_hid.c **** ***************************************/
  32:Generated_Source\PSoC5/USBFS_hid.c **** 
  33:Generated_Source\PSoC5/USBFS_hid.c **** volatile uint8 USBFS_hidProtocol[USBFS_MAX_INTERFACES_NUMBER];  /* HID device protocol status */
  34:Generated_Source\PSoC5/USBFS_hid.c **** volatile uint8 USBFS_hidIdleRate[USBFS_MAX_INTERFACES_NUMBER];  /* HID device idle reload value */
  35:Generated_Source\PSoC5/USBFS_hid.c **** volatile uint8 USBFS_hidIdleTimer[USBFS_MAX_INTERFACES_NUMBER]; /* HID device idle rate value */
  36:Generated_Source\PSoC5/USBFS_hid.c **** 
  37:Generated_Source\PSoC5/USBFS_hid.c **** 
  38:Generated_Source\PSoC5/USBFS_hid.c **** /***************************************
  39:Generated_Source\PSoC5/USBFS_hid.c **** * Custom Declarations
  40:Generated_Source\PSoC5/USBFS_hid.c **** ***************************************/
  41:Generated_Source\PSoC5/USBFS_hid.c **** 
  42:Generated_Source\PSoC5/USBFS_hid.c **** /* `#START HID_CUSTOM_DECLARATIONS` Place your declaration here */
  43:Generated_Source\PSoC5/USBFS_hid.c **** 
  44:Generated_Source\PSoC5/USBFS_hid.c **** /* `#END` */
  45:Generated_Source\PSoC5/USBFS_hid.c **** 
  46:Generated_Source\PSoC5/USBFS_hid.c **** 
  47:Generated_Source\PSoC5/USBFS_hid.c **** /*******************************************************************************
  48:Generated_Source\PSoC5/USBFS_hid.c **** * Function Name: USBFS_UpdateHIDTimer
  49:Generated_Source\PSoC5/USBFS_hid.c **** ********************************************************************************
  50:Generated_Source\PSoC5/USBFS_hid.c **** *
  51:Generated_Source\PSoC5/USBFS_hid.c **** * Summary:
  52:Generated_Source\PSoC5/USBFS_hid.c **** *  Updates the HID report timer and reloads it if expired
  53:Generated_Source\PSoC5/USBFS_hid.c **** *
  54:Generated_Source\PSoC5/USBFS_hid.c **** * Parameters:
  55:Generated_Source\PSoC5/USBFS_hid.c **** *  interface:  Interface Number.
  56:Generated_Source\PSoC5/USBFS_hid.c **** *
  57:Generated_Source\PSoC5/USBFS_hid.c **** * Return:
  58:Generated_Source\PSoC5/USBFS_hid.c **** *  status.
  59:Generated_Source\PSoC5/USBFS_hid.c **** *
  60:Generated_Source\PSoC5/USBFS_hid.c **** * Reentrant:
  61:Generated_Source\PSoC5/USBFS_hid.c **** *  No.
  62:Generated_Source\PSoC5/USBFS_hid.c **** *
  63:Generated_Source\PSoC5/USBFS_hid.c **** *******************************************************************************/
  64:Generated_Source\PSoC5/USBFS_hid.c **** uint8 USBFS_UpdateHIDTimer(uint8 interface) 
  65:Generated_Source\PSoC5/USBFS_hid.c **** {
  28              		.loc 1 65 0
  29              		.cfi_startproc
  30              		@ args = 0, pretend = 0, frame = 0
  31              		@ frame_needed = 0, uses_anonymous_args = 0
  32              		@ link register save eliminated.
  33              	.LVL0:
  66:Generated_Source\PSoC5/USBFS_hid.c ****     uint8 stat = USBFS_IDLE_TIMER_INDEFINITE;
  67:Generated_Source\PSoC5/USBFS_hid.c **** 
  68:Generated_Source\PSoC5/USBFS_hid.c ****     if(USBFS_hidIdleRate[interface] != 0u)
  34              		.loc 1 68 0
  35 0000 0A49     		ldr	r1, .L6
  36 0002 0A5C     		ldrb	r2, [r1, r0]	@ zero_extendqisi2
  37 0004 02F0FF03 		and	r3, r2, #255
  38 0008 6AB1     		cbz	r2, .L4
  69:Generated_Source\PSoC5/USBFS_hid.c ****     {
  70:Generated_Source\PSoC5/USBFS_hid.c ****         if(USBFS_hidIdleTimer[interface] > 0u)
  39              		.loc 1 70 0
  40 000a 094A     		ldr	r2, .L6+4
  41 000c 135C     		ldrb	r3, [r2, r0]	@ zero_extendqisi2
  42 000e 2BB1     		cbz	r3, .L3
  71:Generated_Source\PSoC5/USBFS_hid.c ****         {
  72:Generated_Source\PSoC5/USBFS_hid.c ****             USBFS_hidIdleTimer[interface]--;
ARM GAS  C:\Users\RABBIT~1\AppData\Local\Temp\ccl4TAxK.s 			page 3


  43              		.loc 1 72 0
  44 0010 135C     		ldrb	r3, [r2, r0]	@ zero_extendqisi2
  45 0012 013B     		subs	r3, r3, #1
  46 0014 DBB2     		uxtb	r3, r3
  47 0016 1354     		strb	r3, [r2, r0]
  48              	.LVL1:
  73:Generated_Source\PSoC5/USBFS_hid.c ****             stat = USBFS_IDLE_TIMER_RUNNING;
  49              		.loc 1 73 0
  50 0018 0220     		movs	r0, #2
  51              	.LVL2:
  52 001a 7047     		bx	lr
  53              	.LVL3:
  54              	.L3:
  74:Generated_Source\PSoC5/USBFS_hid.c ****         }
  75:Generated_Source\PSoC5/USBFS_hid.c ****         else
  76:Generated_Source\PSoC5/USBFS_hid.c ****         {
  77:Generated_Source\PSoC5/USBFS_hid.c ****             USBFS_hidIdleTimer[interface] = USBFS_hidIdleRate[interface];
  55              		.loc 1 77 0
  56 001c 0B5C     		ldrb	r3, [r1, r0]	@ zero_extendqisi2
  57 001e DBB2     		uxtb	r3, r3
  58 0020 1354     		strb	r3, [r2, r0]
  59              	.LVL4:
  78:Generated_Source\PSoC5/USBFS_hid.c ****             stat = USBFS_IDLE_TIMER_EXPIRED;
  60              		.loc 1 78 0
  61 0022 0120     		movs	r0, #1
  62              	.LVL5:
  63 0024 7047     		bx	lr
  64              	.LVL6:
  65              	.L4:
  66:Generated_Source\PSoC5/USBFS_hid.c **** 
  66              		.loc 1 66 0
  67 0026 1846     		mov	r0, r3
  68              	.LVL7:
  79:Generated_Source\PSoC5/USBFS_hid.c ****         }
  80:Generated_Source\PSoC5/USBFS_hid.c ****     }
  81:Generated_Source\PSoC5/USBFS_hid.c **** 
  82:Generated_Source\PSoC5/USBFS_hid.c ****     return(stat);
  83:Generated_Source\PSoC5/USBFS_hid.c **** }
  69              		.loc 1 83 0
  70 0028 7047     		bx	lr
  71              	.L7:
  72 002a 00BF     		.align	2
  73              	.L6:
  74 002c 00000000 		.word	USBFS_hidIdleRate
  75 0030 00000000 		.word	USBFS_hidIdleTimer
  76              		.cfi_endproc
  77              	.LFE0:
  78              		.size	USBFS_UpdateHIDTimer, .-USBFS_UpdateHIDTimer
  79              		.section	.text.USBFS_GetProtocol,"ax",%progbits
  80              		.align	1
  81              		.global	USBFS_GetProtocol
  82              		.thumb
  83              		.thumb_func
  84              		.type	USBFS_GetProtocol, %function
  85              	USBFS_GetProtocol:
  86              	.LFB1:
  84:Generated_Source\PSoC5/USBFS_hid.c **** 
ARM GAS  C:\Users\RABBIT~1\AppData\Local\Temp\ccl4TAxK.s 			page 4


  85:Generated_Source\PSoC5/USBFS_hid.c **** 
  86:Generated_Source\PSoC5/USBFS_hid.c **** /*******************************************************************************
  87:Generated_Source\PSoC5/USBFS_hid.c **** * Function Name: USBFS_GetProtocol
  88:Generated_Source\PSoC5/USBFS_hid.c **** ********************************************************************************
  89:Generated_Source\PSoC5/USBFS_hid.c **** *
  90:Generated_Source\PSoC5/USBFS_hid.c **** * Summary:
  91:Generated_Source\PSoC5/USBFS_hid.c **** *  Returns the selected protocol value to the application
  92:Generated_Source\PSoC5/USBFS_hid.c **** *
  93:Generated_Source\PSoC5/USBFS_hid.c **** * Parameters:
  94:Generated_Source\PSoC5/USBFS_hid.c **** *  interface:  Interface Number.
  95:Generated_Source\PSoC5/USBFS_hid.c **** *
  96:Generated_Source\PSoC5/USBFS_hid.c **** * Return:
  97:Generated_Source\PSoC5/USBFS_hid.c **** *  Interface protocol.
  98:Generated_Source\PSoC5/USBFS_hid.c **** *
  99:Generated_Source\PSoC5/USBFS_hid.c **** *******************************************************************************/
 100:Generated_Source\PSoC5/USBFS_hid.c **** uint8 USBFS_GetProtocol(uint8 interface) 
 101:Generated_Source\PSoC5/USBFS_hid.c **** {
  87              		.loc 1 101 0
  88              		.cfi_startproc
  89              		@ args = 0, pretend = 0, frame = 0
  90              		@ frame_needed = 0, uses_anonymous_args = 0
  91              		@ link register save eliminated.
  92              	.LVL8:
 102:Generated_Source\PSoC5/USBFS_hid.c ****     return(USBFS_hidProtocol[interface]);
  93              		.loc 1 102 0
  94 0000 014B     		ldr	r3, .L9
  95 0002 185C     		ldrb	r0, [r3, r0]	@ zero_extendqisi2
  96              	.LVL9:
 103:Generated_Source\PSoC5/USBFS_hid.c **** }
  97              		.loc 1 103 0
  98 0004 7047     		bx	lr
  99              	.L10:
 100 0006 00BF     		.align	2
 101              	.L9:
 102 0008 00000000 		.word	USBFS_hidProtocol
 103              		.cfi_endproc
 104              	.LFE1:
 105              		.size	USBFS_GetProtocol, .-USBFS_GetProtocol
 106              		.section	.text.USBFS_FindHidClassDecriptor,"ax",%progbits
 107              		.align	1
 108              		.global	USBFS_FindHidClassDecriptor
 109              		.thumb
 110              		.thumb_func
 111              		.type	USBFS_FindHidClassDecriptor, %function
 112              	USBFS_FindHidClassDecriptor:
 113              	.LFB3:
 104:Generated_Source\PSoC5/USBFS_hid.c **** 
 105:Generated_Source\PSoC5/USBFS_hid.c **** 
 106:Generated_Source\PSoC5/USBFS_hid.c **** /*******************************************************************************
 107:Generated_Source\PSoC5/USBFS_hid.c **** * Function Name: USBFS_DispatchHIDClassRqst
 108:Generated_Source\PSoC5/USBFS_hid.c **** ********************************************************************************
 109:Generated_Source\PSoC5/USBFS_hid.c **** *
 110:Generated_Source\PSoC5/USBFS_hid.c **** * Summary:
 111:Generated_Source\PSoC5/USBFS_hid.c **** *  This routine dispatches class requests
 112:Generated_Source\PSoC5/USBFS_hid.c **** *
 113:Generated_Source\PSoC5/USBFS_hid.c **** * Parameters:
 114:Generated_Source\PSoC5/USBFS_hid.c **** *  None.
ARM GAS  C:\Users\RABBIT~1\AppData\Local\Temp\ccl4TAxK.s 			page 5


 115:Generated_Source\PSoC5/USBFS_hid.c **** *
 116:Generated_Source\PSoC5/USBFS_hid.c **** * Return:
 117:Generated_Source\PSoC5/USBFS_hid.c **** *  requestHandled
 118:Generated_Source\PSoC5/USBFS_hid.c **** *
 119:Generated_Source\PSoC5/USBFS_hid.c **** * Reentrant:
 120:Generated_Source\PSoC5/USBFS_hid.c **** *  No.
 121:Generated_Source\PSoC5/USBFS_hid.c **** *
 122:Generated_Source\PSoC5/USBFS_hid.c **** *******************************************************************************/
 123:Generated_Source\PSoC5/USBFS_hid.c **** uint8 USBFS_DispatchHIDClassRqst(void) 
 124:Generated_Source\PSoC5/USBFS_hid.c **** {
 125:Generated_Source\PSoC5/USBFS_hid.c ****     uint8 requestHandled = USBFS_FALSE;
 126:Generated_Source\PSoC5/USBFS_hid.c ****     uint8 interfaceNumber;
 127:Generated_Source\PSoC5/USBFS_hid.c **** 
 128:Generated_Source\PSoC5/USBFS_hid.c ****     interfaceNumber = CY_GET_REG8(USBFS_wIndexLo);
 129:Generated_Source\PSoC5/USBFS_hid.c ****     if ((CY_GET_REG8(USBFS_bmRequestType) & USBFS_RQST_DIR_MASK) == USBFS_RQST_DIR_D2H)
 130:Generated_Source\PSoC5/USBFS_hid.c ****     {   /* Control Read */
 131:Generated_Source\PSoC5/USBFS_hid.c ****         switch (CY_GET_REG8(USBFS_bRequest))
 132:Generated_Source\PSoC5/USBFS_hid.c ****         {
 133:Generated_Source\PSoC5/USBFS_hid.c ****             case USBFS_GET_DESCRIPTOR:
 134:Generated_Source\PSoC5/USBFS_hid.c ****                 if (CY_GET_REG8(USBFS_wValueHi) == USBFS_DESCR_HID_CLASS)
 135:Generated_Source\PSoC5/USBFS_hid.c ****                 {
 136:Generated_Source\PSoC5/USBFS_hid.c ****                     USBFS_FindHidClassDecriptor();
 137:Generated_Source\PSoC5/USBFS_hid.c ****                     if (USBFS_currentTD.count != 0u)
 138:Generated_Source\PSoC5/USBFS_hid.c ****                     {
 139:Generated_Source\PSoC5/USBFS_hid.c ****                         requestHandled = USBFS_InitControlRead();
 140:Generated_Source\PSoC5/USBFS_hid.c ****                     }
 141:Generated_Source\PSoC5/USBFS_hid.c ****                 }
 142:Generated_Source\PSoC5/USBFS_hid.c ****                 else if (CY_GET_REG8(USBFS_wValueHi) == USBFS_DESCR_HID_REPORT)
 143:Generated_Source\PSoC5/USBFS_hid.c ****                 {
 144:Generated_Source\PSoC5/USBFS_hid.c ****                     USBFS_FindReportDescriptor();
 145:Generated_Source\PSoC5/USBFS_hid.c ****                     if (USBFS_currentTD.count != 0u)
 146:Generated_Source\PSoC5/USBFS_hid.c ****                     {
 147:Generated_Source\PSoC5/USBFS_hid.c ****                         requestHandled = USBFS_InitControlRead();
 148:Generated_Source\PSoC5/USBFS_hid.c ****                     }
 149:Generated_Source\PSoC5/USBFS_hid.c ****                 }
 150:Generated_Source\PSoC5/USBFS_hid.c ****                 else
 151:Generated_Source\PSoC5/USBFS_hid.c ****                 {   /* requestHandled is initialezed as FALSE by default */
 152:Generated_Source\PSoC5/USBFS_hid.c ****                 }
 153:Generated_Source\PSoC5/USBFS_hid.c ****                 break;
 154:Generated_Source\PSoC5/USBFS_hid.c ****             case USBFS_HID_GET_REPORT:
 155:Generated_Source\PSoC5/USBFS_hid.c ****                 USBFS_FindReport();
 156:Generated_Source\PSoC5/USBFS_hid.c ****                 if (USBFS_currentTD.count != 0u)
 157:Generated_Source\PSoC5/USBFS_hid.c ****                 {
 158:Generated_Source\PSoC5/USBFS_hid.c ****                     requestHandled = USBFS_InitControlRead();
 159:Generated_Source\PSoC5/USBFS_hid.c ****                 }
 160:Generated_Source\PSoC5/USBFS_hid.c ****                 break;
 161:Generated_Source\PSoC5/USBFS_hid.c **** 
 162:Generated_Source\PSoC5/USBFS_hid.c ****             case USBFS_HID_GET_IDLE:
 163:Generated_Source\PSoC5/USBFS_hid.c ****                 /* This function does not support multiple reports per interface*/
 164:Generated_Source\PSoC5/USBFS_hid.c ****                 /* Validate interfaceNumber and Report ID (should be 0) */
 165:Generated_Source\PSoC5/USBFS_hid.c ****                 if( (interfaceNumber < USBFS_MAX_INTERFACES_NUMBER) &&
 166:Generated_Source\PSoC5/USBFS_hid.c ****                     (CY_GET_REG8(USBFS_wValueLo) == 0u ) ) /* Do not support Idle per Report ID */
 167:Generated_Source\PSoC5/USBFS_hid.c ****                 {
 168:Generated_Source\PSoC5/USBFS_hid.c ****                     USBFS_currentTD.count = 1u;
 169:Generated_Source\PSoC5/USBFS_hid.c ****                     USBFS_currentTD.pData = &USBFS_hidIdleRate[interfaceNumber];
 170:Generated_Source\PSoC5/USBFS_hid.c ****                     requestHandled  = USBFS_InitControlRead();
 171:Generated_Source\PSoC5/USBFS_hid.c ****                 }
ARM GAS  C:\Users\RABBIT~1\AppData\Local\Temp\ccl4TAxK.s 			page 6


 172:Generated_Source\PSoC5/USBFS_hid.c ****                 break;
 173:Generated_Source\PSoC5/USBFS_hid.c ****             case USBFS_HID_GET_PROTOCOL:
 174:Generated_Source\PSoC5/USBFS_hid.c ****                 /* Validate interfaceNumber */
 175:Generated_Source\PSoC5/USBFS_hid.c ****                 if( interfaceNumber < USBFS_MAX_INTERFACES_NUMBER)
 176:Generated_Source\PSoC5/USBFS_hid.c ****                 {
 177:Generated_Source\PSoC5/USBFS_hid.c ****                     USBFS_currentTD.count = 1u;
 178:Generated_Source\PSoC5/USBFS_hid.c ****                     USBFS_currentTD.pData = &USBFS_hidProtocol[interfaceNumber];
 179:Generated_Source\PSoC5/USBFS_hid.c ****                     requestHandled  = USBFS_InitControlRead();
 180:Generated_Source\PSoC5/USBFS_hid.c ****                 }
 181:Generated_Source\PSoC5/USBFS_hid.c ****                 break;
 182:Generated_Source\PSoC5/USBFS_hid.c ****             default:    /* requestHandled is initialized as FALSE by default */
 183:Generated_Source\PSoC5/USBFS_hid.c ****                 break;
 184:Generated_Source\PSoC5/USBFS_hid.c ****         }
 185:Generated_Source\PSoC5/USBFS_hid.c ****     }
 186:Generated_Source\PSoC5/USBFS_hid.c ****     else if ((CY_GET_REG8(USBFS_bmRequestType) & USBFS_RQST_DIR_MASK) ==
 187:Generated_Source\PSoC5/USBFS_hid.c ****                                                                             USBFS_RQST_DIR_H2D)
 188:Generated_Source\PSoC5/USBFS_hid.c ****     {   /* Control Write */
 189:Generated_Source\PSoC5/USBFS_hid.c ****         switch (CY_GET_REG8(USBFS_bRequest))
 190:Generated_Source\PSoC5/USBFS_hid.c ****         {
 191:Generated_Source\PSoC5/USBFS_hid.c ****             case USBFS_HID_SET_REPORT:
 192:Generated_Source\PSoC5/USBFS_hid.c ****                 USBFS_FindReport();
 193:Generated_Source\PSoC5/USBFS_hid.c ****                 if (USBFS_currentTD.count != 0u)
 194:Generated_Source\PSoC5/USBFS_hid.c ****                 {
 195:Generated_Source\PSoC5/USBFS_hid.c ****                     requestHandled = USBFS_InitControlWrite();
 196:Generated_Source\PSoC5/USBFS_hid.c ****                 }
 197:Generated_Source\PSoC5/USBFS_hid.c ****                 break;
 198:Generated_Source\PSoC5/USBFS_hid.c ****             case USBFS_HID_SET_IDLE:
 199:Generated_Source\PSoC5/USBFS_hid.c ****                 /* This function does not support multiple reports per interface */
 200:Generated_Source\PSoC5/USBFS_hid.c ****                 /* Validate interfaceNumber and Report ID (should be 0) */
 201:Generated_Source\PSoC5/USBFS_hid.c ****                 if( (interfaceNumber < USBFS_MAX_INTERFACES_NUMBER) &&
 202:Generated_Source\PSoC5/USBFS_hid.c ****                     (CY_GET_REG8(USBFS_wValueLo) == 0u ) ) /* Do not support Idle per Report ID */
 203:Generated_Source\PSoC5/USBFS_hid.c ****                 {
 204:Generated_Source\PSoC5/USBFS_hid.c ****                     USBFS_hidIdleRate[interfaceNumber] = CY_GET_REG8(USBFS_wValueHi);
 205:Generated_Source\PSoC5/USBFS_hid.c ****                     /* With regards to HID spec: "7.2.4 Set_Idle Request"
 206:Generated_Source\PSoC5/USBFS_hid.c ****                     *  Latency. If the current period has gone past the
 207:Generated_Source\PSoC5/USBFS_hid.c ****                     *  newly proscribed time duration, then a report
 208:Generated_Source\PSoC5/USBFS_hid.c ****                     *  will be generated immediately.
 209:Generated_Source\PSoC5/USBFS_hid.c ****                     */
 210:Generated_Source\PSoC5/USBFS_hid.c ****                     if(USBFS_hidIdleRate[interfaceNumber] <
 211:Generated_Source\PSoC5/USBFS_hid.c ****                        USBFS_hidIdleTimer[interfaceNumber])
 212:Generated_Source\PSoC5/USBFS_hid.c ****                     {
 213:Generated_Source\PSoC5/USBFS_hid.c ****                         /* Set the timer to zero and let the UpdateHIDTimer() API return IDLE_TIMER
 214:Generated_Source\PSoC5/USBFS_hid.c ****                         USBFS_hidIdleTimer[interfaceNumber] = 0u;
 215:Generated_Source\PSoC5/USBFS_hid.c ****                     }
 216:Generated_Source\PSoC5/USBFS_hid.c ****                     /* If the new request is received within 4 milliseconds
 217:Generated_Source\PSoC5/USBFS_hid.c ****                     *  (1 count) of the end of the current period, then the
 218:Generated_Source\PSoC5/USBFS_hid.c ****                     *  new request will have no effect until after the report.
 219:Generated_Source\PSoC5/USBFS_hid.c ****                     */
 220:Generated_Source\PSoC5/USBFS_hid.c ****                     else if(USBFS_hidIdleTimer[interfaceNumber] <= 1u)
 221:Generated_Source\PSoC5/USBFS_hid.c ****                     {
 222:Generated_Source\PSoC5/USBFS_hid.c ****                         /* Do nothing.
 223:Generated_Source\PSoC5/USBFS_hid.c ****                         *  Let the UpdateHIDTimer() API continue to work and
 224:Generated_Source\PSoC5/USBFS_hid.c ****                         *  return IDLE_TIMER_EXPIRED status
 225:Generated_Source\PSoC5/USBFS_hid.c ****                         */
 226:Generated_Source\PSoC5/USBFS_hid.c ****                     }
 227:Generated_Source\PSoC5/USBFS_hid.c ****                     else
 228:Generated_Source\PSoC5/USBFS_hid.c ****                     {   /* Reload the timer*/
ARM GAS  C:\Users\RABBIT~1\AppData\Local\Temp\ccl4TAxK.s 			page 7


 229:Generated_Source\PSoC5/USBFS_hid.c ****                         USBFS_hidIdleTimer[interfaceNumber] =
 230:Generated_Source\PSoC5/USBFS_hid.c ****                         USBFS_hidIdleRate[interfaceNumber];
 231:Generated_Source\PSoC5/USBFS_hid.c ****                     }
 232:Generated_Source\PSoC5/USBFS_hid.c ****                     requestHandled = USBFS_InitNoDataControlTransfer();
 233:Generated_Source\PSoC5/USBFS_hid.c ****                 }
 234:Generated_Source\PSoC5/USBFS_hid.c ****                 break;
 235:Generated_Source\PSoC5/USBFS_hid.c **** 
 236:Generated_Source\PSoC5/USBFS_hid.c ****             case USBFS_HID_SET_PROTOCOL:
 237:Generated_Source\PSoC5/USBFS_hid.c ****                 /* Validate interfaceNumber and protocol (must be 0 or 1) */
 238:Generated_Source\PSoC5/USBFS_hid.c ****                 if( (interfaceNumber < USBFS_MAX_INTERFACES_NUMBER) &&
 239:Generated_Source\PSoC5/USBFS_hid.c ****                     (CY_GET_REG8(USBFS_wValueLo) <= 1u) )
 240:Generated_Source\PSoC5/USBFS_hid.c ****                 {
 241:Generated_Source\PSoC5/USBFS_hid.c ****                     USBFS_hidProtocol[interfaceNumber] = CY_GET_REG8(USBFS_wValueLo);
 242:Generated_Source\PSoC5/USBFS_hid.c ****                     requestHandled = USBFS_InitNoDataControlTransfer();
 243:Generated_Source\PSoC5/USBFS_hid.c ****                 }
 244:Generated_Source\PSoC5/USBFS_hid.c ****                 break;
 245:Generated_Source\PSoC5/USBFS_hid.c ****             default:    /* requestHandled is initialized as FALSE by default */
 246:Generated_Source\PSoC5/USBFS_hid.c ****                 break;
 247:Generated_Source\PSoC5/USBFS_hid.c ****         }
 248:Generated_Source\PSoC5/USBFS_hid.c ****     }
 249:Generated_Source\PSoC5/USBFS_hid.c ****     else
 250:Generated_Source\PSoC5/USBFS_hid.c ****     {   /* requestHandled is initialized as FALSE by default */
 251:Generated_Source\PSoC5/USBFS_hid.c ****     }
 252:Generated_Source\PSoC5/USBFS_hid.c **** 
 253:Generated_Source\PSoC5/USBFS_hid.c ****     return(requestHandled);
 254:Generated_Source\PSoC5/USBFS_hid.c **** }
 255:Generated_Source\PSoC5/USBFS_hid.c **** 
 256:Generated_Source\PSoC5/USBFS_hid.c **** 
 257:Generated_Source\PSoC5/USBFS_hid.c **** /*******************************************************************************
 258:Generated_Source\PSoC5/USBFS_hid.c **** * Function Name: USB_FindHidClassDescriptor
 259:Generated_Source\PSoC5/USBFS_hid.c **** ********************************************************************************
 260:Generated_Source\PSoC5/USBFS_hid.c **** *
 261:Generated_Source\PSoC5/USBFS_hid.c **** * Summary:
 262:Generated_Source\PSoC5/USBFS_hid.c **** *  This routine find Hid Class Descriptor pointer based on the Interface number
 263:Generated_Source\PSoC5/USBFS_hid.c **** *  and Alternate setting then loads the currentTD structure with the address of
 264:Generated_Source\PSoC5/USBFS_hid.c **** *  the buffer and the size.
 265:Generated_Source\PSoC5/USBFS_hid.c **** *  The HID Class Descriptor resides inside the config descriptor.
 266:Generated_Source\PSoC5/USBFS_hid.c **** *
 267:Generated_Source\PSoC5/USBFS_hid.c **** * Parameters:
 268:Generated_Source\PSoC5/USBFS_hid.c **** *  None.
 269:Generated_Source\PSoC5/USBFS_hid.c **** *
 270:Generated_Source\PSoC5/USBFS_hid.c **** * Return:
 271:Generated_Source\PSoC5/USBFS_hid.c **** *  currentTD
 272:Generated_Source\PSoC5/USBFS_hid.c **** *
 273:Generated_Source\PSoC5/USBFS_hid.c **** * Reentrant:
 274:Generated_Source\PSoC5/USBFS_hid.c **** *  No.
 275:Generated_Source\PSoC5/USBFS_hid.c **** *
 276:Generated_Source\PSoC5/USBFS_hid.c **** *******************************************************************************/
 277:Generated_Source\PSoC5/USBFS_hid.c **** void USBFS_FindHidClassDecriptor(void) 
 278:Generated_Source\PSoC5/USBFS_hid.c **** {
 114              		.loc 1 278 0
 115              		.cfi_startproc
 116              		@ args = 0, pretend = 0, frame = 0
 117              		@ frame_needed = 0, uses_anonymous_args = 0
 118 0000 08B5     		push	{r3, lr}
 119              		.cfi_def_cfa_offset 8
 120              		.cfi_offset 3, -8
ARM GAS  C:\Users\RABBIT~1\AppData\Local\Temp\ccl4TAxK.s 			page 8


 121              		.cfi_offset 14, -4
 279:Generated_Source\PSoC5/USBFS_hid.c ****     const T_USBFS_LUT CYCODE *pTmp;
 280:Generated_Source\PSoC5/USBFS_hid.c ****     volatile uint8 *pDescr;
 281:Generated_Source\PSoC5/USBFS_hid.c ****     uint8 interfaceN;
 282:Generated_Source\PSoC5/USBFS_hid.c **** 
 283:Generated_Source\PSoC5/USBFS_hid.c ****     pTmp = USBFS_GetConfigTablePtr(USBFS_configuration - 1u);
 122              		.loc 1 283 0
 123 0002 0B4B     		ldr	r3, .L12
 124 0004 1878     		ldrb	r0, [r3]	@ zero_extendqisi2
 125 0006 0138     		subs	r0, r0, #1
 126 0008 C0B2     		uxtb	r0, r0
 127 000a FFF7FEFF 		bl	USBFS_GetConfigTablePtr
 128              	.LVL10:
 284:Generated_Source\PSoC5/USBFS_hid.c ****     interfaceN = CY_GET_REG8(USBFS_wIndexLo);
 129              		.loc 1 284 0
 130 000e 094B     		ldr	r3, .L12+4
 285:Generated_Source\PSoC5/USBFS_hid.c ****     /* Third entry in the LUT starts the Interface Table pointers */
 286:Generated_Source\PSoC5/USBFS_hid.c ****     /* Now use the request interface number*/
 287:Generated_Source\PSoC5/USBFS_hid.c ****     pTmp = &pTmp[interfaceN + 2u];
 288:Generated_Source\PSoC5/USBFS_hid.c ****     /* USB_DEVICEx_CONFIGURATIONy_INTERFACEz_TABLE */
 289:Generated_Source\PSoC5/USBFS_hid.c ****     pTmp = (const T_USBFS_LUT CYCODE *) pTmp->p_list;
 290:Generated_Source\PSoC5/USBFS_hid.c ****     /* Now use Alternate setting number */
 291:Generated_Source\PSoC5/USBFS_hid.c ****     pTmp = &pTmp[USBFS_interfaceSetting[interfaceN]];
 131              		.loc 1 291 0
 132 0010 0949     		ldr	r1, .L12+8
 284:Generated_Source\PSoC5/USBFS_hid.c ****     interfaceN = CY_GET_REG8(USBFS_wIndexLo);
 133              		.loc 1 284 0
 134 0012 1B78     		ldrb	r3, [r3]	@ zero_extendqisi2
 135 0014 DBB2     		uxtb	r3, r3
 136              	.LVL11:
 287:Generated_Source\PSoC5/USBFS_hid.c ****     /* USB_DEVICEx_CONFIGURATIONy_INTERFACEz_TABLE */
 137              		.loc 1 287 0
 138 0016 00EBC300 		add	r0, r0, r3, lsl #3
 139              	.LVL12:
 289:Generated_Source\PSoC5/USBFS_hid.c ****     /* Now use Alternate setting number */
 140              		.loc 1 289 0
 141 001a 4269     		ldr	r2, [r0, #20]
 142              	.LVL13:
 143              		.loc 1 291 0
 144 001c CB5C     		ldrb	r3, [r1, r3]	@ zero_extendqisi2
 145              	.LVL14:
 146 001e 02EBC303 		add	r3, r2, r3, lsl #3
 147              	.LVL15:
 292:Generated_Source\PSoC5/USBFS_hid.c ****     /* USB_DEVICEx_CONFIGURATIONy_INTERFACEz_ALTERNATEi_HID_TABLE */
 293:Generated_Source\PSoC5/USBFS_hid.c ****     pTmp = (const T_USBFS_LUT CYCODE *) pTmp->p_list;
 294:Generated_Source\PSoC5/USBFS_hid.c ****     /* Fifth entry in the LUT points to Hid Class Descriptor in Configuration Descriptor */
 295:Generated_Source\PSoC5/USBFS_hid.c ****     pTmp = &pTmp[4u];
 296:Generated_Source\PSoC5/USBFS_hid.c ****     pDescr = (volatile uint8 *)pTmp->p_list;
 148              		.loc 1 296 0
 149 0022 5B68     		ldr	r3, [r3, #4]
 150              	.LVL16:
 297:Generated_Source\PSoC5/USBFS_hid.c ****     /* The first byte contains the descriptor length */
 298:Generated_Source\PSoC5/USBFS_hid.c ****     USBFS_currentTD.count = *pDescr;
 151              		.loc 1 298 0
 152 0024 054A     		ldr	r2, .L12+12
 296:Generated_Source\PSoC5/USBFS_hid.c ****     /* The first byte contains the descriptor length */
 153              		.loc 1 296 0
ARM GAS  C:\Users\RABBIT~1\AppData\Local\Temp\ccl4TAxK.s 			page 9


 154 0026 596A     		ldr	r1, [r3, #36]
 155              	.LVL17:
 156              		.loc 1 298 0
 157 0028 0B78     		ldrb	r3, [r1]	@ zero_extendqisi2
 158              	.LVL18:
 159 002a 1380     		strh	r3, [r2]	@ movhi
 299:Generated_Source\PSoC5/USBFS_hid.c ****     USBFS_currentTD.pData = pDescr;
 160              		.loc 1 299 0
 161 002c 5160     		str	r1, [r2, #4]
 162 002e 08BD     		pop	{r3, pc}
 163              	.L13:
 164              		.align	2
 165              	.L12:
 166 0030 00000000 		.word	USBFS_configuration
 167 0034 04600040 		.word	1073766404
 168 0038 00000000 		.word	USBFS_interfaceSetting
 169 003c 00000000 		.word	USBFS_currentTD
 170              		.cfi_endproc
 171              	.LFE3:
 172              		.size	USBFS_FindHidClassDecriptor, .-USBFS_FindHidClassDecriptor
 173              		.section	.text.USBFS_FindReportDescriptor,"ax",%progbits
 174              		.align	1
 175              		.global	USBFS_FindReportDescriptor
 176              		.thumb
 177              		.thumb_func
 178              		.type	USBFS_FindReportDescriptor, %function
 179              	USBFS_FindReportDescriptor:
 180              	.LFB4:
 300:Generated_Source\PSoC5/USBFS_hid.c **** }
 301:Generated_Source\PSoC5/USBFS_hid.c **** 
 302:Generated_Source\PSoC5/USBFS_hid.c **** 
 303:Generated_Source\PSoC5/USBFS_hid.c **** /*******************************************************************************
 304:Generated_Source\PSoC5/USBFS_hid.c **** * Function Name: USB_FindReportDescriptor
 305:Generated_Source\PSoC5/USBFS_hid.c **** ********************************************************************************
 306:Generated_Source\PSoC5/USBFS_hid.c **** *
 307:Generated_Source\PSoC5/USBFS_hid.c **** * Summary:
 308:Generated_Source\PSoC5/USBFS_hid.c **** *  This routine find Hid Report Descriptor pointer based on the Interface
 309:Generated_Source\PSoC5/USBFS_hid.c **** *  number, then loads the currentTD structure with the address of the buffer
 310:Generated_Source\PSoC5/USBFS_hid.c **** *  and the size.
 311:Generated_Source\PSoC5/USBFS_hid.c **** *  Hid Report Descriptor is located after IN/OUT/FEATURE reports.
 312:Generated_Source\PSoC5/USBFS_hid.c **** *
 313:Generated_Source\PSoC5/USBFS_hid.c **** * Parameters:
 314:Generated_Source\PSoC5/USBFS_hid.c **** *   void
 315:Generated_Source\PSoC5/USBFS_hid.c **** *
 316:Generated_Source\PSoC5/USBFS_hid.c **** * Return:
 317:Generated_Source\PSoC5/USBFS_hid.c **** *  currentTD
 318:Generated_Source\PSoC5/USBFS_hid.c **** *
 319:Generated_Source\PSoC5/USBFS_hid.c **** * Reentrant:
 320:Generated_Source\PSoC5/USBFS_hid.c **** *  No.
 321:Generated_Source\PSoC5/USBFS_hid.c **** *
 322:Generated_Source\PSoC5/USBFS_hid.c **** *******************************************************************************/
 323:Generated_Source\PSoC5/USBFS_hid.c **** void USBFS_FindReportDescriptor(void) 
 324:Generated_Source\PSoC5/USBFS_hid.c **** {
 181              		.loc 1 324 0
 182              		.cfi_startproc
 183              		@ args = 0, pretend = 0, frame = 0
 184              		@ frame_needed = 0, uses_anonymous_args = 0
ARM GAS  C:\Users\RABBIT~1\AppData\Local\Temp\ccl4TAxK.s 			page 10


 185 0000 08B5     		push	{r3, lr}
 186              		.cfi_def_cfa_offset 8
 187              		.cfi_offset 3, -8
 188              		.cfi_offset 14, -4
 325:Generated_Source\PSoC5/USBFS_hid.c ****     const T_USBFS_LUT CYCODE *pTmp;
 326:Generated_Source\PSoC5/USBFS_hid.c ****     volatile uint8 *pDescr;
 327:Generated_Source\PSoC5/USBFS_hid.c ****     uint8 interfaceN;
 328:Generated_Source\PSoC5/USBFS_hid.c **** 
 329:Generated_Source\PSoC5/USBFS_hid.c ****     pTmp = USBFS_GetConfigTablePtr(USBFS_configuration - 1u);
 189              		.loc 1 329 0
 190 0002 0D4B     		ldr	r3, .L15
 191 0004 1878     		ldrb	r0, [r3]	@ zero_extendqisi2
 192 0006 0138     		subs	r0, r0, #1
 193 0008 C0B2     		uxtb	r0, r0
 194 000a FFF7FEFF 		bl	USBFS_GetConfigTablePtr
 195              	.LVL19:
 330:Generated_Source\PSoC5/USBFS_hid.c ****     interfaceN = CY_GET_REG8(USBFS_wIndexLo);
 196              		.loc 1 330 0
 197 000e 0B4B     		ldr	r3, .L15+4
 331:Generated_Source\PSoC5/USBFS_hid.c ****     /* Third entry in the LUT starts the Interface Table pointers */
 332:Generated_Source\PSoC5/USBFS_hid.c ****     /* Now use the request interface number */
 333:Generated_Source\PSoC5/USBFS_hid.c ****     pTmp = &pTmp[interfaceN + 2u];
 334:Generated_Source\PSoC5/USBFS_hid.c ****     /* USB_DEVICEx_CONFIGURATIONy_INTERFACEz_TABLE */
 335:Generated_Source\PSoC5/USBFS_hid.c ****     pTmp = (const T_USBFS_LUT CYCODE *) pTmp->p_list;
 336:Generated_Source\PSoC5/USBFS_hid.c ****     /* Now use Alternate setting number */
 337:Generated_Source\PSoC5/USBFS_hid.c ****     pTmp = &pTmp[USBFS_interfaceSetting[interfaceN]];
 198              		.loc 1 337 0
 199 0010 0B49     		ldr	r1, .L15+8
 330:Generated_Source\PSoC5/USBFS_hid.c ****     interfaceN = CY_GET_REG8(USBFS_wIndexLo);
 200              		.loc 1 330 0
 201 0012 1B78     		ldrb	r3, [r3]	@ zero_extendqisi2
 202 0014 DBB2     		uxtb	r3, r3
 203              	.LVL20:
 333:Generated_Source\PSoC5/USBFS_hid.c ****     /* USB_DEVICEx_CONFIGURATIONy_INTERFACEz_TABLE */
 204              		.loc 1 333 0
 205 0016 00EBC300 		add	r0, r0, r3, lsl #3
 206              	.LVL21:
 335:Generated_Source\PSoC5/USBFS_hid.c ****     /* Now use Alternate setting number */
 207              		.loc 1 335 0
 208 001a 4269     		ldr	r2, [r0, #20]
 209              	.LVL22:
 210              		.loc 1 337 0
 211 001c CB5C     		ldrb	r3, [r1, r3]	@ zero_extendqisi2
 212              	.LVL23:
 213 001e 02EBC303 		add	r3, r2, r3, lsl #3
 214              	.LVL24:
 338:Generated_Source\PSoC5/USBFS_hid.c ****     /* USB_DEVICEx_CONFIGURATIONy_INTERFACEz_ALTERNATEi_HID_TABLE */
 339:Generated_Source\PSoC5/USBFS_hid.c ****     pTmp = (const T_USBFS_LUT CYCODE *) pTmp->p_list;
 340:Generated_Source\PSoC5/USBFS_hid.c ****     /* Fourth entry in the LUT starts the Hid Report Descriptor */
 341:Generated_Source\PSoC5/USBFS_hid.c ****     pTmp = &pTmp[3u];
 342:Generated_Source\PSoC5/USBFS_hid.c ****     pDescr = (volatile uint8 *)pTmp->p_list;
 215              		.loc 1 342 0
 216 0022 5B68     		ldr	r3, [r3, #4]
 217              	.LVL25:
 218 0024 DB69     		ldr	r3, [r3, #28]
 219              	.LVL26:
 343:Generated_Source\PSoC5/USBFS_hid.c ****     /* The 1st and 2nd bytes of descriptor contain its length. LSB is 1st. */
ARM GAS  C:\Users\RABBIT~1\AppData\Local\Temp\ccl4TAxK.s 			page 11


 344:Generated_Source\PSoC5/USBFS_hid.c ****     USBFS_currentTD.count =  (((uint16)pDescr[1u] << 8u) | pDescr[0u]);
 220              		.loc 1 344 0
 221 0026 5978     		ldrb	r1, [r3, #1]	@ zero_extendqisi2
 222 0028 13F8022B 		ldrb	r2, [r3], #2	@ zero_extendqisi2
 223              	.LVL27:
 224 002c 42EA0122 		orr	r2, r2, r1, lsl #8
 225 0030 0449     		ldr	r1, .L15+12
 226 0032 0A80     		strh	r2, [r1]	@ movhi
 345:Generated_Source\PSoC5/USBFS_hid.c ****     USBFS_currentTD.pData = &pDescr[2u];
 227              		.loc 1 345 0
 228 0034 4B60     		str	r3, [r1, #4]
 229 0036 08BD     		pop	{r3, pc}
 230              	.LVL28:
 231              	.L16:
 232              		.align	2
 233              	.L15:
 234 0038 00000000 		.word	USBFS_configuration
 235 003c 04600040 		.word	1073766404
 236 0040 00000000 		.word	USBFS_interfaceSetting
 237 0044 00000000 		.word	USBFS_currentTD
 238              		.cfi_endproc
 239              	.LFE4:
 240              		.size	USBFS_FindReportDescriptor, .-USBFS_FindReportDescriptor
 241              		.section	.text.USBFS_FindReport,"ax",%progbits
 242              		.align	1
 243              		.global	USBFS_FindReport
 244              		.thumb
 245              		.thumb_func
 246              		.type	USBFS_FindReport, %function
 247              	USBFS_FindReport:
 248              	.LFB5:
 346:Generated_Source\PSoC5/USBFS_hid.c **** }
 347:Generated_Source\PSoC5/USBFS_hid.c **** 
 348:Generated_Source\PSoC5/USBFS_hid.c **** 
 349:Generated_Source\PSoC5/USBFS_hid.c **** /*******************************************************************************
 350:Generated_Source\PSoC5/USBFS_hid.c **** * Function Name: USBFS_FindReport
 351:Generated_Source\PSoC5/USBFS_hid.c **** ********************************************************************************
 352:Generated_Source\PSoC5/USBFS_hid.c **** *
 353:Generated_Source\PSoC5/USBFS_hid.c **** * Summary:
 354:Generated_Source\PSoC5/USBFS_hid.c **** *  This routine sets up a transfer based on the Interface number, Report Type
 355:Generated_Source\PSoC5/USBFS_hid.c **** *  and Report ID, then loads the currentTD structure with the address of the
 356:Generated_Source\PSoC5/USBFS_hid.c **** *  buffer and the size.  The caller has to decide if it is a control read or
 357:Generated_Source\PSoC5/USBFS_hid.c **** *  control write.
 358:Generated_Source\PSoC5/USBFS_hid.c **** *
 359:Generated_Source\PSoC5/USBFS_hid.c **** * Parameters:
 360:Generated_Source\PSoC5/USBFS_hid.c **** *  None.
 361:Generated_Source\PSoC5/USBFS_hid.c **** *
 362:Generated_Source\PSoC5/USBFS_hid.c **** * Return:
 363:Generated_Source\PSoC5/USBFS_hid.c **** *  currentTD
 364:Generated_Source\PSoC5/USBFS_hid.c **** *
 365:Generated_Source\PSoC5/USBFS_hid.c **** * Reentrant:
 366:Generated_Source\PSoC5/USBFS_hid.c **** *  No.
 367:Generated_Source\PSoC5/USBFS_hid.c **** *
 368:Generated_Source\PSoC5/USBFS_hid.c **** *******************************************************************************/
 369:Generated_Source\PSoC5/USBFS_hid.c **** void USBFS_FindReport(void) 
 370:Generated_Source\PSoC5/USBFS_hid.c **** {
 249              		.loc 1 370 0
ARM GAS  C:\Users\RABBIT~1\AppData\Local\Temp\ccl4TAxK.s 			page 12


 250              		.cfi_startproc
 251              		@ args = 0, pretend = 0, frame = 0
 252              		@ frame_needed = 0, uses_anonymous_args = 0
 253 0000 10B5     		push	{r4, lr}
 254              		.cfi_def_cfa_offset 8
 255              		.cfi_offset 4, -8
 256              		.cfi_offset 14, -4
 371:Generated_Source\PSoC5/USBFS_hid.c ****     const T_USBFS_LUT CYCODE *pTmp;
 372:Generated_Source\PSoC5/USBFS_hid.c ****     T_USBFS_TD *pTD;
 373:Generated_Source\PSoC5/USBFS_hid.c ****     uint8 interfaceN;
 374:Generated_Source\PSoC5/USBFS_hid.c ****     uint8 reportType;
 375:Generated_Source\PSoC5/USBFS_hid.c **** 
 376:Generated_Source\PSoC5/USBFS_hid.c ****     /* `#START HID_FINDREPORT` Place custom handling here */
 377:Generated_Source\PSoC5/USBFS_hid.c **** 
 378:Generated_Source\PSoC5/USBFS_hid.c ****     /* `#END` */
 379:Generated_Source\PSoC5/USBFS_hid.c ****     
 380:Generated_Source\PSoC5/USBFS_hid.c ****     #ifdef USBFS_FIND_REPORT_CALLBACK
 381:Generated_Source\PSoC5/USBFS_hid.c ****         USBFS_FindReport_Callback();
 382:Generated_Source\PSoC5/USBFS_hid.c ****     #endif /* USBFS_FIND_REPORT_CALLBACK */
 383:Generated_Source\PSoC5/USBFS_hid.c ****     
 384:Generated_Source\PSoC5/USBFS_hid.c ****     USBFS_currentTD.count = 0u;   /* Init not supported condition */
 257              		.loc 1 384 0
 258 0002 184C     		ldr	r4, .L19
 259 0004 0023     		movs	r3, #0
 260 0006 2380     		strh	r3, [r4]	@ movhi
 385:Generated_Source\PSoC5/USBFS_hid.c ****     pTmp = USBFS_GetConfigTablePtr(USBFS_configuration - 1u);
 261              		.loc 1 385 0
 262 0008 174B     		ldr	r3, .L19+4
 263 000a 1878     		ldrb	r0, [r3]	@ zero_extendqisi2
 264 000c 0138     		subs	r0, r0, #1
 265 000e C0B2     		uxtb	r0, r0
 266 0010 FFF7FEFF 		bl	USBFS_GetConfigTablePtr
 267              	.LVL29:
 386:Generated_Source\PSoC5/USBFS_hid.c ****     reportType = CY_GET_REG8(USBFS_wValueHi);
 268              		.loc 1 386 0
 269 0014 154B     		ldr	r3, .L19+8
 387:Generated_Source\PSoC5/USBFS_hid.c ****     interfaceN = CY_GET_REG8(USBFS_wIndexLo);
 270              		.loc 1 387 0
 271 0016 164A     		ldr	r2, .L19+12
 386:Generated_Source\PSoC5/USBFS_hid.c ****     reportType = CY_GET_REG8(USBFS_wValueHi);
 272              		.loc 1 386 0
 273 0018 1B78     		ldrb	r3, [r3]	@ zero_extendqisi2
 274              		.loc 1 387 0
 275 001a 1278     		ldrb	r2, [r2]	@ zero_extendqisi2
 386:Generated_Source\PSoC5/USBFS_hid.c ****     reportType = CY_GET_REG8(USBFS_wValueHi);
 276              		.loc 1 386 0
 277 001c DBB2     		uxtb	r3, r3
 278              	.LVL30:
 388:Generated_Source\PSoC5/USBFS_hid.c ****     /* Third entry in the LUT COnfiguration Table starts the Interface Table pointers */
 389:Generated_Source\PSoC5/USBFS_hid.c ****     /* Now use the request interface number */
 390:Generated_Source\PSoC5/USBFS_hid.c ****     pTmp = &pTmp[interfaceN + 2u];
 391:Generated_Source\PSoC5/USBFS_hid.c ****     /* USB_DEVICEx_CONFIGURATIONy_INTERFACEz_TABLE*/
 392:Generated_Source\PSoC5/USBFS_hid.c ****     pTmp = (const T_USBFS_LUT CYCODE *) pTmp->p_list;
 393:Generated_Source\PSoC5/USBFS_hid.c ****     if(interfaceN < USBFS_MAX_INTERFACES_NUMBER)
 279              		.loc 1 393 0
 280 001e FAB9     		cbnz	r2, .L17
 394:Generated_Source\PSoC5/USBFS_hid.c ****     {
ARM GAS  C:\Users\RABBIT~1\AppData\Local\Temp\ccl4TAxK.s 			page 13


 395:Generated_Source\PSoC5/USBFS_hid.c ****         /* Now use Alternate setting number */
 396:Generated_Source\PSoC5/USBFS_hid.c ****         pTmp = &pTmp[USBFS_interfaceSetting[interfaceN]];
 281              		.loc 1 396 0
 282 0020 144A     		ldr	r2, .L19+16
 283              	.LVL31:
 284 0022 1278     		ldrb	r2, [r2]	@ zero_extendqisi2
 285 0024 D1B2     		uxtb	r1, r2
 397:Generated_Source\PSoC5/USBFS_hid.c ****         /* USB_DEVICEx_CONFIGURATIONy_INTERFACEz_ALTERNATEi_HID_TABLE */
 398:Generated_Source\PSoC5/USBFS_hid.c ****         pTmp = (const T_USBFS_LUT CYCODE *) pTmp->p_list;
 399:Generated_Source\PSoC5/USBFS_hid.c ****         /* Validate reportType to comply with "7.2.1 Get_Report Request" */
 400:Generated_Source\PSoC5/USBFS_hid.c ****         if((reportType >= USBFS_HID_GET_REPORT_INPUT) &&
 286              		.loc 1 400 0
 287 0026 5A1E     		subs	r2, r3, #1
 288 0028 022A     		cmp	r2, #2
 289 002a 19D8     		bhi	.L17
 392:Generated_Source\PSoC5/USBFS_hid.c ****     if(interfaceN < USBFS_MAX_INTERFACES_NUMBER)
 290              		.loc 1 392 0
 291 002c 4269     		ldr	r2, [r0, #20]
 401:Generated_Source\PSoC5/USBFS_hid.c ****            (reportType <= USBFS_HID_GET_REPORT_FEATURE))
 402:Generated_Source\PSoC5/USBFS_hid.c ****         {
 403:Generated_Source\PSoC5/USBFS_hid.c ****             /* Get the entry proper TD (IN, OUT or Feature Report Table)*/
 404:Generated_Source\PSoC5/USBFS_hid.c ****             pTmp = &pTmp[reportType - 1u];
 292              		.loc 1 404 0
 293 002e 03F10053 		add	r3, r3, #536870912
 294              	.LVL32:
 396:Generated_Source\PSoC5/USBFS_hid.c ****         /* USB_DEVICEx_CONFIGURATIONy_INTERFACEz_ALTERNATEi_HID_TABLE */
 295              		.loc 1 396 0
 296 0032 02EBC102 		add	r2, r2, r1, lsl #3
 398:Generated_Source\PSoC5/USBFS_hid.c ****         /* Validate reportType to comply with "7.2.1 Get_Report Request" */
 297              		.loc 1 398 0
 298 0036 5168     		ldr	r1, [r2, #4]
 405:Generated_Source\PSoC5/USBFS_hid.c ****             reportType = CY_GET_REG8(USBFS_wValueLo);    /* Get reportID */
 299              		.loc 1 405 0
 300 0038 0F4A     		ldr	r2, .L19+20
 404:Generated_Source\PSoC5/USBFS_hid.c ****             reportType = CY_GET_REG8(USBFS_wValueLo);    /* Get reportID */
 301              		.loc 1 404 0
 302 003a 013B     		subs	r3, r3, #1
 303              	.LVL33:
 304              		.loc 1 405 0
 305 003c 1278     		ldrb	r2, [r2]	@ zero_extendqisi2
 404:Generated_Source\PSoC5/USBFS_hid.c ****             reportType = CY_GET_REG8(USBFS_wValueLo);    /* Get reportID */
 306              		.loc 1 404 0
 307 003e 01EBC300 		add	r0, r1, r3, lsl #3
 308              	.LVL34:
 406:Generated_Source\PSoC5/USBFS_hid.c ****             /* Validate table support by the HID descriptor, compare table count with reportID */
 407:Generated_Source\PSoC5/USBFS_hid.c ****             if(pTmp->c >= reportType)
 309              		.loc 1 407 0
 310 0042 11F83330 		ldrb	r3, [r1, r3, lsl #3]	@ zero_extendqisi2
 311              	.LVL35:
 405:Generated_Source\PSoC5/USBFS_hid.c ****             /* Validate table support by the HID descriptor, compare table count with reportID */
 312              		.loc 1 405 0
 313 0046 D2B2     		uxtb	r2, r2
 314              	.LVL36:
 315              		.loc 1 407 0
 316 0048 9342     		cmp	r3, r2
 317 004a 09D3     		bcc	.L17
 408:Generated_Source\PSoC5/USBFS_hid.c ****             {
ARM GAS  C:\Users\RABBIT~1\AppData\Local\Temp\ccl4TAxK.s 			page 14


 409:Generated_Source\PSoC5/USBFS_hid.c ****                 pTD = (T_USBFS_TD *) pTmp->p_list;
 410:Generated_Source\PSoC5/USBFS_hid.c ****                 pTD = &pTD[reportType];                          /* select entry depend on report I
 318              		.loc 1 410 0
 319 004c 0C23     		movs	r3, #12
 320 004e 5343     		muls	r3, r2, r3
 409:Generated_Source\PSoC5/USBFS_hid.c ****                 pTD = &pTD[reportType];                          /* select entry depend on report I
 321              		.loc 1 409 0
 322 0050 4168     		ldr	r1, [r0, #4]
 323              	.LVL37:
 324              		.loc 1 410 0
 325 0052 CA18     		adds	r2, r1, r3
 326              	.LVL38:
 411:Generated_Source\PSoC5/USBFS_hid.c ****                 USBFS_currentTD.pData = pTD->pData;   /* Buffer pointer */
 327              		.loc 1 411 0
 328 0054 5068     		ldr	r0, [r2, #4]
 329              	.LVL39:
 412:Generated_Source\PSoC5/USBFS_hid.c ****                 USBFS_currentTD.count = pTD->count;   /* Buffer Size */
 330              		.loc 1 412 0
 331 0056 CB5A     		ldrh	r3, [r1, r3]
 411:Generated_Source\PSoC5/USBFS_hid.c ****                 USBFS_currentTD.pData = pTD->pData;   /* Buffer pointer */
 332              		.loc 1 411 0
 333 0058 6060     		str	r0, [r4, #4]
 334              		.loc 1 412 0
 335 005a 2380     		strh	r3, [r4]	@ movhi
 413:Generated_Source\PSoC5/USBFS_hid.c ****                 USBFS_currentTD.pStatusBlock = pTD->pStatusBlock;
 336              		.loc 1 413 0
 337 005c 9368     		ldr	r3, [r2, #8]
 338 005e A360     		str	r3, [r4, #8]
 339              	.LVL40:
 340              	.L17:
 341 0060 10BD     		pop	{r4, pc}
 342              	.L20:
 343 0062 00BF     		.align	2
 344              	.L19:
 345 0064 00000000 		.word	USBFS_currentTD
 346 0068 00000000 		.word	USBFS_configuration
 347 006c 03600040 		.word	1073766403
 348 0070 04600040 		.word	1073766404
 349 0074 00000000 		.word	USBFS_interfaceSetting
 350 0078 02600040 		.word	1073766402
 351              		.cfi_endproc
 352              	.LFE5:
 353              		.size	USBFS_FindReport, .-USBFS_FindReport
 354              		.section	.text.USBFS_DispatchHIDClassRqst,"ax",%progbits
 355              		.align	1
 356              		.global	USBFS_DispatchHIDClassRqst
 357              		.thumb
 358              		.thumb_func
 359              		.type	USBFS_DispatchHIDClassRqst, %function
 360              	USBFS_DispatchHIDClassRqst:
 361              	.LFB2:
 124:Generated_Source\PSoC5/USBFS_hid.c ****     uint8 requestHandled = USBFS_FALSE;
 362              		.loc 1 124 0
 363              		.cfi_startproc
 364              		@ args = 0, pretend = 0, frame = 0
 365              		@ frame_needed = 0, uses_anonymous_args = 0
 366              	.LVL41:
ARM GAS  C:\Users\RABBIT~1\AppData\Local\Temp\ccl4TAxK.s 			page 15


 367 0000 10B5     		push	{r4, lr}
 368              		.cfi_def_cfa_offset 8
 369              		.cfi_offset 4, -8
 370              		.cfi_offset 14, -4
 128:Generated_Source\PSoC5/USBFS_hid.c ****     if ((CY_GET_REG8(USBFS_bmRequestType) & USBFS_RQST_DIR_MASK) == USBFS_RQST_DIR_D2H)
 371              		.loc 1 128 0
 372 0002 3D4B     		ldr	r3, .L56
 129:Generated_Source\PSoC5/USBFS_hid.c ****     {   /* Control Read */
 373              		.loc 1 129 0
 374 0004 3D4A     		ldr	r2, .L56+4
 128:Generated_Source\PSoC5/USBFS_hid.c ****     if ((CY_GET_REG8(USBFS_bmRequestType) & USBFS_RQST_DIR_MASK) == USBFS_RQST_DIR_D2H)
 375              		.loc 1 128 0
 376 0006 1B78     		ldrb	r3, [r3]	@ zero_extendqisi2
 129:Generated_Source\PSoC5/USBFS_hid.c ****     {   /* Control Read */
 377              		.loc 1 129 0
 378 0008 1178     		ldrb	r1, [r2]	@ zero_extendqisi2
 128:Generated_Source\PSoC5/USBFS_hid.c ****     if ((CY_GET_REG8(USBFS_bmRequestType) & USBFS_RQST_DIR_MASK) == USBFS_RQST_DIR_D2H)
 379              		.loc 1 128 0
 380 000a DBB2     		uxtb	r3, r3
 381              	.LVL42:
 129:Generated_Source\PSoC5/USBFS_hid.c ****     {   /* Control Read */
 382              		.loc 1 129 0
 383 000c 0906     		lsls	r1, r1, #24
 384 000e 34D5     		bpl	.L22
 131:Generated_Source\PSoC5/USBFS_hid.c ****         {
 385              		.loc 1 131 0
 386 0010 0132     		adds	r2, r2, #1
 387 0012 1278     		ldrb	r2, [r2]	@ zero_extendqisi2
 388 0014 013A     		subs	r2, r2, #1
 389 0016 052A     		cmp	r2, #5
 390 0018 6BD8     		bhi	.L23
 391 001a DFE802F0 		tbb	[pc, r2]
 392              	.L25:
 393 001e 10       		.byte	(.L24-.L25)/2
 394 001f 18       		.byte	(.L26-.L25)/2
 395 0020 27       		.byte	(.L27-.L25)/2
 396 0021 6A       		.byte	(.L23-.L25)/2
 397 0022 6A       		.byte	(.L23-.L25)/2
 398 0023 03       		.byte	(.L28-.L25)/2
 399              		.p2align 1
 400              	.L28:
 134:Generated_Source\PSoC5/USBFS_hid.c ****                 {
 401              		.loc 1 134 0
 402 0024 364B     		ldr	r3, .L56+8
 403              	.LVL43:
 404 0026 1A78     		ldrb	r2, [r3]	@ zero_extendqisi2
 405 0028 212A     		cmp	r2, #33
 406 002a 02D1     		bne	.L29
 136:Generated_Source\PSoC5/USBFS_hid.c ****                     if (USBFS_currentTD.count != 0u)
 407              		.loc 1 136 0
 408 002c FFF7FEFF 		bl	USBFS_FindHidClassDecriptor
 409              	.LVL44:
 410 0030 07E0     		b	.L54
 411              	.L29:
 142:Generated_Source\PSoC5/USBFS_hid.c ****                 {
 412              		.loc 1 142 0
 413 0032 1B78     		ldrb	r3, [r3]	@ zero_extendqisi2
ARM GAS  C:\Users\RABBIT~1\AppData\Local\Temp\ccl4TAxK.s 			page 16


 414 0034 222B     		cmp	r3, #34
 415 0036 5CD1     		bne	.L23
 144:Generated_Source\PSoC5/USBFS_hid.c ****                     if (USBFS_currentTD.count != 0u)
 416              		.loc 1 144 0
 417 0038 FFF7FEFF 		bl	USBFS_FindReportDescriptor
 418              	.LVL45:
 419 003c 01E0     		b	.L54
 420              	.LVL46:
 421              	.L24:
 155:Generated_Source\PSoC5/USBFS_hid.c ****                 if (USBFS_currentTD.count != 0u)
 422              		.loc 1 155 0
 423 003e FFF7FEFF 		bl	USBFS_FindReport
 424              	.LVL47:
 425              	.L54:
 156:Generated_Source\PSoC5/USBFS_hid.c ****                 {
 426              		.loc 1 156 0
 427 0042 304B     		ldr	r3, .L56+12
 428 0044 1B88     		ldrh	r3, [r3]
 429 0046 9BB2     		uxth	r3, r3
 430 0048 002B     		cmp	r3, #0
 431 004a 52D0     		beq	.L23
 432 004c 0AE0     		b	.L51
 433              	.LVL48:
 434              	.L26:
 165:Generated_Source\PSoC5/USBFS_hid.c ****                     (CY_GET_REG8(USBFS_wValueLo) == 0u ) ) /* Do not support Idle per Report ID */
 435              		.loc 1 165 0
 436 004e 002B     		cmp	r3, #0
 437 0050 4FD1     		bne	.L23
 166:Generated_Source\PSoC5/USBFS_hid.c ****                 {
 438              		.loc 1 166 0 discriminator 1
 439 0052 2D4B     		ldr	r3, .L56+16
 440              	.LVL49:
 441 0054 1B78     		ldrb	r3, [r3]	@ zero_extendqisi2
 165:Generated_Source\PSoC5/USBFS_hid.c ****                     (CY_GET_REG8(USBFS_wValueLo) == 0u ) ) /* Do not support Idle per Report ID */
 442              		.loc 1 165 0 discriminator 1
 443 0056 002B     		cmp	r3, #0
 444 0058 4BD1     		bne	.L23
 168:Generated_Source\PSoC5/USBFS_hid.c ****                     USBFS_currentTD.pData = &USBFS_hidIdleRate[interfaceNumber];
 445              		.loc 1 168 0
 446 005a 2A4B     		ldr	r3, .L56+12
 447 005c 0122     		movs	r2, #1
 448 005e 1A80     		strh	r2, [r3]	@ movhi
 169:Generated_Source\PSoC5/USBFS_hid.c ****                     requestHandled  = USBFS_InitControlRead();
 449              		.loc 1 169 0
 450 0060 2A4A     		ldr	r2, .L56+20
 451              	.L52:
 452 0062 5A60     		str	r2, [r3, #4]
 453              	.L51:
 254:Generated_Source\PSoC5/USBFS_hid.c **** 
 454              		.loc 1 254 0
 455 0064 BDE81040 		pop	{r4, lr}
 456              		.cfi_remember_state
 457              		.cfi_restore 14
 458              		.cfi_restore 4
 459              		.cfi_def_cfa_offset 0
 170:Generated_Source\PSoC5/USBFS_hid.c ****                 }
 460              		.loc 1 170 0
ARM GAS  C:\Users\RABBIT~1\AppData\Local\Temp\ccl4TAxK.s 			page 17


 461 0068 FFF7FEBF 		b	USBFS_InitControlRead
 462              	.LVL50:
 463              	.L27:
 464              		.cfi_restore_state
 175:Generated_Source\PSoC5/USBFS_hid.c ****                 {
 465              		.loc 1 175 0
 466 006c 002B     		cmp	r3, #0
 467 006e 40D1     		bne	.L23
 177:Generated_Source\PSoC5/USBFS_hid.c ****                     USBFS_currentTD.pData = &USBFS_hidProtocol[interfaceNumber];
 468              		.loc 1 177 0
 469 0070 244B     		ldr	r3, .L56+12
 470              	.LVL51:
 471 0072 0122     		movs	r2, #1
 472 0074 1A80     		strh	r2, [r3]	@ movhi
 178:Generated_Source\PSoC5/USBFS_hid.c ****                     requestHandled  = USBFS_InitControlRead();
 473              		.loc 1 178 0
 474 0076 264A     		ldr	r2, .L56+24
 475 0078 F3E7     		b	.L52
 476              	.LVL52:
 477              	.L22:
 186:Generated_Source\PSoC5/USBFS_hid.c ****                                                                             USBFS_RQST_DIR_H2D)
 478              		.loc 1 186 0
 479 007a 1278     		ldrb	r2, [r2]	@ zero_extendqisi2
 480 007c 1206     		lsls	r2, r2, #24
 481 007e 38D4     		bmi	.L23
 189:Generated_Source\PSoC5/USBFS_hid.c ****         {
 482              		.loc 1 189 0
 483 0080 244A     		ldr	r2, .L56+28
 484 0082 1278     		ldrb	r2, [r2]	@ zero_extendqisi2
 485 0084 D2B2     		uxtb	r2, r2
 486 0086 0A2A     		cmp	r2, #10
 487 0088 0DD0     		beq	.L32
 488 008a 0B2A     		cmp	r2, #11
 489 008c 24D0     		beq	.L33
 490 008e 092A     		cmp	r2, #9
 491 0090 2FD1     		bne	.L23
 192:Generated_Source\PSoC5/USBFS_hid.c ****                 if (USBFS_currentTD.count != 0u)
 492              		.loc 1 192 0
 493 0092 FFF7FEFF 		bl	USBFS_FindReport
 494              	.LVL53:
 193:Generated_Source\PSoC5/USBFS_hid.c ****                 {
 495              		.loc 1 193 0
 496 0096 1B4B     		ldr	r3, .L56+12
 497 0098 1B88     		ldrh	r3, [r3]
 498 009a 9BB2     		uxth	r3, r3
 499 009c 4BB3     		cbz	r3, .L23
 254:Generated_Source\PSoC5/USBFS_hid.c **** 
 500              		.loc 1 254 0
 501 009e BDE81040 		pop	{r4, lr}
 502              		.cfi_remember_state
 503              		.cfi_restore 14
 504              		.cfi_restore 4
 505              		.cfi_def_cfa_offset 0
 195:Generated_Source\PSoC5/USBFS_hid.c ****                 }
 506              		.loc 1 195 0
 507 00a2 FFF7FEBF 		b	USBFS_InitControlWrite
 508              	.LVL54:
ARM GAS  C:\Users\RABBIT~1\AppData\Local\Temp\ccl4TAxK.s 			page 18


 509              	.L32:
 510              		.cfi_restore_state
 201:Generated_Source\PSoC5/USBFS_hid.c ****                     (CY_GET_REG8(USBFS_wValueLo) == 0u ) ) /* Do not support Idle per Report ID */
 511              		.loc 1 201 0
 512 00a6 23BB     		cbnz	r3, .L23
 202:Generated_Source\PSoC5/USBFS_hid.c ****                 {
 513              		.loc 1 202 0 discriminator 1
 514 00a8 174B     		ldr	r3, .L56+16
 515              	.LVL55:
 516 00aa 1B78     		ldrb	r3, [r3]	@ zero_extendqisi2
 201:Generated_Source\PSoC5/USBFS_hid.c ****                     (CY_GET_REG8(USBFS_wValueLo) == 0u ) ) /* Do not support Idle per Report ID */
 517              		.loc 1 201 0 discriminator 1
 518 00ac 03F0FF01 		and	r1, r3, #255
 519 00b0 FBB9     		cbnz	r3, .L23
 204:Generated_Source\PSoC5/USBFS_hid.c ****                     /* With regards to HID spec: "7.2.4 Set_Idle Request"
 520              		.loc 1 204 0
 521 00b2 134B     		ldr	r3, .L56+8
 522 00b4 154A     		ldr	r2, .L56+20
 523 00b6 1B78     		ldrb	r3, [r3]	@ zero_extendqisi2
 524 00b8 DBB2     		uxtb	r3, r3
 525 00ba 1370     		strb	r3, [r2]
 211:Generated_Source\PSoC5/USBFS_hid.c ****                     {
 526              		.loc 1 211 0
 527 00bc 164B     		ldr	r3, .L56+32
 210:Generated_Source\PSoC5/USBFS_hid.c ****                        USBFS_hidIdleTimer[interfaceNumber])
 528              		.loc 1 210 0
 529 00be 1478     		ldrb	r4, [r2]	@ zero_extendqisi2
 211:Generated_Source\PSoC5/USBFS_hid.c ****                     {
 530              		.loc 1 211 0
 531 00c0 1878     		ldrb	r0, [r3]	@ zero_extendqisi2
 210:Generated_Source\PSoC5/USBFS_hid.c ****                        USBFS_hidIdleTimer[interfaceNumber])
 532              		.loc 1 210 0
 533 00c2 8442     		cmp	r4, r0
 534 00c4 01D2     		bcs	.L35
 214:Generated_Source\PSoC5/USBFS_hid.c ****                     }
 535              		.loc 1 214 0
 536 00c6 1970     		strb	r1, [r3]
 537 00c8 0FE0     		b	.L50
 538              	.L35:
 220:Generated_Source\PSoC5/USBFS_hid.c ****                     {
 539              		.loc 1 220 0
 540 00ca 1978     		ldrb	r1, [r3]	@ zero_extendqisi2
 541 00cc 0129     		cmp	r1, #1
 542 00ce 0CD9     		bls	.L50
 230:Generated_Source\PSoC5/USBFS_hid.c ****                     }
 543              		.loc 1 230 0
 544 00d0 1278     		ldrb	r2, [r2]	@ zero_extendqisi2
 545 00d2 D2B2     		uxtb	r2, r2
 229:Generated_Source\PSoC5/USBFS_hid.c ****                         USBFS_hidIdleRate[interfaceNumber];
 546              		.loc 1 229 0
 547 00d4 1A70     		strb	r2, [r3]
 548 00d6 08E0     		b	.L50
 549              	.LVL56:
 550              	.L33:
 238:Generated_Source\PSoC5/USBFS_hid.c ****                     (CY_GET_REG8(USBFS_wValueLo) <= 1u) )
 551              		.loc 1 238 0
 552 00d8 5BB9     		cbnz	r3, .L23
ARM GAS  C:\Users\RABBIT~1\AppData\Local\Temp\ccl4TAxK.s 			page 19


 239:Generated_Source\PSoC5/USBFS_hid.c ****                 {
 553              		.loc 1 239 0 discriminator 1
 554 00da 0B4B     		ldr	r3, .L56+16
 555              	.LVL57:
 556 00dc 1A78     		ldrb	r2, [r3]	@ zero_extendqisi2
 238:Generated_Source\PSoC5/USBFS_hid.c ****                     (CY_GET_REG8(USBFS_wValueLo) <= 1u) )
 557              		.loc 1 238 0 discriminator 1
 558 00de 012A     		cmp	r2, #1
 559 00e0 07D8     		bhi	.L23
 241:Generated_Source\PSoC5/USBFS_hid.c ****                     requestHandled = USBFS_InitNoDataControlTransfer();
 560              		.loc 1 241 0
 561 00e2 1B78     		ldrb	r3, [r3]	@ zero_extendqisi2
 562 00e4 0A4A     		ldr	r2, .L56+24
 563 00e6 DBB2     		uxtb	r3, r3
 564 00e8 1370     		strb	r3, [r2]
 565              	.L50:
 254:Generated_Source\PSoC5/USBFS_hid.c **** 
 566              		.loc 1 254 0
 567 00ea BDE81040 		pop	{r4, lr}
 568              		.cfi_remember_state
 569              		.cfi_restore 14
 570              		.cfi_restore 4
 571              		.cfi_def_cfa_offset 0
 242:Generated_Source\PSoC5/USBFS_hid.c ****                 }
 572              		.loc 1 242 0
 573 00ee FFF7FEBF 		b	USBFS_InitNoDataControlTransfer
 574              	.LVL58:
 575              	.L23:
 576              		.cfi_restore_state
 254:Generated_Source\PSoC5/USBFS_hid.c **** 
 577              		.loc 1 254 0
 578 00f2 0020     		movs	r0, #0
 579 00f4 10BD     		pop	{r4, pc}
 580              	.L57:
 581 00f6 00BF     		.align	2
 582              	.L56:
 583 00f8 04600040 		.word	1073766404
 584 00fc 00600040 		.word	1073766400
 585 0100 03600040 		.word	1073766403
 586 0104 00000000 		.word	USBFS_currentTD
 587 0108 02600040 		.word	1073766402
 588 010c 00000000 		.word	USBFS_hidIdleRate
 589 0110 00000000 		.word	USBFS_hidProtocol
 590 0114 01600040 		.word	1073766401
 591 0118 00000000 		.word	USBFS_hidIdleTimer
 592              		.cfi_endproc
 593              	.LFE2:
 594              		.size	USBFS_DispatchHIDClassRqst, .-USBFS_DispatchHIDClassRqst
 595              		.comm	USBFS_hidIdleTimer,1,1
 596              		.comm	USBFS_hidIdleRate,1,1
 597              		.comm	USBFS_hidProtocol,1,1
 598              		.text
 599              	.Letext0:
 600              		.file 2 "Generated_Source\\PSoC5\\cytypes.h"
 601              		.file 3 "Generated_Source\\PSoC5\\USBFS.h"
 602              		.file 4 "Generated_Source\\PSoC5\\USBFS_pvt.h"