ARM GAS  C:\Users\RABBIT~1\AppData\Local\Temp\cchGCaR1.s 			page 1


   1              		.syntax unified
   2              		.cpu cortex-m3
   3              		.fpu softvfp
   4              		.eabi_attribute 20, 1
   5              		.eabi_attribute 21, 1
   6              		.eabi_attribute 23, 3
   7              		.eabi_attribute 24, 1
   8              		.eabi_attribute 25, 1
   9              		.eabi_attribute 26, 1
  10              		.eabi_attribute 30, 4
  11              		.eabi_attribute 34, 1
  12              		.eabi_attribute 18, 4
  13              		.thumb
  14              		.syntax unified
  15              		.file	"USBFS_Dp.c"
  16              		.text
  17              	.Ltext0:
  18              		.cfi_sections	.debug_frame
  19              		.section	.text.USBFS_Dp_Write,"ax",%progbits
  20              		.align	1
  21              		.global	USBFS_Dp_Write
  22              		.thumb
  23              		.thumb_func
  24              		.type	USBFS_Dp_Write, %function
  25              	USBFS_Dp_Write:
  26              	.LFB0:
  27              		.file 1 "Generated_Source\\PSoC5\\USBFS_Dp.c"
   1:Generated_Source\PSoC5/USBFS_Dp.c **** /*******************************************************************************
   2:Generated_Source\PSoC5/USBFS_Dp.c **** * File Name: USBFS_Dp.c  
   3:Generated_Source\PSoC5/USBFS_Dp.c **** * Version 2.10
   4:Generated_Source\PSoC5/USBFS_Dp.c **** *
   5:Generated_Source\PSoC5/USBFS_Dp.c **** * Description:
   6:Generated_Source\PSoC5/USBFS_Dp.c **** *  This file contains API to enable firmware control of a Pins component.
   7:Generated_Source\PSoC5/USBFS_Dp.c **** *
   8:Generated_Source\PSoC5/USBFS_Dp.c **** * Note:
   9:Generated_Source\PSoC5/USBFS_Dp.c **** *
  10:Generated_Source\PSoC5/USBFS_Dp.c **** ********************************************************************************
  11:Generated_Source\PSoC5/USBFS_Dp.c **** * Copyright 2008-2014, Cypress Semiconductor Corporation.  All rights reserved.
  12:Generated_Source\PSoC5/USBFS_Dp.c **** * You may use this file only in accordance with the license, terms, conditions, 
  13:Generated_Source\PSoC5/USBFS_Dp.c **** * disclaimers, and limitations in the end user license agreement accompanying 
  14:Generated_Source\PSoC5/USBFS_Dp.c **** * the software package with which this file was provided.
  15:Generated_Source\PSoC5/USBFS_Dp.c **** *******************************************************************************/
  16:Generated_Source\PSoC5/USBFS_Dp.c **** 
  17:Generated_Source\PSoC5/USBFS_Dp.c **** #include "cytypes.h"
  18:Generated_Source\PSoC5/USBFS_Dp.c **** #include "USBFS_Dp.h"
  19:Generated_Source\PSoC5/USBFS_Dp.c **** 
  20:Generated_Source\PSoC5/USBFS_Dp.c **** /* APIs are not generated for P15[7:6] on PSoC 5 */
  21:Generated_Source\PSoC5/USBFS_Dp.c **** #if !(CY_PSOC5A &&\
  22:Generated_Source\PSoC5/USBFS_Dp.c **** 	 USBFS_Dp__PORT == 15 && ((USBFS_Dp__MASK & 0xC0) != 0))
  23:Generated_Source\PSoC5/USBFS_Dp.c **** 
  24:Generated_Source\PSoC5/USBFS_Dp.c **** 
  25:Generated_Source\PSoC5/USBFS_Dp.c **** /*******************************************************************************
  26:Generated_Source\PSoC5/USBFS_Dp.c **** * Function Name: USBFS_Dp_Write
  27:Generated_Source\PSoC5/USBFS_Dp.c **** ********************************************************************************
  28:Generated_Source\PSoC5/USBFS_Dp.c **** *
  29:Generated_Source\PSoC5/USBFS_Dp.c **** * Summary:
  30:Generated_Source\PSoC5/USBFS_Dp.c **** *  Assign a new value to the digital port's data output register.  
ARM GAS  C:\Users\RABBIT~1\AppData\Local\Temp\cchGCaR1.s 			page 2


  31:Generated_Source\PSoC5/USBFS_Dp.c **** *
  32:Generated_Source\PSoC5/USBFS_Dp.c **** * Parameters:  
  33:Generated_Source\PSoC5/USBFS_Dp.c **** *  prtValue:  The value to be assigned to the Digital Port. 
  34:Generated_Source\PSoC5/USBFS_Dp.c **** *
  35:Generated_Source\PSoC5/USBFS_Dp.c **** * Return: 
  36:Generated_Source\PSoC5/USBFS_Dp.c **** *  None
  37:Generated_Source\PSoC5/USBFS_Dp.c **** *  
  38:Generated_Source\PSoC5/USBFS_Dp.c **** *******************************************************************************/
  39:Generated_Source\PSoC5/USBFS_Dp.c **** void USBFS_Dp_Write(uint8 value) 
  40:Generated_Source\PSoC5/USBFS_Dp.c **** {
  28              		.loc 1 40 0
  29              		.cfi_startproc
  30              		@ args = 0, pretend = 0, frame = 0
  31              		@ frame_needed = 0, uses_anonymous_args = 0
  32              		@ link register save eliminated.
  33              	.LVL0:
  41:Generated_Source\PSoC5/USBFS_Dp.c ****     uint8 staticBits = (USBFS_Dp_DR & (uint8)(~USBFS_Dp_MASK));
  34              		.loc 1 41 0
  35 0000 044A     		ldr	r2, .L2
  42:Generated_Source\PSoC5/USBFS_Dp.c ****     USBFS_Dp_DR = staticBits | ((uint8)(value << USBFS_Dp_SHIFT) & USBFS_Dp_MASK);
  36              		.loc 1 42 0
  37 0002 8001     		lsls	r0, r0, #6
  38              	.LVL1:
  41:Generated_Source\PSoC5/USBFS_Dp.c ****     uint8 staticBits = (USBFS_Dp_DR & (uint8)(~USBFS_Dp_MASK));
  39              		.loc 1 41 0
  40 0004 1378     		ldrb	r3, [r2]	@ zero_extendqisi2
  41              	.LVL2:
  42              		.loc 1 42 0
  43 0006 00F04000 		and	r0, r0, #64
  44 000a 03F0BF03 		and	r3, r3, #191
  45              	.LVL3:
  46 000e 0343     		orrs	r3, r3, r0
  47 0010 1370     		strb	r3, [r2]
  48 0012 7047     		bx	lr
  49              	.L3:
  50              		.align	2
  51              	.L2:
  52 0014 F0510040 		.word	1073762800
  53              		.cfi_endproc
  54              	.LFE0:
  55              		.size	USBFS_Dp_Write, .-USBFS_Dp_Write
  56              		.section	.text.USBFS_Dp_SetDriveMode,"ax",%progbits
  57              		.align	1
  58              		.global	USBFS_Dp_SetDriveMode
  59              		.thumb
  60              		.thumb_func
  61              		.type	USBFS_Dp_SetDriveMode, %function
  62              	USBFS_Dp_SetDriveMode:
  63              	.LFB1:
  43:Generated_Source\PSoC5/USBFS_Dp.c **** }
  44:Generated_Source\PSoC5/USBFS_Dp.c **** 
  45:Generated_Source\PSoC5/USBFS_Dp.c **** 
  46:Generated_Source\PSoC5/USBFS_Dp.c **** /*******************************************************************************
  47:Generated_Source\PSoC5/USBFS_Dp.c **** * Function Name: USBFS_Dp_SetDriveMode
  48:Generated_Source\PSoC5/USBFS_Dp.c **** ********************************************************************************
  49:Generated_Source\PSoC5/USBFS_Dp.c **** *
  50:Generated_Source\PSoC5/USBFS_Dp.c **** * Summary:
ARM GAS  C:\Users\RABBIT~1\AppData\Local\Temp\cchGCaR1.s 			page 3


  51:Generated_Source\PSoC5/USBFS_Dp.c **** *  Change the drive mode on the pins of the port.
  52:Generated_Source\PSoC5/USBFS_Dp.c **** * 
  53:Generated_Source\PSoC5/USBFS_Dp.c **** * Parameters:  
  54:Generated_Source\PSoC5/USBFS_Dp.c **** *  mode:  Change the pins to one of the following drive modes.
  55:Generated_Source\PSoC5/USBFS_Dp.c **** *
  56:Generated_Source\PSoC5/USBFS_Dp.c **** *  USBFS_Dp_DM_STRONG     Strong Drive 
  57:Generated_Source\PSoC5/USBFS_Dp.c **** *  USBFS_Dp_DM_OD_HI      Open Drain, Drives High 
  58:Generated_Source\PSoC5/USBFS_Dp.c **** *  USBFS_Dp_DM_OD_LO      Open Drain, Drives Low 
  59:Generated_Source\PSoC5/USBFS_Dp.c **** *  USBFS_Dp_DM_RES_UP     Resistive Pull Up 
  60:Generated_Source\PSoC5/USBFS_Dp.c **** *  USBFS_Dp_DM_RES_DWN    Resistive Pull Down 
  61:Generated_Source\PSoC5/USBFS_Dp.c **** *  USBFS_Dp_DM_RES_UPDWN  Resistive Pull Up/Down 
  62:Generated_Source\PSoC5/USBFS_Dp.c **** *  USBFS_Dp_DM_DIG_HIZ    High Impedance Digital 
  63:Generated_Source\PSoC5/USBFS_Dp.c **** *  USBFS_Dp_DM_ALG_HIZ    High Impedance Analog 
  64:Generated_Source\PSoC5/USBFS_Dp.c **** *
  65:Generated_Source\PSoC5/USBFS_Dp.c **** * Return: 
  66:Generated_Source\PSoC5/USBFS_Dp.c **** *  None
  67:Generated_Source\PSoC5/USBFS_Dp.c **** *
  68:Generated_Source\PSoC5/USBFS_Dp.c **** *******************************************************************************/
  69:Generated_Source\PSoC5/USBFS_Dp.c **** void USBFS_Dp_SetDriveMode(uint8 mode) 
  70:Generated_Source\PSoC5/USBFS_Dp.c **** {
  64              		.loc 1 70 0
  65              		.cfi_startproc
  66              		@ args = 0, pretend = 0, frame = 0
  67              		@ frame_needed = 0, uses_anonymous_args = 0
  68              		@ link register save eliminated.
  69              	.LVL4:
  71:Generated_Source\PSoC5/USBFS_Dp.c **** 	CyPins_SetPinDriveMode(USBFS_Dp_0, mode);
  70              		.loc 1 71 0
  71 0000 044A     		ldr	r2, .L5
  72 0002 00F00E00 		and	r0, r0, #14
  73              	.LVL5:
  74 0006 1378     		ldrb	r3, [r2]	@ zero_extendqisi2
  75 0008 03F0F103 		and	r3, r3, #241
  76 000c 1843     		orrs	r0, r0, r3
  77 000e 1070     		strb	r0, [r2]
  78 0010 7047     		bx	lr
  79              	.L6:
  80 0012 00BF     		.align	2
  81              	.L5:
  82 0014 7E500040 		.word	1073762430
  83              		.cfi_endproc
  84              	.LFE1:
  85              		.size	USBFS_Dp_SetDriveMode, .-USBFS_Dp_SetDriveMode
  86              		.section	.text.USBFS_Dp_Read,"ax",%progbits
  87              		.align	1
  88              		.global	USBFS_Dp_Read
  89              		.thumb
  90              		.thumb_func
  91              		.type	USBFS_Dp_Read, %function
  92              	USBFS_Dp_Read:
  93              	.LFB2:
  72:Generated_Source\PSoC5/USBFS_Dp.c **** }
  73:Generated_Source\PSoC5/USBFS_Dp.c **** 
  74:Generated_Source\PSoC5/USBFS_Dp.c **** 
  75:Generated_Source\PSoC5/USBFS_Dp.c **** /*******************************************************************************
  76:Generated_Source\PSoC5/USBFS_Dp.c **** * Function Name: USBFS_Dp_Read
  77:Generated_Source\PSoC5/USBFS_Dp.c **** ********************************************************************************
ARM GAS  C:\Users\RABBIT~1\AppData\Local\Temp\cchGCaR1.s 			page 4


  78:Generated_Source\PSoC5/USBFS_Dp.c **** *
  79:Generated_Source\PSoC5/USBFS_Dp.c **** * Summary:
  80:Generated_Source\PSoC5/USBFS_Dp.c **** *  Read the current value on the pins of the Digital Port in right justified 
  81:Generated_Source\PSoC5/USBFS_Dp.c **** *  form.
  82:Generated_Source\PSoC5/USBFS_Dp.c **** *
  83:Generated_Source\PSoC5/USBFS_Dp.c **** * Parameters:  
  84:Generated_Source\PSoC5/USBFS_Dp.c **** *  None
  85:Generated_Source\PSoC5/USBFS_Dp.c **** *
  86:Generated_Source\PSoC5/USBFS_Dp.c **** * Return: 
  87:Generated_Source\PSoC5/USBFS_Dp.c **** *  Returns the current value of the Digital Port as a right justified number
  88:Generated_Source\PSoC5/USBFS_Dp.c **** *  
  89:Generated_Source\PSoC5/USBFS_Dp.c **** * Note:
  90:Generated_Source\PSoC5/USBFS_Dp.c **** *  Macro USBFS_Dp_ReadPS calls this function. 
  91:Generated_Source\PSoC5/USBFS_Dp.c **** *  
  92:Generated_Source\PSoC5/USBFS_Dp.c **** *******************************************************************************/
  93:Generated_Source\PSoC5/USBFS_Dp.c **** uint8 USBFS_Dp_Read(void) 
  94:Generated_Source\PSoC5/USBFS_Dp.c **** {
  94              		.loc 1 94 0
  95              		.cfi_startproc
  96              		@ args = 0, pretend = 0, frame = 0
  97              		@ frame_needed = 0, uses_anonymous_args = 0
  98              		@ link register save eliminated.
  95:Generated_Source\PSoC5/USBFS_Dp.c ****     return (USBFS_Dp_PS & USBFS_Dp_MASK) >> USBFS_Dp_SHIFT;
  99              		.loc 1 95 0
 100 0000 024B     		ldr	r3, .L8
 101 0002 1878     		ldrb	r0, [r3]	@ zero_extendqisi2
  96:Generated_Source\PSoC5/USBFS_Dp.c **** }
 102              		.loc 1 96 0
 103 0004 C0F38010 		ubfx	r0, r0, #6, #1
 104 0008 7047     		bx	lr
 105              	.L9:
 106 000a 00BF     		.align	2
 107              	.L8:
 108 000c F1510040 		.word	1073762801
 109              		.cfi_endproc
 110              	.LFE2:
 111              		.size	USBFS_Dp_Read, .-USBFS_Dp_Read
 112              		.section	.text.USBFS_Dp_ReadDataReg,"ax",%progbits
 113              		.align	1
 114              		.global	USBFS_Dp_ReadDataReg
 115              		.thumb
 116              		.thumb_func
 117              		.type	USBFS_Dp_ReadDataReg, %function
 118              	USBFS_Dp_ReadDataReg:
 119              	.LFB3:
  97:Generated_Source\PSoC5/USBFS_Dp.c **** 
  98:Generated_Source\PSoC5/USBFS_Dp.c **** 
  99:Generated_Source\PSoC5/USBFS_Dp.c **** /*******************************************************************************
 100:Generated_Source\PSoC5/USBFS_Dp.c **** * Function Name: USBFS_Dp_ReadDataReg
 101:Generated_Source\PSoC5/USBFS_Dp.c **** ********************************************************************************
 102:Generated_Source\PSoC5/USBFS_Dp.c **** *
 103:Generated_Source\PSoC5/USBFS_Dp.c **** * Summary:
 104:Generated_Source\PSoC5/USBFS_Dp.c **** *  Read the current value assigned to a Digital Port's data output register
 105:Generated_Source\PSoC5/USBFS_Dp.c **** *
 106:Generated_Source\PSoC5/USBFS_Dp.c **** * Parameters:  
 107:Generated_Source\PSoC5/USBFS_Dp.c **** *  None 
 108:Generated_Source\PSoC5/USBFS_Dp.c **** *
ARM GAS  C:\Users\RABBIT~1\AppData\Local\Temp\cchGCaR1.s 			page 5


 109:Generated_Source\PSoC5/USBFS_Dp.c **** * Return: 
 110:Generated_Source\PSoC5/USBFS_Dp.c **** *  Returns the current value assigned to the Digital Port's data output register
 111:Generated_Source\PSoC5/USBFS_Dp.c **** *  
 112:Generated_Source\PSoC5/USBFS_Dp.c **** *******************************************************************************/
 113:Generated_Source\PSoC5/USBFS_Dp.c **** uint8 USBFS_Dp_ReadDataReg(void) 
 114:Generated_Source\PSoC5/USBFS_Dp.c **** {
 120              		.loc 1 114 0
 121              		.cfi_startproc
 122              		@ args = 0, pretend = 0, frame = 0
 123              		@ frame_needed = 0, uses_anonymous_args = 0
 124              		@ link register save eliminated.
 115:Generated_Source\PSoC5/USBFS_Dp.c ****     return (USBFS_Dp_DR & USBFS_Dp_MASK) >> USBFS_Dp_SHIFT;
 125              		.loc 1 115 0
 126 0000 024B     		ldr	r3, .L11
 127 0002 1878     		ldrb	r0, [r3]	@ zero_extendqisi2
 116:Generated_Source\PSoC5/USBFS_Dp.c **** }
 128              		.loc 1 116 0
 129 0004 C0F38010 		ubfx	r0, r0, #6, #1
 130 0008 7047     		bx	lr
 131              	.L12:
 132 000a 00BF     		.align	2
 133              	.L11:
 134 000c F0510040 		.word	1073762800
 135              		.cfi_endproc
 136              	.LFE3:
 137              		.size	USBFS_Dp_ReadDataReg, .-USBFS_Dp_ReadDataReg
 138              		.section	.text.USBFS_Dp_ClearInterrupt,"ax",%progbits
 139              		.align	1
 140              		.global	USBFS_Dp_ClearInterrupt
 141              		.thumb
 142              		.thumb_func
 143              		.type	USBFS_Dp_ClearInterrupt, %function
 144              	USBFS_Dp_ClearInterrupt:
 145              	.LFB4:
 117:Generated_Source\PSoC5/USBFS_Dp.c **** 
 118:Generated_Source\PSoC5/USBFS_Dp.c **** 
 119:Generated_Source\PSoC5/USBFS_Dp.c **** /* If Interrupts Are Enabled for this Pins component */ 
 120:Generated_Source\PSoC5/USBFS_Dp.c **** #if defined(USBFS_Dp_INTSTAT) 
 121:Generated_Source\PSoC5/USBFS_Dp.c **** 
 122:Generated_Source\PSoC5/USBFS_Dp.c ****     /*******************************************************************************
 123:Generated_Source\PSoC5/USBFS_Dp.c ****     * Function Name: USBFS_Dp_ClearInterrupt
 124:Generated_Source\PSoC5/USBFS_Dp.c ****     ********************************************************************************
 125:Generated_Source\PSoC5/USBFS_Dp.c ****     * Summary:
 126:Generated_Source\PSoC5/USBFS_Dp.c ****     *  Clears any active interrupts attached to port and returns the value of the 
 127:Generated_Source\PSoC5/USBFS_Dp.c ****     *  interrupt status register.
 128:Generated_Source\PSoC5/USBFS_Dp.c ****     *
 129:Generated_Source\PSoC5/USBFS_Dp.c ****     * Parameters:  
 130:Generated_Source\PSoC5/USBFS_Dp.c ****     *  None 
 131:Generated_Source\PSoC5/USBFS_Dp.c ****     *
 132:Generated_Source\PSoC5/USBFS_Dp.c ****     * Return: 
 133:Generated_Source\PSoC5/USBFS_Dp.c ****     *  Returns the value of the interrupt status register
 134:Generated_Source\PSoC5/USBFS_Dp.c ****     *  
 135:Generated_Source\PSoC5/USBFS_Dp.c ****     *******************************************************************************/
 136:Generated_Source\PSoC5/USBFS_Dp.c ****     uint8 USBFS_Dp_ClearInterrupt(void) 
 137:Generated_Source\PSoC5/USBFS_Dp.c ****     {
 146              		.loc 1 137 0
 147              		.cfi_startproc
ARM GAS  C:\Users\RABBIT~1\AppData\Local\Temp\cchGCaR1.s 			page 6


 148              		@ args = 0, pretend = 0, frame = 0
 149              		@ frame_needed = 0, uses_anonymous_args = 0
 150              		@ link register save eliminated.
 138:Generated_Source\PSoC5/USBFS_Dp.c ****         return (USBFS_Dp_INTSTAT & USBFS_Dp_MASK) >> USBFS_Dp_SHIFT;
 151              		.loc 1 138 0
 152 0000 024B     		ldr	r3, .L14
 153 0002 1878     		ldrb	r0, [r3]	@ zero_extendqisi2
 139:Generated_Source\PSoC5/USBFS_Dp.c ****     }
 154              		.loc 1 139 0
 155 0004 C0F38010 		ubfx	r0, r0, #6, #1
 156 0008 7047     		bx	lr
 157              	.L15:
 158 000a 00BF     		.align	2
 159              	.L14:
 160 000c 8F450040 		.word	1073759631
 161              		.cfi_endproc
 162              	.LFE4:
 163              		.size	USBFS_Dp_ClearInterrupt, .-USBFS_Dp_ClearInterrupt
 164              		.text
 165              	.Letext0:
 166              		.file 2 "Generated_Source\\PSoC5\\cytypes.h"