ARM GAS  C:\Users\RABBIT~1\AppData\Local\Temp\ccdsFghd.s 			page 1


   1              		.syntax unified
   2              		.cpu cortex-m3
   3              		.fpu softvfp
   4              		.eabi_attribute 20, 1
   5              		.eabi_attribute 21, 1
   6              		.eabi_attribute 23, 3
   7              		.eabi_attribute 24, 1
   8              		.eabi_attribute 25, 1
   9              		.eabi_attribute 26, 1
  10              		.eabi_attribute 30, 4
  11              		.eabi_attribute 34, 1
  12              		.eabi_attribute 18, 4
  13              		.thumb
  14              		.syntax unified
  15              		.file	"USBFS_pm.c"
  16              		.text
  17              	.Ltext0:
  18              		.cfi_sections	.debug_frame
  19              		.section	.text.USBFS_DP_ISR,"ax",%progbits
  20              		.align	1
  21              		.global	USBFS_DP_ISR
  22              		.thumb
  23              		.thumb_func
  24              		.type	USBFS_DP_ISR, %function
  25              	USBFS_DP_ISR:
  26              	.LFB56:
  27              		.file 1 "Generated_Source\\PSoC5\\USBFS_pm.c"
   1:Generated_Source\PSoC5/USBFS_pm.c **** /*******************************************************************************
   2:Generated_Source\PSoC5/USBFS_pm.c **** * File Name: USBFS_pm.c
   3:Generated_Source\PSoC5/USBFS_pm.c **** * Version 2.80
   4:Generated_Source\PSoC5/USBFS_pm.c **** *
   5:Generated_Source\PSoC5/USBFS_pm.c **** * Description:
   6:Generated_Source\PSoC5/USBFS_pm.c **** *  This file provides Suspend/Resume APIs functionality.
   7:Generated_Source\PSoC5/USBFS_pm.c **** *
   8:Generated_Source\PSoC5/USBFS_pm.c **** * Note:
   9:Generated_Source\PSoC5/USBFS_pm.c **** *
  10:Generated_Source\PSoC5/USBFS_pm.c **** ********************************************************************************
  11:Generated_Source\PSoC5/USBFS_pm.c **** * Copyright 2008-2014, Cypress Semiconductor Corporation.  All rights reserved.
  12:Generated_Source\PSoC5/USBFS_pm.c **** * You may use this file only in accordance with the license, terms, conditions,
  13:Generated_Source\PSoC5/USBFS_pm.c **** * disclaimers, and limitations in the end user license agreement accompanying
  14:Generated_Source\PSoC5/USBFS_pm.c **** * the software package with which this file was provided.
  15:Generated_Source\PSoC5/USBFS_pm.c **** *******************************************************************************/
  16:Generated_Source\PSoC5/USBFS_pm.c **** 
  17:Generated_Source\PSoC5/USBFS_pm.c **** #include "project.h"
  18:Generated_Source\PSoC5/USBFS_pm.c **** #include "USBFS.h"
  19:Generated_Source\PSoC5/USBFS_pm.c **** #include "USBFS_pvt.h"
  20:Generated_Source\PSoC5/USBFS_pm.c **** 
  21:Generated_Source\PSoC5/USBFS_pm.c **** 
  22:Generated_Source\PSoC5/USBFS_pm.c **** 
  23:Generated_Source\PSoC5/USBFS_pm.c **** /***************************************
  24:Generated_Source\PSoC5/USBFS_pm.c **** * Custom Declarations
  25:Generated_Source\PSoC5/USBFS_pm.c **** ***************************************/
  26:Generated_Source\PSoC5/USBFS_pm.c **** /* `#START PM_CUSTOM_DECLARATIONS` Place your declaration here */
  27:Generated_Source\PSoC5/USBFS_pm.c **** 
  28:Generated_Source\PSoC5/USBFS_pm.c **** /* `#END` */
  29:Generated_Source\PSoC5/USBFS_pm.c **** 
  30:Generated_Source\PSoC5/USBFS_pm.c **** 
ARM GAS  C:\Users\RABBIT~1\AppData\Local\Temp\ccdsFghd.s 			page 2


  31:Generated_Source\PSoC5/USBFS_pm.c **** /***************************************
  32:Generated_Source\PSoC5/USBFS_pm.c **** * Local data allocation
  33:Generated_Source\PSoC5/USBFS_pm.c **** ***************************************/
  34:Generated_Source\PSoC5/USBFS_pm.c **** 
  35:Generated_Source\PSoC5/USBFS_pm.c **** static USBFS_BACKUP_STRUCT  USBFS_backup;
  36:Generated_Source\PSoC5/USBFS_pm.c **** 
  37:Generated_Source\PSoC5/USBFS_pm.c **** 
  38:Generated_Source\PSoC5/USBFS_pm.c **** #if(USBFS_DP_ISR_REMOVE == 0u)
  39:Generated_Source\PSoC5/USBFS_pm.c **** 
  40:Generated_Source\PSoC5/USBFS_pm.c ****     /*******************************************************************************
  41:Generated_Source\PSoC5/USBFS_pm.c ****     * Function Name: USBFS_DP_Interrupt
  42:Generated_Source\PSoC5/USBFS_pm.c ****     ********************************************************************************
  43:Generated_Source\PSoC5/USBFS_pm.c ****     *
  44:Generated_Source\PSoC5/USBFS_pm.c ****     * Summary:
  45:Generated_Source\PSoC5/USBFS_pm.c ****     *  This Interrupt Service Routine handles DP pin changes for wake-up from
  46:Generated_Source\PSoC5/USBFS_pm.c ****     *  the sleep mode.
  47:Generated_Source\PSoC5/USBFS_pm.c ****     *
  48:Generated_Source\PSoC5/USBFS_pm.c ****     * Parameters:
  49:Generated_Source\PSoC5/USBFS_pm.c ****     *  None.
  50:Generated_Source\PSoC5/USBFS_pm.c ****     *
  51:Generated_Source\PSoC5/USBFS_pm.c ****     * Return:
  52:Generated_Source\PSoC5/USBFS_pm.c ****     *  None.
  53:Generated_Source\PSoC5/USBFS_pm.c ****     *
  54:Generated_Source\PSoC5/USBFS_pm.c ****     *******************************************************************************/
  55:Generated_Source\PSoC5/USBFS_pm.c ****     CY_ISR(USBFS_DP_ISR)
  56:Generated_Source\PSoC5/USBFS_pm.c ****     {
  28              		.loc 1 56 0
  29              		.cfi_startproc
  30              		@ args = 0, pretend = 0, frame = 0
  31              		@ frame_needed = 0, uses_anonymous_args = 0
  32              		@ link register save eliminated.
  57:Generated_Source\PSoC5/USBFS_pm.c ****         #ifdef USBFS_DP_ISR_ENTRY_CALLBACK
  58:Generated_Source\PSoC5/USBFS_pm.c ****             USBFS_DP_ISR_EntryCallback();
  59:Generated_Source\PSoC5/USBFS_pm.c ****         #endif /* USBFS_DP_ISR_ENTRY_CALLBACK */
  60:Generated_Source\PSoC5/USBFS_pm.c **** 
  61:Generated_Source\PSoC5/USBFS_pm.c ****         /* `#START DP_USER_CODE` Place your code here */
  62:Generated_Source\PSoC5/USBFS_pm.c **** 
  63:Generated_Source\PSoC5/USBFS_pm.c ****         /* `#END` */
  64:Generated_Source\PSoC5/USBFS_pm.c **** 
  65:Generated_Source\PSoC5/USBFS_pm.c ****         /* Clears active interrupt */
  66:Generated_Source\PSoC5/USBFS_pm.c ****         CY_GET_REG8(USBFS_DP_INTSTAT_PTR);
  33              		.loc 1 66 0
  34 0000 014B     		ldr	r3, .L2
  35 0002 1B78     		ldrb	r3, [r3]	@ zero_extendqisi2
  36 0004 7047     		bx	lr
  37              	.L3:
  38 0006 00BF     		.align	2
  39              	.L2:
  40 0008 8F450040 		.word	1073759631
  41              		.cfi_endproc
  42              	.LFE56:
  43              		.size	USBFS_DP_ISR, .-USBFS_DP_ISR
  44              		.section	.text.USBFS_SaveConfig,"ax",%progbits
  45              		.align	1
  46              		.global	USBFS_SaveConfig
  47              		.thumb
  48              		.thumb_func
ARM GAS  C:\Users\RABBIT~1\AppData\Local\Temp\ccdsFghd.s 			page 3


  49              		.type	USBFS_SaveConfig, %function
  50              	USBFS_SaveConfig:
  51              	.LFB57:
  67:Generated_Source\PSoC5/USBFS_pm.c **** 
  68:Generated_Source\PSoC5/USBFS_pm.c ****         #ifdef USBFS_DP_ISR_EXIT_CALLBACK
  69:Generated_Source\PSoC5/USBFS_pm.c ****             USBFS_DP_ISR_ExitCallback();
  70:Generated_Source\PSoC5/USBFS_pm.c ****         #endif /* USBFS_DP_ISR_EXIT_CALLBACK */
  71:Generated_Source\PSoC5/USBFS_pm.c ****     }
  72:Generated_Source\PSoC5/USBFS_pm.c **** 
  73:Generated_Source\PSoC5/USBFS_pm.c **** #endif /* (USBFS_DP_ISR_REMOVE == 0u) */
  74:Generated_Source\PSoC5/USBFS_pm.c **** 
  75:Generated_Source\PSoC5/USBFS_pm.c **** 
  76:Generated_Source\PSoC5/USBFS_pm.c **** /*******************************************************************************
  77:Generated_Source\PSoC5/USBFS_pm.c **** * Function Name: USBFS_SaveConfig
  78:Generated_Source\PSoC5/USBFS_pm.c **** ********************************************************************************
  79:Generated_Source\PSoC5/USBFS_pm.c **** *
  80:Generated_Source\PSoC5/USBFS_pm.c **** * Summary:
  81:Generated_Source\PSoC5/USBFS_pm.c **** *  Saves the current user configuration.
  82:Generated_Source\PSoC5/USBFS_pm.c **** *
  83:Generated_Source\PSoC5/USBFS_pm.c **** * Parameters:
  84:Generated_Source\PSoC5/USBFS_pm.c **** *  None.
  85:Generated_Source\PSoC5/USBFS_pm.c **** *
  86:Generated_Source\PSoC5/USBFS_pm.c **** * Return:
  87:Generated_Source\PSoC5/USBFS_pm.c **** *  None.
  88:Generated_Source\PSoC5/USBFS_pm.c **** *
  89:Generated_Source\PSoC5/USBFS_pm.c **** * Reentrant:
  90:Generated_Source\PSoC5/USBFS_pm.c **** *  No.
  91:Generated_Source\PSoC5/USBFS_pm.c **** *
  92:Generated_Source\PSoC5/USBFS_pm.c **** *******************************************************************************/
  93:Generated_Source\PSoC5/USBFS_pm.c **** void USBFS_SaveConfig(void) 
  94:Generated_Source\PSoC5/USBFS_pm.c **** {
  52              		.loc 1 94 0
  53              		.cfi_startproc
  54              		@ args = 0, pretend = 0, frame = 0
  55              		@ frame_needed = 0, uses_anonymous_args = 0
  56              		@ link register save eliminated.
  57 0000 7047     		bx	lr
  58              		.cfi_endproc
  59              	.LFE57:
  60              		.size	USBFS_SaveConfig, .-USBFS_SaveConfig
  61              		.section	.text.USBFS_RestoreConfig,"ax",%progbits
  62              		.align	1
  63              		.global	USBFS_RestoreConfig
  64              		.thumb
  65              		.thumb_func
  66              		.type	USBFS_RestoreConfig, %function
  67              	USBFS_RestoreConfig:
  68              	.LFB58:
  95:Generated_Source\PSoC5/USBFS_pm.c **** 
  96:Generated_Source\PSoC5/USBFS_pm.c **** }
  97:Generated_Source\PSoC5/USBFS_pm.c **** 
  98:Generated_Source\PSoC5/USBFS_pm.c **** 
  99:Generated_Source\PSoC5/USBFS_pm.c **** /*******************************************************************************
 100:Generated_Source\PSoC5/USBFS_pm.c **** * Function Name: USBFS_RestoreConfig
 101:Generated_Source\PSoC5/USBFS_pm.c **** ********************************************************************************
 102:Generated_Source\PSoC5/USBFS_pm.c **** *
 103:Generated_Source\PSoC5/USBFS_pm.c **** * Summary:
ARM GAS  C:\Users\RABBIT~1\AppData\Local\Temp\ccdsFghd.s 			page 4


 104:Generated_Source\PSoC5/USBFS_pm.c **** *  Restores the current user configuration.
 105:Generated_Source\PSoC5/USBFS_pm.c **** *
 106:Generated_Source\PSoC5/USBFS_pm.c **** * Parameters:
 107:Generated_Source\PSoC5/USBFS_pm.c **** *  None.
 108:Generated_Source\PSoC5/USBFS_pm.c **** *
 109:Generated_Source\PSoC5/USBFS_pm.c **** * Return:
 110:Generated_Source\PSoC5/USBFS_pm.c **** *  None.
 111:Generated_Source\PSoC5/USBFS_pm.c **** *
 112:Generated_Source\PSoC5/USBFS_pm.c **** * Reentrant:
 113:Generated_Source\PSoC5/USBFS_pm.c **** *  No.
 114:Generated_Source\PSoC5/USBFS_pm.c **** *
 115:Generated_Source\PSoC5/USBFS_pm.c **** *******************************************************************************/
 116:Generated_Source\PSoC5/USBFS_pm.c **** void USBFS_RestoreConfig(void) 
 117:Generated_Source\PSoC5/USBFS_pm.c **** {
  69              		.loc 1 117 0
  70              		.cfi_startproc
  71              		@ args = 0, pretend = 0, frame = 0
  72              		@ frame_needed = 0, uses_anonymous_args = 0
  73              		@ link register save eliminated.
 118:Generated_Source\PSoC5/USBFS_pm.c ****     if(USBFS_configuration != 0u)
  74              		.loc 1 118 0
  75 0000 024B     		ldr	r3, .L8
  76 0002 1B78     		ldrb	r3, [r3]	@ zero_extendqisi2
  77 0004 0BB1     		cbz	r3, .L5
 119:Generated_Source\PSoC5/USBFS_pm.c ****     {
 120:Generated_Source\PSoC5/USBFS_pm.c ****         USBFS_ConfigReg();
  78              		.loc 1 120 0
  79 0006 FFF7FEBF 		b	USBFS_ConfigReg
  80              	.LVL0:
  81              	.L5:
  82 000a 7047     		bx	lr
  83              	.L9:
  84              		.align	2
  85              	.L8:
  86 000c 00000000 		.word	USBFS_configuration
  87              		.cfi_endproc
  88              	.LFE58:
  89              		.size	USBFS_RestoreConfig, .-USBFS_RestoreConfig
  90              		.section	.text.USBFS_Suspend,"ax",%progbits
  91              		.align	1
  92              		.global	USBFS_Suspend
  93              		.thumb
  94              		.thumb_func
  95              		.type	USBFS_Suspend, %function
  96              	USBFS_Suspend:
  97              	.LFB59:
 121:Generated_Source\PSoC5/USBFS_pm.c ****     }
 122:Generated_Source\PSoC5/USBFS_pm.c **** }
 123:Generated_Source\PSoC5/USBFS_pm.c **** 
 124:Generated_Source\PSoC5/USBFS_pm.c **** 
 125:Generated_Source\PSoC5/USBFS_pm.c **** /*******************************************************************************
 126:Generated_Source\PSoC5/USBFS_pm.c **** * Function Name: USBFS_Suspend
 127:Generated_Source\PSoC5/USBFS_pm.c **** ********************************************************************************
 128:Generated_Source\PSoC5/USBFS_pm.c **** *
 129:Generated_Source\PSoC5/USBFS_pm.c **** * Summary:
 130:Generated_Source\PSoC5/USBFS_pm.c **** *  This function disables the USBFS block and prepares for power down mode.
 131:Generated_Source\PSoC5/USBFS_pm.c **** *
ARM GAS  C:\Users\RABBIT~1\AppData\Local\Temp\ccdsFghd.s 			page 5


 132:Generated_Source\PSoC5/USBFS_pm.c **** * Parameters:
 133:Generated_Source\PSoC5/USBFS_pm.c **** *  None.
 134:Generated_Source\PSoC5/USBFS_pm.c **** *
 135:Generated_Source\PSoC5/USBFS_pm.c **** * Return:
 136:Generated_Source\PSoC5/USBFS_pm.c **** *   None.
 137:Generated_Source\PSoC5/USBFS_pm.c **** *
 138:Generated_Source\PSoC5/USBFS_pm.c **** * Global variables:
 139:Generated_Source\PSoC5/USBFS_pm.c **** *  USBFS_backup.enable:  modified.
 140:Generated_Source\PSoC5/USBFS_pm.c **** *
 141:Generated_Source\PSoC5/USBFS_pm.c **** * Reentrant:
 142:Generated_Source\PSoC5/USBFS_pm.c **** *  No.
 143:Generated_Source\PSoC5/USBFS_pm.c **** *
 144:Generated_Source\PSoC5/USBFS_pm.c **** *******************************************************************************/
 145:Generated_Source\PSoC5/USBFS_pm.c **** void USBFS_Suspend(void) 
 146:Generated_Source\PSoC5/USBFS_pm.c **** {
  98              		.loc 1 146 0
  99              		.cfi_startproc
 100              		@ args = 0, pretend = 0, frame = 0
 101              		@ frame_needed = 0, uses_anonymous_args = 0
 102 0000 2DE9F041 		push	{r4, r5, r6, r7, r8, lr}
 103              		.cfi_def_cfa_offset 24
 104              		.cfi_offset 4, -24
 105              		.cfi_offset 5, -20
 106              		.cfi_offset 6, -16
 107              		.cfi_offset 7, -12
 108              		.cfi_offset 8, -8
 109              		.cfi_offset 14, -4
 147:Generated_Source\PSoC5/USBFS_pm.c ****     uint8 enableInterrupts;
 148:Generated_Source\PSoC5/USBFS_pm.c ****     enableInterrupts = CyEnterCriticalSection();
 110              		.loc 1 148 0
 111 0004 FFF7FEFF 		bl	CyEnterCriticalSection
 112              	.LVL1:
 149:Generated_Source\PSoC5/USBFS_pm.c **** 
 150:Generated_Source\PSoC5/USBFS_pm.c ****     if((CY_GET_REG8(USBFS_CR0_PTR) & USBFS_CR0_ENABLE) != 0u)
 113              		.loc 1 150 0
 114 0008 DFF8CC80 		ldr	r8, .L13+28
 148:Generated_Source\PSoC5/USBFS_pm.c **** 
 115              		.loc 1 148 0
 116 000c 0746     		mov	r7, r0
 117              	.LVL2:
 118              		.loc 1 150 0
 119 000e 98F80030 		ldrb	r3, [r8]	@ zero_extendqisi2
 120 0012 2A4D     		ldr	r5, .L13
 121 0014 13F0800F 		tst	r3, #128
 122 0018 3AD0     		beq	.L11
 151:Generated_Source\PSoC5/USBFS_pm.c ****     {   /* USB block is enabled */
 152:Generated_Source\PSoC5/USBFS_pm.c ****         USBFS_backup.enableState = 1u;
 123              		.loc 1 152 0
 124 001a 0126     		movs	r6, #1
 153:Generated_Source\PSoC5/USBFS_pm.c **** 
 154:Generated_Source\PSoC5/USBFS_pm.c ****         #if(USBFS_EP_MM != USBFS__EP_MANUAL)
 155:Generated_Source\PSoC5/USBFS_pm.c ****             USBFS_Stop_DMA(USBFS_MAX_EP);     /* Stop all DMAs */
 156:Generated_Source\PSoC5/USBFS_pm.c ****         #endif   /*  USBFS_EP_MM != USBFS__EP_MANUAL */
 157:Generated_Source\PSoC5/USBFS_pm.c **** 
 158:Generated_Source\PSoC5/USBFS_pm.c ****         /* Ensure USB transmit enable is low (USB_USBIO_CR0.ten). - Manual Transmission - Disabled 
 159:Generated_Source\PSoC5/USBFS_pm.c ****         USBFS_USBIO_CR0_REG &= (uint8)~USBFS_USBIO_CR0_TEN;
 125              		.loc 1 159 0
ARM GAS  C:\Users\RABBIT~1\AppData\Local\Temp\ccdsFghd.s 			page 6


 126 001c 284A     		ldr	r2, .L13+4
 152:Generated_Source\PSoC5/USBFS_pm.c **** 
 127              		.loc 1 152 0
 128 001e 2E70     		strb	r6, [r5]
 129              		.loc 1 159 0
 130 0020 1378     		ldrb	r3, [r2]	@ zero_extendqisi2
 160:Generated_Source\PSoC5/USBFS_pm.c ****         CyDelayUs(0u);  /*~50ns delay */
 161:Generated_Source\PSoC5/USBFS_pm.c **** 
 162:Generated_Source\PSoC5/USBFS_pm.c ****         /* Disable the USBIO by asserting PM.USB_CR0.fsusbio_pd_n(Inverted) and pd_pullup_hv(Invert
 163:Generated_Source\PSoC5/USBFS_pm.c ****         USBFS_PM_USB_CR0_REG &=
 131              		.loc 1 163 0
 132 0022 284C     		ldr	r4, .L13+8
 159:Generated_Source\PSoC5/USBFS_pm.c ****         CyDelayUs(0u);  /*~50ns delay */
 133              		.loc 1 159 0
 134 0024 03F07F03 		and	r3, r3, #127
 135 0028 1370     		strb	r3, [r2]
 160:Generated_Source\PSoC5/USBFS_pm.c ****         CyDelayUs(0u);  /*~50ns delay */
 136              		.loc 1 160 0
 137 002a 0020     		movs	r0, #0
 138 002c FFF7FEFF 		bl	CyDelayUs
 139              	.LVL3:
 140              		.loc 1 163 0
 141 0030 2378     		ldrb	r3, [r4]	@ zero_extendqisi2
 164:Generated_Source\PSoC5/USBFS_pm.c ****                                 (uint8)~(USBFS_PM_USB_CR0_PD_N | USBFS_PM_USB_CR0_PD_PULLUP_N);
 165:Generated_Source\PSoC5/USBFS_pm.c **** 
 166:Generated_Source\PSoC5/USBFS_pm.c ****         /* Disable the SIE */
 167:Generated_Source\PSoC5/USBFS_pm.c ****         USBFS_CR0_REG &= (uint8)~USBFS_CR0_ENABLE;
 168:Generated_Source\PSoC5/USBFS_pm.c **** 
 169:Generated_Source\PSoC5/USBFS_pm.c ****         CyDelayUs(0u);  /* ~50ns delay */
 142              		.loc 1 169 0
 143 0032 0020     		movs	r0, #0
 163:Generated_Source\PSoC5/USBFS_pm.c ****                                 (uint8)~(USBFS_PM_USB_CR0_PD_N | USBFS_PM_USB_CR0_PD_PULLUP_N);
 144              		.loc 1 163 0
 145 0034 03F0F903 		and	r3, r3, #249
 146 0038 2370     		strb	r3, [r4]
 167:Generated_Source\PSoC5/USBFS_pm.c **** 
 147              		.loc 1 167 0
 148 003a 98F80030 		ldrb	r3, [r8]	@ zero_extendqisi2
 149 003e 03F07F03 		and	r3, r3, #127
 150 0042 88F80030 		strb	r3, [r8]
 151              		.loc 1 169 0
 152 0046 FFF7FEFF 		bl	CyDelayUs
 153              	.LVL4:
 170:Generated_Source\PSoC5/USBFS_pm.c ****         /* Store mode and Disable VRegulator*/
 171:Generated_Source\PSoC5/USBFS_pm.c ****         USBFS_backup.mode = USBFS_CR1_REG & USBFS_CR1_REG_ENABLE;
 154              		.loc 1 171 0
 155 004a 1F4B     		ldr	r3, .L13+12
 172:Generated_Source\PSoC5/USBFS_pm.c ****         USBFS_CR1_REG &= (uint8)~USBFS_CR1_REG_ENABLE;
 173:Generated_Source\PSoC5/USBFS_pm.c **** 
 174:Generated_Source\PSoC5/USBFS_pm.c ****         CyDelayUs(1u);  /* 0.5 us min delay */
 156              		.loc 1 174 0
 157 004c 3046     		mov	r0, r6
 171:Generated_Source\PSoC5/USBFS_pm.c ****         USBFS_CR1_REG &= (uint8)~USBFS_CR1_REG_ENABLE;
 158              		.loc 1 171 0
 159 004e 1A78     		ldrb	r2, [r3]	@ zero_extendqisi2
 160 0050 3240     		ands	r2, r2, r6
 161 0052 6A70     		strb	r2, [r5, #1]
ARM GAS  C:\Users\RABBIT~1\AppData\Local\Temp\ccdsFghd.s 			page 7


 172:Generated_Source\PSoC5/USBFS_pm.c ****         USBFS_CR1_REG &= (uint8)~USBFS_CR1_REG_ENABLE;
 162              		.loc 1 172 0
 163 0054 1A78     		ldrb	r2, [r3]	@ zero_extendqisi2
 164 0056 02F0FE02 		and	r2, r2, #254
 165 005a 1A70     		strb	r2, [r3]
 166              		.loc 1 174 0
 167 005c FFF7FEFF 		bl	CyDelayUs
 168              	.LVL5:
 175:Generated_Source\PSoC5/USBFS_pm.c ****         /* Disable the USBIO reference by setting PM.USB_CR0.fsusbio_ref_en.*/
 176:Generated_Source\PSoC5/USBFS_pm.c ****         USBFS_PM_USB_CR0_REG &= (uint8)~USBFS_PM_USB_CR0_REF_EN;
 169              		.loc 1 176 0
 170 0060 2378     		ldrb	r3, [r4]	@ zero_extendqisi2
 177:Generated_Source\PSoC5/USBFS_pm.c **** 
 178:Generated_Source\PSoC5/USBFS_pm.c ****         /* Switch DP and DM terminals to GPIO mode and disconnect 1.5k pullup*/
 179:Generated_Source\PSoC5/USBFS_pm.c ****         USBFS_USBIO_CR1_REG |= USBFS_USBIO_CR1_IOMODE;
 171              		.loc 1 179 0
 172 0062 1A4A     		ldr	r2, .L13+16
 176:Generated_Source\PSoC5/USBFS_pm.c **** 
 173              		.loc 1 176 0
 174 0064 03F0FE03 		and	r3, r3, #254
 175 0068 2370     		strb	r3, [r4]
 176              		.loc 1 179 0
 177 006a 1378     		ldrb	r3, [r2]	@ zero_extendqisi2
 180:Generated_Source\PSoC5/USBFS_pm.c **** 
 181:Generated_Source\PSoC5/USBFS_pm.c ****         /* Disable USB in ACT PM */
 182:Generated_Source\PSoC5/USBFS_pm.c ****         USBFS_PM_ACT_CFG_REG &= (uint8)~USBFS_PM_ACT_EN_FSUSB;
 183:Generated_Source\PSoC5/USBFS_pm.c ****         /* Disable USB block for Standby Power Mode */
 184:Generated_Source\PSoC5/USBFS_pm.c ****         USBFS_PM_STBY_CFG_REG &= (uint8)~USBFS_PM_STBY_EN_FSUSB;
 185:Generated_Source\PSoC5/USBFS_pm.c ****         CyDelayUs(1u); /* min  0.5us delay required */
 178              		.loc 1 185 0
 179 006c 3046     		mov	r0, r6
 179:Generated_Source\PSoC5/USBFS_pm.c **** 
 180              		.loc 1 179 0
 181 006e 43F02003 		orr	r3, r3, #32
 182 0072 1370     		strb	r3, [r2]
 182:Generated_Source\PSoC5/USBFS_pm.c ****         /* Disable USB block for Standby Power Mode */
 183              		.loc 1 182 0
 184 0074 A2F5E352 		sub	r2, r2, #7264
 185 0078 0D3A     		subs	r2, r2, #13
 186 007a 1378     		ldrb	r3, [r2]	@ zero_extendqisi2
 187 007c 03F0FE03 		and	r3, r3, #254
 188 0080 1370     		strb	r3, [r2]
 184:Generated_Source\PSoC5/USBFS_pm.c ****         CyDelayUs(1u); /* min  0.5us delay required */
 189              		.loc 1 184 0
 190 0082 137C     		ldrb	r3, [r2, #16]	@ zero_extendqisi2
 191 0084 03F0FE03 		and	r3, r3, #254
 192 0088 1374     		strb	r3, [r2, #16]
 193              		.loc 1 185 0
 194 008a FFF7FEFF 		bl	CyDelayUs
 195              	.LVL6:
 196 008e 01E0     		b	.L12
 197              	.L11:
 186:Generated_Source\PSoC5/USBFS_pm.c **** 
 187:Generated_Source\PSoC5/USBFS_pm.c ****     }
 188:Generated_Source\PSoC5/USBFS_pm.c ****     else
 189:Generated_Source\PSoC5/USBFS_pm.c ****     {
 190:Generated_Source\PSoC5/USBFS_pm.c ****         USBFS_backup.enableState = 0u;
ARM GAS  C:\Users\RABBIT~1\AppData\Local\Temp\ccdsFghd.s 			page 8


 198              		.loc 1 190 0
 199 0090 0023     		movs	r3, #0
 200 0092 2B70     		strb	r3, [r5]
 201              	.L12:
 191:Generated_Source\PSoC5/USBFS_pm.c ****     }
 192:Generated_Source\PSoC5/USBFS_pm.c **** 
 193:Generated_Source\PSoC5/USBFS_pm.c ****     CyExitCriticalSection(enableInterrupts);
 202              		.loc 1 193 0
 203 0094 3846     		mov	r0, r7
 204 0096 FFF7FEFF 		bl	CyExitCriticalSection
 205              	.LVL7:
 194:Generated_Source\PSoC5/USBFS_pm.c **** 
 195:Generated_Source\PSoC5/USBFS_pm.c ****     /* Set the DP Interrupt for wake-up from sleep mode. */
 196:Generated_Source\PSoC5/USBFS_pm.c ****     #if(USBFS_DP_ISR_REMOVE == 0u)
 197:Generated_Source\PSoC5/USBFS_pm.c ****         (void) CyIntSetVector(USBFS_DP_INTC_VECT_NUM, &USBFS_DP_ISR);
 206              		.loc 1 197 0
 207 009a 0D49     		ldr	r1, .L13+20
 208 009c 0C20     		movs	r0, #12
 209 009e FFF7FEFF 		bl	CyIntSetVector
 210              	.LVL8:
 198:Generated_Source\PSoC5/USBFS_pm.c ****         CyIntSetPriority(USBFS_DP_INTC_VECT_NUM, USBFS_DP_INTC_PRIOR);
 211              		.loc 1 198 0
 212 00a2 0721     		movs	r1, #7
 213 00a4 0C20     		movs	r0, #12
 214 00a6 FFF7FEFF 		bl	CyIntSetPriority
 215              	.LVL9:
 199:Generated_Source\PSoC5/USBFS_pm.c ****         CyIntClearPending(USBFS_DP_INTC_VECT_NUM);
 216              		.loc 1 199 0
 217 00aa 0A4A     		ldr	r2, .L13+24
 218 00ac 4FF48053 		mov	r3, #4096
 219 00b0 1360     		str	r3, [r2]
 200:Generated_Source\PSoC5/USBFS_pm.c ****         CyIntEnable(USBFS_DP_INTC_VECT_NUM);
 220              		.loc 1 200 0
 221 00b2 A2F5C072 		sub	r2, r2, #384
 222 00b6 1360     		str	r3, [r2]
 223 00b8 BDE8F081 		pop	{r4, r5, r6, r7, r8, pc}
 224              	.LVL10:
 225              	.L14:
 226              		.align	2
 227              	.L13:
 228 00bc 00000000 		.word	.LANCHOR0
 229 00c0 10600040 		.word	1073766416
 230 00c4 94430040 		.word	1073759124
 231 00c8 09600040 		.word	1073766409
 232 00cc 12600040 		.word	1073766418
 233 00d0 00000000 		.word	USBFS_DP_ISR
 234 00d4 80E200E0 		.word	-536812928
 235 00d8 08600040 		.word	1073766408
 236              		.cfi_endproc
 237              	.LFE59:
 238              		.size	USBFS_Suspend, .-USBFS_Suspend
 239              		.section	.text.USBFS_Resume,"ax",%progbits
 240              		.align	1
 241              		.global	USBFS_Resume
 242              		.thumb
 243              		.thumb_func
 244              		.type	USBFS_Resume, %function
ARM GAS  C:\Users\RABBIT~1\AppData\Local\Temp\ccdsFghd.s 			page 9


 245              	USBFS_Resume:
 246              	.LFB60:
 201:Generated_Source\PSoC5/USBFS_pm.c ****     #endif /* (USBFS_DP_ISR_REMOVE == 0u) */
 202:Generated_Source\PSoC5/USBFS_pm.c **** }
 203:Generated_Source\PSoC5/USBFS_pm.c **** 
 204:Generated_Source\PSoC5/USBFS_pm.c **** 
 205:Generated_Source\PSoC5/USBFS_pm.c **** /*******************************************************************************
 206:Generated_Source\PSoC5/USBFS_pm.c **** * Function Name: USBFS_Resume
 207:Generated_Source\PSoC5/USBFS_pm.c **** ********************************************************************************
 208:Generated_Source\PSoC5/USBFS_pm.c **** *
 209:Generated_Source\PSoC5/USBFS_pm.c **** * Summary:
 210:Generated_Source\PSoC5/USBFS_pm.c **** *  This function enables the USBFS block after power down mode.
 211:Generated_Source\PSoC5/USBFS_pm.c **** *
 212:Generated_Source\PSoC5/USBFS_pm.c **** * Parameters:
 213:Generated_Source\PSoC5/USBFS_pm.c **** *  None.
 214:Generated_Source\PSoC5/USBFS_pm.c **** *
 215:Generated_Source\PSoC5/USBFS_pm.c **** * Return:
 216:Generated_Source\PSoC5/USBFS_pm.c **** *  None.
 217:Generated_Source\PSoC5/USBFS_pm.c **** *
 218:Generated_Source\PSoC5/USBFS_pm.c **** * Global variables:
 219:Generated_Source\PSoC5/USBFS_pm.c **** *  USBFS_backup - checked.
 220:Generated_Source\PSoC5/USBFS_pm.c **** *
 221:Generated_Source\PSoC5/USBFS_pm.c **** * Reentrant:
 222:Generated_Source\PSoC5/USBFS_pm.c **** *  No.
 223:Generated_Source\PSoC5/USBFS_pm.c **** *
 224:Generated_Source\PSoC5/USBFS_pm.c **** *******************************************************************************/
 225:Generated_Source\PSoC5/USBFS_pm.c **** void USBFS_Resume(void) 
 226:Generated_Source\PSoC5/USBFS_pm.c **** {
 247              		.loc 1 226 0
 248              		.cfi_startproc
 249              		@ args = 0, pretend = 0, frame = 0
 250              		@ frame_needed = 0, uses_anonymous_args = 0
 251 0000 70B5     		push	{r4, r5, r6, lr}
 252              		.cfi_def_cfa_offset 16
 253              		.cfi_offset 4, -16
 254              		.cfi_offset 5, -12
 255              		.cfi_offset 6, -8
 256              		.cfi_offset 14, -4
 227:Generated_Source\PSoC5/USBFS_pm.c ****     uint8 enableInterrupts;
 228:Generated_Source\PSoC5/USBFS_pm.c ****     enableInterrupts = CyEnterCriticalSection();
 257              		.loc 1 228 0
 258 0002 FFF7FEFF 		bl	CyEnterCriticalSection
 259              	.LVL11:
 229:Generated_Source\PSoC5/USBFS_pm.c **** 
 230:Generated_Source\PSoC5/USBFS_pm.c ****     if(USBFS_backup.enableState != 0u)
 260              		.loc 1 230 0
 261 0006 244E     		ldr	r6, .L20
 228:Generated_Source\PSoC5/USBFS_pm.c **** 
 262              		.loc 1 228 0
 263 0008 0546     		mov	r5, r0
 264              	.LVL12:
 265              		.loc 1 230 0
 266 000a 3378     		ldrb	r3, [r6]	@ zero_extendqisi2
 267 000c 002B     		cmp	r3, #0
 268 000e 3ED0     		beq	.L16
 231:Generated_Source\PSoC5/USBFS_pm.c ****     {
 232:Generated_Source\PSoC5/USBFS_pm.c ****         #if(USBFS_DP_ISR_REMOVE == 0u)
ARM GAS  C:\Users\RABBIT~1\AppData\Local\Temp\ccdsFghd.s 			page 10


 233:Generated_Source\PSoC5/USBFS_pm.c ****             CyIntDisable(USBFS_DP_INTC_VECT_NUM);
 269              		.loc 1 233 0
 270 0010 224B     		ldr	r3, .L20+4
 271 0012 4FF48052 		mov	r2, #4096
 272 0016 1A60     		str	r2, [r3]
 234:Generated_Source\PSoC5/USBFS_pm.c ****         #endif /*  USBFS_DP_ISR_REMOVE */
 235:Generated_Source\PSoC5/USBFS_pm.c **** 
 236:Generated_Source\PSoC5/USBFS_pm.c ****         /* Enable USB block */
 237:Generated_Source\PSoC5/USBFS_pm.c ****         USBFS_PM_ACT_CFG_REG |= USBFS_PM_ACT_EN_FSUSB;
 273              		.loc 1 237 0
 274 0018 214A     		ldr	r2, .L20+8
 238:Generated_Source\PSoC5/USBFS_pm.c ****         /* Enable USB block for Standby Power Mode */
 239:Generated_Source\PSoC5/USBFS_pm.c ****         USBFS_PM_STBY_CFG_REG |= USBFS_PM_STBY_EN_FSUSB;
 240:Generated_Source\PSoC5/USBFS_pm.c ****         /* Enable core clock */
 241:Generated_Source\PSoC5/USBFS_pm.c ****         USBFS_USB_CLK_EN_REG |= USBFS_USB_CLK_ENABLE;
 242:Generated_Source\PSoC5/USBFS_pm.c **** 
 243:Generated_Source\PSoC5/USBFS_pm.c ****         /* Enable the USBIO reference by setting PM.USB_CR0.fsusbio_ref_en.*/
 244:Generated_Source\PSoC5/USBFS_pm.c ****         USBFS_PM_USB_CR0_REG |= USBFS_PM_USB_CR0_REF_EN;
 275              		.loc 1 244 0
 276 001a 224C     		ldr	r4, .L20+12
 237:Generated_Source\PSoC5/USBFS_pm.c ****         /* Enable USB block for Standby Power Mode */
 277              		.loc 1 237 0
 278 001c 1378     		ldrb	r3, [r2]	@ zero_extendqisi2
 245:Generated_Source\PSoC5/USBFS_pm.c ****         /* The reference will be available ~40us after power restored */
 246:Generated_Source\PSoC5/USBFS_pm.c ****         CyDelayUs(40u);
 279              		.loc 1 246 0
 280 001e 2820     		movs	r0, #40
 237:Generated_Source\PSoC5/USBFS_pm.c ****         /* Enable USB block for Standby Power Mode */
 281              		.loc 1 237 0
 282 0020 43F00103 		orr	r3, r3, #1
 283 0024 1370     		strb	r3, [r2]
 239:Generated_Source\PSoC5/USBFS_pm.c ****         /* Enable core clock */
 284              		.loc 1 239 0
 285 0026 137C     		ldrb	r3, [r2, #16]	@ zero_extendqisi2
 286 0028 43F00103 		orr	r3, r3, #1
 287 002c 1374     		strb	r3, [r2, #16]
 241:Generated_Source\PSoC5/USBFS_pm.c **** 
 288              		.loc 1 241 0
 289 002e 02F5E752 		add	r2, r2, #7392
 290 0032 1832     		adds	r2, r2, #24
 291 0034 1378     		ldrb	r3, [r2]	@ zero_extendqisi2
 292 0036 43F00103 		orr	r3, r3, #1
 293 003a 1370     		strb	r3, [r2]
 244:Generated_Source\PSoC5/USBFS_pm.c ****         /* The reference will be available ~40us after power restored */
 294              		.loc 1 244 0
 295 003c 2378     		ldrb	r3, [r4]	@ zero_extendqisi2
 296 003e 43F00103 		orr	r3, r3, #1
 297 0042 2370     		strb	r3, [r4]
 298              		.loc 1 246 0
 299 0044 FFF7FEFF 		bl	CyDelayUs
 300              	.LVL13:
 247:Generated_Source\PSoC5/USBFS_pm.c ****         /* Return VRegulator*/
 248:Generated_Source\PSoC5/USBFS_pm.c ****         USBFS_CR1_REG |= USBFS_backup.mode;
 301              		.loc 1 248 0
 302 0048 174A     		ldr	r2, .L20+16
 303 004a 7378     		ldrb	r3, [r6, #1]	@ zero_extendqisi2
 304 004c 1178     		ldrb	r1, [r2]	@ zero_extendqisi2
ARM GAS  C:\Users\RABBIT~1\AppData\Local\Temp\ccdsFghd.s 			page 11


 249:Generated_Source\PSoC5/USBFS_pm.c ****         CyDelayUs(0u);  /*~50ns delay */
 305              		.loc 1 249 0
 306 004e 0020     		movs	r0, #0
 248:Generated_Source\PSoC5/USBFS_pm.c ****         CyDelayUs(0u);  /*~50ns delay */
 307              		.loc 1 248 0
 308 0050 0B43     		orrs	r3, r3, r1
 309 0052 1370     		strb	r3, [r2]
 310              		.loc 1 249 0
 311 0054 FFF7FEFF 		bl	CyDelayUs
 312              	.LVL14:
 250:Generated_Source\PSoC5/USBFS_pm.c ****         /* Enable USBIO */
 251:Generated_Source\PSoC5/USBFS_pm.c ****         USBFS_PM_USB_CR0_REG |= USBFS_PM_USB_CR0_PD_N;
 313              		.loc 1 251 0
 314 0058 2378     		ldrb	r3, [r4]	@ zero_extendqisi2
 252:Generated_Source\PSoC5/USBFS_pm.c ****         CyDelayUs(2u);
 315              		.loc 1 252 0
 316 005a 0220     		movs	r0, #2
 251:Generated_Source\PSoC5/USBFS_pm.c ****         CyDelayUs(2u);
 317              		.loc 1 251 0
 318 005c 43F00203 		orr	r3, r3, #2
 319 0060 2370     		strb	r3, [r4]
 320              		.loc 1 252 0
 321 0062 FFF7FEFF 		bl	CyDelayUs
 322              	.LVL15:
 253:Generated_Source\PSoC5/USBFS_pm.c ****         /* Set the USBIO pull-up enable */
 254:Generated_Source\PSoC5/USBFS_pm.c ****         USBFS_PM_USB_CR0_REG |= USBFS_PM_USB_CR0_PD_PULLUP_N;
 323              		.loc 1 254 0
 324 0066 2378     		ldrb	r3, [r4]	@ zero_extendqisi2
 255:Generated_Source\PSoC5/USBFS_pm.c **** 
 256:Generated_Source\PSoC5/USBFS_pm.c ****         /* Re-init Arbiter configuration for DMA transfers */
 257:Generated_Source\PSoC5/USBFS_pm.c ****         #if(USBFS_EP_MM != USBFS__EP_MANUAL)
 258:Generated_Source\PSoC5/USBFS_pm.c ****             /* Usb arb interrupt enable */
 259:Generated_Source\PSoC5/USBFS_pm.c ****             USBFS_ARB_INT_EN_REG = USBFS_ARB_INT_MASK;
 260:Generated_Source\PSoC5/USBFS_pm.c ****             #if(USBFS_EP_MM == USBFS__EP_DMAMANUAL)
 261:Generated_Source\PSoC5/USBFS_pm.c ****                 USBFS_ARB_CFG_REG = USBFS_ARB_CFG_MANUAL_DMA;
 262:Generated_Source\PSoC5/USBFS_pm.c ****             #endif   /*  USBFS_EP_MM == USBFS__EP_DMAMANUAL */
 263:Generated_Source\PSoC5/USBFS_pm.c ****             #if(USBFS_EP_MM == USBFS__EP_DMAAUTO)
 264:Generated_Source\PSoC5/USBFS_pm.c ****                 /*Set cfg cmplt this rises DMA request when the full configuration is done */
 265:Generated_Source\PSoC5/USBFS_pm.c ****                 USBFS_ARB_CFG_REG = USBFS_ARB_CFG_AUTO_DMA | USBFS_ARB_CFG_AUTO_MEM;
 266:Generated_Source\PSoC5/USBFS_pm.c ****             #endif   /*  USBFS_EP_MM == USBFS__EP_DMAAUTO */
 267:Generated_Source\PSoC5/USBFS_pm.c ****         #endif   /*  USBFS_EP_MM != USBFS__EP_MANUAL */
 268:Generated_Source\PSoC5/USBFS_pm.c **** 
 269:Generated_Source\PSoC5/USBFS_pm.c ****         /* STALL_IN_OUT */
 270:Generated_Source\PSoC5/USBFS_pm.c ****         CY_SET_REG8(USBFS_EP0_CR_PTR, USBFS_MODE_STALL_IN_OUT);
 325              		.loc 1 270 0
 326 0068 0322     		movs	r2, #3
 254:Generated_Source\PSoC5/USBFS_pm.c **** 
 327              		.loc 1 254 0
 328 006a 43F00403 		orr	r3, r3, #4
 329 006e 2370     		strb	r3, [r4]
 330              		.loc 1 270 0
 331 0070 0E4B     		ldr	r3, .L20+20
 271:Generated_Source\PSoC5/USBFS_pm.c ****         /* Enable the SIE with a last address */
 272:Generated_Source\PSoC5/USBFS_pm.c ****         USBFS_CR0_REG |= USBFS_CR0_ENABLE;
 273:Generated_Source\PSoC5/USBFS_pm.c ****         CyDelayCycles(1u);
 332              		.loc 1 273 0
 333 0072 0120     		movs	r0, #1
ARM GAS  C:\Users\RABBIT~1\AppData\Local\Temp\ccdsFghd.s 			page 12


 270:Generated_Source\PSoC5/USBFS_pm.c ****         /* Enable the SIE with a last address */
 334              		.loc 1 270 0
 335 0074 1A70     		strb	r2, [r3]
 272:Generated_Source\PSoC5/USBFS_pm.c ****         CyDelayCycles(1u);
 336              		.loc 1 272 0
 337 0076 0E4A     		ldr	r2, .L20+24
 338 0078 1378     		ldrb	r3, [r2]	@ zero_extendqisi2
 339 007a 43F08003 		orr	r3, r3, #128
 340 007e 1370     		strb	r3, [r2]
 341              		.loc 1 273 0
 342 0080 FFF7FEFF 		bl	CyDelayCycles
 343              	.LVL16:
 274:Generated_Source\PSoC5/USBFS_pm.c ****         /* Finally, Enable d+ pullup and select iomode to USB mode*/
 275:Generated_Source\PSoC5/USBFS_pm.c ****         CY_SET_REG8(USBFS_USBIO_CR1_PTR, USBFS_USBIO_CR1_USBPUEN);
 344              		.loc 1 275 0
 345 0084 0B4B     		ldr	r3, .L20+28
 346 0086 0422     		movs	r2, #4
 347 0088 1A70     		strb	r2, [r3]
 276:Generated_Source\PSoC5/USBFS_pm.c **** 
 277:Generated_Source\PSoC5/USBFS_pm.c ****         /* Restore USB register settings */
 278:Generated_Source\PSoC5/USBFS_pm.c ****         USBFS_RestoreConfig();
 348              		.loc 1 278 0
 349 008a FFF7FEFF 		bl	USBFS_RestoreConfig
 350              	.LVL17:
 351              	.L16:
 279:Generated_Source\PSoC5/USBFS_pm.c ****     }
 280:Generated_Source\PSoC5/USBFS_pm.c **** 
 281:Generated_Source\PSoC5/USBFS_pm.c ****     CyExitCriticalSection(enableInterrupts);
 352              		.loc 1 281 0
 353 008e 2846     		mov	r0, r5
 282:Generated_Source\PSoC5/USBFS_pm.c **** }
 354              		.loc 1 282 0
 355 0090 BDE87040 		pop	{r4, r5, r6, lr}
 356              		.cfi_restore 14
 357              		.cfi_restore 6
 358              		.cfi_restore 5
 359              		.cfi_restore 4
 360              		.cfi_def_cfa_offset 0
 361              	.LVL18:
 281:Generated_Source\PSoC5/USBFS_pm.c **** }
 362              		.loc 1 281 0
 363 0094 FFF7FEBF 		b	CyExitCriticalSection
 364              	.LVL19:
 365              	.L21:
 366              		.align	2
 367              	.L20:
 368 0098 00000000 		.word	.LANCHOR0
 369 009c 80E100E0 		.word	-536813184
 370 00a0 A5430040 		.word	1073759141
 371 00a4 94430040 		.word	1073759124
 372 00a8 09600040 		.word	1073766409
 373 00ac 28600040 		.word	1073766440
 374 00b0 08600040 		.word	1073766408
 375 00b4 12600040 		.word	1073766418
 376              		.cfi_endproc
 377              	.LFE60:
 378              		.size	USBFS_Resume, .-USBFS_Resume
ARM GAS  C:\Users\RABBIT~1\AppData\Local\Temp\ccdsFghd.s 			page 13


 379              		.bss
 380              		.set	.LANCHOR0,. + 0
 381              		.type	USBFS_backup, %object
 382              		.size	USBFS_backup, 2
 383              	USBFS_backup:
 384 0000 0000     		.space	2
 385              		.text
 386              	.Letext0:
 387              		.file 2 "c:\\program files (x86)\\cypress\\psoc creator\\4.2\\psoc creator\\import\\gnu\\arm\\5.4.
 388              		.file 3 "c:\\program files (x86)\\cypress\\psoc creator\\4.2\\psoc creator\\import\\gnu\\arm\\5.4.
 389              		.file 4 "Generated_Source\\PSoC5\\cytypes.h"
 390              		.file 5 "Generated_Source\\PSoC5\\USBFS.h"
 391              		.file 6 "Generated_Source\\PSoC5/core_cm3.h"
 392              		.file 7 "Generated_Source\\PSoC5\\USBFS_pvt.h"
 393              		.file 8 "Generated_Source\\PSoC5\\CyLib.h"