ARM GAS  C:\Users\RABBIT~1\AppData\Local\Temp\ccYRpEyv.s 			page 1


   1              		.syntax unified
   2              		.cpu cortex-m3
   3              		.fpu softvfp
   4              		.eabi_attribute 20, 1
   5              		.eabi_attribute 21, 1
   6              		.eabi_attribute 23, 3
   7              		.eabi_attribute 24, 1
   8              		.eabi_attribute 25, 1
   9              		.eabi_attribute 26, 1
  10              		.eabi_attribute 30, 4
  11              		.eabi_attribute 34, 1
  12              		.eabi_attribute 18, 4
  13              		.thumb
  14              		.syntax unified
  15              		.file	"USBFS_std.c"
  16              		.text
  17              	.Ltext0:
  18              		.cfi_sections	.debug_frame
  19              		.section	.text.USBFS_ConfigReg,"ax",%progbits
  20              		.align	1
  21              		.global	USBFS_ConfigReg
  22              		.thumb
  23              		.thumb_func
  24              		.type	USBFS_ConfigReg, %function
  25              	USBFS_ConfigReg:
  26              	.LFB1:
  27              		.file 1 "Generated_Source\\PSoC5\\USBFS_std.c"
   1:Generated_Source\PSoC5/USBFS_std.c **** /*******************************************************************************
   2:Generated_Source\PSoC5/USBFS_std.c **** * File Name: USBFS_std.c
   3:Generated_Source\PSoC5/USBFS_std.c **** * Version 2.80
   4:Generated_Source\PSoC5/USBFS_std.c **** *
   5:Generated_Source\PSoC5/USBFS_std.c **** * Description:
   6:Generated_Source\PSoC5/USBFS_std.c **** *  USB Standard request handler.
   7:Generated_Source\PSoC5/USBFS_std.c **** *
   8:Generated_Source\PSoC5/USBFS_std.c **** * Note:
   9:Generated_Source\PSoC5/USBFS_std.c **** *
  10:Generated_Source\PSoC5/USBFS_std.c **** ********************************************************************************
  11:Generated_Source\PSoC5/USBFS_std.c **** * Copyright 2008-2014, Cypress Semiconductor Corporation.  All rights reserved.
  12:Generated_Source\PSoC5/USBFS_std.c **** * You may use this file only in accordance with the license, terms, conditions,
  13:Generated_Source\PSoC5/USBFS_std.c **** * disclaimers, and limitations in the end user license agreement accompanying
  14:Generated_Source\PSoC5/USBFS_std.c **** * the software package with which this file was provided.
  15:Generated_Source\PSoC5/USBFS_std.c **** *******************************************************************************/
  16:Generated_Source\PSoC5/USBFS_std.c **** 
  17:Generated_Source\PSoC5/USBFS_std.c **** #include "USBFS.h"
  18:Generated_Source\PSoC5/USBFS_std.c **** #include "USBFS_cdc.h"
  19:Generated_Source\PSoC5/USBFS_std.c **** #include "USBFS_pvt.h"
  20:Generated_Source\PSoC5/USBFS_std.c **** #if defined(USBFS_ENABLE_MIDI_STREAMING)
  21:Generated_Source\PSoC5/USBFS_std.c ****     #include "USBFS_midi.h"
  22:Generated_Source\PSoC5/USBFS_std.c **** #endif /*  USBFS_ENABLE_MIDI_STREAMING*/
  23:Generated_Source\PSoC5/USBFS_std.c **** 
  24:Generated_Source\PSoC5/USBFS_std.c **** 
  25:Generated_Source\PSoC5/USBFS_std.c **** /***************************************
  26:Generated_Source\PSoC5/USBFS_std.c **** *   Static data allocation
  27:Generated_Source\PSoC5/USBFS_std.c **** ***************************************/
  28:Generated_Source\PSoC5/USBFS_std.c **** 
  29:Generated_Source\PSoC5/USBFS_std.c **** #if defined(USBFS_ENABLE_FWSN_STRING)
  30:Generated_Source\PSoC5/USBFS_std.c ****     static volatile uint8 *USBFS_fwSerialNumberStringDescriptor;
ARM GAS  C:\Users\RABBIT~1\AppData\Local\Temp\ccYRpEyv.s 			page 2


  31:Generated_Source\PSoC5/USBFS_std.c ****     static volatile uint8 USBFS_snStringConfirm = USBFS_FALSE;
  32:Generated_Source\PSoC5/USBFS_std.c **** #endif  /* USBFS_ENABLE_FWSN_STRING */
  33:Generated_Source\PSoC5/USBFS_std.c **** 
  34:Generated_Source\PSoC5/USBFS_std.c **** #if defined(USBFS_ENABLE_FWSN_STRING)
  35:Generated_Source\PSoC5/USBFS_std.c **** 
  36:Generated_Source\PSoC5/USBFS_std.c ****     /*******************************************************************************
  37:Generated_Source\PSoC5/USBFS_std.c ****     * Function Name: USBFS_SerialNumString
  38:Generated_Source\PSoC5/USBFS_std.c ****     ********************************************************************************
  39:Generated_Source\PSoC5/USBFS_std.c ****     *
  40:Generated_Source\PSoC5/USBFS_std.c ****     * Summary:
  41:Generated_Source\PSoC5/USBFS_std.c ****     *  Application firmware may supply the source of the USB device descriptors
  42:Generated_Source\PSoC5/USBFS_std.c ****     *  serial number string during runtime.
  43:Generated_Source\PSoC5/USBFS_std.c ****     *
  44:Generated_Source\PSoC5/USBFS_std.c ****     * Parameters:
  45:Generated_Source\PSoC5/USBFS_std.c ****     *  snString:  pointer to string.
  46:Generated_Source\PSoC5/USBFS_std.c ****     *
  47:Generated_Source\PSoC5/USBFS_std.c ****     * Return:
  48:Generated_Source\PSoC5/USBFS_std.c ****     *  None.
  49:Generated_Source\PSoC5/USBFS_std.c ****     *
  50:Generated_Source\PSoC5/USBFS_std.c ****     * Reentrant:
  51:Generated_Source\PSoC5/USBFS_std.c ****     *  No.
  52:Generated_Source\PSoC5/USBFS_std.c ****     *
  53:Generated_Source\PSoC5/USBFS_std.c ****     *******************************************************************************/
  54:Generated_Source\PSoC5/USBFS_std.c ****     void  USBFS_SerialNumString(uint8 snString[]) 
  55:Generated_Source\PSoC5/USBFS_std.c ****     {
  56:Generated_Source\PSoC5/USBFS_std.c ****         USBFS_snStringConfirm = USBFS_FALSE;
  57:Generated_Source\PSoC5/USBFS_std.c ****         if(snString != NULL)
  58:Generated_Source\PSoC5/USBFS_std.c ****         {
  59:Generated_Source\PSoC5/USBFS_std.c ****             /* Check descriptor validation */
  60:Generated_Source\PSoC5/USBFS_std.c ****             if( (snString[0u] > 1u ) && (snString[1u] == USBFS_DESCR_STRING) )
  61:Generated_Source\PSoC5/USBFS_std.c ****             {
  62:Generated_Source\PSoC5/USBFS_std.c ****                 USBFS_fwSerialNumberStringDescriptor = snString;
  63:Generated_Source\PSoC5/USBFS_std.c ****                 USBFS_snStringConfirm = USBFS_TRUE;
  64:Generated_Source\PSoC5/USBFS_std.c ****             }
  65:Generated_Source\PSoC5/USBFS_std.c ****         }
  66:Generated_Source\PSoC5/USBFS_std.c ****     }
  67:Generated_Source\PSoC5/USBFS_std.c **** 
  68:Generated_Source\PSoC5/USBFS_std.c **** #endif  /* USBFS_ENABLE_FWSN_STRING */
  69:Generated_Source\PSoC5/USBFS_std.c **** 
  70:Generated_Source\PSoC5/USBFS_std.c **** 
  71:Generated_Source\PSoC5/USBFS_std.c **** /*******************************************************************************
  72:Generated_Source\PSoC5/USBFS_std.c **** * Function Name: USBFS_HandleStandardRqst
  73:Generated_Source\PSoC5/USBFS_std.c **** ********************************************************************************
  74:Generated_Source\PSoC5/USBFS_std.c **** *
  75:Generated_Source\PSoC5/USBFS_std.c **** * Summary:
  76:Generated_Source\PSoC5/USBFS_std.c **** *  This Routine dispatches standard requests
  77:Generated_Source\PSoC5/USBFS_std.c **** *
  78:Generated_Source\PSoC5/USBFS_std.c **** * Parameters:
  79:Generated_Source\PSoC5/USBFS_std.c **** *  None.
  80:Generated_Source\PSoC5/USBFS_std.c **** *
  81:Generated_Source\PSoC5/USBFS_std.c **** * Return:
  82:Generated_Source\PSoC5/USBFS_std.c **** *  TRUE if request handled.
  83:Generated_Source\PSoC5/USBFS_std.c **** *
  84:Generated_Source\PSoC5/USBFS_std.c **** * Reentrant:
  85:Generated_Source\PSoC5/USBFS_std.c **** *  No.
  86:Generated_Source\PSoC5/USBFS_std.c **** *
  87:Generated_Source\PSoC5/USBFS_std.c **** *******************************************************************************/
ARM GAS  C:\Users\RABBIT~1\AppData\Local\Temp\ccYRpEyv.s 			page 3


  88:Generated_Source\PSoC5/USBFS_std.c **** uint8 USBFS_HandleStandardRqst(void) 
  89:Generated_Source\PSoC5/USBFS_std.c **** {
  90:Generated_Source\PSoC5/USBFS_std.c ****     uint8 requestHandled = USBFS_FALSE;
  91:Generated_Source\PSoC5/USBFS_std.c ****     uint8 interfaceNumber;
  92:Generated_Source\PSoC5/USBFS_std.c ****     uint8 configurationN;
  93:Generated_Source\PSoC5/USBFS_std.c ****     #if defined(USBFS_ENABLE_STRINGS)
  94:Generated_Source\PSoC5/USBFS_std.c ****         volatile uint8 *pStr = 0u;
  95:Generated_Source\PSoC5/USBFS_std.c ****         #if defined(USBFS_ENABLE_DESCRIPTOR_STRINGS)
  96:Generated_Source\PSoC5/USBFS_std.c ****             uint8 nStr;
  97:Generated_Source\PSoC5/USBFS_std.c ****             uint8 descrLength;
  98:Generated_Source\PSoC5/USBFS_std.c ****         #endif /* USBFS_ENABLE_DESCRIPTOR_STRINGS */
  99:Generated_Source\PSoC5/USBFS_std.c ****     #endif /* USBFS_ENABLE_STRINGS */
 100:Generated_Source\PSoC5/USBFS_std.c ****     static volatile uint8 USBFS_tBuffer[USBFS_STATUS_LENGTH_MAX];
 101:Generated_Source\PSoC5/USBFS_std.c ****     const T_USBFS_LUT CYCODE *pTmp;
 102:Generated_Source\PSoC5/USBFS_std.c ****     USBFS_currentTD.count = 0u;
 103:Generated_Source\PSoC5/USBFS_std.c **** 
 104:Generated_Source\PSoC5/USBFS_std.c ****     if ((CY_GET_REG8(USBFS_bmRequestType) & USBFS_RQST_DIR_MASK) == USBFS_RQST_DIR_D2H)
 105:Generated_Source\PSoC5/USBFS_std.c ****     {
 106:Generated_Source\PSoC5/USBFS_std.c ****         /* Control Read */
 107:Generated_Source\PSoC5/USBFS_std.c ****         switch (CY_GET_REG8(USBFS_bRequest))
 108:Generated_Source\PSoC5/USBFS_std.c ****         {
 109:Generated_Source\PSoC5/USBFS_std.c ****             case USBFS_GET_DESCRIPTOR:
 110:Generated_Source\PSoC5/USBFS_std.c ****                 if (CY_GET_REG8(USBFS_wValueHi) == USBFS_DESCR_DEVICE)
 111:Generated_Source\PSoC5/USBFS_std.c ****                 {
 112:Generated_Source\PSoC5/USBFS_std.c ****                     pTmp = USBFS_GetDeviceTablePtr();
 113:Generated_Source\PSoC5/USBFS_std.c ****                     USBFS_currentTD.pData = (volatile uint8 *)pTmp->p_list;
 114:Generated_Source\PSoC5/USBFS_std.c ****                     USBFS_currentTD.count = USBFS_DEVICE_DESCR_LENGTH;
 115:Generated_Source\PSoC5/USBFS_std.c ****                     requestHandled  = USBFS_InitControlRead();
 116:Generated_Source\PSoC5/USBFS_std.c ****                 }
 117:Generated_Source\PSoC5/USBFS_std.c ****                 else if (CY_GET_REG8(USBFS_wValueHi) == USBFS_DESCR_CONFIG)
 118:Generated_Source\PSoC5/USBFS_std.c ****                 {
 119:Generated_Source\PSoC5/USBFS_std.c ****                     pTmp = USBFS_GetConfigTablePtr(CY_GET_REG8(USBFS_wValueLo));
 120:Generated_Source\PSoC5/USBFS_std.c ****                     if( pTmp != NULL )  /* Verify that requested descriptor exists */
 121:Generated_Source\PSoC5/USBFS_std.c ****                     {
 122:Generated_Source\PSoC5/USBFS_std.c ****                         USBFS_currentTD.pData = (volatile uint8 *)pTmp->p_list;
 123:Generated_Source\PSoC5/USBFS_std.c ****                         USBFS_currentTD.count = ((uint16)(USBFS_currentTD.pData)[ \
 124:Generated_Source\PSoC5/USBFS_std.c ****                                           USBFS_CONFIG_DESCR_TOTAL_LENGTH_HI] << 8u) | \
 125:Generated_Source\PSoC5/USBFS_std.c ****                                          (USBFS_currentTD.pData)[USBFS_CONFIG_DESCR_TOTAL_LENGTH_LO
 126:Generated_Source\PSoC5/USBFS_std.c ****                         requestHandled  = USBFS_InitControlRead();
 127:Generated_Source\PSoC5/USBFS_std.c ****                     }
 128:Generated_Source\PSoC5/USBFS_std.c ****                 }
 129:Generated_Source\PSoC5/USBFS_std.c ****                 #if defined(USBFS_ENABLE_STRINGS)
 130:Generated_Source\PSoC5/USBFS_std.c ****                 else if (CY_GET_REG8(USBFS_wValueHi) == USBFS_DESCR_STRING)
 131:Generated_Source\PSoC5/USBFS_std.c ****                 {
 132:Generated_Source\PSoC5/USBFS_std.c ****                     /* Descriptor Strings*/
 133:Generated_Source\PSoC5/USBFS_std.c ****                     #if defined(USBFS_ENABLE_DESCRIPTOR_STRINGS)
 134:Generated_Source\PSoC5/USBFS_std.c ****                         nStr = 0u;
 135:Generated_Source\PSoC5/USBFS_std.c ****                         pStr = (volatile uint8 *)&USBFS_STRING_DESCRIPTORS[0u];
 136:Generated_Source\PSoC5/USBFS_std.c ****                         while ( (CY_GET_REG8(USBFS_wValueLo) > nStr) && (*pStr != 0u) )
 137:Generated_Source\PSoC5/USBFS_std.c ****                         {
 138:Generated_Source\PSoC5/USBFS_std.c ****                             /* Read descriptor length from 1st byte */
 139:Generated_Source\PSoC5/USBFS_std.c ****                             descrLength = *pStr;
 140:Generated_Source\PSoC5/USBFS_std.c ****                             /* Move to next string descriptor */
 141:Generated_Source\PSoC5/USBFS_std.c ****                             pStr = &pStr[descrLength];
 142:Generated_Source\PSoC5/USBFS_std.c ****                             nStr++;
 143:Generated_Source\PSoC5/USBFS_std.c ****                         }
 144:Generated_Source\PSoC5/USBFS_std.c ****                     #endif /*  USBFS_ENABLE_DESCRIPTOR_STRINGS */
ARM GAS  C:\Users\RABBIT~1\AppData\Local\Temp\ccYRpEyv.s 			page 4


 145:Generated_Source\PSoC5/USBFS_std.c ****                     /* Microsoft OS String*/
 146:Generated_Source\PSoC5/USBFS_std.c ****                     #if defined(USBFS_ENABLE_MSOS_STRING)
 147:Generated_Source\PSoC5/USBFS_std.c ****                         if( CY_GET_REG8(USBFS_wValueLo) == USBFS_STRING_MSOS )
 148:Generated_Source\PSoC5/USBFS_std.c ****                         {
 149:Generated_Source\PSoC5/USBFS_std.c ****                             pStr = (volatile uint8 *)&USBFS_MSOS_DESCRIPTOR[0u];
 150:Generated_Source\PSoC5/USBFS_std.c ****                         }
 151:Generated_Source\PSoC5/USBFS_std.c ****                     #endif /*  USBFS_ENABLE_MSOS_STRING*/
 152:Generated_Source\PSoC5/USBFS_std.c ****                     /* SN string */
 153:Generated_Source\PSoC5/USBFS_std.c ****                     #if defined(USBFS_ENABLE_SN_STRING)
 154:Generated_Source\PSoC5/USBFS_std.c ****                         if( (CY_GET_REG8(USBFS_wValueLo) != 0u) &&
 155:Generated_Source\PSoC5/USBFS_std.c ****                             (CY_GET_REG8(USBFS_wValueLo) ==
 156:Generated_Source\PSoC5/USBFS_std.c ****                             USBFS_DEVICE0_DESCR[USBFS_DEVICE_DESCR_SN_SHIFT]) )
 157:Generated_Source\PSoC5/USBFS_std.c ****                         {
 158:Generated_Source\PSoC5/USBFS_std.c **** 
 159:Generated_Source\PSoC5/USBFS_std.c ****                             #if defined(USBFS_ENABLE_IDSN_STRING)
 160:Generated_Source\PSoC5/USBFS_std.c ****                                 /* Read DIE ID and generate string descriptor in RAM */
 161:Generated_Source\PSoC5/USBFS_std.c ****                                 USBFS_ReadDieID(USBFS_idSerialNumberStringDescriptor);
 162:Generated_Source\PSoC5/USBFS_std.c ****                                 pStr = USBFS_idSerialNumberStringDescriptor;
 163:Generated_Source\PSoC5/USBFS_std.c ****                             #elif defined(USBFS_ENABLE_FWSN_STRING)
 164:Generated_Source\PSoC5/USBFS_std.c ****                                 if(USBFS_snStringConfirm != USBFS_FALSE)
 165:Generated_Source\PSoC5/USBFS_std.c ****                                 {
 166:Generated_Source\PSoC5/USBFS_std.c ****                                     pStr = USBFS_fwSerialNumberStringDescriptor;
 167:Generated_Source\PSoC5/USBFS_std.c ****                                 }
 168:Generated_Source\PSoC5/USBFS_std.c ****                                 else
 169:Generated_Source\PSoC5/USBFS_std.c ****                                 {
 170:Generated_Source\PSoC5/USBFS_std.c ****                                     pStr = (volatile uint8 *)&USBFS_SN_STRING_DESCRIPTOR[0u];
 171:Generated_Source\PSoC5/USBFS_std.c ****                                 }
 172:Generated_Source\PSoC5/USBFS_std.c ****                             #else
 173:Generated_Source\PSoC5/USBFS_std.c ****                                 pStr = (volatile uint8 *)&USBFS_SN_STRING_DESCRIPTOR[0u];
 174:Generated_Source\PSoC5/USBFS_std.c ****                             #endif  /* defined(USBFS_ENABLE_IDSN_STRING) */
 175:Generated_Source\PSoC5/USBFS_std.c ****                         }
 176:Generated_Source\PSoC5/USBFS_std.c ****                     #endif    /*  USBFS_ENABLE_SN_STRING */
 177:Generated_Source\PSoC5/USBFS_std.c ****                     if (*pStr != 0u)
 178:Generated_Source\PSoC5/USBFS_std.c ****                     {
 179:Generated_Source\PSoC5/USBFS_std.c ****                         USBFS_currentTD.count = *pStr;
 180:Generated_Source\PSoC5/USBFS_std.c ****                         USBFS_currentTD.pData = pStr;
 181:Generated_Source\PSoC5/USBFS_std.c ****                         requestHandled  = USBFS_InitControlRead();
 182:Generated_Source\PSoC5/USBFS_std.c ****                     }
 183:Generated_Source\PSoC5/USBFS_std.c ****                 }
 184:Generated_Source\PSoC5/USBFS_std.c ****                 #endif /*  USBFS_ENABLE_STRINGS */
 185:Generated_Source\PSoC5/USBFS_std.c ****                 else
 186:Generated_Source\PSoC5/USBFS_std.c ****                 {
 187:Generated_Source\PSoC5/USBFS_std.c ****                     requestHandled = USBFS_DispatchClassRqst();
 188:Generated_Source\PSoC5/USBFS_std.c ****                 }
 189:Generated_Source\PSoC5/USBFS_std.c ****                 break;
 190:Generated_Source\PSoC5/USBFS_std.c ****             case USBFS_GET_STATUS:
 191:Generated_Source\PSoC5/USBFS_std.c ****                 switch ((CY_GET_REG8(USBFS_bmRequestType) & USBFS_RQST_RCPT_MASK))
 192:Generated_Source\PSoC5/USBFS_std.c ****                 {
 193:Generated_Source\PSoC5/USBFS_std.c ****                     case USBFS_RQST_RCPT_EP:
 194:Generated_Source\PSoC5/USBFS_std.c ****                         USBFS_currentTD.count = USBFS_EP_STATUS_LENGTH;
 195:Generated_Source\PSoC5/USBFS_std.c ****                         USBFS_tBuffer[0u] = USBFS_EP[ \
 196:Generated_Source\PSoC5/USBFS_std.c ****                                         CY_GET_REG8(USBFS_wIndexLo) & USBFS_DIR_UNUSED].hwEpState;
 197:Generated_Source\PSoC5/USBFS_std.c ****                         USBFS_tBuffer[1u] = 0u;
 198:Generated_Source\PSoC5/USBFS_std.c ****                         USBFS_currentTD.pData = &USBFS_tBuffer[0u];
 199:Generated_Source\PSoC5/USBFS_std.c ****                         requestHandled  = USBFS_InitControlRead();
 200:Generated_Source\PSoC5/USBFS_std.c ****                         break;
 201:Generated_Source\PSoC5/USBFS_std.c ****                     case USBFS_RQST_RCPT_DEV:
ARM GAS  C:\Users\RABBIT~1\AppData\Local\Temp\ccYRpEyv.s 			page 5


 202:Generated_Source\PSoC5/USBFS_std.c ****                         USBFS_currentTD.count = USBFS_DEVICE_STATUS_LENGTH;
 203:Generated_Source\PSoC5/USBFS_std.c ****                         USBFS_tBuffer[0u] = USBFS_deviceStatus;
 204:Generated_Source\PSoC5/USBFS_std.c ****                         USBFS_tBuffer[1u] = 0u;
 205:Generated_Source\PSoC5/USBFS_std.c ****                         USBFS_currentTD.pData = &USBFS_tBuffer[0u];
 206:Generated_Source\PSoC5/USBFS_std.c ****                         requestHandled  = USBFS_InitControlRead();
 207:Generated_Source\PSoC5/USBFS_std.c ****                         break;
 208:Generated_Source\PSoC5/USBFS_std.c ****                     default:    /* requestHandled is initialized as FALSE by default */
 209:Generated_Source\PSoC5/USBFS_std.c ****                         break;
 210:Generated_Source\PSoC5/USBFS_std.c ****                 }
 211:Generated_Source\PSoC5/USBFS_std.c ****                 break;
 212:Generated_Source\PSoC5/USBFS_std.c ****             case USBFS_GET_CONFIGURATION:
 213:Generated_Source\PSoC5/USBFS_std.c ****                 USBFS_currentTD.count = 1u;
 214:Generated_Source\PSoC5/USBFS_std.c ****                 USBFS_currentTD.pData = (volatile uint8 *)&USBFS_configuration;
 215:Generated_Source\PSoC5/USBFS_std.c ****                 requestHandled  = USBFS_InitControlRead();
 216:Generated_Source\PSoC5/USBFS_std.c ****                 break;
 217:Generated_Source\PSoC5/USBFS_std.c ****             case USBFS_GET_INTERFACE:
 218:Generated_Source\PSoC5/USBFS_std.c ****                 USBFS_currentTD.count = 1u;
 219:Generated_Source\PSoC5/USBFS_std.c ****                 USBFS_currentTD.pData = (volatile uint8 *)&USBFS_interfaceSetting[ \
 220:Generated_Source\PSoC5/USBFS_std.c ****                                                                             CY_GET_REG8(USBFS_wInde
 221:Generated_Source\PSoC5/USBFS_std.c ****                 requestHandled  = USBFS_InitControlRead();
 222:Generated_Source\PSoC5/USBFS_std.c ****                 break;
 223:Generated_Source\PSoC5/USBFS_std.c ****             default: /* requestHandled is initialized as FALSE by default */
 224:Generated_Source\PSoC5/USBFS_std.c ****                 break;
 225:Generated_Source\PSoC5/USBFS_std.c ****         }
 226:Generated_Source\PSoC5/USBFS_std.c ****     }
 227:Generated_Source\PSoC5/USBFS_std.c ****     else {
 228:Generated_Source\PSoC5/USBFS_std.c ****         /* Control Write */
 229:Generated_Source\PSoC5/USBFS_std.c ****         switch (CY_GET_REG8(USBFS_bRequest))
 230:Generated_Source\PSoC5/USBFS_std.c ****         {
 231:Generated_Source\PSoC5/USBFS_std.c ****             case USBFS_SET_ADDRESS:
 232:Generated_Source\PSoC5/USBFS_std.c ****                 USBFS_deviceAddress = CY_GET_REG8(USBFS_wValueLo);
 233:Generated_Source\PSoC5/USBFS_std.c ****                 requestHandled = USBFS_InitNoDataControlTransfer();
 234:Generated_Source\PSoC5/USBFS_std.c ****                 break;
 235:Generated_Source\PSoC5/USBFS_std.c ****             case USBFS_SET_CONFIGURATION:
 236:Generated_Source\PSoC5/USBFS_std.c ****                 configurationN = CY_GET_REG8(USBFS_wValueLo);
 237:Generated_Source\PSoC5/USBFS_std.c ****                 if(configurationN > 0u)
 238:Generated_Source\PSoC5/USBFS_std.c ****                 {   /* Verify that configuration descriptor exists */
 239:Generated_Source\PSoC5/USBFS_std.c ****                     pTmp = USBFS_GetConfigTablePtr(configurationN - 1u);
 240:Generated_Source\PSoC5/USBFS_std.c ****                 }
 241:Generated_Source\PSoC5/USBFS_std.c ****                 /* Responds with a Request Error when configuration number is invalid */
 242:Generated_Source\PSoC5/USBFS_std.c ****                 if (((configurationN > 0u) && (pTmp != NULL)) || (configurationN == 0u))
 243:Generated_Source\PSoC5/USBFS_std.c ****                 {
 244:Generated_Source\PSoC5/USBFS_std.c ****                     /* Set new configuration if it has been changed */
 245:Generated_Source\PSoC5/USBFS_std.c ****                     if(configurationN != USBFS_configuration)
 246:Generated_Source\PSoC5/USBFS_std.c ****                     {
 247:Generated_Source\PSoC5/USBFS_std.c ****                         USBFS_configuration = configurationN;
 248:Generated_Source\PSoC5/USBFS_std.c ****                         USBFS_configurationChanged = USBFS_TRUE;
 249:Generated_Source\PSoC5/USBFS_std.c ****                         USBFS_Config(USBFS_TRUE);
 250:Generated_Source\PSoC5/USBFS_std.c ****                     }
 251:Generated_Source\PSoC5/USBFS_std.c ****                     requestHandled = USBFS_InitNoDataControlTransfer();
 252:Generated_Source\PSoC5/USBFS_std.c ****                 }
 253:Generated_Source\PSoC5/USBFS_std.c ****                 break;
 254:Generated_Source\PSoC5/USBFS_std.c ****             case USBFS_SET_INTERFACE:
 255:Generated_Source\PSoC5/USBFS_std.c ****                 if (USBFS_ValidateAlternateSetting() != 0u)
 256:Generated_Source\PSoC5/USBFS_std.c ****                 {
 257:Generated_Source\PSoC5/USBFS_std.c ****                     interfaceNumber = CY_GET_REG8(USBFS_wIndexLo);
 258:Generated_Source\PSoC5/USBFS_std.c ****                     USBFS_interfaceNumber = interfaceNumber;
ARM GAS  C:\Users\RABBIT~1\AppData\Local\Temp\ccYRpEyv.s 			page 6


 259:Generated_Source\PSoC5/USBFS_std.c ****                     USBFS_configurationChanged = USBFS_TRUE;
 260:Generated_Source\PSoC5/USBFS_std.c ****                     #if ((USBFS_EP_MA == USBFS__MA_DYNAMIC) && \
 261:Generated_Source\PSoC5/USBFS_std.c ****                          (USBFS_EP_MM == USBFS__EP_MANUAL) )
 262:Generated_Source\PSoC5/USBFS_std.c ****                         USBFS_Config(USBFS_FALSE);
 263:Generated_Source\PSoC5/USBFS_std.c ****                     #else
 264:Generated_Source\PSoC5/USBFS_std.c ****                         USBFS_ConfigAltChanged();
 265:Generated_Source\PSoC5/USBFS_std.c ****                     #endif /*  (USBFS_EP_MA == USBFS__MA_DYNAMIC) */
 266:Generated_Source\PSoC5/USBFS_std.c ****                     /* Update handled Alt setting changes status */
 267:Generated_Source\PSoC5/USBFS_std.c ****                     USBFS_interfaceSetting_last[interfaceNumber] =
 268:Generated_Source\PSoC5/USBFS_std.c ****                          USBFS_interfaceSetting[interfaceNumber];
 269:Generated_Source\PSoC5/USBFS_std.c ****                     requestHandled = USBFS_InitNoDataControlTransfer();
 270:Generated_Source\PSoC5/USBFS_std.c ****                 }
 271:Generated_Source\PSoC5/USBFS_std.c ****                 break;
 272:Generated_Source\PSoC5/USBFS_std.c ****             case USBFS_CLEAR_FEATURE:
 273:Generated_Source\PSoC5/USBFS_std.c ****                 switch (CY_GET_REG8(USBFS_bmRequestType) & USBFS_RQST_RCPT_MASK)
 274:Generated_Source\PSoC5/USBFS_std.c ****                 {
 275:Generated_Source\PSoC5/USBFS_std.c ****                     case USBFS_RQST_RCPT_EP:
 276:Generated_Source\PSoC5/USBFS_std.c ****                         if (CY_GET_REG8(USBFS_wValueLo) == USBFS_ENDPOINT_HALT)
 277:Generated_Source\PSoC5/USBFS_std.c ****                         {
 278:Generated_Source\PSoC5/USBFS_std.c ****                             requestHandled = USBFS_ClearEndpointHalt();
 279:Generated_Source\PSoC5/USBFS_std.c ****                         }
 280:Generated_Source\PSoC5/USBFS_std.c ****                         break;
 281:Generated_Source\PSoC5/USBFS_std.c ****                     case USBFS_RQST_RCPT_DEV:
 282:Generated_Source\PSoC5/USBFS_std.c ****                         /* Clear device REMOTE_WAKEUP */
 283:Generated_Source\PSoC5/USBFS_std.c ****                         if (CY_GET_REG8(USBFS_wValueLo) == USBFS_DEVICE_REMOTE_WAKEUP)
 284:Generated_Source\PSoC5/USBFS_std.c ****                         {
 285:Generated_Source\PSoC5/USBFS_std.c ****                             USBFS_deviceStatus &= (uint8)~USBFS_DEVICE_STATUS_REMOTE_WAKEUP;
 286:Generated_Source\PSoC5/USBFS_std.c ****                             requestHandled = USBFS_InitNoDataControlTransfer();
 287:Generated_Source\PSoC5/USBFS_std.c ****                         }
 288:Generated_Source\PSoC5/USBFS_std.c ****                         break;
 289:Generated_Source\PSoC5/USBFS_std.c ****                     case USBFS_RQST_RCPT_IFC:
 290:Generated_Source\PSoC5/USBFS_std.c ****                         /* Validate interfaceNumber */
 291:Generated_Source\PSoC5/USBFS_std.c ****                         if (CY_GET_REG8(USBFS_wIndexLo) < USBFS_MAX_INTERFACES_NUMBER)
 292:Generated_Source\PSoC5/USBFS_std.c ****                         {
 293:Generated_Source\PSoC5/USBFS_std.c ****                             USBFS_interfaceStatus[CY_GET_REG8(USBFS_wIndexLo)] &=
 294:Generated_Source\PSoC5/USBFS_std.c ****                                                                 (uint8)~(CY_GET_REG8(USBFS_wValueLo
 295:Generated_Source\PSoC5/USBFS_std.c ****                             requestHandled = USBFS_InitNoDataControlTransfer();
 296:Generated_Source\PSoC5/USBFS_std.c ****                         }
 297:Generated_Source\PSoC5/USBFS_std.c ****                         break;
 298:Generated_Source\PSoC5/USBFS_std.c ****                     default:    /* requestHandled is initialized as FALSE by default */
 299:Generated_Source\PSoC5/USBFS_std.c ****                         break;
 300:Generated_Source\PSoC5/USBFS_std.c ****                 }
 301:Generated_Source\PSoC5/USBFS_std.c ****                 break;
 302:Generated_Source\PSoC5/USBFS_std.c ****             case USBFS_SET_FEATURE:
 303:Generated_Source\PSoC5/USBFS_std.c ****                 switch (CY_GET_REG8(USBFS_bmRequestType) & USBFS_RQST_RCPT_MASK)
 304:Generated_Source\PSoC5/USBFS_std.c ****                 {
 305:Generated_Source\PSoC5/USBFS_std.c ****                     case USBFS_RQST_RCPT_EP:
 306:Generated_Source\PSoC5/USBFS_std.c ****                         if (CY_GET_REG8(USBFS_wValueLo) == USBFS_ENDPOINT_HALT)
 307:Generated_Source\PSoC5/USBFS_std.c ****                         {
 308:Generated_Source\PSoC5/USBFS_std.c ****                             requestHandled = USBFS_SetEndpointHalt();
 309:Generated_Source\PSoC5/USBFS_std.c ****                         }
 310:Generated_Source\PSoC5/USBFS_std.c ****                         break;
 311:Generated_Source\PSoC5/USBFS_std.c ****                     case USBFS_RQST_RCPT_DEV:
 312:Generated_Source\PSoC5/USBFS_std.c ****                         /* Set device REMOTE_WAKEUP */
 313:Generated_Source\PSoC5/USBFS_std.c ****                         if (CY_GET_REG8(USBFS_wValueLo) == USBFS_DEVICE_REMOTE_WAKEUP)
 314:Generated_Source\PSoC5/USBFS_std.c ****                         {
 315:Generated_Source\PSoC5/USBFS_std.c ****                             USBFS_deviceStatus |= USBFS_DEVICE_STATUS_REMOTE_WAKEUP;
ARM GAS  C:\Users\RABBIT~1\AppData\Local\Temp\ccYRpEyv.s 			page 7


 316:Generated_Source\PSoC5/USBFS_std.c ****                             requestHandled = USBFS_InitNoDataControlTransfer();
 317:Generated_Source\PSoC5/USBFS_std.c ****                         }
 318:Generated_Source\PSoC5/USBFS_std.c ****                         break;
 319:Generated_Source\PSoC5/USBFS_std.c ****                     case USBFS_RQST_RCPT_IFC:
 320:Generated_Source\PSoC5/USBFS_std.c ****                         /* Validate interfaceNumber */
 321:Generated_Source\PSoC5/USBFS_std.c ****                         if (CY_GET_REG8(USBFS_wIndexLo) < USBFS_MAX_INTERFACES_NUMBER)
 322:Generated_Source\PSoC5/USBFS_std.c ****                         {
 323:Generated_Source\PSoC5/USBFS_std.c ****                             USBFS_interfaceStatus[CY_GET_REG8(USBFS_wIndexLo)] &=
 324:Generated_Source\PSoC5/USBFS_std.c ****                                                                 (uint8)~(CY_GET_REG8(USBFS_wValueLo
 325:Generated_Source\PSoC5/USBFS_std.c ****                             requestHandled = USBFS_InitNoDataControlTransfer();
 326:Generated_Source\PSoC5/USBFS_std.c ****                         }
 327:Generated_Source\PSoC5/USBFS_std.c ****                         break;
 328:Generated_Source\PSoC5/USBFS_std.c ****                     default:    /* requestHandled is initialized as FALSE by default */
 329:Generated_Source\PSoC5/USBFS_std.c ****                         break;
 330:Generated_Source\PSoC5/USBFS_std.c ****                 }
 331:Generated_Source\PSoC5/USBFS_std.c ****                 break;
 332:Generated_Source\PSoC5/USBFS_std.c ****             default:    /* requestHandled is initialized as FALSE by default */
 333:Generated_Source\PSoC5/USBFS_std.c ****                 break;
 334:Generated_Source\PSoC5/USBFS_std.c ****         }
 335:Generated_Source\PSoC5/USBFS_std.c ****     }
 336:Generated_Source\PSoC5/USBFS_std.c ****     return(requestHandled);
 337:Generated_Source\PSoC5/USBFS_std.c **** }
 338:Generated_Source\PSoC5/USBFS_std.c **** 
 339:Generated_Source\PSoC5/USBFS_std.c **** 
 340:Generated_Source\PSoC5/USBFS_std.c **** #if defined(USBFS_ENABLE_IDSN_STRING)
 341:Generated_Source\PSoC5/USBFS_std.c **** 
 342:Generated_Source\PSoC5/USBFS_std.c ****     /***************************************************************************
 343:Generated_Source\PSoC5/USBFS_std.c ****     * Function Name: USBFS_ReadDieID
 344:Generated_Source\PSoC5/USBFS_std.c ****     ****************************************************************************
 345:Generated_Source\PSoC5/USBFS_std.c ****     *
 346:Generated_Source\PSoC5/USBFS_std.c ****     * Summary:
 347:Generated_Source\PSoC5/USBFS_std.c ****     *  This routine read Die ID and generate Serial Number string descriptor.
 348:Generated_Source\PSoC5/USBFS_std.c ****     *
 349:Generated_Source\PSoC5/USBFS_std.c ****     * Parameters:
 350:Generated_Source\PSoC5/USBFS_std.c ****     *  descr:  pointer on string descriptor.
 351:Generated_Source\PSoC5/USBFS_std.c ****     *
 352:Generated_Source\PSoC5/USBFS_std.c ****     * Return:
 353:Generated_Source\PSoC5/USBFS_std.c ****     *  None.
 354:Generated_Source\PSoC5/USBFS_std.c ****     *
 355:Generated_Source\PSoC5/USBFS_std.c ****     * Reentrant:
 356:Generated_Source\PSoC5/USBFS_std.c ****     *  No.
 357:Generated_Source\PSoC5/USBFS_std.c ****     *
 358:Generated_Source\PSoC5/USBFS_std.c ****     ***************************************************************************/
 359:Generated_Source\PSoC5/USBFS_std.c ****     void USBFS_ReadDieID(uint8 descr[]) 
 360:Generated_Source\PSoC5/USBFS_std.c ****     {
 361:Generated_Source\PSoC5/USBFS_std.c ****         uint8 i;
 362:Generated_Source\PSoC5/USBFS_std.c ****         uint8 j = 0u;
 363:Generated_Source\PSoC5/USBFS_std.c ****         uint8 value;
 364:Generated_Source\PSoC5/USBFS_std.c ****         const char8 CYCODE hex[16u] = "0123456789ABCDEF";
 365:Generated_Source\PSoC5/USBFS_std.c **** 
 366:Generated_Source\PSoC5/USBFS_std.c ****         /* Check descriptor validation */
 367:Generated_Source\PSoC5/USBFS_std.c ****         if( descr != NULL)
 368:Generated_Source\PSoC5/USBFS_std.c ****         {
 369:Generated_Source\PSoC5/USBFS_std.c ****             descr[0u] = USBFS_IDSN_DESCR_LENGTH;
 370:Generated_Source\PSoC5/USBFS_std.c ****             descr[1u] = USBFS_DESCR_STRING;
 371:Generated_Source\PSoC5/USBFS_std.c **** 
 372:Generated_Source\PSoC5/USBFS_std.c ****             /* fill descriptor */
ARM GAS  C:\Users\RABBIT~1\AppData\Local\Temp\ccYRpEyv.s 			page 8


 373:Generated_Source\PSoC5/USBFS_std.c ****             for(i = 2u; i < USBFS_IDSN_DESCR_LENGTH; i += 4u)
 374:Generated_Source\PSoC5/USBFS_std.c ****             {
 375:Generated_Source\PSoC5/USBFS_std.c ****                 value = CY_GET_XTND_REG8((void CYFAR *)(USBFS_DIE_ID + j));
 376:Generated_Source\PSoC5/USBFS_std.c ****                 j++;
 377:Generated_Source\PSoC5/USBFS_std.c ****                 descr[i] = (uint8)hex[value >> 4u];
 378:Generated_Source\PSoC5/USBFS_std.c ****                 descr[i + 2u] = (uint8)hex[value & 0x0Fu];
 379:Generated_Source\PSoC5/USBFS_std.c ****             }
 380:Generated_Source\PSoC5/USBFS_std.c ****         }
 381:Generated_Source\PSoC5/USBFS_std.c ****     }
 382:Generated_Source\PSoC5/USBFS_std.c **** 
 383:Generated_Source\PSoC5/USBFS_std.c **** #endif /*  USBFS_ENABLE_IDSN_STRING */
 384:Generated_Source\PSoC5/USBFS_std.c **** 
 385:Generated_Source\PSoC5/USBFS_std.c **** 
 386:Generated_Source\PSoC5/USBFS_std.c **** /*******************************************************************************
 387:Generated_Source\PSoC5/USBFS_std.c **** * Function Name: USBFS_ConfigReg
 388:Generated_Source\PSoC5/USBFS_std.c **** ********************************************************************************
 389:Generated_Source\PSoC5/USBFS_std.c **** *
 390:Generated_Source\PSoC5/USBFS_std.c **** * Summary:
 391:Generated_Source\PSoC5/USBFS_std.c **** *  This routine configures hardware registers from the variables.
 392:Generated_Source\PSoC5/USBFS_std.c **** *  It is called from USBFS_Config() function and from RestoreConfig
 393:Generated_Source\PSoC5/USBFS_std.c **** *  after Wakeup.
 394:Generated_Source\PSoC5/USBFS_std.c **** *
 395:Generated_Source\PSoC5/USBFS_std.c **** * Parameters:
 396:Generated_Source\PSoC5/USBFS_std.c **** *  None.
 397:Generated_Source\PSoC5/USBFS_std.c **** *
 398:Generated_Source\PSoC5/USBFS_std.c **** * Return:
 399:Generated_Source\PSoC5/USBFS_std.c **** *  None.
 400:Generated_Source\PSoC5/USBFS_std.c **** *
 401:Generated_Source\PSoC5/USBFS_std.c **** *******************************************************************************/
 402:Generated_Source\PSoC5/USBFS_std.c **** void USBFS_ConfigReg(void) 
 403:Generated_Source\PSoC5/USBFS_std.c **** {
  28              		.loc 1 403 0
  29              		.cfi_startproc
  30              		@ args = 0, pretend = 0, frame = 0
  31              		@ frame_needed = 0, uses_anonymous_args = 0
  32              	.LVL0:
  33 0000 F0B5     		push	{r4, r5, r6, r7, lr}
  34              		.cfi_def_cfa_offset 20
  35              		.cfi_offset 4, -20
  36              		.cfi_offset 5, -16
  37              		.cfi_offset 6, -12
  38              		.cfi_offset 7, -8
  39              		.cfi_offset 14, -4
 404:Generated_Source\PSoC5/USBFS_std.c ****     uint8 ep;
 405:Generated_Source\PSoC5/USBFS_std.c ****     uint8 i;
 406:Generated_Source\PSoC5/USBFS_std.c ****     #if(USBFS_EP_MM == USBFS__EP_DMAAUTO)
 407:Generated_Source\PSoC5/USBFS_std.c ****         uint8 epType = 0u;
 408:Generated_Source\PSoC5/USBFS_std.c ****     #endif /*  USBFS_EP_MM == USBFS__EP_DMAAUTO */
 409:Generated_Source\PSoC5/USBFS_std.c **** 
 410:Generated_Source\PSoC5/USBFS_std.c ****     /* Set the endpoint buffer addresses */
 411:Generated_Source\PSoC5/USBFS_std.c ****     ep = USBFS_EP1;
 412:Generated_Source\PSoC5/USBFS_std.c ****     for (i = 0u; i < 0x80u; i+= 0x10u)
 413:Generated_Source\PSoC5/USBFS_std.c ****     {
 414:Generated_Source\PSoC5/USBFS_std.c ****         CY_SET_REG8((reg8 *)(USBFS_ARB_EP1_CFG_IND + i), USBFS_ARB_EPX_CFG_DEFAULT);
 415:Generated_Source\PSoC5/USBFS_std.c ****         #if(USBFS_EP_MM != USBFS__EP_MANUAL)
 416:Generated_Source\PSoC5/USBFS_std.c ****             /* Enable all Arbiter EP Interrupts : err, buf under, buf over, dma gnt(mode2 only), in
 417:Generated_Source\PSoC5/USBFS_std.c ****             CY_SET_REG8((reg8 *)(USBFS_ARB_EP1_INT_EN_IND + i), USBFS_ARB_EPX_INT_MASK);
ARM GAS  C:\Users\RABBIT~1\AppData\Local\Temp\ccYRpEyv.s 			page 9


 418:Generated_Source\PSoC5/USBFS_std.c ****         #endif   /*  USBFS_EP_MM != USBFS__EP_MANUAL */
 419:Generated_Source\PSoC5/USBFS_std.c **** 
 420:Generated_Source\PSoC5/USBFS_std.c ****         if(USBFS_EP[ep].epMode != USBFS_MODE_DISABLE)
  40              		.loc 1 420 0
  41 0002 1F4D     		ldr	r5, .L8
 403:Generated_Source\PSoC5/USBFS_std.c ****     uint8 ep;
  42              		.loc 1 403 0
  43 0004 1F4B     		ldr	r3, .L8+4
  44 0006 2F46     		mov	r7, r5
 412:Generated_Source\PSoC5/USBFS_std.c ****     {
  45              		.loc 1 412 0
  46 0008 1F4E     		ldr	r6, .L8+8
 403:Generated_Source\PSoC5/USBFS_std.c ****     uint8 ep;
  47              		.loc 1 403 0
  48 000a 0121     		movs	r1, #1
 414:Generated_Source\PSoC5/USBFS_std.c ****         #if(USBFS_EP_MM != USBFS__EP_MANUAL)
  49              		.loc 1 414 0
  50 000c 0C20     		movs	r0, #12
 421:Generated_Source\PSoC5/USBFS_std.c ****         {
 422:Generated_Source\PSoC5/USBFS_std.c ****             if((USBFS_EP[ep].addr & USBFS_DIR_IN) != 0u )
 423:Generated_Source\PSoC5/USBFS_std.c ****             {
 424:Generated_Source\PSoC5/USBFS_std.c ****                 CY_SET_REG8((reg8 *)(USBFS_SIE_EP1_CR0_IND + i), USBFS_MODE_NAK_IN);
 425:Generated_Source\PSoC5/USBFS_std.c ****             }
 426:Generated_Source\PSoC5/USBFS_std.c ****             else
 427:Generated_Source\PSoC5/USBFS_std.c ****             {
 428:Generated_Source\PSoC5/USBFS_std.c ****                 CY_SET_REG8((reg8 *)(USBFS_SIE_EP1_CR0_IND + i), USBFS_MODE_NAK_OUT);
 429:Generated_Source\PSoC5/USBFS_std.c ****                 /* Prepare EP type mask for automatic memory allocation */
 430:Generated_Source\PSoC5/USBFS_std.c ****                 #if(USBFS_EP_MM == USBFS__EP_DMAAUTO)
 431:Generated_Source\PSoC5/USBFS_std.c ****                     epType |= (uint8)(0x01u << (ep - USBFS_EP1));
 432:Generated_Source\PSoC5/USBFS_std.c ****                 #endif /*  USBFS_EP_MM == USBFS__EP_DMAAUTO */
 433:Generated_Source\PSoC5/USBFS_std.c ****             }
 434:Generated_Source\PSoC5/USBFS_std.c ****         }
 435:Generated_Source\PSoC5/USBFS_std.c ****         else
 436:Generated_Source\PSoC5/USBFS_std.c ****         {
 437:Generated_Source\PSoC5/USBFS_std.c ****             CY_SET_REG8((reg8 *)(USBFS_SIE_EP1_CR0_IND + i), USBFS_MODE_STALL_DATA_EP);
  51              		.loc 1 437 0
  52 000e 4FF0800E 		mov	lr, #128
 428:Generated_Source\PSoC5/USBFS_std.c ****                 /* Prepare EP type mask for automatic memory allocation */
  53              		.loc 1 428 0
  54 0012 4FF0080C 		mov	ip, #8
  55              	.LVL1:
  56              	.L5:
 420:Generated_Source\PSoC5/USBFS_std.c ****         {
  57              		.loc 1 420 0
  58 0016 00FB0152 		mla	r2, r0, r1, r5
 414:Generated_Source\PSoC5/USBFS_std.c ****         #if(USBFS_EP_MM != USBFS__EP_MANUAL)
  59              		.loc 1 414 0
  60 001a 83F87200 		strb	r0, [r3, #114]
 420:Generated_Source\PSoC5/USBFS_std.c ****         {
  61              		.loc 1 420 0
  62 001e 5479     		ldrb	r4, [r2, #5]	@ zero_extendqisi2
  63 0020 34B1     		cbz	r4, .L2
 422:Generated_Source\PSoC5/USBFS_std.c ****             {
  64              		.loc 1 422 0
  65 0022 1279     		ldrb	r2, [r2, #4]	@ zero_extendqisi2
  66 0024 1206     		lsls	r2, r2, #24
 424:Generated_Source\PSoC5/USBFS_std.c ****             }
ARM GAS  C:\Users\RABBIT~1\AppData\Local\Temp\ccYRpEyv.s 			page 10


  67              		.loc 1 424 0
  68 0026 4CBF     		ite	mi
  69 0028 1870     		strbmi	r0, [r3]
 428:Generated_Source\PSoC5/USBFS_std.c ****                 /* Prepare EP type mask for automatic memory allocation */
  70              		.loc 1 428 0
  71 002a 83F800C0 		strbpl	ip, [r3]
  72 002e 01E0     		b	.L4
  73              	.L2:
  74              		.loc 1 437 0
  75 0030 83F800E0 		strb	lr, [r3]
  76              	.L4:
 438:Generated_Source\PSoC5/USBFS_std.c ****         }
 439:Generated_Source\PSoC5/USBFS_std.c **** 
 440:Generated_Source\PSoC5/USBFS_std.c ****         #if(USBFS_EP_MM != USBFS__EP_DMAAUTO)
 441:Generated_Source\PSoC5/USBFS_std.c ****             CY_SET_REG8((reg8 *)(USBFS_SIE_EP1_CNT0_IND + i),   USBFS_EP[ep].bufferSize >> 8u);
  77              		.loc 1 441 0 discriminator 2
  78 0034 00FB0172 		mla	r2, r0, r1, r7
  79 0038 1489     		ldrh	r4, [r2, #8]
  80 003a 1033     		adds	r3, r3, #16
  81              	.LVL2:
  82 003c C4F30724 		ubfx	r4, r4, #8, #8
  83 0040 03F8124C 		strb	r4, [r3, #-18]
 442:Generated_Source\PSoC5/USBFS_std.c ****             CY_SET_REG8((reg8 *)(USBFS_SIE_EP1_CNT1_IND + i),   USBFS_EP[ep].bufferSize & 0xFFu);
  84              		.loc 1 442 0 discriminator 2
  85 0044 1489     		ldrh	r4, [r2, #8]
  86 0046 0131     		adds	r1, r1, #1
  87              	.LVL3:
  88 0048 E4B2     		uxtb	r4, r4
  89 004a 03F8114C 		strb	r4, [r3, #-17]
 443:Generated_Source\PSoC5/USBFS_std.c **** 
 444:Generated_Source\PSoC5/USBFS_std.c ****             CY_SET_REG8((reg8 *)(USBFS_ARB_RW1_RA_IND + i),     USBFS_EP[ep].buffOffset & 0xFFu);
  90              		.loc 1 444 0 discriminator 2
  91 004e D488     		ldrh	r4, [r2, #6]
  92 0050 E4B2     		uxtb	r4, r4
  93 0052 83F86840 		strb	r4, [r3, #104]
 445:Generated_Source\PSoC5/USBFS_std.c ****             CY_SET_REG8((reg8 *)(USBFS_ARB_RW1_RA_MSB_IND + i), USBFS_EP[ep].buffOffset >> 8u);
  94              		.loc 1 445 0 discriminator 2
  95 0056 D488     		ldrh	r4, [r2, #6]
  96 0058 C4F30724 		ubfx	r4, r4, #8, #8
  97 005c 83F86940 		strb	r4, [r3, #105]
 446:Generated_Source\PSoC5/USBFS_std.c ****             CY_SET_REG8((reg8 *)(USBFS_ARB_RW1_WA_IND + i),     USBFS_EP[ep].buffOffset & 0xFFu);
  98              		.loc 1 446 0 discriminator 2
  99 0060 D488     		ldrh	r4, [r2, #6]
 100 0062 E4B2     		uxtb	r4, r4
 101 0064 83F86640 		strb	r4, [r3, #102]
 447:Generated_Source\PSoC5/USBFS_std.c ****             CY_SET_REG8((reg8 *)(USBFS_ARB_RW1_WA_MSB_IND + i), USBFS_EP[ep].buffOffset >> 8u);
 102              		.loc 1 447 0 discriminator 2
 103 0068 D288     		ldrh	r2, [r2, #6]
 104 006a C2F30722 		ubfx	r2, r2, #8, #8
 105 006e 83F86720 		strb	r2, [r3, #103]
 106              	.LVL4:
 412:Generated_Source\PSoC5/USBFS_std.c ****     {
 107              		.loc 1 412 0 discriminator 2
 108 0072 B342     		cmp	r3, r6
 109 0074 CFD1     		bne	.L5
 448:Generated_Source\PSoC5/USBFS_std.c ****         #endif /*  USBFS_EP_MM != USBFS__EP_DMAAUTO */
 449:Generated_Source\PSoC5/USBFS_std.c **** 
ARM GAS  C:\Users\RABBIT~1\AppData\Local\Temp\ccYRpEyv.s 			page 11


 450:Generated_Source\PSoC5/USBFS_std.c ****         ep++;
 451:Generated_Source\PSoC5/USBFS_std.c ****     }
 452:Generated_Source\PSoC5/USBFS_std.c **** 
 453:Generated_Source\PSoC5/USBFS_std.c ****     #if(USBFS_EP_MM == USBFS__EP_DMAAUTO)
 454:Generated_Source\PSoC5/USBFS_std.c ****          /* BUF_SIZE depend on DMA_THRESS value: 55-32 bytes  44-16 bytes 33-8 bytes 22-4 bytes 11-
 455:Generated_Source\PSoC5/USBFS_std.c ****         USBFS_BUF_SIZE_REG = USBFS_DMA_BUF_SIZE;
 456:Generated_Source\PSoC5/USBFS_std.c ****         USBFS_DMA_THRES_REG = USBFS_DMA_BYTES_PER_BURST;   /* DMA burst threshold */
 457:Generated_Source\PSoC5/USBFS_std.c ****         USBFS_DMA_THRES_MSB_REG = 0u;
 458:Generated_Source\PSoC5/USBFS_std.c ****         USBFS_EP_ACTIVE_REG = USBFS_ARB_INT_MASK;
 459:Generated_Source\PSoC5/USBFS_std.c ****         USBFS_EP_TYPE_REG = epType;
 460:Generated_Source\PSoC5/USBFS_std.c ****         /* Cfg_cmp bit set to 1 once configuration is complete. */
 461:Generated_Source\PSoC5/USBFS_std.c ****         USBFS_ARB_CFG_REG = USBFS_ARB_CFG_AUTO_DMA | USBFS_ARB_CFG_AUTO_MEM |
 462:Generated_Source\PSoC5/USBFS_std.c ****                                        USBFS_ARB_CFG_CFG_CPM;
 463:Generated_Source\PSoC5/USBFS_std.c ****         /* Cfg_cmp bit set to 0 during configuration of PFSUSB Registers. */
 464:Generated_Source\PSoC5/USBFS_std.c ****         USBFS_ARB_CFG_REG = USBFS_ARB_CFG_AUTO_DMA | USBFS_ARB_CFG_AUTO_MEM;
 465:Generated_Source\PSoC5/USBFS_std.c ****     #endif /*  USBFS_EP_MM == USBFS__EP_DMAAUTO */
 466:Generated_Source\PSoC5/USBFS_std.c **** 
 467:Generated_Source\PSoC5/USBFS_std.c ****     CY_SET_REG8(USBFS_SIE_EP_INT_EN_PTR, 0xFFu);
 110              		.loc 1 467 0
 111 0076 054B     		ldr	r3, .L8+12
 112              	.LVL5:
 113 0078 FF22     		movs	r2, #255
 114 007a 1A70     		strb	r2, [r3]
 115 007c F0BD     		pop	{r4, r5, r6, r7, pc}
 116              	.L9:
 117 007e 00BF     		.align	2
 118              	.L8:
 119 0080 00000000 		.word	USBFS_EP
 120 0084 0E600040 		.word	1073766414
 121 0088 8E600040 		.word	1073766542
 122 008c 0A600040 		.word	1073766410
 123              		.cfi_endproc
 124              	.LFE1:
 125              		.size	USBFS_ConfigReg, .-USBFS_ConfigReg
 126              		.section	.text.USBFS_GetConfigTablePtr,"ax",%progbits
 127              		.align	1
 128              		.global	USBFS_GetConfigTablePtr
 129              		.thumb
 130              		.thumb_func
 131              		.type	USBFS_GetConfigTablePtr, %function
 132              	USBFS_GetConfigTablePtr:
 133              	.LFB4:
 468:Generated_Source\PSoC5/USBFS_std.c **** }
 469:Generated_Source\PSoC5/USBFS_std.c **** 
 470:Generated_Source\PSoC5/USBFS_std.c **** 
 471:Generated_Source\PSoC5/USBFS_std.c **** /*******************************************************************************
 472:Generated_Source\PSoC5/USBFS_std.c **** * Function Name: USBFS_Config
 473:Generated_Source\PSoC5/USBFS_std.c **** ********************************************************************************
 474:Generated_Source\PSoC5/USBFS_std.c **** *
 475:Generated_Source\PSoC5/USBFS_std.c **** * Summary:
 476:Generated_Source\PSoC5/USBFS_std.c **** *  This routine configures endpoints for the entire configuration by scanning
 477:Generated_Source\PSoC5/USBFS_std.c **** *  the configuration descriptor.
 478:Generated_Source\PSoC5/USBFS_std.c **** *
 479:Generated_Source\PSoC5/USBFS_std.c **** * Parameters:
 480:Generated_Source\PSoC5/USBFS_std.c **** *  clearAltSetting: It configures the bAlternateSetting 0 for each interface.
 481:Generated_Source\PSoC5/USBFS_std.c **** *
 482:Generated_Source\PSoC5/USBFS_std.c **** * Return:
ARM GAS  C:\Users\RABBIT~1\AppData\Local\Temp\ccYRpEyv.s 			page 12


 483:Generated_Source\PSoC5/USBFS_std.c **** *  None.
 484:Generated_Source\PSoC5/USBFS_std.c **** *
 485:Generated_Source\PSoC5/USBFS_std.c **** * USBFS_interfaceClass - Initialized class array for each interface.
 486:Generated_Source\PSoC5/USBFS_std.c **** *   It is used for handling Class specific requests depend on interface class.
 487:Generated_Source\PSoC5/USBFS_std.c **** *   Different classes in multiple Alternate settings does not supported.
 488:Generated_Source\PSoC5/USBFS_std.c **** *
 489:Generated_Source\PSoC5/USBFS_std.c **** * Reentrant:
 490:Generated_Source\PSoC5/USBFS_std.c **** *  No.
 491:Generated_Source\PSoC5/USBFS_std.c **** *
 492:Generated_Source\PSoC5/USBFS_std.c **** *******************************************************************************/
 493:Generated_Source\PSoC5/USBFS_std.c **** void USBFS_Config(uint8 clearAltSetting) 
 494:Generated_Source\PSoC5/USBFS_std.c **** {
 495:Generated_Source\PSoC5/USBFS_std.c ****     uint8 ep;
 496:Generated_Source\PSoC5/USBFS_std.c ****     uint8 cur_ep;
 497:Generated_Source\PSoC5/USBFS_std.c ****     uint8 i;
 498:Generated_Source\PSoC5/USBFS_std.c ****     uint8 epType;
 499:Generated_Source\PSoC5/USBFS_std.c ****     const uint8 *pDescr;
 500:Generated_Source\PSoC5/USBFS_std.c ****     #if(USBFS_EP_MM != USBFS__EP_DMAAUTO)
 501:Generated_Source\PSoC5/USBFS_std.c ****         uint16 buffCount = 0u;
 502:Generated_Source\PSoC5/USBFS_std.c ****     #endif /*  USBFS_EP_MM != USBFS__EP_DMAAUTO */
 503:Generated_Source\PSoC5/USBFS_std.c **** 
 504:Generated_Source\PSoC5/USBFS_std.c ****     const T_USBFS_LUT CYCODE *pTmp;
 505:Generated_Source\PSoC5/USBFS_std.c ****     const T_USBFS_EP_SETTINGS_BLOCK CYCODE *pEP;
 506:Generated_Source\PSoC5/USBFS_std.c **** 
 507:Generated_Source\PSoC5/USBFS_std.c ****     /* Clear all of the endpoints */
 508:Generated_Source\PSoC5/USBFS_std.c ****     for (ep = 0u; ep < USBFS_MAX_EP; ep++)
 509:Generated_Source\PSoC5/USBFS_std.c ****     {
 510:Generated_Source\PSoC5/USBFS_std.c ****         USBFS_EP[ep].attrib = 0u;
 511:Generated_Source\PSoC5/USBFS_std.c ****         USBFS_EP[ep].hwEpState = 0u;
 512:Generated_Source\PSoC5/USBFS_std.c ****         USBFS_EP[ep].apiEpState = USBFS_NO_EVENT_PENDING;
 513:Generated_Source\PSoC5/USBFS_std.c ****         USBFS_EP[ep].epToggle = 0u;
 514:Generated_Source\PSoC5/USBFS_std.c ****         USBFS_EP[ep].epMode = USBFS_MODE_DISABLE;
 515:Generated_Source\PSoC5/USBFS_std.c ****         USBFS_EP[ep].bufferSize = 0u;
 516:Generated_Source\PSoC5/USBFS_std.c ****         USBFS_EP[ep].interface = 0u;
 517:Generated_Source\PSoC5/USBFS_std.c **** 
 518:Generated_Source\PSoC5/USBFS_std.c ****     }
 519:Generated_Source\PSoC5/USBFS_std.c **** 
 520:Generated_Source\PSoC5/USBFS_std.c ****     /* Clear Alternate settings for all interfaces */
 521:Generated_Source\PSoC5/USBFS_std.c ****     if(clearAltSetting != 0u)
 522:Generated_Source\PSoC5/USBFS_std.c ****     {
 523:Generated_Source\PSoC5/USBFS_std.c ****         for (i = 0u; i < USBFS_MAX_INTERFACES_NUMBER; i++)
 524:Generated_Source\PSoC5/USBFS_std.c ****         {
 525:Generated_Source\PSoC5/USBFS_std.c ****             USBFS_interfaceSetting[i] = 0x00u;
 526:Generated_Source\PSoC5/USBFS_std.c ****             USBFS_interfaceSetting_last[i] = 0x00u;
 527:Generated_Source\PSoC5/USBFS_std.c ****         }
 528:Generated_Source\PSoC5/USBFS_std.c ****     }
 529:Generated_Source\PSoC5/USBFS_std.c **** 
 530:Generated_Source\PSoC5/USBFS_std.c ****     /* Init Endpoints and Device Status if configured */
 531:Generated_Source\PSoC5/USBFS_std.c ****     if(USBFS_configuration > 0u)
 532:Generated_Source\PSoC5/USBFS_std.c ****     {
 533:Generated_Source\PSoC5/USBFS_std.c ****         pTmp = USBFS_GetConfigTablePtr(USBFS_configuration - 1u);
 534:Generated_Source\PSoC5/USBFS_std.c ****         /* Set Power status for current configuration */
 535:Generated_Source\PSoC5/USBFS_std.c ****         pDescr = (const uint8 *)pTmp->p_list;
 536:Generated_Source\PSoC5/USBFS_std.c ****         if((pDescr[USBFS_CONFIG_DESCR_ATTRIB] & USBFS_CONFIG_DESCR_ATTRIB_SELF_POWERED) != 0u)
 537:Generated_Source\PSoC5/USBFS_std.c ****         {
 538:Generated_Source\PSoC5/USBFS_std.c ****             USBFS_deviceStatus |=  USBFS_DEVICE_STATUS_SELF_POWERED;
 539:Generated_Source\PSoC5/USBFS_std.c ****         }
ARM GAS  C:\Users\RABBIT~1\AppData\Local\Temp\ccYRpEyv.s 			page 13


 540:Generated_Source\PSoC5/USBFS_std.c ****         else
 541:Generated_Source\PSoC5/USBFS_std.c ****         {
 542:Generated_Source\PSoC5/USBFS_std.c ****             USBFS_deviceStatus &=  (uint8)~USBFS_DEVICE_STATUS_SELF_POWERED;
 543:Generated_Source\PSoC5/USBFS_std.c ****         }
 544:Generated_Source\PSoC5/USBFS_std.c ****         /* Move to next element */
 545:Generated_Source\PSoC5/USBFS_std.c ****         pTmp = &pTmp[1u];
 546:Generated_Source\PSoC5/USBFS_std.c ****         ep = pTmp->c;  /* For this table, c is the number of endpoints configurations  */
 547:Generated_Source\PSoC5/USBFS_std.c **** 
 548:Generated_Source\PSoC5/USBFS_std.c ****         #if ((USBFS_EP_MA == USBFS__MA_DYNAMIC) && \
 549:Generated_Source\PSoC5/USBFS_std.c ****              (USBFS_EP_MM == USBFS__EP_MANUAL) )
 550:Generated_Source\PSoC5/USBFS_std.c ****             /* Configure for dynamic EP memory allocation */
 551:Generated_Source\PSoC5/USBFS_std.c ****             /* p_list points the endpoint setting table. */
 552:Generated_Source\PSoC5/USBFS_std.c ****             pEP = (T_USBFS_EP_SETTINGS_BLOCK *) pTmp->p_list;
 553:Generated_Source\PSoC5/USBFS_std.c ****             for (i = 0u; i < ep; i++)
 554:Generated_Source\PSoC5/USBFS_std.c ****             {
 555:Generated_Source\PSoC5/USBFS_std.c ****                 /* Compare current Alternate setting with EP Alt */
 556:Generated_Source\PSoC5/USBFS_std.c ****                 if(USBFS_interfaceSetting[pEP->interface] == pEP->altSetting)
 557:Generated_Source\PSoC5/USBFS_std.c ****                 {
 558:Generated_Source\PSoC5/USBFS_std.c ****                     cur_ep = pEP->addr & USBFS_DIR_UNUSED;
 559:Generated_Source\PSoC5/USBFS_std.c ****                     epType = pEP->attributes & USBFS_EP_TYPE_MASK;
 560:Generated_Source\PSoC5/USBFS_std.c ****                     if (pEP->addr & USBFS_DIR_IN)
 561:Generated_Source\PSoC5/USBFS_std.c ****                     {
 562:Generated_Source\PSoC5/USBFS_std.c ****                         /* IN Endpoint */
 563:Generated_Source\PSoC5/USBFS_std.c ****                         USBFS_EP[cur_ep].apiEpState = USBFS_EVENT_PENDING;
 564:Generated_Source\PSoC5/USBFS_std.c ****                         USBFS_EP[cur_ep].epMode = (epType == USBFS_EP_TYPE_ISOC) ?
 565:Generated_Source\PSoC5/USBFS_std.c ****                                                         USBFS_MODE_ISO_IN : USBFS_MODE_ACK_IN;
 566:Generated_Source\PSoC5/USBFS_std.c ****                         #if defined(USBFS_ENABLE_CDC_CLASS)
 567:Generated_Source\PSoC5/USBFS_std.c ****                             if(((pEP->bMisc == USBFS_CLASS_CDC_DATA) ||
 568:Generated_Source\PSoC5/USBFS_std.c ****                                 (pEP->bMisc == USBFS_CLASS_CDC)) &&
 569:Generated_Source\PSoC5/USBFS_std.c ****                                 (epType != USBFS_EP_TYPE_INT))
 570:Generated_Source\PSoC5/USBFS_std.c ****                             {
 571:Generated_Source\PSoC5/USBFS_std.c ****                                 USBFS_cdc_data_in_ep = cur_ep;
 572:Generated_Source\PSoC5/USBFS_std.c ****                             }
 573:Generated_Source\PSoC5/USBFS_std.c ****                         #endif  /*  USBFS_ENABLE_CDC_CLASS*/
 574:Generated_Source\PSoC5/USBFS_std.c ****                         #if ( defined(USBFS_ENABLE_MIDI_STREAMING) && \
 575:Generated_Source\PSoC5/USBFS_std.c ****                                              (USBFS_MIDI_IN_BUFF_SIZE > 0) )
 576:Generated_Source\PSoC5/USBFS_std.c ****                             if((pEP->bMisc == USBFS_CLASS_AUDIO) &&
 577:Generated_Source\PSoC5/USBFS_std.c ****                                (epType == USBFS_EP_TYPE_BULK))
 578:Generated_Source\PSoC5/USBFS_std.c ****                             {
 579:Generated_Source\PSoC5/USBFS_std.c ****                                 USBFS_midi_in_ep = cur_ep;
 580:Generated_Source\PSoC5/USBFS_std.c ****                             }
 581:Generated_Source\PSoC5/USBFS_std.c ****                         #endif  /*  USBFS_ENABLE_MIDI_STREAMING*/
 582:Generated_Source\PSoC5/USBFS_std.c ****                     }
 583:Generated_Source\PSoC5/USBFS_std.c ****                     else
 584:Generated_Source\PSoC5/USBFS_std.c ****                     {
 585:Generated_Source\PSoC5/USBFS_std.c ****                         /* OUT Endpoint */
 586:Generated_Source\PSoC5/USBFS_std.c ****                         USBFS_EP[cur_ep].apiEpState = USBFS_NO_EVENT_PENDING;
 587:Generated_Source\PSoC5/USBFS_std.c ****                         USBFS_EP[cur_ep].epMode = (epType == USBFS_EP_TYPE_ISOC) ?
 588:Generated_Source\PSoC5/USBFS_std.c ****                                                     USBFS_MODE_ISO_OUT : USBFS_MODE_ACK_OUT;
 589:Generated_Source\PSoC5/USBFS_std.c ****                         #if defined(USBFS_ENABLE_CDC_CLASS)
 590:Generated_Source\PSoC5/USBFS_std.c ****                             if(((pEP->bMisc == USBFS_CLASS_CDC_DATA) ||
 591:Generated_Source\PSoC5/USBFS_std.c ****                                 (pEP->bMisc == USBFS_CLASS_CDC)) &&
 592:Generated_Source\PSoC5/USBFS_std.c ****                                 (epType != USBFS_EP_TYPE_INT))
 593:Generated_Source\PSoC5/USBFS_std.c ****                             {
 594:Generated_Source\PSoC5/USBFS_std.c ****                                 USBFS_cdc_data_out_ep = cur_ep;
 595:Generated_Source\PSoC5/USBFS_std.c ****                             }
 596:Generated_Source\PSoC5/USBFS_std.c ****                         #endif  /*  USBFS_ENABLE_CDC_CLASS*/
ARM GAS  C:\Users\RABBIT~1\AppData\Local\Temp\ccYRpEyv.s 			page 14


 597:Generated_Source\PSoC5/USBFS_std.c ****                         #if ( defined(USBFS_ENABLE_MIDI_STREAMING) && \
 598:Generated_Source\PSoC5/USBFS_std.c ****                                      (USBFS_MIDI_OUT_BUFF_SIZE > 0) )
 599:Generated_Source\PSoC5/USBFS_std.c ****                             if((pEP->bMisc == USBFS_CLASS_AUDIO) &&
 600:Generated_Source\PSoC5/USBFS_std.c ****                                (epType == USBFS_EP_TYPE_BULK))
 601:Generated_Source\PSoC5/USBFS_std.c ****                             {
 602:Generated_Source\PSoC5/USBFS_std.c ****                                 USBFS_midi_out_ep = cur_ep;
 603:Generated_Source\PSoC5/USBFS_std.c ****                             }
 604:Generated_Source\PSoC5/USBFS_std.c ****                         #endif  /*  USBFS_ENABLE_MIDI_STREAMING*/
 605:Generated_Source\PSoC5/USBFS_std.c ****                     }
 606:Generated_Source\PSoC5/USBFS_std.c ****                     USBFS_EP[cur_ep].bufferSize = pEP->bufferSize;
 607:Generated_Source\PSoC5/USBFS_std.c ****                     USBFS_EP[cur_ep].addr = pEP->addr;
 608:Generated_Source\PSoC5/USBFS_std.c ****                     USBFS_EP[cur_ep].attrib = pEP->attributes;
 609:Generated_Source\PSoC5/USBFS_std.c ****                 }
 610:Generated_Source\PSoC5/USBFS_std.c ****                 pEP = &pEP[1u];
 611:Generated_Source\PSoC5/USBFS_std.c ****             }
 612:Generated_Source\PSoC5/USBFS_std.c ****         #else /* Configure for static EP memory allocation  */
 613:Generated_Source\PSoC5/USBFS_std.c ****             for (i = USBFS_EP1; i < USBFS_MAX_EP; i++)
 614:Generated_Source\PSoC5/USBFS_std.c ****             {
 615:Generated_Source\PSoC5/USBFS_std.c ****                 /* p_list points the endpoint setting table. */
 616:Generated_Source\PSoC5/USBFS_std.c ****                 pEP = (const T_USBFS_EP_SETTINGS_BLOCK CYCODE *) pTmp->p_list;
 617:Generated_Source\PSoC5/USBFS_std.c ****                 /* Find max length for each EP and select it (length could be different in differen
 618:Generated_Source\PSoC5/USBFS_std.c ****                 /* but other settings should be correct with regards to Interface alt Setting */
 619:Generated_Source\PSoC5/USBFS_std.c ****                 for (cur_ep = 0u; cur_ep < ep; cur_ep++)
 620:Generated_Source\PSoC5/USBFS_std.c ****                 {
 621:Generated_Source\PSoC5/USBFS_std.c ****                     /* EP count is equal to EP # in table and we found larger EP length than have b
 622:Generated_Source\PSoC5/USBFS_std.c ****                     if(i == (pEP->addr & USBFS_DIR_UNUSED))
 623:Generated_Source\PSoC5/USBFS_std.c ****                     {
 624:Generated_Source\PSoC5/USBFS_std.c ****                         if(USBFS_EP[i].bufferSize < pEP->bufferSize)
 625:Generated_Source\PSoC5/USBFS_std.c ****                         {
 626:Generated_Source\PSoC5/USBFS_std.c ****                             USBFS_EP[i].bufferSize = pEP->bufferSize;
 627:Generated_Source\PSoC5/USBFS_std.c ****                         }
 628:Generated_Source\PSoC5/USBFS_std.c ****                         /* Compare current Alternate setting with EP Alt*/
 629:Generated_Source\PSoC5/USBFS_std.c ****                         if(USBFS_interfaceSetting[pEP->interface] == pEP->altSetting)
 630:Generated_Source\PSoC5/USBFS_std.c ****                         {
 631:Generated_Source\PSoC5/USBFS_std.c ****                             epType = pEP->attributes & USBFS_EP_TYPE_MASK;
 632:Generated_Source\PSoC5/USBFS_std.c ****                             if ((pEP->addr & USBFS_DIR_IN) != 0u)
 633:Generated_Source\PSoC5/USBFS_std.c ****                             {
 634:Generated_Source\PSoC5/USBFS_std.c ****                                 /* IN Endpoint */
 635:Generated_Source\PSoC5/USBFS_std.c ****                                 USBFS_EP[i].apiEpState = USBFS_EVENT_PENDING;
 636:Generated_Source\PSoC5/USBFS_std.c ****                                 USBFS_EP[i].epMode = (epType == USBFS_EP_TYPE_ISOC) ?
 637:Generated_Source\PSoC5/USBFS_std.c ****                                                         USBFS_MODE_ISO_IN : USBFS_MODE_ACK_IN;
 638:Generated_Source\PSoC5/USBFS_std.c ****                                 /* Find and initialize CDC IN endpoint number */
 639:Generated_Source\PSoC5/USBFS_std.c ****                                 #if defined(USBFS_ENABLE_CDC_CLASS)
 640:Generated_Source\PSoC5/USBFS_std.c ****                                     if(((pEP->bMisc == USBFS_CLASS_CDC_DATA) ||
 641:Generated_Source\PSoC5/USBFS_std.c ****                                         (pEP->bMisc == USBFS_CLASS_CDC)) &&
 642:Generated_Source\PSoC5/USBFS_std.c ****                                         (epType != USBFS_EP_TYPE_INT))
 643:Generated_Source\PSoC5/USBFS_std.c ****                                     {
 644:Generated_Source\PSoC5/USBFS_std.c ****                                         USBFS_cdc_data_in_ep = i;
 645:Generated_Source\PSoC5/USBFS_std.c ****                                     }
 646:Generated_Source\PSoC5/USBFS_std.c ****                                 #endif  /*  USBFS_ENABLE_CDC_CLASS*/
 647:Generated_Source\PSoC5/USBFS_std.c ****                                 #if ( defined(USBFS_ENABLE_MIDI_STREAMING) && \
 648:Generated_Source\PSoC5/USBFS_std.c ****                                              (USBFS_MIDI_IN_BUFF_SIZE > 0) )
 649:Generated_Source\PSoC5/USBFS_std.c ****                                     if((pEP->bMisc == USBFS_CLASS_AUDIO) &&
 650:Generated_Source\PSoC5/USBFS_std.c ****                                        (epType == USBFS_EP_TYPE_BULK))
 651:Generated_Source\PSoC5/USBFS_std.c ****                                     {
 652:Generated_Source\PSoC5/USBFS_std.c ****                                         USBFS_midi_in_ep = i;
 653:Generated_Source\PSoC5/USBFS_std.c ****                                     }
ARM GAS  C:\Users\RABBIT~1\AppData\Local\Temp\ccYRpEyv.s 			page 15


 654:Generated_Source\PSoC5/USBFS_std.c ****                                 #endif  /*  USBFS_ENABLE_MIDI_STREAMING*/
 655:Generated_Source\PSoC5/USBFS_std.c ****                             }
 656:Generated_Source\PSoC5/USBFS_std.c ****                             else
 657:Generated_Source\PSoC5/USBFS_std.c ****                             {
 658:Generated_Source\PSoC5/USBFS_std.c ****                                 /* OUT Endpoint */
 659:Generated_Source\PSoC5/USBFS_std.c ****                                 USBFS_EP[i].apiEpState = USBFS_NO_EVENT_PENDING;
 660:Generated_Source\PSoC5/USBFS_std.c ****                                 USBFS_EP[i].epMode = (epType == USBFS_EP_TYPE_ISOC) ?
 661:Generated_Source\PSoC5/USBFS_std.c ****                                                     USBFS_MODE_ISO_OUT : USBFS_MODE_ACK_OUT;
 662:Generated_Source\PSoC5/USBFS_std.c ****                                 /* Find and initialize CDC IN endpoint number */
 663:Generated_Source\PSoC5/USBFS_std.c ****                                 #if defined(USBFS_ENABLE_CDC_CLASS)
 664:Generated_Source\PSoC5/USBFS_std.c ****                                     if(((pEP->bMisc == USBFS_CLASS_CDC_DATA) ||
 665:Generated_Source\PSoC5/USBFS_std.c ****                                         (pEP->bMisc == USBFS_CLASS_CDC)) &&
 666:Generated_Source\PSoC5/USBFS_std.c ****                                         (epType != USBFS_EP_TYPE_INT))
 667:Generated_Source\PSoC5/USBFS_std.c ****                                     {
 668:Generated_Source\PSoC5/USBFS_std.c ****                                         USBFS_cdc_data_out_ep = i;
 669:Generated_Source\PSoC5/USBFS_std.c ****                                     }
 670:Generated_Source\PSoC5/USBFS_std.c ****                                 #endif  /*  USBFS_ENABLE_CDC_CLASS*/
 671:Generated_Source\PSoC5/USBFS_std.c ****                                 #if ( defined(USBFS_ENABLE_MIDI_STREAMING) && \
 672:Generated_Source\PSoC5/USBFS_std.c ****                                              (USBFS_MIDI_OUT_BUFF_SIZE > 0) )
 673:Generated_Source\PSoC5/USBFS_std.c ****                                     if((pEP->bMisc == USBFS_CLASS_AUDIO) &&
 674:Generated_Source\PSoC5/USBFS_std.c ****                                        (epType == USBFS_EP_TYPE_BULK))
 675:Generated_Source\PSoC5/USBFS_std.c ****                                     {
 676:Generated_Source\PSoC5/USBFS_std.c ****                                         USBFS_midi_out_ep = i;
 677:Generated_Source\PSoC5/USBFS_std.c ****                                     }
 678:Generated_Source\PSoC5/USBFS_std.c ****                                 #endif  /*  USBFS_ENABLE_MIDI_STREAMING*/
 679:Generated_Source\PSoC5/USBFS_std.c ****                             }
 680:Generated_Source\PSoC5/USBFS_std.c ****                             USBFS_EP[i].addr = pEP->addr;
 681:Generated_Source\PSoC5/USBFS_std.c ****                             USBFS_EP[i].attrib = pEP->attributes;
 682:Generated_Source\PSoC5/USBFS_std.c **** 
 683:Generated_Source\PSoC5/USBFS_std.c ****                             #if(USBFS_EP_MM == USBFS__EP_DMAAUTO)
 684:Generated_Source\PSoC5/USBFS_std.c ****                                 break;      /* use first EP setting in Auto memory managment */
 685:Generated_Source\PSoC5/USBFS_std.c ****                             #endif /*  USBFS_EP_MM == USBFS__EP_DMAAUTO */
 686:Generated_Source\PSoC5/USBFS_std.c ****                         }
 687:Generated_Source\PSoC5/USBFS_std.c ****                     }
 688:Generated_Source\PSoC5/USBFS_std.c ****                     pEP = &pEP[1u];
 689:Generated_Source\PSoC5/USBFS_std.c ****                 }
 690:Generated_Source\PSoC5/USBFS_std.c ****             }
 691:Generated_Source\PSoC5/USBFS_std.c ****         #endif /*  (USBFS_EP_MA == USBFS__MA_DYNAMIC) */
 692:Generated_Source\PSoC5/USBFS_std.c **** 
 693:Generated_Source\PSoC5/USBFS_std.c ****         /* Init class array for each interface and interface number for each EP.
 694:Generated_Source\PSoC5/USBFS_std.c ****         *  It is used for handling Class specific requests directed to either an
 695:Generated_Source\PSoC5/USBFS_std.c ****         *  interface or the endpoint.
 696:Generated_Source\PSoC5/USBFS_std.c ****         */
 697:Generated_Source\PSoC5/USBFS_std.c ****         /* p_list points the endpoint setting table. */
 698:Generated_Source\PSoC5/USBFS_std.c ****         pEP = (const T_USBFS_EP_SETTINGS_BLOCK CYCODE *) pTmp->p_list;
 699:Generated_Source\PSoC5/USBFS_std.c ****         for (i = 0u; i < ep; i++)
 700:Generated_Source\PSoC5/USBFS_std.c ****         {
 701:Generated_Source\PSoC5/USBFS_std.c ****             /* Configure interface number for each EP*/
 702:Generated_Source\PSoC5/USBFS_std.c ****             USBFS_EP[pEP->addr & USBFS_DIR_UNUSED].interface = pEP->interface;
 703:Generated_Source\PSoC5/USBFS_std.c ****             pEP = &pEP[1u];
 704:Generated_Source\PSoC5/USBFS_std.c ****         }
 705:Generated_Source\PSoC5/USBFS_std.c ****         /* Init pointer on interface class table*/
 706:Generated_Source\PSoC5/USBFS_std.c ****         USBFS_interfaceClass = USBFS_GetInterfaceClassTablePtr();
 707:Generated_Source\PSoC5/USBFS_std.c ****         /* Set the endpoint buffer addresses */
 708:Generated_Source\PSoC5/USBFS_std.c **** 
 709:Generated_Source\PSoC5/USBFS_std.c ****         #if(USBFS_EP_MM != USBFS__EP_DMAAUTO)
 710:Generated_Source\PSoC5/USBFS_std.c ****             for (ep = USBFS_EP1; ep < USBFS_MAX_EP; ep++)
ARM GAS  C:\Users\RABBIT~1\AppData\Local\Temp\ccYRpEyv.s 			page 16


 711:Generated_Source\PSoC5/USBFS_std.c ****             {
 712:Generated_Source\PSoC5/USBFS_std.c ****                 USBFS_EP[ep].buffOffset = buffCount;
 713:Generated_Source\PSoC5/USBFS_std.c ****                  buffCount += USBFS_EP[ep].bufferSize;
 714:Generated_Source\PSoC5/USBFS_std.c ****             }
 715:Generated_Source\PSoC5/USBFS_std.c ****         #endif /*  USBFS_EP_MM != USBFS__EP_DMAAUTO */
 716:Generated_Source\PSoC5/USBFS_std.c **** 
 717:Generated_Source\PSoC5/USBFS_std.c ****         /* Configure hardware registers */
 718:Generated_Source\PSoC5/USBFS_std.c ****         USBFS_ConfigReg();
 719:Generated_Source\PSoC5/USBFS_std.c ****     } /* USBFS_configuration > 0 */
 720:Generated_Source\PSoC5/USBFS_std.c **** }
 721:Generated_Source\PSoC5/USBFS_std.c **** 
 722:Generated_Source\PSoC5/USBFS_std.c **** 
 723:Generated_Source\PSoC5/USBFS_std.c **** /*******************************************************************************
 724:Generated_Source\PSoC5/USBFS_std.c **** * Function Name: USBFS_ConfigAltChanged
 725:Generated_Source\PSoC5/USBFS_std.c **** ********************************************************************************
 726:Generated_Source\PSoC5/USBFS_std.c **** *
 727:Generated_Source\PSoC5/USBFS_std.c **** * Summary:
 728:Generated_Source\PSoC5/USBFS_std.c **** *  This routine update configuration for the required endpoints only.
 729:Generated_Source\PSoC5/USBFS_std.c **** *  It is called after SET_INTERFACE request when Static memory allocation used.
 730:Generated_Source\PSoC5/USBFS_std.c **** *
 731:Generated_Source\PSoC5/USBFS_std.c **** * Parameters:
 732:Generated_Source\PSoC5/USBFS_std.c **** *  None.
 733:Generated_Source\PSoC5/USBFS_std.c **** *
 734:Generated_Source\PSoC5/USBFS_std.c **** * Return:
 735:Generated_Source\PSoC5/USBFS_std.c **** *  None.
 736:Generated_Source\PSoC5/USBFS_std.c **** *
 737:Generated_Source\PSoC5/USBFS_std.c **** * Reentrant:
 738:Generated_Source\PSoC5/USBFS_std.c **** *  No.
 739:Generated_Source\PSoC5/USBFS_std.c **** *
 740:Generated_Source\PSoC5/USBFS_std.c **** *******************************************************************************/
 741:Generated_Source\PSoC5/USBFS_std.c **** void USBFS_ConfigAltChanged(void) 
 742:Generated_Source\PSoC5/USBFS_std.c **** {
 743:Generated_Source\PSoC5/USBFS_std.c ****     uint8 ep;
 744:Generated_Source\PSoC5/USBFS_std.c ****     uint8 cur_ep;
 745:Generated_Source\PSoC5/USBFS_std.c ****     uint8 i;
 746:Generated_Source\PSoC5/USBFS_std.c ****     uint8 epType;
 747:Generated_Source\PSoC5/USBFS_std.c ****     uint8 ri;
 748:Generated_Source\PSoC5/USBFS_std.c **** 
 749:Generated_Source\PSoC5/USBFS_std.c ****     const T_USBFS_LUT CYCODE *pTmp;
 750:Generated_Source\PSoC5/USBFS_std.c ****     const T_USBFS_EP_SETTINGS_BLOCK CYCODE *pEP;
 751:Generated_Source\PSoC5/USBFS_std.c **** 
 752:Generated_Source\PSoC5/USBFS_std.c **** 
 753:Generated_Source\PSoC5/USBFS_std.c ****     /* Init Endpoints and Device Status if configured */
 754:Generated_Source\PSoC5/USBFS_std.c ****     if(USBFS_configuration > 0u)
 755:Generated_Source\PSoC5/USBFS_std.c ****     {
 756:Generated_Source\PSoC5/USBFS_std.c ****         pTmp = USBFS_GetConfigTablePtr(USBFS_configuration - 1u);
 757:Generated_Source\PSoC5/USBFS_std.c ****         pTmp = &pTmp[1u];
 758:Generated_Source\PSoC5/USBFS_std.c ****         ep = pTmp->c;  /* For this table, c is the number of endpoints configurations  */
 759:Generated_Source\PSoC5/USBFS_std.c **** 
 760:Generated_Source\PSoC5/USBFS_std.c ****         /* Do not touch EP which doesn't need reconfiguration */
 761:Generated_Source\PSoC5/USBFS_std.c ****         /* When Alt setting changed, the only required endpoints need to be reconfigured */
 762:Generated_Source\PSoC5/USBFS_std.c ****         /* p_list points the endpoint setting table. */
 763:Generated_Source\PSoC5/USBFS_std.c ****         pEP = (const T_USBFS_EP_SETTINGS_BLOCK CYCODE *) pTmp->p_list;
 764:Generated_Source\PSoC5/USBFS_std.c ****         for (i = 0u; i < ep; i++)
 765:Generated_Source\PSoC5/USBFS_std.c ****         {
 766:Generated_Source\PSoC5/USBFS_std.c ****             /*If Alt setting changed and new is same with EP Alt */
 767:Generated_Source\PSoC5/USBFS_std.c ****             if((USBFS_interfaceSetting[pEP->interface] !=
ARM GAS  C:\Users\RABBIT~1\AppData\Local\Temp\ccYRpEyv.s 			page 17


 768:Generated_Source\PSoC5/USBFS_std.c ****                 USBFS_interfaceSetting_last[pEP->interface] ) &&
 769:Generated_Source\PSoC5/USBFS_std.c ****                (USBFS_interfaceSetting[pEP->interface] == pEP->altSetting) &&
 770:Generated_Source\PSoC5/USBFS_std.c ****                (pEP->interface == CY_GET_REG8(USBFS_wIndexLo)))
 771:Generated_Source\PSoC5/USBFS_std.c ****             {
 772:Generated_Source\PSoC5/USBFS_std.c ****                 cur_ep = pEP->addr & USBFS_DIR_UNUSED;
 773:Generated_Source\PSoC5/USBFS_std.c ****                 ri = ((cur_ep - USBFS_EP1) << USBFS_EPX_CNTX_ADDR_SHIFT);
 774:Generated_Source\PSoC5/USBFS_std.c ****                 epType = pEP->attributes & USBFS_EP_TYPE_MASK;
 775:Generated_Source\PSoC5/USBFS_std.c ****                 if ((pEP->addr & USBFS_DIR_IN) != 0u)
 776:Generated_Source\PSoC5/USBFS_std.c ****                 {
 777:Generated_Source\PSoC5/USBFS_std.c ****                     /* IN Endpoint */
 778:Generated_Source\PSoC5/USBFS_std.c ****                     USBFS_EP[cur_ep].apiEpState = USBFS_EVENT_PENDING;
 779:Generated_Source\PSoC5/USBFS_std.c ****                     USBFS_EP[cur_ep].epMode = (epType == USBFS_EP_TYPE_ISOC) ?
 780:Generated_Source\PSoC5/USBFS_std.c ****                                                 USBFS_MODE_ISO_IN : USBFS_MODE_ACK_IN;
 781:Generated_Source\PSoC5/USBFS_std.c ****                 }
 782:Generated_Source\PSoC5/USBFS_std.c ****                 else
 783:Generated_Source\PSoC5/USBFS_std.c ****                 {
 784:Generated_Source\PSoC5/USBFS_std.c ****                     /* OUT Endpoint */
 785:Generated_Source\PSoC5/USBFS_std.c ****                     USBFS_EP[cur_ep].apiEpState = USBFS_NO_EVENT_PENDING;
 786:Generated_Source\PSoC5/USBFS_std.c ****                     USBFS_EP[cur_ep].epMode = (epType == USBFS_EP_TYPE_ISOC) ?
 787:Generated_Source\PSoC5/USBFS_std.c ****                                                 USBFS_MODE_ISO_OUT : USBFS_MODE_ACK_OUT;
 788:Generated_Source\PSoC5/USBFS_std.c ****                 }
 789:Generated_Source\PSoC5/USBFS_std.c ****                  /* Change the SIE mode for the selected EP to NAK ALL */
 790:Generated_Source\PSoC5/USBFS_std.c ****                  CY_SET_REG8((reg8 *)(USBFS_SIE_EP1_CR0_IND + ri), USBFS_MODE_NAK_IN_OUT);
 791:Generated_Source\PSoC5/USBFS_std.c ****                 USBFS_EP[cur_ep].bufferSize = pEP->bufferSize;
 792:Generated_Source\PSoC5/USBFS_std.c ****                 USBFS_EP[cur_ep].addr = pEP->addr;
 793:Generated_Source\PSoC5/USBFS_std.c ****                 USBFS_EP[cur_ep].attrib = pEP->attributes;
 794:Generated_Source\PSoC5/USBFS_std.c **** 
 795:Generated_Source\PSoC5/USBFS_std.c ****                 /* Clear the data toggle */
 796:Generated_Source\PSoC5/USBFS_std.c ****                 USBFS_EP[cur_ep].epToggle = 0u;
 797:Generated_Source\PSoC5/USBFS_std.c **** 
 798:Generated_Source\PSoC5/USBFS_std.c ****                 /* Dynamic reconfiguration for mode 3 transfer */
 799:Generated_Source\PSoC5/USBFS_std.c ****             #if(USBFS_EP_MM == USBFS__EP_DMAAUTO)
 800:Generated_Source\PSoC5/USBFS_std.c ****                 /* In_data_rdy for selected EP should be set to 0 */
 801:Generated_Source\PSoC5/USBFS_std.c ****                 * (reg8 *)(USBFS_ARB_EP1_CFG_IND + ri) &= (uint8)~USBFS_ARB_EPX_CFG_IN_DATA_RDY;
 802:Generated_Source\PSoC5/USBFS_std.c **** 
 803:Generated_Source\PSoC5/USBFS_std.c ****                 /* write the EP number for which reconfiguration is required */
 804:Generated_Source\PSoC5/USBFS_std.c ****                 USBFS_DYN_RECONFIG_REG = (cur_ep - USBFS_EP1) <<
 805:Generated_Source\PSoC5/USBFS_std.c ****                                                     USBFS_DYN_RECONFIG_EP_SHIFT;
 806:Generated_Source\PSoC5/USBFS_std.c ****                 /* Set the dyn_config_en bit in dynamic reconfiguration register */
 807:Generated_Source\PSoC5/USBFS_std.c ****                 USBFS_DYN_RECONFIG_REG |= USBFS_DYN_RECONFIG_ENABLE;
 808:Generated_Source\PSoC5/USBFS_std.c ****                 /* wait for the dyn_config_rdy bit to set by the block,
 809:Generated_Source\PSoC5/USBFS_std.c ****                 *  this bit will be set to 1 when block is ready for reconfiguration.
 810:Generated_Source\PSoC5/USBFS_std.c ****                 */
 811:Generated_Source\PSoC5/USBFS_std.c ****                 while((USBFS_DYN_RECONFIG_REG & USBFS_DYN_RECONFIG_RDY_STS) == 0u)
 812:Generated_Source\PSoC5/USBFS_std.c ****                 {
 813:Generated_Source\PSoC5/USBFS_std.c ****                     ;
 814:Generated_Source\PSoC5/USBFS_std.c ****                 }
 815:Generated_Source\PSoC5/USBFS_std.c ****                 /* Once dyn_config_rdy bit is set, FW can change the EP configuration. */
 816:Generated_Source\PSoC5/USBFS_std.c ****                 /* Change EP Type with new direction */
 817:Generated_Source\PSoC5/USBFS_std.c ****                 if((pEP->addr & USBFS_DIR_IN) == 0u)
 818:Generated_Source\PSoC5/USBFS_std.c ****                 {
 819:Generated_Source\PSoC5/USBFS_std.c ****                     USBFS_EP_TYPE_REG |= (uint8)(0x01u << (cur_ep - USBFS_EP1));
 820:Generated_Source\PSoC5/USBFS_std.c ****                 }
 821:Generated_Source\PSoC5/USBFS_std.c ****                 else
 822:Generated_Source\PSoC5/USBFS_std.c ****                 {
 823:Generated_Source\PSoC5/USBFS_std.c ****                     USBFS_EP_TYPE_REG &= (uint8)~(uint8)(0x01u << (cur_ep - USBFS_EP1));
 824:Generated_Source\PSoC5/USBFS_std.c ****                 }
ARM GAS  C:\Users\RABBIT~1\AppData\Local\Temp\ccYRpEyv.s 			page 18


 825:Generated_Source\PSoC5/USBFS_std.c ****                 /* dynamic reconfiguration enable bit cleared, pointers and control/status
 826:Generated_Source\PSoC5/USBFS_std.c ****                 *  signals for the selected EP is cleared/re-initialized on negative edge
 827:Generated_Source\PSoC5/USBFS_std.c ****                 *  of dynamic reconfiguration enable bit).
 828:Generated_Source\PSoC5/USBFS_std.c ****                 */
 829:Generated_Source\PSoC5/USBFS_std.c ****                 USBFS_DYN_RECONFIG_REG &= (uint8)~USBFS_DYN_RECONFIG_ENABLE;
 830:Generated_Source\PSoC5/USBFS_std.c ****                 /* The main loop has to re-enable DMA and OUT endpoint*/
 831:Generated_Source\PSoC5/USBFS_std.c ****             #else
 832:Generated_Source\PSoC5/USBFS_std.c ****                 CY_SET_REG8((reg8 *)(USBFS_SIE_EP1_CNT0_IND + ri),
 833:Generated_Source\PSoC5/USBFS_std.c ****                                                                 USBFS_EP[cur_ep].bufferSize >> 8u);
 834:Generated_Source\PSoC5/USBFS_std.c ****                 CY_SET_REG8((reg8 *)(USBFS_SIE_EP1_CNT1_IND + ri),
 835:Generated_Source\PSoC5/USBFS_std.c ****                                                                 USBFS_EP[cur_ep].bufferSize & 0xFFu
 836:Generated_Source\PSoC5/USBFS_std.c ****                 CY_SET_REG8((reg8 *)(USBFS_ARB_RW1_RA_IND + ri),
 837:Generated_Source\PSoC5/USBFS_std.c ****                                                                 USBFS_EP[cur_ep].buffOffset & 0xFFu
 838:Generated_Source\PSoC5/USBFS_std.c ****                 CY_SET_REG8((reg8 *)(USBFS_ARB_RW1_RA_MSB_IND + ri),
 839:Generated_Source\PSoC5/USBFS_std.c ****                                                                 USBFS_EP[cur_ep].buffOffset >> 8u);
 840:Generated_Source\PSoC5/USBFS_std.c ****                 CY_SET_REG8((reg8 *)(USBFS_ARB_RW1_WA_IND + ri),
 841:Generated_Source\PSoC5/USBFS_std.c ****                                                                 USBFS_EP[cur_ep].buffOffset & 0xFFu
 842:Generated_Source\PSoC5/USBFS_std.c ****                 CY_SET_REG8((reg8 *)(USBFS_ARB_RW1_WA_MSB_IND + ri),
 843:Generated_Source\PSoC5/USBFS_std.c ****                                                                 USBFS_EP[cur_ep].buffOffset >> 8u);
 844:Generated_Source\PSoC5/USBFS_std.c ****             #endif /*  USBFS_EP_MM == USBFS__EP_DMAAUTO */
 845:Generated_Source\PSoC5/USBFS_std.c ****             }
 846:Generated_Source\PSoC5/USBFS_std.c ****             /* Get next EP element */
 847:Generated_Source\PSoC5/USBFS_std.c ****             pEP = &pEP[1u];
 848:Generated_Source\PSoC5/USBFS_std.c ****         }
 849:Generated_Source\PSoC5/USBFS_std.c ****     }   /* USBFS_configuration > 0 */
 850:Generated_Source\PSoC5/USBFS_std.c **** }
 851:Generated_Source\PSoC5/USBFS_std.c **** 
 852:Generated_Source\PSoC5/USBFS_std.c **** 
 853:Generated_Source\PSoC5/USBFS_std.c **** /*******************************************************************************
 854:Generated_Source\PSoC5/USBFS_std.c **** * Function Name: USBFS_GetConfigTablePtr
 855:Generated_Source\PSoC5/USBFS_std.c **** ********************************************************************************
 856:Generated_Source\PSoC5/USBFS_std.c **** *
 857:Generated_Source\PSoC5/USBFS_std.c **** * Summary:
 858:Generated_Source\PSoC5/USBFS_std.c **** *  This routine returns a pointer a configuration table entry
 859:Generated_Source\PSoC5/USBFS_std.c **** *
 860:Generated_Source\PSoC5/USBFS_std.c **** * Parameters:
 861:Generated_Source\PSoC5/USBFS_std.c **** *  confIndex:  Configuration Index
 862:Generated_Source\PSoC5/USBFS_std.c **** *
 863:Generated_Source\PSoC5/USBFS_std.c **** * Return:
 864:Generated_Source\PSoC5/USBFS_std.c **** *  Device Descriptor pointer or NULL when descriptor isn't exists.
 865:Generated_Source\PSoC5/USBFS_std.c **** *
 866:Generated_Source\PSoC5/USBFS_std.c **** *******************************************************************************/
 867:Generated_Source\PSoC5/USBFS_std.c **** const T_USBFS_LUT CYCODE *USBFS_GetConfigTablePtr(uint8 confIndex)
 868:Generated_Source\PSoC5/USBFS_std.c ****                                                         
 869:Generated_Source\PSoC5/USBFS_std.c **** {
 134              		.loc 1 869 0
 135              		.cfi_startproc
 136              		@ args = 0, pretend = 0, frame = 0
 137              		@ frame_needed = 0, uses_anonymous_args = 0
 138              		@ link register save eliminated.
 139              	.LVL6:
 870:Generated_Source\PSoC5/USBFS_std.c ****     /* Device Table */
 871:Generated_Source\PSoC5/USBFS_std.c ****     const T_USBFS_LUT CYCODE *pTmp;
 872:Generated_Source\PSoC5/USBFS_std.c **** 
 873:Generated_Source\PSoC5/USBFS_std.c ****     pTmp = (const T_USBFS_LUT CYCODE *) USBFS_TABLE[USBFS_device].p_list;
 140              		.loc 1 873 0
 141 0000 064B     		ldr	r3, .L13
ARM GAS  C:\Users\RABBIT~1\AppData\Local\Temp\ccYRpEyv.s 			page 19


 142 0002 074A     		ldr	r2, .L13+4
 143 0004 1B78     		ldrb	r3, [r3]	@ zero_extendqisi2
 144 0006 02EBC302 		add	r2, r2, r3, lsl #3
 145 000a 5368     		ldr	r3, [r2, #4]
 146              	.LVL7:
 874:Generated_Source\PSoC5/USBFS_std.c **** 
 875:Generated_Source\PSoC5/USBFS_std.c ****     /* The first entry points to the Device Descriptor,
 876:Generated_Source\PSoC5/USBFS_std.c ****     *  the rest configuration entries.
 877:Generated_Source\PSoC5/USBFS_std.c ****     *  Set pointer to the first Configuration Descriptor
 878:Generated_Source\PSoC5/USBFS_std.c ****     */
 879:Generated_Source\PSoC5/USBFS_std.c ****     pTmp = &pTmp[1u];
 880:Generated_Source\PSoC5/USBFS_std.c ****     /* For this table, c is the number of configuration descriptors  */
 881:Generated_Source\PSoC5/USBFS_std.c ****     if(confIndex >= pTmp->c)   /* Verify that required configuration descriptor exists */
 147              		.loc 1 881 0
 148 000c 1A7A     		ldrb	r2, [r3, #8]	@ zero_extendqisi2
 149 000e 8242     		cmp	r2, r0
 882:Generated_Source\PSoC5/USBFS_std.c ****     {
 883:Generated_Source\PSoC5/USBFS_std.c ****         pTmp = (const T_USBFS_LUT CYCODE *) NULL;
 884:Generated_Source\PSoC5/USBFS_std.c ****     }
 885:Generated_Source\PSoC5/USBFS_std.c ****     else
 886:Generated_Source\PSoC5/USBFS_std.c ****     {
 887:Generated_Source\PSoC5/USBFS_std.c ****         pTmp = (const T_USBFS_LUT CYCODE *) pTmp[confIndex].p_list;
 150              		.loc 1 887 0
 151 0010 86BF     		itte	hi
 152 0012 03EBC003 		addhi	r3, r3, r0, lsl #3
 153              	.LVL8:
 154 0016 D868     		ldrhi	r0, [r3, #12]
 155              	.LVL9:
 883:Generated_Source\PSoC5/USBFS_std.c ****     }
 156              		.loc 1 883 0
 157 0018 0020     		movls	r0, #0
 158              	.LVL10:
 888:Generated_Source\PSoC5/USBFS_std.c ****     }
 889:Generated_Source\PSoC5/USBFS_std.c **** 
 890:Generated_Source\PSoC5/USBFS_std.c ****     return( pTmp );
 891:Generated_Source\PSoC5/USBFS_std.c **** }
 159              		.loc 1 891 0
 160 001a 7047     		bx	lr
 161              	.L14:
 162              		.align	2
 163              	.L13:
 164 001c 00000000 		.word	USBFS_device
 165 0020 00000000 		.word	USBFS_TABLE
 166              		.cfi_endproc
 167              	.LFE4:
 168              		.size	USBFS_GetConfigTablePtr, .-USBFS_GetConfigTablePtr
 169              		.section	.text.USBFS_ConfigAltChanged,"ax",%progbits
 170              		.align	1
 171              		.global	USBFS_ConfigAltChanged
 172              		.thumb
 173              		.thumb_func
 174              		.type	USBFS_ConfigAltChanged, %function
 175              	USBFS_ConfigAltChanged:
 176              	.LFB3:
 742:Generated_Source\PSoC5/USBFS_std.c ****     uint8 ep;
 177              		.loc 1 742 0
 178              		.cfi_startproc
ARM GAS  C:\Users\RABBIT~1\AppData\Local\Temp\ccYRpEyv.s 			page 20


 179              		@ args = 0, pretend = 0, frame = 0
 180              		@ frame_needed = 0, uses_anonymous_args = 0
 181 0000 2DE9F047 		push	{r4, r5, r6, r7, r8, r9, r10, lr}
 182              		.cfi_def_cfa_offset 32
 183              		.cfi_offset 4, -32
 184              		.cfi_offset 5, -28
 185              		.cfi_offset 6, -24
 186              		.cfi_offset 7, -20
 187              		.cfi_offset 8, -16
 188              		.cfi_offset 9, -12
 189              		.cfi_offset 10, -8
 190              		.cfi_offset 14, -4
 754:Generated_Source\PSoC5/USBFS_std.c ****     {
 191              		.loc 1 754 0
 192 0004 434B     		ldr	r3, .L28
 193 0006 1A78     		ldrb	r2, [r3]	@ zero_extendqisi2
 194 0008 002A     		cmp	r2, #0
 195 000a 00F08180 		beq	.L15
 196              	.LBB6:
 197              	.LBB7:
 756:Generated_Source\PSoC5/USBFS_std.c ****         pTmp = &pTmp[1u];
 198              		.loc 1 756 0
 199 000e 1878     		ldrb	r0, [r3]	@ zero_extendqisi2
 767:Generated_Source\PSoC5/USBFS_std.c ****                 USBFS_interfaceSetting_last[pEP->interface] ) &&
 200              		.loc 1 767 0
 201 0010 414F     		ldr	r7, .L28+4
 756:Generated_Source\PSoC5/USBFS_std.c ****         pTmp = &pTmp[1u];
 202              		.loc 1 756 0
 203 0012 0138     		subs	r0, r0, #1
 204 0014 C0B2     		uxtb	r0, r0
 205 0016 FFF7FEFF 		bl	USBFS_GetConfigTablePtr
 206              	.LVL11:
 763:Generated_Source\PSoC5/USBFS_std.c ****         for (i = 0u; i < ep; i++)
 207              		.loc 1 763 0
 208 001a C368     		ldr	r3, [r0, #12]
 209              	.LVL12:
 210 001c 057A     		ldrb	r5, [r0, #8]	@ zero_extendqisi2
 768:Generated_Source\PSoC5/USBFS_std.c ****                (USBFS_interfaceSetting[pEP->interface] == pEP->altSetting) &&
 211              		.loc 1 768 0
 212 001e DFF80881 		ldr	r8, .L28+20
 770:Generated_Source\PSoC5/USBFS_std.c ****             {
 213              		.loc 1 770 0
 214 0022 DFF80891 		ldr	r9, .L28+24
 215 0026 3D48     		ldr	r0, .L28+8
 216              	.LVL13:
 217 0028 03EBC505 		add	r5, r3, r5, lsl #3
 218              	.LVL14:
 219 002c 0C26     		movs	r6, #12
 790:Generated_Source\PSoC5/USBFS_std.c ****                 USBFS_EP[cur_ep].bufferSize = pEP->bufferSize;
 220              		.loc 1 790 0
 221 002e 4FF0010E 		mov	lr, #1
 796:Generated_Source\PSoC5/USBFS_std.c **** 
 222              		.loc 1 796 0
 223 0032 4FF0000C 		mov	ip, #0
 224              	.LVL15:
 225              	.L17:
 764:Generated_Source\PSoC5/USBFS_std.c ****         {
ARM GAS  C:\Users\RABBIT~1\AppData\Local\Temp\ccYRpEyv.s 			page 21


 226              		.loc 1 764 0
 227 0036 AB42     		cmp	r3, r5
 228 0038 6AD0     		beq	.L15
 767:Generated_Source\PSoC5/USBFS_std.c ****                 USBFS_interfaceSetting_last[pEP->interface] ) &&
 229              		.loc 1 767 0
 230 003a 1A78     		ldrb	r2, [r3]	@ zero_extendqisi2
 231 003c BC5C     		ldrb	r4, [r7, r2]	@ zero_extendqisi2
 768:Generated_Source\PSoC5/USBFS_std.c ****                (USBFS_interfaceSetting[pEP->interface] == pEP->altSetting) &&
 232              		.loc 1 768 0
 233 003e 18F80210 		ldrb	r1, [r8, r2]	@ zero_extendqisi2
 767:Generated_Source\PSoC5/USBFS_std.c ****                 USBFS_interfaceSetting_last[pEP->interface] ) &&
 234              		.loc 1 767 0
 235 0042 8C42     		cmp	r4, r1
 236 0044 62D0     		beq	.L18
 769:Generated_Source\PSoC5/USBFS_std.c ****                (pEP->interface == CY_GET_REG8(USBFS_wIndexLo)))
 237              		.loc 1 769 0
 238 0046 B95C     		ldrb	r1, [r7, r2]	@ zero_extendqisi2
 768:Generated_Source\PSoC5/USBFS_std.c ****                (USBFS_interfaceSetting[pEP->interface] == pEP->altSetting) &&
 239              		.loc 1 768 0
 240 0048 5C78     		ldrb	r4, [r3, #1]	@ zero_extendqisi2
 241 004a 8C42     		cmp	r4, r1
 242 004c 5ED1     		bne	.L18
 770:Generated_Source\PSoC5/USBFS_std.c ****             {
 243              		.loc 1 770 0
 244 004e 99F80010 		ldrb	r1, [r9]	@ zero_extendqisi2
 769:Generated_Source\PSoC5/USBFS_std.c ****                (pEP->interface == CY_GET_REG8(USBFS_wIndexLo)))
 245              		.loc 1 769 0
 246 0052 8A42     		cmp	r2, r1
 247 0054 5AD1     		bne	.L18
 772:Generated_Source\PSoC5/USBFS_std.c ****                 ri = ((cur_ep - USBFS_EP1) << USBFS_EPX_CNTX_ADDR_SHIFT);
 248              		.loc 1 772 0
 249 0056 93F802A0 		ldrb	r10, [r3, #2]	@ zero_extendqisi2
 774:Generated_Source\PSoC5/USBFS_std.c ****                 if ((pEP->addr & USBFS_DIR_IN) != 0u)
 250              		.loc 1 774 0
 251 005a DC78     		ldrb	r4, [r3, #3]	@ zero_extendqisi2
 772:Generated_Source\PSoC5/USBFS_std.c ****                 ri = ((cur_ep - USBFS_EP1) << USBFS_EPX_CNTX_ADDR_SHIFT);
 252              		.loc 1 772 0
 253 005c 0AF07F01 		and	r1, r10, #127
 254              	.LVL16:
 773:Generated_Source\PSoC5/USBFS_std.c ****                 epType = pEP->attributes & USBFS_EP_TYPE_MASK;
 255              		.loc 1 773 0
 256 0060 4A1E     		subs	r2, r1, #1
 257 0062 1201     		lsls	r2, r2, #4
 775:Generated_Source\PSoC5/USBFS_std.c ****                 {
 258              		.loc 1 775 0
 259 0064 1AF0800F 		tst	r10, #128
 773:Generated_Source\PSoC5/USBFS_std.c ****                 epType = pEP->attributes & USBFS_EP_TYPE_MASK;
 260              		.loc 1 773 0
 261 0068 D2B2     		uxtb	r2, r2
 262              	.LVL17:
 774:Generated_Source\PSoC5/USBFS_std.c ****                 if ((pEP->addr & USBFS_DIR_IN) != 0u)
 263              		.loc 1 774 0
 264 006a 04F00304 		and	r4, r4, #3
 265              	.LVL18:
 778:Generated_Source\PSoC5/USBFS_std.c ****                     USBFS_EP[cur_ep].epMode = (epType == USBFS_EP_TYPE_ISOC) ?
 266              		.loc 1 778 0
 267 006e 06FB010A 		mla	r10, r6, r1, r0
ARM GAS  C:\Users\RABBIT~1\AppData\Local\Temp\ccYRpEyv.s 			page 22


 775:Generated_Source\PSoC5/USBFS_std.c ****                 {
 268              		.loc 1 775 0
 269 0072 06D0     		beq	.L19
 779:Generated_Source\PSoC5/USBFS_std.c ****                                                 USBFS_MODE_ISO_IN : USBFS_MODE_ACK_IN;
 270              		.loc 1 779 0
 271 0074 012C     		cmp	r4, #1
 778:Generated_Source\PSoC5/USBFS_std.c ****                     USBFS_EP[cur_ep].epMode = (epType == USBFS_EP_TYPE_ISOC) ?
 272              		.loc 1 778 0
 273 0076 8AF801E0 		strb	lr, [r10, #1]
 779:Generated_Source\PSoC5/USBFS_std.c ****                                                 USBFS_MODE_ISO_IN : USBFS_MODE_ACK_IN;
 274              		.loc 1 779 0
 275 007a 0CBF     		ite	eq
 276 007c 0724     		moveq	r4, #7
 277              	.LVL19:
 278 007e 0D24     		movne	r4, #13
 279 0080 05E0     		b	.L27
 280              	.LVL20:
 281              	.L19:
 786:Generated_Source\PSoC5/USBFS_std.c ****                                                 USBFS_MODE_ISO_OUT : USBFS_MODE_ACK_OUT;
 282              		.loc 1 786 0
 283 0082 012C     		cmp	r4, #1
 785:Generated_Source\PSoC5/USBFS_std.c ****                     USBFS_EP[cur_ep].epMode = (epType == USBFS_EP_TYPE_ISOC) ?
 284              		.loc 1 785 0
 285 0084 8AF801C0 		strb	ip, [r10, #1]
 786:Generated_Source\PSoC5/USBFS_std.c ****                                                 USBFS_MODE_ISO_OUT : USBFS_MODE_ACK_OUT;
 286              		.loc 1 786 0
 287 0088 0CBF     		ite	eq
 288 008a 0524     		moveq	r4, #5
 289              	.LVL21:
 290 008c 0924     		movne	r4, #9
 291              	.L27:
 292 008e 8AF80540 		strb	r4, [r10, #5]
 790:Generated_Source\PSoC5/USBFS_std.c ****                 USBFS_EP[cur_ep].bufferSize = pEP->bufferSize;
 293              		.loc 1 790 0
 294 0092 234C     		ldr	r4, .L28+12
 295 0094 04F802E0 		strb	lr, [r4, r2]
 791:Generated_Source\PSoC5/USBFS_std.c ****                 USBFS_EP[cur_ep].addr = pEP->addr;
 296              		.loc 1 791 0
 297 0098 06FB01F4 		mul	r4, r6, r1
 298 009c B3F804A0 		ldrh	r10, [r3, #4]
 299 00a0 0119     		adds	r1, r0, r4
 300              	.LVL22:
 301 00a2 A1F808A0 		strh	r10, [r1, #8]	@ movhi
 792:Generated_Source\PSoC5/USBFS_std.c ****                 USBFS_EP[cur_ep].attrib = pEP->attributes;
 302              		.loc 1 792 0
 303 00a6 93F802A0 		ldrb	r10, [r3, #2]	@ zero_extendqisi2
 304 00aa 81F804A0 		strb	r10, [r1, #4]
 793:Generated_Source\PSoC5/USBFS_std.c **** 
 305              		.loc 1 793 0
 306 00ae 93F803A0 		ldrb	r10, [r3, #3]	@ zero_extendqisi2
 307 00b2 00F804A0 		strb	r10, [r0, r4]
 796:Generated_Source\PSoC5/USBFS_std.c **** 
 308              		.loc 1 796 0
 309 00b6 81F803C0 		strb	ip, [r1, #3]
 832:Generated_Source\PSoC5/USBFS_std.c ****                                                                 USBFS_EP[cur_ep].bufferSize >> 8u);
 310              		.loc 1 832 0
 311 00ba B1F808A0 		ldrh	r10, [r1, #8]
ARM GAS  C:\Users\RABBIT~1\AppData\Local\Temp\ccYRpEyv.s 			page 23


 312 00be 194C     		ldr	r4, .L28+16
 313 00c0 CAF3072A 		ubfx	r10, r10, #8, #8
 314 00c4 04F802A0 		strb	r10, [r4, r2]
 834:Generated_Source\PSoC5/USBFS_std.c ****                                                                 USBFS_EP[cur_ep].bufferSize & 0xFFu
 315              		.loc 1 834 0
 316 00c8 B1F808A0 		ldrh	r10, [r1, #8]
 317 00cc 0134     		adds	r4, r4, #1
 318 00ce 5FFA8AFA 		uxtb	r10, r10
 319 00d2 04F802A0 		strb	r10, [r4, r2]
 836:Generated_Source\PSoC5/USBFS_std.c ****                                                                 USBFS_EP[cur_ep].buffOffset & 0xFFu
 320              		.loc 1 836 0
 321 00d6 B1F806A0 		ldrh	r10, [r1, #6]
 322 00da 7934     		adds	r4, r4, #121
 323 00dc 5FFA8AFA 		uxtb	r10, r10
 324 00e0 04F802A0 		strb	r10, [r4, r2]
 838:Generated_Source\PSoC5/USBFS_std.c ****                                                                 USBFS_EP[cur_ep].buffOffset >> 8u);
 325              		.loc 1 838 0
 326 00e4 B1F806A0 		ldrh	r10, [r1, #6]
 327 00e8 0134     		adds	r4, r4, #1
 328 00ea CAF3072A 		ubfx	r10, r10, #8, #8
 329 00ee 04F802A0 		strb	r10, [r4, r2]
 840:Generated_Source\PSoC5/USBFS_std.c ****                                                                 USBFS_EP[cur_ep].buffOffset & 0xFFu
 330              		.loc 1 840 0
 331 00f2 B1F806A0 		ldrh	r10, [r1, #6]
 332 00f6 033C     		subs	r4, r4, #3
 333 00f8 5FFA8AFA 		uxtb	r10, r10
 334 00fc 04F802A0 		strb	r10, [r4, r2]
 842:Generated_Source\PSoC5/USBFS_std.c ****                                                                 USBFS_EP[cur_ep].buffOffset >> 8u);
 335              		.loc 1 842 0
 336 0100 0134     		adds	r4, r4, #1
 337 0102 1444     		add	r4, r4, r2
 338 0104 CA88     		ldrh	r2, [r1, #6]
 339              	.LVL23:
 340 0106 C2F30722 		ubfx	r2, r2, #8, #8
 341 010a 2270     		strb	r2, [r4]
 342              	.L18:
 847:Generated_Source\PSoC5/USBFS_std.c ****         }
 343              		.loc 1 847 0
 344 010c 0833     		adds	r3, r3, #8
 345              	.LVL24:
 346 010e 92E7     		b	.L17
 347              	.LVL25:
 348              	.L15:
 349 0110 BDE8F087 		pop	{r4, r5, r6, r7, r8, r9, r10, pc}
 350              	.L29:
 351              		.align	2
 352              	.L28:
 353 0114 00000000 		.word	USBFS_configuration
 354 0118 00000000 		.word	USBFS_interfaceSetting
 355 011c 00000000 		.word	USBFS_EP
 356 0120 0E600040 		.word	1073766414
 357 0124 0C600040 		.word	1073766412
 358 0128 00000000 		.word	USBFS_interfaceSetting_last
 359 012c 04600040 		.word	1073766404
 360              	.LBE7:
 361              	.LBE6:
 362              		.cfi_endproc
ARM GAS  C:\Users\RABBIT~1\AppData\Local\Temp\ccYRpEyv.s 			page 24


 363              	.LFE3:
 364              		.size	USBFS_ConfigAltChanged, .-USBFS_ConfigAltChanged
 365              		.section	.text.USBFS_GetDeviceTablePtr,"ax",%progbits
 366              		.align	1
 367              		.global	USBFS_GetDeviceTablePtr
 368              		.thumb
 369              		.thumb_func
 370              		.type	USBFS_GetDeviceTablePtr, %function
 371              	USBFS_GetDeviceTablePtr:
 372              	.LFB5:
 892:Generated_Source\PSoC5/USBFS_std.c **** 
 893:Generated_Source\PSoC5/USBFS_std.c **** 
 894:Generated_Source\PSoC5/USBFS_std.c **** /*******************************************************************************
 895:Generated_Source\PSoC5/USBFS_std.c **** * Function Name: USBFS_GetDeviceTablePtr
 896:Generated_Source\PSoC5/USBFS_std.c **** ********************************************************************************
 897:Generated_Source\PSoC5/USBFS_std.c **** *
 898:Generated_Source\PSoC5/USBFS_std.c **** * Summary:
 899:Generated_Source\PSoC5/USBFS_std.c **** *  This routine returns a pointer to the Device table
 900:Generated_Source\PSoC5/USBFS_std.c **** *
 901:Generated_Source\PSoC5/USBFS_std.c **** * Parameters:
 902:Generated_Source\PSoC5/USBFS_std.c **** *  None.
 903:Generated_Source\PSoC5/USBFS_std.c **** *
 904:Generated_Source\PSoC5/USBFS_std.c **** * Return:
 905:Generated_Source\PSoC5/USBFS_std.c **** *  Device Table pointer
 906:Generated_Source\PSoC5/USBFS_std.c **** *
 907:Generated_Source\PSoC5/USBFS_std.c **** *******************************************************************************/
 908:Generated_Source\PSoC5/USBFS_std.c **** const T_USBFS_LUT CYCODE *USBFS_GetDeviceTablePtr(void)
 909:Generated_Source\PSoC5/USBFS_std.c ****                                                             
 910:Generated_Source\PSoC5/USBFS_std.c **** {
 373              		.loc 1 910 0
 374              		.cfi_startproc
 375              		@ args = 0, pretend = 0, frame = 0
 376              		@ frame_needed = 0, uses_anonymous_args = 0
 377              		@ link register save eliminated.
 911:Generated_Source\PSoC5/USBFS_std.c ****     /* Device Table */
 912:Generated_Source\PSoC5/USBFS_std.c ****     return( (const T_USBFS_LUT CYCODE *) USBFS_TABLE[USBFS_device].p_list );
 378              		.loc 1 912 0
 379 0000 034B     		ldr	r3, .L31
 380 0002 1A78     		ldrb	r2, [r3]	@ zero_extendqisi2
 381 0004 034B     		ldr	r3, .L31+4
 382 0006 03EBC203 		add	r3, r3, r2, lsl #3
 913:Generated_Source\PSoC5/USBFS_std.c **** }
 383              		.loc 1 913 0
 384 000a 5868     		ldr	r0, [r3, #4]
 385 000c 7047     		bx	lr
 386              	.L32:
 387 000e 00BF     		.align	2
 388              	.L31:
 389 0010 00000000 		.word	USBFS_device
 390 0014 00000000 		.word	USBFS_TABLE
 391              		.cfi_endproc
 392              	.LFE5:
 393              		.size	USBFS_GetDeviceTablePtr, .-USBFS_GetDeviceTablePtr
 394              		.section	.text.USBFS_GetInterfaceClassTablePtr,"ax",%progbits
 395              		.align	1
 396              		.global	USBFS_GetInterfaceClassTablePtr
 397              		.thumb
ARM GAS  C:\Users\RABBIT~1\AppData\Local\Temp\ccYRpEyv.s 			page 25


 398              		.thumb_func
 399              		.type	USBFS_GetInterfaceClassTablePtr, %function
 400              	USBFS_GetInterfaceClassTablePtr:
 401              	.LFB6:
 914:Generated_Source\PSoC5/USBFS_std.c **** 
 915:Generated_Source\PSoC5/USBFS_std.c **** 
 916:Generated_Source\PSoC5/USBFS_std.c **** /*******************************************************************************
 917:Generated_Source\PSoC5/USBFS_std.c **** * Function Name: USB_GetInterfaceClassTablePtr
 918:Generated_Source\PSoC5/USBFS_std.c **** ********************************************************************************
 919:Generated_Source\PSoC5/USBFS_std.c **** *
 920:Generated_Source\PSoC5/USBFS_std.c **** * Summary:
 921:Generated_Source\PSoC5/USBFS_std.c **** *  This routine returns Interface Class table pointer, which contains
 922:Generated_Source\PSoC5/USBFS_std.c **** *  the relation between interface number and interface class.
 923:Generated_Source\PSoC5/USBFS_std.c **** *
 924:Generated_Source\PSoC5/USBFS_std.c **** * Parameters:
 925:Generated_Source\PSoC5/USBFS_std.c **** *  None.
 926:Generated_Source\PSoC5/USBFS_std.c **** *
 927:Generated_Source\PSoC5/USBFS_std.c **** * Return:
 928:Generated_Source\PSoC5/USBFS_std.c **** *  Interface Class table pointer.
 929:Generated_Source\PSoC5/USBFS_std.c **** *
 930:Generated_Source\PSoC5/USBFS_std.c **** *******************************************************************************/
 931:Generated_Source\PSoC5/USBFS_std.c **** const uint8 CYCODE *USBFS_GetInterfaceClassTablePtr(void)
 932:Generated_Source\PSoC5/USBFS_std.c ****                                                         
 933:Generated_Source\PSoC5/USBFS_std.c **** {
 402              		.loc 1 933 0
 403              		.cfi_startproc
 404              		@ args = 0, pretend = 0, frame = 0
 405              		@ frame_needed = 0, uses_anonymous_args = 0
 406 0000 08B5     		push	{r3, lr}
 407              		.cfi_def_cfa_offset 8
 408              		.cfi_offset 3, -8
 409              		.cfi_offset 14, -4
 934:Generated_Source\PSoC5/USBFS_std.c ****     const T_USBFS_LUT CYCODE *pTmp;
 935:Generated_Source\PSoC5/USBFS_std.c ****     const uint8 CYCODE *pInterfaceClass;
 936:Generated_Source\PSoC5/USBFS_std.c ****     uint8 currentInterfacesNum;
 937:Generated_Source\PSoC5/USBFS_std.c **** 
 938:Generated_Source\PSoC5/USBFS_std.c ****     pTmp = USBFS_GetConfigTablePtr(USBFS_configuration - 1u);
 410              		.loc 1 938 0
 411 0002 064B     		ldr	r3, .L36
 412 0004 1878     		ldrb	r0, [r3]	@ zero_extendqisi2
 413 0006 0138     		subs	r0, r0, #1
 414 0008 C0B2     		uxtb	r0, r0
 415 000a FFF7FEFF 		bl	USBFS_GetConfigTablePtr
 416              	.LVL26:
 939:Generated_Source\PSoC5/USBFS_std.c ****     if( pTmp != NULL )
 417              		.loc 1 939 0
 418 000e 20B1     		cbz	r0, .L34
 419              	.LVL27:
 940:Generated_Source\PSoC5/USBFS_std.c ****     {
 941:Generated_Source\PSoC5/USBFS_std.c ****         currentInterfacesNum  = ((const uint8 *) pTmp->p_list)[USBFS_CONFIG_DESCR_NUM_INTERFACES];
 420              		.loc 1 941 0
 421 0010 4368     		ldr	r3, [r0, #4]
 942:Generated_Source\PSoC5/USBFS_std.c ****         /* Third entry in the LUT starts the Interface Table pointers */
 943:Generated_Source\PSoC5/USBFS_std.c ****         /* The INTERFACE_CLASS table is located after all interfaces */
 944:Generated_Source\PSoC5/USBFS_std.c ****         pTmp = &pTmp[currentInterfacesNum + 2u];
 422              		.loc 1 944 0
 423 0012 1B79     		ldrb	r3, [r3, #4]	@ zero_extendqisi2
ARM GAS  C:\Users\RABBIT~1\AppData\Local\Temp\ccYRpEyv.s 			page 26


 424              	.LVL28:
 945:Generated_Source\PSoC5/USBFS_std.c ****         pInterfaceClass = (const uint8 CYCODE *) pTmp->p_list;
 425              		.loc 1 945 0
 426 0014 00EBC300 		add	r0, r0, r3, lsl #3
 427              	.LVL29:
 428 0018 4069     		ldr	r0, [r0, #20]
 429              	.LVL30:
 430              	.L34:
 946:Generated_Source\PSoC5/USBFS_std.c ****     }
 947:Generated_Source\PSoC5/USBFS_std.c ****     else
 948:Generated_Source\PSoC5/USBFS_std.c ****     {
 949:Generated_Source\PSoC5/USBFS_std.c ****         pInterfaceClass = (const uint8 CYCODE *) NULL;
 950:Generated_Source\PSoC5/USBFS_std.c ****     }
 951:Generated_Source\PSoC5/USBFS_std.c **** 
 952:Generated_Source\PSoC5/USBFS_std.c ****     return( pInterfaceClass );
 953:Generated_Source\PSoC5/USBFS_std.c **** }
 431              		.loc 1 953 0
 432 001a 08BD     		pop	{r3, pc}
 433              	.L37:
 434              		.align	2
 435              	.L36:
 436 001c 00000000 		.word	USBFS_configuration
 437              		.cfi_endproc
 438              	.LFE6:
 439              		.size	USBFS_GetInterfaceClassTablePtr, .-USBFS_GetInterfaceClassTablePtr
 440              		.section	.text.USBFS_Config,"ax",%progbits
 441              		.align	1
 442              		.global	USBFS_Config
 443              		.thumb
 444              		.thumb_func
 445              		.type	USBFS_Config, %function
 446              	USBFS_Config:
 447              	.LFB2:
 494:Generated_Source\PSoC5/USBFS_std.c ****     uint8 ep;
 448              		.loc 1 494 0
 449              		.cfi_startproc
 450              		@ args = 0, pretend = 0, frame = 0
 451              		@ frame_needed = 0, uses_anonymous_args = 0
 452              	.LVL31:
 453 0000 0021     		movs	r1, #0
 454 0002 2DE9F84F 		push	{r3, r4, r5, r6, r7, r8, r9, r10, fp, lr}
 455              		.cfi_def_cfa_offset 40
 456              		.cfi_offset 3, -40
 457              		.cfi_offset 4, -36
 458              		.cfi_offset 5, -32
 459              		.cfi_offset 6, -28
 460              		.cfi_offset 7, -24
 461              		.cfi_offset 8, -20
 462              		.cfi_offset 9, -16
 463              		.cfi_offset 10, -12
 464              		.cfi_offset 11, -8
 465              		.cfi_offset 14, -4
 510:Generated_Source\PSoC5/USBFS_std.c ****         USBFS_EP[ep].hwEpState = 0u;
 466              		.loc 1 510 0
 467 0006 0B46     		mov	r3, r1
 468 0008 4A4E     		ldr	r6, .L70
 469 000a 0C27     		movs	r7, #12
ARM GAS  C:\Users\RABBIT~1\AppData\Local\Temp\ccYRpEyv.s 			page 27


 470              	.LVL32:
 471              	.L39:
 510:Generated_Source\PSoC5/USBFS_std.c ****         USBFS_EP[ep].hwEpState = 0u;
 472              		.loc 1 510 0 is_stmt 0 discriminator 3
 473 000c 07FB01F5 		mul	r5, r7, r1
 474 0010 0131     		adds	r1, r1, #1
 475              	.LVL33:
 476 0012 7219     		adds	r2, r6, r5
 508:Generated_Source\PSoC5/USBFS_std.c ****     {
 477              		.loc 1 508 0 is_stmt 1 discriminator 3
 478 0014 0929     		cmp	r1, #9
 510:Generated_Source\PSoC5/USBFS_std.c ****         USBFS_EP[ep].hwEpState = 0u;
 479              		.loc 1 510 0 discriminator 3
 480 0016 7355     		strb	r3, [r6, r5]
 481 0018 4FF00004 		mov	r4, #0
 511:Generated_Source\PSoC5/USBFS_std.c ****         USBFS_EP[ep].apiEpState = USBFS_NO_EVENT_PENDING;
 482              		.loc 1 511 0 discriminator 3
 483 001c 9370     		strb	r3, [r2, #2]
 484 001e 454D     		ldr	r5, .L70
 512:Generated_Source\PSoC5/USBFS_std.c ****         USBFS_EP[ep].epToggle = 0u;
 485              		.loc 1 512 0 discriminator 3
 486 0020 5370     		strb	r3, [r2, #1]
 513:Generated_Source\PSoC5/USBFS_std.c ****         USBFS_EP[ep].epMode = USBFS_MODE_DISABLE;
 487              		.loc 1 513 0 discriminator 3
 488 0022 D370     		strb	r3, [r2, #3]
 514:Generated_Source\PSoC5/USBFS_std.c ****         USBFS_EP[ep].bufferSize = 0u;
 489              		.loc 1 514 0 discriminator 3
 490 0024 5371     		strb	r3, [r2, #5]
 515:Generated_Source\PSoC5/USBFS_std.c ****         USBFS_EP[ep].interface = 0u;
 491              		.loc 1 515 0 discriminator 3
 492 0026 1381     		strh	r3, [r2, #8]	@ movhi
 516:Generated_Source\PSoC5/USBFS_std.c **** 
 493              		.loc 1 516 0 discriminator 3
 494 0028 9372     		strb	r3, [r2, #10]
 508:Generated_Source\PSoC5/USBFS_std.c ****     {
 495              		.loc 1 508 0 discriminator 3
 496 002a EFD1     		bne	.L39
 521:Generated_Source\PSoC5/USBFS_std.c ****     {
 497              		.loc 1 521 0
 498 002c 18B1     		cbz	r0, .L40
 499              	.LVL34:
 525:Generated_Source\PSoC5/USBFS_std.c ****             USBFS_interfaceSetting_last[i] = 0x00u;
 500              		.loc 1 525 0 discriminator 3
 501 002e 424B     		ldr	r3, .L70+4
 502 0030 1C70     		strb	r4, [r3]
 526:Generated_Source\PSoC5/USBFS_std.c ****         }
 503              		.loc 1 526 0 discriminator 3
 504 0032 424B     		ldr	r3, .L70+8
 505 0034 1C70     		strb	r4, [r3]
 506              	.LVL35:
 507              	.L40:
 531:Generated_Source\PSoC5/USBFS_std.c ****     {
 508              		.loc 1 531 0
 509 0036 424B     		ldr	r3, .L70+12
 510 0038 1A78     		ldrb	r2, [r3]	@ zero_extendqisi2
 511 003a 002A     		cmp	r2, #0
 512 003c 77D0     		beq	.L38
ARM GAS  C:\Users\RABBIT~1\AppData\Local\Temp\ccYRpEyv.s 			page 28


 513              	.LVL36:
 514              	.LBB10:
 515              	.LBB11:
 533:Generated_Source\PSoC5/USBFS_std.c ****         /* Set Power status for current configuration */
 516              		.loc 1 533 0
 517 003e 1878     		ldrb	r0, [r3]	@ zero_extendqisi2
 518              	.LVL37:
 546:Generated_Source\PSoC5/USBFS_std.c **** 
 519              		.loc 1 546 0
 520 0040 0124     		movs	r4, #1
 533:Generated_Source\PSoC5/USBFS_std.c ****         /* Set Power status for current configuration */
 521              		.loc 1 533 0
 522 0042 0138     		subs	r0, r0, #1
 523 0044 C0B2     		uxtb	r0, r0
 524 0046 FFF7FEFF 		bl	USBFS_GetConfigTablePtr
 525              	.LVL38:
 635:Generated_Source\PSoC5/USBFS_std.c ****                                 USBFS_EP[i].epMode = (epType == USBFS_EP_TYPE_ISOC) ?
 526              		.loc 1 635 0
 527 004a A146     		mov	r9, r4
 536:Generated_Source\PSoC5/USBFS_std.c ****         {
 528              		.loc 1 536 0
 529 004c 4368     		ldr	r3, [r0, #4]
 629:Generated_Source\PSoC5/USBFS_std.c ****                         {
 530              		.loc 1 629 0
 531 004e DFF8E8C0 		ldr	ip, .L70+4
 536:Generated_Source\PSoC5/USBFS_std.c ****         {
 532              		.loc 1 536 0
 533 0052 DB79     		ldrb	r3, [r3, #7]	@ zero_extendqisi2
 624:Generated_Source\PSoC5/USBFS_std.c ****                         {
 534              		.loc 1 624 0
 535 0054 4FF00C0E 		mov	lr, #12
 536:Generated_Source\PSoC5/USBFS_std.c ****         {
 536              		.loc 1 536 0
 537 0058 13F0400F 		tst	r3, #64
 538 005c 394B     		ldr	r3, .L70+16
 659:Generated_Source\PSoC5/USBFS_std.c ****                                 USBFS_EP[i].epMode = (epType == USBFS_EP_TYPE_ISOC) ?
 539              		.loc 1 659 0
 540 005e 4FF00008 		mov	r8, #0
 538:Generated_Source\PSoC5/USBFS_std.c ****         }
 541              		.loc 1 538 0
 542 0062 1A78     		ldrb	r2, [r3]	@ zero_extendqisi2
 543 0064 14BF     		ite	ne
 544 0066 42F00102 		orrne	r2, r2, #1
 542:Generated_Source\PSoC5/USBFS_std.c ****         }
 545              		.loc 1 542 0
 546 006a 02F0FE02 		andeq	r2, r2, #254
 547 006e 1A70     		strb	r2, [r3]
 548              	.LVL39:
 549 0070 027A     		ldrb	r2, [r0, #8]	@ zero_extendqisi2
 550 0072 D200     		lsls	r2, r2, #3
 551              	.LVL40:
 552              	.L54:
 624:Generated_Source\PSoC5/USBFS_std.c ****                         {
 553              		.loc 1 624 0
 554 0074 0EFB0451 		mla	r1, lr, r4, r5
 616:Generated_Source\PSoC5/USBFS_std.c ****                 /* Find max length for each EP and select it (length could be different in differen
 555              		.loc 1 616 0
ARM GAS  C:\Users\RABBIT~1\AppData\Local\Temp\ccYRpEyv.s 			page 29


 556 0078 C368     		ldr	r3, [r0, #12]
 557              	.LVL41:
 558 007a 03EB020A 		add	r10, r3, r2
 559              	.LVL42:
 560              	.L44:
 619:Generated_Source\PSoC5/USBFS_std.c ****                 {
 561              		.loc 1 619 0
 562 007e 5345     		cmp	r3, r10
 563 0080 2CD0     		beq	.L68
 622:Generated_Source\PSoC5/USBFS_std.c ****                     {
 564              		.loc 1 622 0
 565 0082 9F78     		ldrb	r7, [r3, #2]	@ zero_extendqisi2
 566 0084 07F07F06 		and	r6, r7, #127
 567 0088 A642     		cmp	r6, r4
 568 008a 25D1     		bne	.L46
 624:Generated_Source\PSoC5/USBFS_std.c ****                         {
 569              		.loc 1 624 0
 570 008c 0E89     		ldrh	r6, [r1, #8]
 571 008e B3F804B0 		ldrh	fp, [r3, #4]
 572 0092 B6B2     		uxth	r6, r6
 573 0094 5E45     		cmp	r6, fp
 626:Generated_Source\PSoC5/USBFS_std.c ****                         }
 574              		.loc 1 626 0
 575 0096 38BF     		it	cc
 576 0098 A1F808B0 		strhcc	fp, [r1, #8]	@ movhi
 629:Generated_Source\PSoC5/USBFS_std.c ****                         {
 577              		.loc 1 629 0
 578 009c 1E78     		ldrb	r6, [r3]	@ zero_extendqisi2
 579 009e 93F801B0 		ldrb	fp, [r3, #1]	@ zero_extendqisi2
 580 00a2 1CF80660 		ldrb	r6, [ip, r6]	@ zero_extendqisi2
 581 00a6 B345     		cmp	fp, r6
 582 00a8 16D1     		bne	.L46
 631:Generated_Source\PSoC5/USBFS_std.c ****                             if ((pEP->addr & USBFS_DIR_IN) != 0u)
 583              		.loc 1 631 0
 584 00aa DE78     		ldrb	r6, [r3, #3]	@ zero_extendqisi2
 632:Generated_Source\PSoC5/USBFS_std.c ****                             {
 585              		.loc 1 632 0
 586 00ac 3F06     		lsls	r7, r7, #24
 631:Generated_Source\PSoC5/USBFS_std.c ****                             if ((pEP->addr & USBFS_DIR_IN) != 0u)
 587              		.loc 1 631 0
 588 00ae 06F00306 		and	r6, r6, #3
 589              	.LVL43:
 632:Generated_Source\PSoC5/USBFS_std.c ****                             {
 590              		.loc 1 632 0
 591 00b2 06D5     		bpl	.L49
 636:Generated_Source\PSoC5/USBFS_std.c ****                                                         USBFS_MODE_ISO_IN : USBFS_MODE_ACK_IN;
 592              		.loc 1 636 0
 593 00b4 012E     		cmp	r6, #1
 635:Generated_Source\PSoC5/USBFS_std.c ****                                 USBFS_EP[i].epMode = (epType == USBFS_EP_TYPE_ISOC) ?
 594              		.loc 1 635 0
 595 00b6 81F80190 		strb	r9, [r1, #1]
 636:Generated_Source\PSoC5/USBFS_std.c ****                                                         USBFS_MODE_ISO_IN : USBFS_MODE_ACK_IN;
 596              		.loc 1 636 0
 597 00ba 0CBF     		ite	eq
 598 00bc 0726     		moveq	r6, #7
 599              	.LVL44:
 600 00be 0D26     		movne	r6, #13
ARM GAS  C:\Users\RABBIT~1\AppData\Local\Temp\ccYRpEyv.s 			page 30


 601 00c0 05E0     		b	.L67
 602              	.LVL45:
 603              	.L49:
 660:Generated_Source\PSoC5/USBFS_std.c ****                                                     USBFS_MODE_ISO_OUT : USBFS_MODE_ACK_OUT;
 604              		.loc 1 660 0
 605 00c2 012E     		cmp	r6, #1
 659:Generated_Source\PSoC5/USBFS_std.c ****                                 USBFS_EP[i].epMode = (epType == USBFS_EP_TYPE_ISOC) ?
 606              		.loc 1 659 0
 607 00c4 81F80180 		strb	r8, [r1, #1]
 660:Generated_Source\PSoC5/USBFS_std.c ****                                                     USBFS_MODE_ISO_OUT : USBFS_MODE_ACK_OUT;
 608              		.loc 1 660 0
 609 00c8 0CBF     		ite	eq
 610 00ca 0526     		moveq	r6, #5
 611              	.LVL46:
 612 00cc 0926     		movne	r6, #9
 613              	.L67:
 614 00ce 4E71     		strb	r6, [r1, #5]
 680:Generated_Source\PSoC5/USBFS_std.c ****                             USBFS_EP[i].attrib = pEP->attributes;
 615              		.loc 1 680 0
 616 00d0 9E78     		ldrb	r6, [r3, #2]	@ zero_extendqisi2
 617 00d2 0E71     		strb	r6, [r1, #4]
 681:Generated_Source\PSoC5/USBFS_std.c **** 
 618              		.loc 1 681 0
 619 00d4 DE78     		ldrb	r6, [r3, #3]	@ zero_extendqisi2
 620 00d6 0E70     		strb	r6, [r1]
 621              	.L46:
 688:Generated_Source\PSoC5/USBFS_std.c ****                 }
 622              		.loc 1 688 0
 623 00d8 0833     		adds	r3, r3, #8
 624              	.LVL47:
 625 00da D0E7     		b	.L44
 626              	.L68:
 627              	.LVL48:
 628 00dc 0134     		adds	r4, r4, #1
 629              	.LVL49:
 613:Generated_Source\PSoC5/USBFS_std.c ****             {
 630              		.loc 1 613 0
 631 00de 092C     		cmp	r4, #9
 632 00e0 C8D1     		bne	.L54
 698:Generated_Source\PSoC5/USBFS_std.c ****         for (i = 0u; i < ep; i++)
 633              		.loc 1 698 0
 634 00e2 C168     		ldr	r1, [r0, #12]
 635              	.LVL50:
 636 00e4 0A32     		adds	r2, r2, #10
 637 00e6 8B1C     		adds	r3, r1, #2
 638 00e8 0A44     		add	r2, r2, r1
 702:Generated_Source\PSoC5/USBFS_std.c ****             pEP = &pEP[1u];
 639              		.loc 1 702 0
 640 00ea 0C20     		movs	r0, #12
 641              	.LVL51:
 642              	.L55:
 643 00ec 0833     		adds	r3, r3, #8
 644              	.LVL52:
 699:Generated_Source\PSoC5/USBFS_std.c ****         {
 645              		.loc 1 699 0
 646 00ee 9342     		cmp	r3, r2
 647 00f0 09D0     		beq	.L69
ARM GAS  C:\Users\RABBIT~1\AppData\Local\Temp\ccYRpEyv.s 			page 31


 702:Generated_Source\PSoC5/USBFS_std.c ****             pEP = &pEP[1u];
 648              		.loc 1 702 0
 649 00f2 13F8081C 		ldrb	r1, [r3, #-8]	@ zero_extendqisi2
 650 00f6 13F80A4C 		ldrb	r4, [r3, #-10]	@ zero_extendqisi2
 651 00fa 01F07F01 		and	r1, r1, #127
 652 00fe 00FB0151 		mla	r1, r0, r1, r5
 653 0102 8C72     		strb	r4, [r1, #10]
 654              	.LVL53:
 655 0104 F2E7     		b	.L55
 656              	.LVL54:
 657              	.L69:
 706:Generated_Source\PSoC5/USBFS_std.c ****         /* Set the endpoint buffer addresses */
 658              		.loc 1 706 0
 659 0106 FFF7FEFF 		bl	USBFS_GetInterfaceClassTablePtr
 660              	.LVL55:
 661 010a 0F4B     		ldr	r3, .L70+20
 662 010c 0122     		movs	r2, #1
 663 010e 1860     		str	r0, [r3]
 664              	.LVL56:
 501:Generated_Source\PSoC5/USBFS_std.c ****     #endif /*  USBFS_EP_MM != USBFS__EP_DMAAUTO */
 665              		.loc 1 501 0
 666 0110 0023     		movs	r3, #0
 712:Generated_Source\PSoC5/USBFS_std.c ****                  buffCount += USBFS_EP[ep].bufferSize;
 667              		.loc 1 712 0
 668 0112 0C20     		movs	r0, #12
 669              	.LVL57:
 670              	.L57:
 671 0114 00FB0251 		mla	r1, r0, r2, r5
 672 0118 CB80     		strh	r3, [r1, #6]	@ movhi
 713:Generated_Source\PSoC5/USBFS_std.c ****             }
 673              		.loc 1 713 0
 674 011a 0989     		ldrh	r1, [r1, #8]
 675 011c 0132     		adds	r2, r2, #1
 676              	.LVL58:
 677 011e 0B44     		add	r3, r3, r1
 678              	.LVL59:
 710:Generated_Source\PSoC5/USBFS_std.c ****             {
 679              		.loc 1 710 0
 680 0120 092A     		cmp	r2, #9
 713:Generated_Source\PSoC5/USBFS_std.c ****             }
 681              		.loc 1 713 0
 682 0122 9BB2     		uxth	r3, r3
 683              	.LVL60:
 710:Generated_Source\PSoC5/USBFS_std.c ****             {
 684              		.loc 1 710 0
 685 0124 F6D1     		bne	.L57
 686              	.LBE11:
 687              	.LBE10:
 720:Generated_Source\PSoC5/USBFS_std.c **** 
 688              		.loc 1 720 0
 689 0126 BDE8F84F 		pop	{r3, r4, r5, r6, r7, r8, r9, r10, fp, lr}
 690              		.cfi_remember_state
 691              		.cfi_restore 14
 692              		.cfi_restore 11
 693              		.cfi_restore 10
 694              		.cfi_restore 9
 695              		.cfi_restore 8
ARM GAS  C:\Users\RABBIT~1\AppData\Local\Temp\ccYRpEyv.s 			page 32


 696              		.cfi_restore 7
 697              		.cfi_restore 6
 698              		.cfi_restore 5
 699              		.cfi_restore 4
 700              		.cfi_restore 3
 701              		.cfi_def_cfa_offset 0
 702              	.LVL61:
 703              	.LBB13:
 704              	.LBB12:
 718:Generated_Source\PSoC5/USBFS_std.c ****     } /* USBFS_configuration > 0 */
 705              		.loc 1 718 0
 706 012a FFF7FEBF 		b	USBFS_ConfigReg
 707              	.LVL62:
 708              	.L38:
 709              		.cfi_restore_state
 710 012e BDE8F88F 		pop	{r3, r4, r5, r6, r7, r8, r9, r10, fp, pc}
 711              	.L71:
 712 0132 00BF     		.align	2
 713              	.L70:
 714 0134 00000000 		.word	USBFS_EP
 715 0138 00000000 		.word	USBFS_interfaceSetting
 716 013c 00000000 		.word	USBFS_interfaceSetting_last
 717 0140 00000000 		.word	USBFS_configuration
 718 0144 00000000 		.word	USBFS_deviceStatus
 719 0148 00000000 		.word	USBFS_interfaceClass
 720              	.LBE12:
 721              	.LBE13:
 722              		.cfi_endproc
 723              	.LFE2:
 724              		.size	USBFS_Config, .-USBFS_Config
 725              		.section	.text.USBFS_TerminateEP,"ax",%progbits
 726              		.align	1
 727              		.global	USBFS_TerminateEP
 728              		.thumb
 729              		.thumb_func
 730              		.type	USBFS_TerminateEP, %function
 731              	USBFS_TerminateEP:
 732              	.LFB7:
 954:Generated_Source\PSoC5/USBFS_std.c **** 
 955:Generated_Source\PSoC5/USBFS_std.c **** 
 956:Generated_Source\PSoC5/USBFS_std.c **** /*******************************************************************************
 957:Generated_Source\PSoC5/USBFS_std.c **** * Function Name: USBFS_TerminateEP
 958:Generated_Source\PSoC5/USBFS_std.c **** ********************************************************************************
 959:Generated_Source\PSoC5/USBFS_std.c **** *
 960:Generated_Source\PSoC5/USBFS_std.c **** * Summary:
 961:Generated_Source\PSoC5/USBFS_std.c **** *  This function terminates the specified USBFS endpoint.
 962:Generated_Source\PSoC5/USBFS_std.c **** *  This function should be used before endpoint reconfiguration.
 963:Generated_Source\PSoC5/USBFS_std.c **** *
 964:Generated_Source\PSoC5/USBFS_std.c **** * Parameters:
 965:Generated_Source\PSoC5/USBFS_std.c **** *  Endpoint number.
 966:Generated_Source\PSoC5/USBFS_std.c **** *
 967:Generated_Source\PSoC5/USBFS_std.c **** * Return:
 968:Generated_Source\PSoC5/USBFS_std.c **** *  None.
 969:Generated_Source\PSoC5/USBFS_std.c **** *
 970:Generated_Source\PSoC5/USBFS_std.c **** * Reentrant:
 971:Generated_Source\PSoC5/USBFS_std.c **** *  No.
 972:Generated_Source\PSoC5/USBFS_std.c **** *
ARM GAS  C:\Users\RABBIT~1\AppData\Local\Temp\ccYRpEyv.s 			page 33


 973:Generated_Source\PSoC5/USBFS_std.c **** *******************************************************************************/
 974:Generated_Source\PSoC5/USBFS_std.c **** void USBFS_TerminateEP(uint8 ep) 
 975:Generated_Source\PSoC5/USBFS_std.c **** {
 733              		.loc 1 975 0
 734              		.cfi_startproc
 735              		@ args = 0, pretend = 0, frame = 0
 736              		@ frame_needed = 0, uses_anonymous_args = 0
 737              		@ link register save eliminated.
 738              	.LVL63:
 976:Generated_Source\PSoC5/USBFS_std.c ****     uint8 ri;
 977:Generated_Source\PSoC5/USBFS_std.c **** 
 978:Generated_Source\PSoC5/USBFS_std.c ****     ep &= USBFS_DIR_UNUSED;
 739              		.loc 1 978 0
 740 0000 00F07F00 		and	r0, r0, #127
 741              	.LVL64:
 979:Generated_Source\PSoC5/USBFS_std.c ****     ri = ((ep - USBFS_EP1) << USBFS_EPX_CNTX_ADDR_SHIFT);
 742              		.loc 1 979 0
 743 0004 431E     		subs	r3, r0, #1
 744 0006 DBB2     		uxtb	r3, r3
 745              	.LVL65:
 980:Generated_Source\PSoC5/USBFS_std.c **** 
 981:Generated_Source\PSoC5/USBFS_std.c ****     if ((ep > USBFS_EP0) && (ep < USBFS_MAX_EP))
 746              		.loc 1 981 0
 747 0008 072B     		cmp	r3, #7
 748 000a 14D8     		bhi	.L72
 982:Generated_Source\PSoC5/USBFS_std.c ****     {
 983:Generated_Source\PSoC5/USBFS_std.c ****         /* Set the endpoint Halt */
 984:Generated_Source\PSoC5/USBFS_std.c ****         USBFS_EP[ep].hwEpState |= (USBFS_ENDPOINT_STATUS_HALT);
 749              		.loc 1 984 0
 750 000c 0A4A     		ldr	r2, .L76
 751 000e 0C21     		movs	r1, #12
 752 0010 01FB0020 		mla	r0, r1, r0, r2
 753              	.LVL66:
 754 0014 8278     		ldrb	r2, [r0, #2]	@ zero_extendqisi2
 979:Generated_Source\PSoC5/USBFS_std.c **** 
 755              		.loc 1 979 0
 756 0016 1B01     		lsls	r3, r3, #4
 757              	.LVL67:
 758              		.loc 1 984 0
 759 0018 42F00102 		orr	r2, r2, #1
 760 001c 8270     		strb	r2, [r0, #2]
 985:Generated_Source\PSoC5/USBFS_std.c **** 
 986:Generated_Source\PSoC5/USBFS_std.c ****         /* Clear the data toggle */
 987:Generated_Source\PSoC5/USBFS_std.c ****         USBFS_EP[ep].epToggle = 0u;
 761              		.loc 1 987 0
 762 001e 0022     		movs	r2, #0
 763 0020 C270     		strb	r2, [r0, #3]
 988:Generated_Source\PSoC5/USBFS_std.c ****         USBFS_EP[ep].apiEpState = USBFS_NO_EVENT_ALLOWED;
 764              		.loc 1 988 0
 765 0022 0222     		movs	r2, #2
 766 0024 4270     		strb	r2, [r0, #1]
 989:Generated_Source\PSoC5/USBFS_std.c **** 
 990:Generated_Source\PSoC5/USBFS_std.c ****         if ((USBFS_EP[ep].addr & USBFS_DIR_IN) != 0u)
 767              		.loc 1 990 0
 768 0026 0279     		ldrb	r2, [r0, #4]	@ zero_extendqisi2
 979:Generated_Source\PSoC5/USBFS_std.c **** 
 769              		.loc 1 979 0
ARM GAS  C:\Users\RABBIT~1\AppData\Local\Temp\ccYRpEyv.s 			page 34


 770 0028 DBB2     		uxtb	r3, r3
 771              		.loc 1 990 0
 772 002a 12F0800F 		tst	r2, #128
 773 002e 034A     		ldr	r2, .L76+4
 991:Generated_Source\PSoC5/USBFS_std.c ****         {
 992:Generated_Source\PSoC5/USBFS_std.c ****             /* IN Endpoint */
 993:Generated_Source\PSoC5/USBFS_std.c ****             CY_SET_REG8((reg8 *)(USBFS_SIE_EP1_CR0_IND + ri), USBFS_MODE_NAK_IN);
 994:Generated_Source\PSoC5/USBFS_std.c ****         }
 995:Generated_Source\PSoC5/USBFS_std.c ****         else
 996:Generated_Source\PSoC5/USBFS_std.c ****         {
 997:Generated_Source\PSoC5/USBFS_std.c ****             /* OUT Endpoint */
 998:Generated_Source\PSoC5/USBFS_std.c ****             CY_SET_REG8((reg8 *)(USBFS_SIE_EP1_CR0_IND + ri), USBFS_MODE_NAK_OUT);
 774              		.loc 1 998 0
 775 0030 08BF     		it	eq
 776 0032 0821     		moveq	r1, #8
 777 0034 9954     		strb	r1, [r3, r2]
 778              	.L72:
 779 0036 7047     		bx	lr
 780              	.L77:
 781              		.align	2
 782              	.L76:
 783 0038 00000000 		.word	USBFS_EP
 784 003c 0E600040 		.word	1073766414
 785              		.cfi_endproc
 786              	.LFE7:
 787              		.size	USBFS_TerminateEP, .-USBFS_TerminateEP
 788              		.section	.text.USBFS_SetEndpointHalt,"ax",%progbits
 789              		.align	1
 790              		.global	USBFS_SetEndpointHalt
 791              		.thumb
 792              		.thumb_func
 793              		.type	USBFS_SetEndpointHalt, %function
 794              	USBFS_SetEndpointHalt:
 795              	.LFB8:
 999:Generated_Source\PSoC5/USBFS_std.c ****         }
1000:Generated_Source\PSoC5/USBFS_std.c ****     }
1001:Generated_Source\PSoC5/USBFS_std.c **** }
1002:Generated_Source\PSoC5/USBFS_std.c **** 
1003:Generated_Source\PSoC5/USBFS_std.c **** 
1004:Generated_Source\PSoC5/USBFS_std.c **** /*******************************************************************************
1005:Generated_Source\PSoC5/USBFS_std.c **** * Function Name: USBFS_SetEndpointHalt
1006:Generated_Source\PSoC5/USBFS_std.c **** ********************************************************************************
1007:Generated_Source\PSoC5/USBFS_std.c **** *
1008:Generated_Source\PSoC5/USBFS_std.c **** * Summary:
1009:Generated_Source\PSoC5/USBFS_std.c **** *  This routine handles set endpoint halt.
1010:Generated_Source\PSoC5/USBFS_std.c **** *
1011:Generated_Source\PSoC5/USBFS_std.c **** * Parameters:
1012:Generated_Source\PSoC5/USBFS_std.c **** *  None.
1013:Generated_Source\PSoC5/USBFS_std.c **** *
1014:Generated_Source\PSoC5/USBFS_std.c **** * Return:
1015:Generated_Source\PSoC5/USBFS_std.c **** *  requestHandled.
1016:Generated_Source\PSoC5/USBFS_std.c **** *
1017:Generated_Source\PSoC5/USBFS_std.c **** * Reentrant:
1018:Generated_Source\PSoC5/USBFS_std.c **** *  No.
1019:Generated_Source\PSoC5/USBFS_std.c **** *
1020:Generated_Source\PSoC5/USBFS_std.c **** *******************************************************************************/
1021:Generated_Source\PSoC5/USBFS_std.c **** uint8 USBFS_SetEndpointHalt(void) 
ARM GAS  C:\Users\RABBIT~1\AppData\Local\Temp\ccYRpEyv.s 			page 35


1022:Generated_Source\PSoC5/USBFS_std.c **** {
 796              		.loc 1 1022 0
 797              		.cfi_startproc
 798              		@ args = 0, pretend = 0, frame = 0
 799              		@ frame_needed = 0, uses_anonymous_args = 0
 800              		@ link register save eliminated.
 801              	.LVL68:
1023:Generated_Source\PSoC5/USBFS_std.c ****     uint8 ep;
1024:Generated_Source\PSoC5/USBFS_std.c ****     uint8 ri;
1025:Generated_Source\PSoC5/USBFS_std.c ****     uint8 requestHandled = USBFS_FALSE;
1026:Generated_Source\PSoC5/USBFS_std.c **** 
1027:Generated_Source\PSoC5/USBFS_std.c ****     /* Set endpoint halt */
1028:Generated_Source\PSoC5/USBFS_std.c ****     ep = CY_GET_REG8(USBFS_wIndexLo) & USBFS_DIR_UNUSED;
 802              		.loc 1 1028 0
 803 0000 114B     		ldr	r3, .L83
 804 0002 1B78     		ldrb	r3, [r3]	@ zero_extendqisi2
 805 0004 03F07F02 		and	r2, r3, #127
 806              	.LVL69:
1029:Generated_Source\PSoC5/USBFS_std.c ****     ri = ((ep - USBFS_EP1) << USBFS_EPX_CNTX_ADDR_SHIFT);
 807              		.loc 1 1029 0
 808 0008 511E     		subs	r1, r2, #1
 809 000a C9B2     		uxtb	r1, r1
 810              	.LVL70:
1030:Generated_Source\PSoC5/USBFS_std.c **** 
1031:Generated_Source\PSoC5/USBFS_std.c ****     if ((ep > USBFS_EP0) && (ep < USBFS_MAX_EP))
 811              		.loc 1 1031 0
 812 000c 0729     		cmp	r1, #7
 813 000e 19D8     		bhi	.L79
1032:Generated_Source\PSoC5/USBFS_std.c ****     {
1033:Generated_Source\PSoC5/USBFS_std.c ****         /* Set the endpoint Halt */
1034:Generated_Source\PSoC5/USBFS_std.c ****         USBFS_EP[ep].hwEpState |= (USBFS_ENDPOINT_STATUS_HALT);
 814              		.loc 1 1034 0
 815 0010 0E4B     		ldr	r3, .L83+4
 816 0012 0C20     		movs	r0, #12
 817 0014 00FB0233 		mla	r3, r0, r2, r3
 818 0018 9A78     		ldrb	r2, [r3, #2]	@ zero_extendqisi2
 819              	.LVL71:
1029:Generated_Source\PSoC5/USBFS_std.c **** 
 820              		.loc 1 1029 0
 821 001a 0901     		lsls	r1, r1, #4
 822              	.LVL72:
 823              		.loc 1 1034 0
 824 001c 42F00102 		orr	r2, r2, #1
 825 0020 9A70     		strb	r2, [r3, #2]
1035:Generated_Source\PSoC5/USBFS_std.c **** 
1036:Generated_Source\PSoC5/USBFS_std.c ****         /* Clear the data toggle */
1037:Generated_Source\PSoC5/USBFS_std.c ****         USBFS_EP[ep].epToggle = 0u;
 826              		.loc 1 1037 0
 827 0022 0022     		movs	r2, #0
 828 0024 DA70     		strb	r2, [r3, #3]
1038:Generated_Source\PSoC5/USBFS_std.c ****         USBFS_EP[ep].apiEpState |= USBFS_NO_EVENT_ALLOWED;
 829              		.loc 1 1038 0
 830 0026 5A78     		ldrb	r2, [r3, #1]	@ zero_extendqisi2
1029:Generated_Source\PSoC5/USBFS_std.c **** 
 831              		.loc 1 1029 0
 832 0028 C9B2     		uxtb	r1, r1
 833              		.loc 1 1038 0
ARM GAS  C:\Users\RABBIT~1\AppData\Local\Temp\ccYRpEyv.s 			page 36


 834 002a 42F00202 		orr	r2, r2, #2
 835 002e 5A70     		strb	r2, [r3, #1]
1039:Generated_Source\PSoC5/USBFS_std.c **** 
1040:Generated_Source\PSoC5/USBFS_std.c ****         if ((USBFS_EP[ep].addr & USBFS_DIR_IN) != 0u)
 836              		.loc 1 1040 0
 837 0030 1B79     		ldrb	r3, [r3, #4]	@ zero_extendqisi2
 838 0032 13F0800F 		tst	r3, #128
 839 0036 064B     		ldr	r3, .L83+8
1041:Generated_Source\PSoC5/USBFS_std.c ****         {
1042:Generated_Source\PSoC5/USBFS_std.c ****             /* IN Endpoint */
1043:Generated_Source\PSoC5/USBFS_std.c ****             CY_SET_REG8((reg8 *)(USBFS_SIE_EP1_CR0_IND + ri), USBFS_MODE_STALL_DATA_EP |
 840              		.loc 1 1043 0
 841 0038 14BF     		ite	ne
 842 003a 8D22     		movne	r2, #141
1044:Generated_Source\PSoC5/USBFS_std.c ****                                                                USBFS_MODE_ACK_IN);
1045:Generated_Source\PSoC5/USBFS_std.c ****         }
1046:Generated_Source\PSoC5/USBFS_std.c ****         else
1047:Generated_Source\PSoC5/USBFS_std.c ****         {
1048:Generated_Source\PSoC5/USBFS_std.c ****             /* OUT Endpoint */
1049:Generated_Source\PSoC5/USBFS_std.c ****             CY_SET_REG8((reg8 *)(USBFS_SIE_EP1_CR0_IND + ri), USBFS_MODE_STALL_DATA_EP |
 843              		.loc 1 1049 0
 844 003c 8922     		moveq	r2, #137
 845 003e CA54     		strb	r2, [r1, r3]
1050:Generated_Source\PSoC5/USBFS_std.c ****                                                                USBFS_MODE_ACK_OUT);
1051:Generated_Source\PSoC5/USBFS_std.c ****         }
1052:Generated_Source\PSoC5/USBFS_std.c ****         requestHandled = USBFS_InitNoDataControlTransfer();
 846              		.loc 1 1052 0
 847 0040 FFF7FEBF 		b	USBFS_InitNoDataControlTransfer
 848              	.LVL73:
 849              	.L79:
1053:Generated_Source\PSoC5/USBFS_std.c ****     }
1054:Generated_Source\PSoC5/USBFS_std.c **** 
1055:Generated_Source\PSoC5/USBFS_std.c ****     return(requestHandled);
1056:Generated_Source\PSoC5/USBFS_std.c **** }
 850              		.loc 1 1056 0
 851 0044 0020     		movs	r0, #0
 852 0046 7047     		bx	lr
 853              	.L84:
 854              		.align	2
 855              	.L83:
 856 0048 04600040 		.word	1073766404
 857 004c 00000000 		.word	USBFS_EP
 858 0050 0E600040 		.word	1073766414
 859              		.cfi_endproc
 860              	.LFE8:
 861              		.size	USBFS_SetEndpointHalt, .-USBFS_SetEndpointHalt
 862              		.section	.text.USBFS_ClearEndpointHalt,"ax",%progbits
 863              		.align	1
 864              		.global	USBFS_ClearEndpointHalt
 865              		.thumb
 866              		.thumb_func
 867              		.type	USBFS_ClearEndpointHalt, %function
 868              	USBFS_ClearEndpointHalt:
 869              	.LFB9:
1057:Generated_Source\PSoC5/USBFS_std.c **** 
1058:Generated_Source\PSoC5/USBFS_std.c **** 
1059:Generated_Source\PSoC5/USBFS_std.c **** /*******************************************************************************
ARM GAS  C:\Users\RABBIT~1\AppData\Local\Temp\ccYRpEyv.s 			page 37


1060:Generated_Source\PSoC5/USBFS_std.c **** * Function Name: USBFS_ClearEndpointHalt
1061:Generated_Source\PSoC5/USBFS_std.c **** ********************************************************************************
1062:Generated_Source\PSoC5/USBFS_std.c **** *
1063:Generated_Source\PSoC5/USBFS_std.c **** * Summary:
1064:Generated_Source\PSoC5/USBFS_std.c **** *  This routine handles clear endpoint halt.
1065:Generated_Source\PSoC5/USBFS_std.c **** *
1066:Generated_Source\PSoC5/USBFS_std.c **** * Parameters:
1067:Generated_Source\PSoC5/USBFS_std.c **** *  None.
1068:Generated_Source\PSoC5/USBFS_std.c **** *
1069:Generated_Source\PSoC5/USBFS_std.c **** * Return:
1070:Generated_Source\PSoC5/USBFS_std.c **** *  requestHandled.
1071:Generated_Source\PSoC5/USBFS_std.c **** *
1072:Generated_Source\PSoC5/USBFS_std.c **** * Reentrant:
1073:Generated_Source\PSoC5/USBFS_std.c **** *  No.
1074:Generated_Source\PSoC5/USBFS_std.c **** *
1075:Generated_Source\PSoC5/USBFS_std.c **** *******************************************************************************/
1076:Generated_Source\PSoC5/USBFS_std.c **** uint8 USBFS_ClearEndpointHalt(void) 
1077:Generated_Source\PSoC5/USBFS_std.c **** {
 870              		.loc 1 1077 0
 871              		.cfi_startproc
 872              		@ args = 0, pretend = 0, frame = 0
 873              		@ frame_needed = 0, uses_anonymous_args = 0
 874              		@ link register save eliminated.
 875              	.LVL74:
 876 0000 10B4     		push	{r4}
 877              		.cfi_def_cfa_offset 4
 878              		.cfi_offset 4, -4
1078:Generated_Source\PSoC5/USBFS_std.c ****     uint8 ep;
1079:Generated_Source\PSoC5/USBFS_std.c ****     uint8 ri;
1080:Generated_Source\PSoC5/USBFS_std.c ****     uint8 requestHandled = USBFS_FALSE;
1081:Generated_Source\PSoC5/USBFS_std.c **** 
1082:Generated_Source\PSoC5/USBFS_std.c ****     /* Clear endpoint halt */
1083:Generated_Source\PSoC5/USBFS_std.c ****     ep = CY_GET_REG8(USBFS_wIndexLo) & USBFS_DIR_UNUSED;
 879              		.loc 1 1083 0
 880 0002 1A4B     		ldr	r3, .L92
 881 0004 1A78     		ldrb	r2, [r3]	@ zero_extendqisi2
 882 0006 02F07F02 		and	r2, r2, #127
 883              	.LVL75:
1084:Generated_Source\PSoC5/USBFS_std.c ****     ri = ((ep - USBFS_EP1) << USBFS_EPX_CNTX_ADDR_SHIFT);
 884              		.loc 1 1084 0
 885 000a 531E     		subs	r3, r2, #1
 886 000c DBB2     		uxtb	r3, r3
 887              	.LVL76:
1085:Generated_Source\PSoC5/USBFS_std.c **** 
1086:Generated_Source\PSoC5/USBFS_std.c ****     if ((ep > USBFS_EP0) && (ep < USBFS_MAX_EP))
 888              		.loc 1 1086 0
 889 000e 072B     		cmp	r3, #7
 890 0010 28D8     		bhi	.L86
1087:Generated_Source\PSoC5/USBFS_std.c ****     {
1088:Generated_Source\PSoC5/USBFS_std.c ****         /* Clear the endpoint Halt */
1089:Generated_Source\PSoC5/USBFS_std.c ****         USBFS_EP[ep].hwEpState &= (uint8)~(USBFS_ENDPOINT_STATUS_HALT);
 891              		.loc 1 1089 0
 892 0012 1749     		ldr	r1, .L92+4
 893 0014 0C20     		movs	r0, #12
 894 0016 00FB0212 		mla	r2, r0, r2, r1
 895              	.LVL77:
 896 001a 9178     		ldrb	r1, [r2, #2]	@ zero_extendqisi2
ARM GAS  C:\Users\RABBIT~1\AppData\Local\Temp\ccYRpEyv.s 			page 38


1090:Generated_Source\PSoC5/USBFS_std.c **** 
1091:Generated_Source\PSoC5/USBFS_std.c ****         /* Clear the data toggle */
1092:Generated_Source\PSoC5/USBFS_std.c ****         USBFS_EP[ep].epToggle = 0u;
1093:Generated_Source\PSoC5/USBFS_std.c ****         /* Clear toggle bit for already armed packet */
1094:Generated_Source\PSoC5/USBFS_std.c ****         CY_SET_REG8((reg8 *)(USBFS_SIE_EP1_CNT0_IND + ri), CY_GET_REG8(
 897              		.loc 1 1094 0
 898 001c 154C     		ldr	r4, .L92+8
1089:Generated_Source\PSoC5/USBFS_std.c **** 
 899              		.loc 1 1089 0
 900 001e 01F0FE01 		and	r1, r1, #254
 901 0022 9170     		strb	r1, [r2, #2]
 902              		.loc 1 1094 0
 903 0024 1B01     		lsls	r3, r3, #4
 904              	.LVL78:
1092:Generated_Source\PSoC5/USBFS_std.c ****         /* Clear toggle bit for already armed packet */
 905              		.loc 1 1092 0
 906 0026 0021     		movs	r1, #0
 907 0028 D170     		strb	r1, [r2, #3]
 908              		.loc 1 1094 0
 909 002a DBB2     		uxtb	r3, r3
 910 002c 195D     		ldrb	r1, [r3, r4]	@ zero_extendqisi2
 911 002e 01F07F01 		and	r1, r1, #127
 912 0032 1955     		strb	r1, [r3, r4]
1095:Generated_Source\PSoC5/USBFS_std.c ****                     (reg8 *)(USBFS_SIE_EP1_CNT0_IND + ri)) & (uint8)~USBFS_EPX_CNT_DATA_TOGGLE);
1096:Generated_Source\PSoC5/USBFS_std.c ****         /* Return API State as it was defined before */
1097:Generated_Source\PSoC5/USBFS_std.c ****         USBFS_EP[ep].apiEpState &= (uint8)~USBFS_NO_EVENT_ALLOWED;
 913              		.loc 1 1097 0
 914 0034 5178     		ldrb	r1, [r2, #1]	@ zero_extendqisi2
 915 0036 01F0FD01 		and	r1, r1, #253
 916 003a 5170     		strb	r1, [r2, #1]
1098:Generated_Source\PSoC5/USBFS_std.c **** 
1099:Generated_Source\PSoC5/USBFS_std.c ****         if ((USBFS_EP[ep].addr & USBFS_DIR_IN) != 0u)
 917              		.loc 1 1099 0
 918 003c 1179     		ldrb	r1, [r2, #4]	@ zero_extendqisi2
1100:Generated_Source\PSoC5/USBFS_std.c ****         {
1101:Generated_Source\PSoC5/USBFS_std.c ****             /* IN Endpoint */
1102:Generated_Source\PSoC5/USBFS_std.c ****             if(USBFS_EP[ep].apiEpState == USBFS_IN_BUFFER_EMPTY)
 919              		.loc 1 1102 0
 920 003e 5278     		ldrb	r2, [r2, #1]	@ zero_extendqisi2
1099:Generated_Source\PSoC5/USBFS_std.c ****         {
 921              		.loc 1 1099 0
 922 0040 11F0800F 		tst	r1, #128
 923 0044 0C49     		ldr	r1, .L92+12
 924 0046 05D0     		beq	.L87
 925              		.loc 1 1102 0
 926 0048 012A     		cmp	r2, #1
 927 004a 01D1     		bne	.L88
1103:Generated_Source\PSoC5/USBFS_std.c ****             {       /* Wait for next packet from application */
1104:Generated_Source\PSoC5/USBFS_std.c ****                 CY_SET_REG8((reg8 *)(USBFS_SIE_EP1_CR0_IND + ri), USBFS_MODE_NAK_IN);
 928              		.loc 1 1104 0
 929 004c 5854     		strb	r0, [r3, r1]
 930 004e 06E0     		b	.L89
 931              	.L88:
1105:Generated_Source\PSoC5/USBFS_std.c ****             }
1106:Generated_Source\PSoC5/USBFS_std.c ****             else    /* Continue armed transfer */
1107:Generated_Source\PSoC5/USBFS_std.c ****             {
1108:Generated_Source\PSoC5/USBFS_std.c ****                 CY_SET_REG8((reg8 *)(USBFS_SIE_EP1_CR0_IND + ri), USBFS_MODE_ACK_IN);
ARM GAS  C:\Users\RABBIT~1\AppData\Local\Temp\ccYRpEyv.s 			page 39


 932              		.loc 1 1108 0
 933 0050 0D22     		movs	r2, #13
 934 0052 03E0     		b	.L91
 935              	.L87:
1109:Generated_Source\PSoC5/USBFS_std.c ****             }
1110:Generated_Source\PSoC5/USBFS_std.c ****         }
1111:Generated_Source\PSoC5/USBFS_std.c ****         else
1112:Generated_Source\PSoC5/USBFS_std.c ****         {
1113:Generated_Source\PSoC5/USBFS_std.c ****             /* OUT Endpoint */
1114:Generated_Source\PSoC5/USBFS_std.c ****             if(USBFS_EP[ep].apiEpState == USBFS_OUT_BUFFER_FULL)
 936              		.loc 1 1114 0
 937 0054 012A     		cmp	r2, #1
1115:Generated_Source\PSoC5/USBFS_std.c ****             {       /* Allow application to read full buffer */
1116:Generated_Source\PSoC5/USBFS_std.c ****                 CY_SET_REG8((reg8 *)(USBFS_SIE_EP1_CR0_IND + ri), USBFS_MODE_NAK_OUT);
 938              		.loc 1 1116 0
 939 0056 0CBF     		ite	eq
 940 0058 0822     		moveq	r2, #8
1117:Generated_Source\PSoC5/USBFS_std.c ****             }
1118:Generated_Source\PSoC5/USBFS_std.c ****             else    /* Mark endpoint as empty, so it will be reloaded */
1119:Generated_Source\PSoC5/USBFS_std.c ****             {
1120:Generated_Source\PSoC5/USBFS_std.c ****                 CY_SET_REG8((reg8 *)(USBFS_SIE_EP1_CR0_IND + ri), USBFS_MODE_ACK_OUT);
 941              		.loc 1 1120 0
 942 005a 0922     		movne	r2, #9
 943              	.L91:
 944 005c 5A54     		strb	r2, [r3, r1]
 945              	.L89:
1121:Generated_Source\PSoC5/USBFS_std.c ****             }
1122:Generated_Source\PSoC5/USBFS_std.c ****         }
1123:Generated_Source\PSoC5/USBFS_std.c ****         requestHandled = USBFS_InitNoDataControlTransfer();
1124:Generated_Source\PSoC5/USBFS_std.c ****     }
1125:Generated_Source\PSoC5/USBFS_std.c **** 
1126:Generated_Source\PSoC5/USBFS_std.c ****     return(requestHandled);
1127:Generated_Source\PSoC5/USBFS_std.c **** }
 946              		.loc 1 1127 0
 947 005e 10BC     		pop	{r4}
 948              		.cfi_remember_state
 949              		.cfi_restore 4
 950              		.cfi_def_cfa_offset 0
1123:Generated_Source\PSoC5/USBFS_std.c ****     }
 951              		.loc 1 1123 0
 952 0060 FFF7FEBF 		b	USBFS_InitNoDataControlTransfer
 953              	.LVL79:
 954              	.L86:
 955              		.cfi_restore_state
 956              		.loc 1 1127 0
 957 0064 0020     		movs	r0, #0
 958 0066 10BC     		pop	{r4}
 959              		.cfi_restore 4
 960              		.cfi_def_cfa_offset 0
 961 0068 7047     		bx	lr
 962              	.L93:
 963 006a 00BF     		.align	2
 964              	.L92:
 965 006c 04600040 		.word	1073766404
 966 0070 00000000 		.word	USBFS_EP
 967 0074 0C600040 		.word	1073766412
 968 0078 0E600040 		.word	1073766414
ARM GAS  C:\Users\RABBIT~1\AppData\Local\Temp\ccYRpEyv.s 			page 40


 969              		.cfi_endproc
 970              	.LFE9:
 971              		.size	USBFS_ClearEndpointHalt, .-USBFS_ClearEndpointHalt
 972              		.section	.text.USBFS_ValidateAlternateSetting,"ax",%progbits
 973              		.align	1
 974              		.global	USBFS_ValidateAlternateSetting
 975              		.thumb
 976              		.thumb_func
 977              		.type	USBFS_ValidateAlternateSetting, %function
 978              	USBFS_ValidateAlternateSetting:
 979              	.LFB10:
1128:Generated_Source\PSoC5/USBFS_std.c **** 
1129:Generated_Source\PSoC5/USBFS_std.c **** 
1130:Generated_Source\PSoC5/USBFS_std.c **** /*******************************************************************************
1131:Generated_Source\PSoC5/USBFS_std.c **** * Function Name: USBFS_ValidateAlternateSetting
1132:Generated_Source\PSoC5/USBFS_std.c **** ********************************************************************************
1133:Generated_Source\PSoC5/USBFS_std.c **** *
1134:Generated_Source\PSoC5/USBFS_std.c **** * Summary:
1135:Generated_Source\PSoC5/USBFS_std.c **** *  Validates (and records) a SET INTERFACE request.
1136:Generated_Source\PSoC5/USBFS_std.c **** *
1137:Generated_Source\PSoC5/USBFS_std.c **** * Parameters:
1138:Generated_Source\PSoC5/USBFS_std.c **** *  None.
1139:Generated_Source\PSoC5/USBFS_std.c **** *
1140:Generated_Source\PSoC5/USBFS_std.c **** * Return:
1141:Generated_Source\PSoC5/USBFS_std.c **** *  requestHandled.
1142:Generated_Source\PSoC5/USBFS_std.c **** *
1143:Generated_Source\PSoC5/USBFS_std.c **** * Reentrant:
1144:Generated_Source\PSoC5/USBFS_std.c **** *  No.
1145:Generated_Source\PSoC5/USBFS_std.c **** *
1146:Generated_Source\PSoC5/USBFS_std.c **** *******************************************************************************/
1147:Generated_Source\PSoC5/USBFS_std.c **** uint8 USBFS_ValidateAlternateSetting(void) 
1148:Generated_Source\PSoC5/USBFS_std.c **** {
 980              		.loc 1 1148 0
 981              		.cfi_startproc
 982              		@ args = 0, pretend = 0, frame = 0
 983              		@ frame_needed = 0, uses_anonymous_args = 0
 984              	.LVL80:
 985 0000 08B5     		push	{r3, lr}
 986              		.cfi_def_cfa_offset 8
 987              		.cfi_offset 3, -8
 988              		.cfi_offset 14, -4
1149:Generated_Source\PSoC5/USBFS_std.c ****     uint8 requestHandled = USBFS_TRUE;
1150:Generated_Source\PSoC5/USBFS_std.c ****     uint8 interfaceNum;
1151:Generated_Source\PSoC5/USBFS_std.c ****     const T_USBFS_LUT CYCODE *pTmp;
1152:Generated_Source\PSoC5/USBFS_std.c ****     uint8 currentInterfacesNum;
1153:Generated_Source\PSoC5/USBFS_std.c **** 
1154:Generated_Source\PSoC5/USBFS_std.c ****     interfaceNum = CY_GET_REG8(USBFS_wIndexLo);
 989              		.loc 1 1154 0
 990 0002 0D4B     		ldr	r3, .L98
 991 0004 1978     		ldrb	r1, [r3]	@ zero_extendqisi2
1155:Generated_Source\PSoC5/USBFS_std.c ****     /* Validate interface setting, stall if invalid. */
1156:Generated_Source\PSoC5/USBFS_std.c ****     pTmp = USBFS_GetConfigTablePtr(USBFS_configuration - 1u);
 992              		.loc 1 1156 0
 993 0006 0D4B     		ldr	r3, .L98+4
1154:Generated_Source\PSoC5/USBFS_std.c ****     /* Validate interface setting, stall if invalid. */
 994              		.loc 1 1154 0
 995 0008 C9B2     		uxtb	r1, r1
ARM GAS  C:\Users\RABBIT~1\AppData\Local\Temp\ccYRpEyv.s 			page 41


 996              	.LVL81:
 997              		.loc 1 1156 0
 998 000a 1878     		ldrb	r0, [r3]	@ zero_extendqisi2
 999 000c 0138     		subs	r0, r0, #1
 1000 000e C0B2     		uxtb	r0, r0
 1001 0010 FFF7FEFF 		bl	USBFS_GetConfigTablePtr
 1002              	.LVL82:
1157:Generated_Source\PSoC5/USBFS_std.c ****     currentInterfacesNum  = ((const uint8 *) pTmp->p_list)[USBFS_CONFIG_DESCR_NUM_INTERFACES];
 1003              		.loc 1 1157 0
 1004 0014 4368     		ldr	r3, [r0, #4]
1158:Generated_Source\PSoC5/USBFS_std.c **** 
1159:Generated_Source\PSoC5/USBFS_std.c ****     if((interfaceNum >= currentInterfacesNum) || (interfaceNum >= USBFS_MAX_INTERFACES_NUMBER))
 1005              		.loc 1 1159 0
 1006 0016 1B79     		ldrb	r3, [r3, #4]	@ zero_extendqisi2
 1007 0018 8B42     		cmp	r3, r1
 1008 001a 0BD9     		bls	.L97
 1009              		.loc 1 1159 0 is_stmt 0 discriminator 1
 1010 001c 51B9     		cbnz	r1, .L97
1160:Generated_Source\PSoC5/USBFS_std.c ****     {   /* Wrong interface number */
1161:Generated_Source\PSoC5/USBFS_std.c ****         requestHandled = USBFS_FALSE;
1162:Generated_Source\PSoC5/USBFS_std.c ****     }
1163:Generated_Source\PSoC5/USBFS_std.c ****     else
1164:Generated_Source\PSoC5/USBFS_std.c ****     {
1165:Generated_Source\PSoC5/USBFS_std.c ****         /* Save current Alt setting to find out the difference in Config() function */
1166:Generated_Source\PSoC5/USBFS_std.c ****         USBFS_interfaceSetting_last[interfaceNum] = USBFS_interfaceSetting[interfaceNum];
 1011              		.loc 1 1166 0 is_stmt 1
 1012 001e 084A     		ldr	r2, .L98+8
 1013 0020 0849     		ldr	r1, .L98+12
 1014 0022 1378     		ldrb	r3, [r2]	@ zero_extendqisi2
1149:Generated_Source\PSoC5/USBFS_std.c ****     uint8 interfaceNum;
 1015              		.loc 1 1149 0
 1016 0024 0120     		movs	r0, #1
 1017              	.LVL83:
 1018              		.loc 1 1166 0
 1019 0026 DBB2     		uxtb	r3, r3
 1020 0028 0B70     		strb	r3, [r1]
1167:Generated_Source\PSoC5/USBFS_std.c ****         USBFS_interfaceSetting[interfaceNum] = CY_GET_REG8(USBFS_wValueLo);
 1021              		.loc 1 1167 0
 1022 002a 074B     		ldr	r3, .L98+16
 1023 002c 1B78     		ldrb	r3, [r3]	@ zero_extendqisi2
 1024 002e DBB2     		uxtb	r3, r3
 1025 0030 1370     		strb	r3, [r2]
 1026 0032 08BD     		pop	{r3, pc}
 1027              	.LVL84:
 1028              	.L97:
1161:Generated_Source\PSoC5/USBFS_std.c ****     }
 1029              		.loc 1 1161 0
 1030 0034 0020     		movs	r0, #0
 1031              	.LVL85:
1168:Generated_Source\PSoC5/USBFS_std.c ****     }
1169:Generated_Source\PSoC5/USBFS_std.c **** 
1170:Generated_Source\PSoC5/USBFS_std.c ****     return (requestHandled);
1171:Generated_Source\PSoC5/USBFS_std.c **** }
 1032              		.loc 1 1171 0
 1033 0036 08BD     		pop	{r3, pc}
 1034              	.LVL86:
 1035              	.L99:
ARM GAS  C:\Users\RABBIT~1\AppData\Local\Temp\ccYRpEyv.s 			page 42


 1036              		.align	2
 1037              	.L98:
 1038 0038 04600040 		.word	1073766404
 1039 003c 00000000 		.word	USBFS_configuration
 1040 0040 00000000 		.word	USBFS_interfaceSetting
 1041 0044 00000000 		.word	USBFS_interfaceSetting_last
 1042 0048 02600040 		.word	1073766402
 1043              		.cfi_endproc
 1044              	.LFE10:
 1045              		.size	USBFS_ValidateAlternateSetting, .-USBFS_ValidateAlternateSetting
 1046              		.section	.text.USBFS_HandleStandardRqst,"ax",%progbits
 1047              		.align	1
 1048              		.global	USBFS_HandleStandardRqst
 1049              		.thumb
 1050              		.thumb_func
 1051              		.type	USBFS_HandleStandardRqst, %function
 1052              	USBFS_HandleStandardRqst:
 1053              	.LFB0:
  89:Generated_Source\PSoC5/USBFS_std.c ****     uint8 requestHandled = USBFS_FALSE;
 1054              		.loc 1 89 0
 1055              		.cfi_startproc
 1056              		@ args = 0, pretend = 0, frame = 0
 1057              		@ frame_needed = 0, uses_anonymous_args = 0
 1058              	.LVL87:
 1059 0000 38B5     		push	{r3, r4, r5, lr}
 1060              		.cfi_def_cfa_offset 16
 1061              		.cfi_offset 3, -16
 1062              		.cfi_offset 4, -12
 1063              		.cfi_offset 5, -8
 1064              		.cfi_offset 14, -4
 102:Generated_Source\PSoC5/USBFS_std.c **** 
 1065              		.loc 1 102 0
 1066 0002 8D49     		ldr	r1, .L155
 1067 0004 0023     		movs	r3, #0
 1068 0006 0B80     		strh	r3, [r1]	@ movhi
 104:Generated_Source\PSoC5/USBFS_std.c ****     {
 1069              		.loc 1 104 0
 1070 0008 8C4B     		ldr	r3, .L155+4
 1071 000a 1A78     		ldrb	r2, [r3]	@ zero_extendqisi2
 1072 000c 12F0800F 		tst	r2, #128
 1073 0010 8B4A     		ldr	r2, .L155+8
 107:Generated_Source\PSoC5/USBFS_std.c ****         {
 1074              		.loc 1 107 0
 1075 0012 1278     		ldrb	r2, [r2]	@ zero_extendqisi2
 104:Generated_Source\PSoC5/USBFS_std.c ****     {
 1076              		.loc 1 104 0
 1077 0014 00F08A80 		beq	.L101
 107:Generated_Source\PSoC5/USBFS_std.c ****         {
 1078              		.loc 1 107 0
 1079 0018 0A2A     		cmp	r2, #10
 1080 001a 00F20A81 		bhi	.L102
 1081 001e DFE812F0 		tbh	[pc, r2, lsl #1]
 1082              	.L104:
 1083 0022 5800     		.2byte	(.L103-.L104)/2
 1084 0024 0801     		.2byte	(.L102-.L104)/2
 1085 0026 0801     		.2byte	(.L102-.L104)/2
 1086 0028 0801     		.2byte	(.L102-.L104)/2
ARM GAS  C:\Users\RABBIT~1\AppData\Local\Temp\ccYRpEyv.s 			page 43


 1087 002a 0801     		.2byte	(.L102-.L104)/2
 1088 002c 0801     		.2byte	(.L102-.L104)/2
 1089 002e 0B00     		.2byte	(.L105-.L104)/2
 1090 0030 0801     		.2byte	(.L102-.L104)/2
 1091 0032 7A00     		.2byte	(.L106-.L104)/2
 1092 0034 0801     		.2byte	(.L102-.L104)/2
 1093 0036 7E00     		.2byte	(.L107-.L104)/2
 1094              		.p2align 1
 1095              	.L105:
 110:Generated_Source\PSoC5/USBFS_std.c ****                 {
 1096              		.loc 1 110 0
 1097 0038 824B     		ldr	r3, .L155+12
 1098 003a 1A78     		ldrb	r2, [r3]	@ zero_extendqisi2
 1099 003c 012A     		cmp	r2, #1
 1100 003e 09D1     		bne	.L108
 1101              	.LBB14:
 1102              	.LBB15:
 912:Generated_Source\PSoC5/USBFS_std.c **** }
 1103              		.loc 1 912 0
 1104 0040 814B     		ldr	r3, .L155+16
 1105 0042 1A78     		ldrb	r2, [r3]	@ zero_extendqisi2
 1106 0044 814B     		ldr	r3, .L155+20
 1107 0046 03EBC203 		add	r3, r3, r2, lsl #3
 1108              	.LBE15:
 1109              	.LBE14:
 113:Generated_Source\PSoC5/USBFS_std.c ****                     USBFS_currentTD.count = USBFS_DEVICE_DESCR_LENGTH;
 1110              		.loc 1 113 0
 1111 004a 5B68     		ldr	r3, [r3, #4]
 1112 004c 5B68     		ldr	r3, [r3, #4]
 1113 004e 4B60     		str	r3, [r1, #4]
 114:Generated_Source\PSoC5/USBFS_std.c ****                     requestHandled  = USBFS_InitControlRead();
 1114              		.loc 1 114 0
 1115 0050 1223     		movs	r3, #18
 1116 0052 11E0     		b	.L148
 1117              	.L108:
 117:Generated_Source\PSoC5/USBFS_std.c ****                 {
 1118              		.loc 1 117 0
 1119 0054 1A78     		ldrb	r2, [r3]	@ zero_extendqisi2
 1120 0056 022A     		cmp	r2, #2
 1121 0058 13D1     		bne	.L109
 119:Generated_Source\PSoC5/USBFS_std.c ****                     if( pTmp != NULL )  /* Verify that requested descriptor exists */
 1122              		.loc 1 119 0
 1123 005a 7D4B     		ldr	r3, .L155+24
 1124 005c 1878     		ldrb	r0, [r3]	@ zero_extendqisi2
 1125 005e FFF7FEFF 		bl	USBFS_GetConfigTablePtr
 1126              	.LVL88:
 120:Generated_Source\PSoC5/USBFS_std.c ****                     {
 1127              		.loc 1 120 0
 1128 0062 0028     		cmp	r0, #0
 1129 0064 00F0E580 		beq	.L102
 122:Generated_Source\PSoC5/USBFS_std.c ****                         USBFS_currentTD.count = ((uint16)(USBFS_currentTD.pData)[ \
 1130              		.loc 1 122 0
 1131 0068 4368     		ldr	r3, [r0, #4]
 1132 006a 4B60     		str	r3, [r1, #4]
 123:Generated_Source\PSoC5/USBFS_std.c ****                                           USBFS_CONFIG_DESCR_TOTAL_LENGTH_HI] << 8u) | \
 1133              		.loc 1 123 0
 1134 006c 4B68     		ldr	r3, [r1, #4]
ARM GAS  C:\Users\RABBIT~1\AppData\Local\Temp\ccYRpEyv.s 			page 44


 1135 006e DA78     		ldrb	r2, [r3, #3]	@ zero_extendqisi2
 125:Generated_Source\PSoC5/USBFS_std.c ****                         requestHandled  = USBFS_InitControlRead();
 1136              		.loc 1 125 0
 1137 0070 4B68     		ldr	r3, [r1, #4]
 1138 0072 9B78     		ldrb	r3, [r3, #2]	@ zero_extendqisi2
 123:Generated_Source\PSoC5/USBFS_std.c ****                                           USBFS_CONFIG_DESCR_TOTAL_LENGTH_HI] << 8u) | \
 1139              		.loc 1 123 0
 1140 0074 43EA0223 		orr	r3, r3, r2, lsl #8
 1141              	.LVL89:
 1142              	.L148:
 1143 0078 0B80     		strh	r3, [r1]	@ movhi
 1144              	.LVL90:
 1145              	.L149:
 337:Generated_Source\PSoC5/USBFS_std.c **** 
 1146              		.loc 1 337 0
 1147 007a BDE83840 		pop	{r3, r4, r5, lr}
 1148              		.cfi_remember_state
 1149              		.cfi_restore 14
 1150              		.cfi_restore 5
 1151              		.cfi_restore 4
 1152              		.cfi_restore 3
 1153              		.cfi_def_cfa_offset 0
 126:Generated_Source\PSoC5/USBFS_std.c ****                     }
 1154              		.loc 1 126 0
 1155 007e FFF7FEBF 		b	USBFS_InitControlRead
 1156              	.LVL91:
 1157              	.L109:
 1158              		.cfi_restore_state
 130:Generated_Source\PSoC5/USBFS_std.c ****                 {
 1159              		.loc 1 130 0
 1160 0082 1B78     		ldrb	r3, [r3]	@ zero_extendqisi2
 1161 0084 032B     		cmp	r3, #3
 1162 0086 20D1     		bne	.L111
 1163 0088 724B     		ldr	r3, .L155+28
 136:Generated_Source\PSoC5/USBFS_std.c ****                         {
 1164              		.loc 1 136 0
 1165 008a 714C     		ldr	r4, .L155+24
 1166 008c 0022     		movs	r2, #0
 1167              	.LVL92:
 1168              	.L112:
 1169 008e 2078     		ldrb	r0, [r4]	@ zero_extendqisi2
 1170 0090 D5B2     		uxtb	r5, r2
 1171 0092 8542     		cmp	r5, r0
 1172 0094 0BD3     		bcc	.L113
 1173              	.LVL93:
 1174              	.L117:
 154:Generated_Source\PSoC5/USBFS_std.c ****                             (CY_GET_REG8(USBFS_wValueLo) ==
 1175              		.loc 1 154 0
 1176 0096 6E4A     		ldr	r2, .L155+24
 1177 0098 1278     		ldrb	r2, [r2]	@ zero_extendqisi2
 1178 009a 7AB1     		cbz	r2, .L115
 155:Generated_Source\PSoC5/USBFS_std.c ****                             USBFS_DEVICE0_DESCR[USBFS_DEVICE_DESCR_SN_SHIFT]) )
 1179              		.loc 1 155 0 discriminator 1
 1180 009c 6C4A     		ldr	r2, .L155+24
 173:Generated_Source\PSoC5/USBFS_std.c ****                             #endif  /* defined(USBFS_ENABLE_IDSN_STRING) */
 1181              		.loc 1 173 0 discriminator 1
 1182 009e 6E4C     		ldr	r4, .L155+32
ARM GAS  C:\Users\RABBIT~1\AppData\Local\Temp\ccYRpEyv.s 			page 45


 155:Generated_Source\PSoC5/USBFS_std.c ****                             USBFS_DEVICE0_DESCR[USBFS_DEVICE_DESCR_SN_SHIFT]) )
 1183              		.loc 1 155 0 discriminator 1
 1184 00a0 1078     		ldrb	r0, [r2]	@ zero_extendqisi2
 173:Generated_Source\PSoC5/USBFS_std.c ****                             #endif  /* defined(USBFS_ENABLE_IDSN_STRING) */
 1185              		.loc 1 173 0 discriminator 1
 1186 00a2 247C     		ldrb	r4, [r4, #16]	@ zero_extendqisi2
 1187 00a4 6D4A     		ldr	r2, .L155+36
 1188 00a6 8442     		cmp	r4, r0
 1189 00a8 08BF     		it	eq
 1190 00aa 1346     		moveq	r3, r2
 1191              	.LVL94:
 1192 00ac 06E0     		b	.L115
 1193              	.LVL95:
 1194              	.L113:
 136:Generated_Source\PSoC5/USBFS_std.c ****                         {
 1195              		.loc 1 136 0 discriminator 1
 1196 00ae 1878     		ldrb	r0, [r3]	@ zero_extendqisi2
 1197 00b0 0132     		adds	r2, r2, #1
 1198              	.LVL96:
 1199 00b2 0028     		cmp	r0, #0
 1200 00b4 EFD0     		beq	.L117
 139:Generated_Source\PSoC5/USBFS_std.c ****                             /* Move to next string descriptor */
 1201              		.loc 1 139 0
 1202 00b6 1878     		ldrb	r0, [r3]	@ zero_extendqisi2
 1203              	.LVL97:
 141:Generated_Source\PSoC5/USBFS_std.c ****                             nStr++;
 1204              		.loc 1 141 0
 1205 00b8 0344     		add	r3, r3, r0
 1206              	.LVL98:
 1207 00ba E8E7     		b	.L112
 1208              	.LVL99:
 1209              	.L115:
 177:Generated_Source\PSoC5/USBFS_std.c ****                     {
 1210              		.loc 1 177 0
 1211 00bc 1A78     		ldrb	r2, [r3]	@ zero_extendqisi2
 1212 00be 002A     		cmp	r2, #0
 1213 00c0 00F0B780 		beq	.L102
 179:Generated_Source\PSoC5/USBFS_std.c ****                         USBFS_currentTD.pData = pStr;
 1214              		.loc 1 179 0
 1215 00c4 1A78     		ldrb	r2, [r3]	@ zero_extendqisi2
 1216 00c6 0A80     		strh	r2, [r1]	@ movhi
 1217 00c8 19E0     		b	.L152
 1218              	.LVL100:
 1219              	.L111:
 337:Generated_Source\PSoC5/USBFS_std.c **** 
 1220              		.loc 1 337 0
 1221 00ca BDE83840 		pop	{r3, r4, r5, lr}
 1222              		.cfi_remember_state
 1223              		.cfi_restore 14
 1224              		.cfi_restore 5
 1225              		.cfi_restore 4
 1226              		.cfi_restore 3
 1227              		.cfi_def_cfa_offset 0
 187:Generated_Source\PSoC5/USBFS_std.c ****                 }
 1228              		.loc 1 187 0
 1229 00ce FFF7FEBF 		b	USBFS_DispatchClassRqst
 1230              	.LVL101:
ARM GAS  C:\Users\RABBIT~1\AppData\Local\Temp\ccYRpEyv.s 			page 46


 1231              	.L103:
 1232              		.cfi_restore_state
 191:Generated_Source\PSoC5/USBFS_std.c ****                 {
 1233              		.loc 1 191 0
 1234 00d2 1B78     		ldrb	r3, [r3]	@ zero_extendqisi2
 1235 00d4 13F00303 		ands	r3, r3, #3
 1236 00d8 13D0     		beq	.L119
 1237 00da 022B     		cmp	r3, #2
 1238 00dc 40F0A980 		bne	.L102
 194:Generated_Source\PSoC5/USBFS_std.c ****                         USBFS_tBuffer[0u] = USBFS_EP[ \
 1239              		.loc 1 194 0
 1240 00e0 0B80     		strh	r3, [r1]	@ movhi
 196:Generated_Source\PSoC5/USBFS_std.c ****                         USBFS_tBuffer[1u] = 0u;
 1241              		.loc 1 196 0
 1242 00e2 5F4B     		ldr	r3, .L155+40
 1243 00e4 0C20     		movs	r0, #12
 1244 00e6 1B78     		ldrb	r3, [r3]	@ zero_extendqisi2
 1245 00e8 03F07F02 		and	r2, r3, #127
 1246 00ec 5D4B     		ldr	r3, .L155+44
 1247 00ee 00FB0233 		mla	r3, r0, r2, r3
 1248 00f2 9A78     		ldrb	r2, [r3, #2]	@ zero_extendqisi2
 195:Generated_Source\PSoC5/USBFS_std.c ****                                         CY_GET_REG8(USBFS_wIndexLo) & USBFS_DIR_UNUSED].hwEpState;
 1249              		.loc 1 195 0
 1250 00f4 5C4B     		ldr	r3, .L155+48
 196:Generated_Source\PSoC5/USBFS_std.c ****                         USBFS_tBuffer[1u] = 0u;
 1251              		.loc 1 196 0
 1252 00f6 D2B2     		uxtb	r2, r2
 195:Generated_Source\PSoC5/USBFS_std.c ****                                         CY_GET_REG8(USBFS_wIndexLo) & USBFS_DIR_UNUSED].hwEpState;
 1253              		.loc 1 195 0
 1254 00f8 1A70     		strb	r2, [r3]
 197:Generated_Source\PSoC5/USBFS_std.c ****                         USBFS_currentTD.pData = &USBFS_tBuffer[0u];
 1255              		.loc 1 197 0
 1256 00fa 0022     		movs	r2, #0
 1257 00fc 5A70     		strb	r2, [r3, #1]
 1258              	.LVL102:
 1259              	.L152:
 198:Generated_Source\PSoC5/USBFS_std.c ****                         requestHandled  = USBFS_InitControlRead();
 1260              		.loc 1 198 0
 1261 00fe 4B60     		str	r3, [r1, #4]
 1262 0100 BBE7     		b	.L149
 1263              	.LVL103:
 1264              	.L119:
 202:Generated_Source\PSoC5/USBFS_std.c ****                         USBFS_tBuffer[0u] = USBFS_deviceStatus;
 1265              		.loc 1 202 0
 1266 0102 0222     		movs	r2, #2
 1267 0104 0A80     		strh	r2, [r1]	@ movhi
 203:Generated_Source\PSoC5/USBFS_std.c ****                         USBFS_tBuffer[1u] = 0u;
 1268              		.loc 1 203 0
 1269 0106 594A     		ldr	r2, .L155+52
 1270 0108 1078     		ldrb	r0, [r2]	@ zero_extendqisi2
 1271 010a 574A     		ldr	r2, .L155+48
 1272 010c C0B2     		uxtb	r0, r0
 1273 010e 1070     		strb	r0, [r2]
 204:Generated_Source\PSoC5/USBFS_std.c ****                         USBFS_currentTD.pData = &USBFS_tBuffer[0u];
 1274              		.loc 1 204 0
 1275 0110 5370     		strb	r3, [r2, #1]
 205:Generated_Source\PSoC5/USBFS_std.c ****                         requestHandled  = USBFS_InitControlRead();
ARM GAS  C:\Users\RABBIT~1\AppData\Local\Temp\ccYRpEyv.s 			page 47


 1276              		.loc 1 205 0
 1277 0112 4A60     		str	r2, [r1, #4]
 1278 0114 B1E7     		b	.L149
 1279              	.L106:
 213:Generated_Source\PSoC5/USBFS_std.c ****                 USBFS_currentTD.pData = (volatile uint8 *)&USBFS_configuration;
 1280              		.loc 1 213 0
 1281 0116 0123     		movs	r3, #1
 1282 0118 0B80     		strh	r3, [r1]	@ movhi
 214:Generated_Source\PSoC5/USBFS_std.c ****                 requestHandled  = USBFS_InitControlRead();
 1283              		.loc 1 214 0
 1284 011a 554B     		ldr	r3, .L155+56
 1285 011c EFE7     		b	.L152
 1286              	.L107:
 218:Generated_Source\PSoC5/USBFS_std.c ****                 USBFS_currentTD.pData = (volatile uint8 *)&USBFS_interfaceSetting[ \
 1287              		.loc 1 218 0
 1288 011e 0123     		movs	r3, #1
 1289 0120 0B80     		strh	r3, [r1]	@ movhi
 220:Generated_Source\PSoC5/USBFS_std.c ****                 requestHandled  = USBFS_InitControlRead();
 1290              		.loc 1 220 0
 1291 0122 4F4B     		ldr	r3, .L155+40
 219:Generated_Source\PSoC5/USBFS_std.c ****                                                                             CY_GET_REG8(USBFS_wInde
 1292              		.loc 1 219 0
 1293 0124 534A     		ldr	r2, .L155+60
 220:Generated_Source\PSoC5/USBFS_std.c ****                 requestHandled  = USBFS_InitControlRead();
 1294              		.loc 1 220 0
 1295 0126 1B78     		ldrb	r3, [r3]	@ zero_extendqisi2
 219:Generated_Source\PSoC5/USBFS_std.c ****                                                                             CY_GET_REG8(USBFS_wInde
 1296              		.loc 1 219 0
 1297 0128 1344     		add	r3, r3, r2
 1298 012a E8E7     		b	.L152
 1299              	.L101:
 229:Generated_Source\PSoC5/USBFS_std.c ****         {
 1300              		.loc 1 229 0
 1301 012c 013A     		subs	r2, r2, #1
 1302 012e 0A2A     		cmp	r2, #10
 1303 0130 7FD8     		bhi	.L102
 1304 0132 DFE802F0 		tbb	[pc, r2]
 1305              	.L122:
 1306 0136 36       		.byte	(.L121-.L122)/2
 1307 0137 7E       		.byte	(.L102-.L122)/2
 1308 0138 52       		.byte	(.L123-.L122)/2
 1309 0139 7E       		.byte	(.L102-.L122)/2
 1310 013a 06       		.byte	(.L124-.L122)/2
 1311 013b 7E       		.byte	(.L102-.L122)/2
 1312 013c 7E       		.byte	(.L102-.L122)/2
 1313 013d 7E       		.byte	(.L102-.L122)/2
 1314 013e 0B       		.byte	(.L125-.L122)/2
 1315 013f 7E       		.byte	(.L102-.L122)/2
 1316 0140 22       		.byte	(.L126-.L122)/2
 1317 0141 00       		.p2align 1
 1318              	.L124:
 232:Generated_Source\PSoC5/USBFS_std.c ****                 requestHandled = USBFS_InitNoDataControlTransfer();
 1319              		.loc 1 232 0
 1320 0142 434B     		ldr	r3, .L155+24
 1321 0144 4C4A     		ldr	r2, .L155+64
 1322 0146 1B78     		ldrb	r3, [r3]	@ zero_extendqisi2
 1323 0148 DBB2     		uxtb	r3, r3
ARM GAS  C:\Users\RABBIT~1\AppData\Local\Temp\ccYRpEyv.s 			page 48


 1324 014a 60E0     		b	.L154
 1325              	.L125:
 236:Generated_Source\PSoC5/USBFS_std.c ****                 if(configurationN > 0u)
 1326              		.loc 1 236 0
 1327 014c 404B     		ldr	r3, .L155+24
 1328 014e 1B78     		ldrb	r3, [r3]	@ zero_extendqisi2
 1329              	.LVL104:
 237:Generated_Source\PSoC5/USBFS_std.c ****                 {   /* Verify that configuration descriptor exists */
 1330              		.loc 1 237 0
 1331 0150 03F0FF01 		and	r1, r3, #255
 1332 0154 53B9     		cbnz	r3, .L127
 1333              	.LVL105:
 1334              	.L130:
 245:Generated_Source\PSoC5/USBFS_std.c ****                     {
 1335              		.loc 1 245 0
 1336 0156 464B     		ldr	r3, .L155+56
 1337 0158 1A78     		ldrb	r2, [r3]	@ zero_extendqisi2
 1338 015a 9142     		cmp	r1, r2
 1339 015c 65D0     		beq	.L150
 247:Generated_Source\PSoC5/USBFS_std.c ****                         USBFS_configurationChanged = USBFS_TRUE;
 1340              		.loc 1 247 0
 1341 015e 1970     		strb	r1, [r3]
 248:Generated_Source\PSoC5/USBFS_std.c ****                         USBFS_Config(USBFS_TRUE);
 1342              		.loc 1 248 0
 1343 0160 464B     		ldr	r3, .L155+68
 1344 0162 0120     		movs	r0, #1
 1345 0164 1870     		strb	r0, [r3]
 249:Generated_Source\PSoC5/USBFS_std.c ****                     }
 1346              		.loc 1 249 0
 1347 0166 FFF7FEFF 		bl	USBFS_Config
 1348              	.LVL106:
 1349 016a 5EE0     		b	.L150
 1350              	.LVL107:
 1351              	.L127:
 239:Generated_Source\PSoC5/USBFS_std.c ****                 }
 1352              		.loc 1 239 0
 1353 016c 481E     		subs	r0, r1, #1
 1354 016e C0B2     		uxtb	r0, r0
 1355 0170 FFF7FEFF 		bl	USBFS_GetConfigTablePtr
 1356              	.LVL108:
 242:Generated_Source\PSoC5/USBFS_std.c ****                 {
 1357              		.loc 1 242 0
 1358 0174 0028     		cmp	r0, #0
 1359 0176 EED1     		bne	.L130
 1360 0178 5BE0     		b	.L102
 1361              	.LVL109:
 1362              	.L126:
 255:Generated_Source\PSoC5/USBFS_std.c ****                 {
 1363              		.loc 1 255 0
 1364 017a FFF7FEFF 		bl	USBFS_ValidateAlternateSetting
 1365              	.LVL110:
 1366 017e 0028     		cmp	r0, #0
 1367 0180 57D0     		beq	.L102
 257:Generated_Source\PSoC5/USBFS_std.c ****                     USBFS_interfaceNumber = interfaceNumber;
 1368              		.loc 1 257 0
 1369 0182 374B     		ldr	r3, .L155+40
 259:Generated_Source\PSoC5/USBFS_std.c ****                     #if ((USBFS_EP_MA == USBFS__MA_DYNAMIC) && \
ARM GAS  C:\Users\RABBIT~1\AppData\Local\Temp\ccYRpEyv.s 			page 49


 1370              		.loc 1 259 0
 1371 0184 0122     		movs	r2, #1
 257:Generated_Source\PSoC5/USBFS_std.c ****                     USBFS_interfaceNumber = interfaceNumber;
 1372              		.loc 1 257 0
 1373 0186 1C78     		ldrb	r4, [r3]	@ zero_extendqisi2
 258:Generated_Source\PSoC5/USBFS_std.c ****                     USBFS_configurationChanged = USBFS_TRUE;
 1374              		.loc 1 258 0
 1375 0188 3D4B     		ldr	r3, .L155+72
 257:Generated_Source\PSoC5/USBFS_std.c ****                     USBFS_interfaceNumber = interfaceNumber;
 1376              		.loc 1 257 0
 1377 018a E4B2     		uxtb	r4, r4
 1378              	.LVL111:
 258:Generated_Source\PSoC5/USBFS_std.c ****                     USBFS_configurationChanged = USBFS_TRUE;
 1379              		.loc 1 258 0
 1380 018c 1C70     		strb	r4, [r3]
 259:Generated_Source\PSoC5/USBFS_std.c ****                     #if ((USBFS_EP_MA == USBFS__MA_DYNAMIC) && \
 1381              		.loc 1 259 0
 1382 018e 3B4B     		ldr	r3, .L155+68
 1383 0190 1A70     		strb	r2, [r3]
 264:Generated_Source\PSoC5/USBFS_std.c ****                     #endif /*  (USBFS_EP_MA == USBFS__MA_DYNAMIC) */
 1384              		.loc 1 264 0
 1385 0192 FFF7FEFF 		bl	USBFS_ConfigAltChanged
 1386              	.LVL112:
 268:Generated_Source\PSoC5/USBFS_std.c ****                     requestHandled = USBFS_InitNoDataControlTransfer();
 1387              		.loc 1 268 0
 1388 0196 374B     		ldr	r3, .L155+60
 267:Generated_Source\PSoC5/USBFS_std.c ****                          USBFS_interfaceSetting[interfaceNumber];
 1389              		.loc 1 267 0
 1390 0198 3A4A     		ldr	r2, .L155+76
 268:Generated_Source\PSoC5/USBFS_std.c ****                     requestHandled = USBFS_InitNoDataControlTransfer();
 1391              		.loc 1 268 0
 1392 019a 1B5D     		ldrb	r3, [r3, r4]	@ zero_extendqisi2
 1393 019c DBB2     		uxtb	r3, r3
 267:Generated_Source\PSoC5/USBFS_std.c ****                          USBFS_interfaceSetting[interfaceNumber];
 1394              		.loc 1 267 0
 1395 019e 1355     		strb	r3, [r2, r4]
 1396 01a0 43E0     		b	.L150
 1397              	.LVL113:
 1398              	.L121:
 273:Generated_Source\PSoC5/USBFS_std.c ****                 {
 1399              		.loc 1 273 0
 1400 01a2 1B78     		ldrb	r3, [r3]	@ zero_extendqisi2
 1401 01a4 03F00303 		and	r3, r3, #3
 1402 01a8 012B     		cmp	r3, #1
 1403 01aa 32D0     		beq	.L134
 1404 01ac 0CD3     		bcc	.L132
 1405 01ae 022B     		cmp	r3, #2
 1406 01b0 3FD1     		bne	.L102
 276:Generated_Source\PSoC5/USBFS_std.c ****                         {
 1407              		.loc 1 276 0
 1408 01b2 03F18043 		add	r3, r3, #1073741824
 1409 01b6 03F5C043 		add	r3, r3, #24576
 1410 01ba 1B78     		ldrb	r3, [r3]	@ zero_extendqisi2
 1411 01bc 002B     		cmp	r3, #0
 1412 01be 38D1     		bne	.L102
 337:Generated_Source\PSoC5/USBFS_std.c **** 
 1413              		.loc 1 337 0
ARM GAS  C:\Users\RABBIT~1\AppData\Local\Temp\ccYRpEyv.s 			page 50


 1414 01c0 BDE83840 		pop	{r3, r4, r5, lr}
 1415              		.cfi_remember_state
 1416              		.cfi_restore 14
 1417              		.cfi_restore 5
 1418              		.cfi_restore 4
 1419              		.cfi_restore 3
 1420              		.cfi_def_cfa_offset 0
 278:Generated_Source\PSoC5/USBFS_std.c ****                         }
 1421              		.loc 1 278 0
 1422 01c4 FFF7FEBF 		b	USBFS_ClearEndpointHalt
 1423              	.LVL114:
 1424              	.L132:
 1425              		.cfi_restore_state
 283:Generated_Source\PSoC5/USBFS_std.c ****                         {
 1426              		.loc 1 283 0
 1427 01c8 214B     		ldr	r3, .L155+24
 1428 01ca 1B78     		ldrb	r3, [r3]	@ zero_extendqisi2
 1429 01cc 012B     		cmp	r3, #1
 1430 01ce 30D1     		bne	.L102
 285:Generated_Source\PSoC5/USBFS_std.c ****                             requestHandled = USBFS_InitNoDataControlTransfer();
 1431              		.loc 1 285 0
 1432 01d0 264A     		ldr	r2, .L155+52
 1433 01d2 1378     		ldrb	r3, [r2]	@ zero_extendqisi2
 1434 01d4 03F0FD03 		and	r3, r3, #253
 1435 01d8 19E0     		b	.L154
 1436              	.L123:
 303:Generated_Source\PSoC5/USBFS_std.c ****                 {
 1437              		.loc 1 303 0
 1438 01da 1B78     		ldrb	r3, [r3]	@ zero_extendqisi2
 1439 01dc 03F00303 		and	r3, r3, #3
 1440 01e0 012B     		cmp	r3, #1
 1441 01e2 16D0     		beq	.L134
 1442 01e4 0BD3     		bcc	.L135
 1443 01e6 022B     		cmp	r3, #2
 1444 01e8 23D1     		bne	.L102
 306:Generated_Source\PSoC5/USBFS_std.c ****                         {
 1445              		.loc 1 306 0
 1446 01ea 03F18043 		add	r3, r3, #1073741824
 1447 01ee 03F5C043 		add	r3, r3, #24576
 1448 01f2 1B78     		ldrb	r3, [r3]	@ zero_extendqisi2
 1449 01f4 EBB9     		cbnz	r3, .L102
 337:Generated_Source\PSoC5/USBFS_std.c **** 
 1450              		.loc 1 337 0
 1451 01f6 BDE83840 		pop	{r3, r4, r5, lr}
 1452              		.cfi_remember_state
 1453              		.cfi_restore 14
 1454              		.cfi_restore 5
 1455              		.cfi_restore 4
 1456              		.cfi_restore 3
 1457              		.cfi_def_cfa_offset 0
 308:Generated_Source\PSoC5/USBFS_std.c ****                         }
 1458              		.loc 1 308 0
 1459 01fa FFF7FEBF 		b	USBFS_SetEndpointHalt
 1460              	.LVL115:
 1461              	.L135:
 1462              		.cfi_restore_state
 313:Generated_Source\PSoC5/USBFS_std.c ****                         {
ARM GAS  C:\Users\RABBIT~1\AppData\Local\Temp\ccYRpEyv.s 			page 51


 1463              		.loc 1 313 0
 1464 01fe 144B     		ldr	r3, .L155+24
 1465 0200 1B78     		ldrb	r3, [r3]	@ zero_extendqisi2
 1466 0202 012B     		cmp	r3, #1
 1467 0204 15D1     		bne	.L102
 315:Generated_Source\PSoC5/USBFS_std.c ****                             requestHandled = USBFS_InitNoDataControlTransfer();
 1468              		.loc 1 315 0
 1469 0206 194A     		ldr	r2, .L155+52
 1470 0208 1378     		ldrb	r3, [r2]	@ zero_extendqisi2
 1471 020a 43F00203 		orr	r3, r3, #2
 1472              	.L154:
 1473 020e 1370     		strb	r3, [r2]
 1474 0210 0BE0     		b	.L150
 1475              	.L134:
 321:Generated_Source\PSoC5/USBFS_std.c ****                         {
 1476              		.loc 1 321 0
 1477 0212 134B     		ldr	r3, .L155+40
 1478 0214 1A78     		ldrb	r2, [r3]	@ zero_extendqisi2
 1479 0216 62B9     		cbnz	r2, .L102
 324:Generated_Source\PSoC5/USBFS_std.c ****                             requestHandled = USBFS_InitNoDataControlTransfer();
 1480              		.loc 1 324 0
 1481 0218 0D4A     		ldr	r2, .L155+24
 323:Generated_Source\PSoC5/USBFS_std.c ****                                                                 (uint8)~(CY_GET_REG8(USBFS_wValueLo
 1482              		.loc 1 323 0
 1483 021a 1B49     		ldr	r1, .L155+80
 324:Generated_Source\PSoC5/USBFS_std.c ****                             requestHandled = USBFS_InitNoDataControlTransfer();
 1484              		.loc 1 324 0
 1485 021c 1078     		ldrb	r0, [r2]	@ zero_extendqisi2
 323:Generated_Source\PSoC5/USBFS_std.c ****                                                                 (uint8)~(CY_GET_REG8(USBFS_wValueLo
 1486              		.loc 1 323 0
 1487 021e 1B78     		ldrb	r3, [r3]	@ zero_extendqisi2
 1488 0220 DBB2     		uxtb	r3, r3
 1489 0222 CA5C     		ldrb	r2, [r1, r3]	@ zero_extendqisi2
 1490 0224 22EA0002 		bic	r2, r2, r0
 1491 0228 CA54     		strb	r2, [r1, r3]
 1492              	.L150:
 337:Generated_Source\PSoC5/USBFS_std.c **** 
 1493              		.loc 1 337 0
 1494 022a BDE83840 		pop	{r3, r4, r5, lr}
 1495              		.cfi_remember_state
 1496              		.cfi_restore 14
 1497              		.cfi_restore 5
 1498              		.cfi_restore 4
 1499              		.cfi_restore 3
 1500              		.cfi_def_cfa_offset 0
 325:Generated_Source\PSoC5/USBFS_std.c ****                         }
 1501              		.loc 1 325 0
 1502 022e FFF7FEBF 		b	USBFS_InitNoDataControlTransfer
 1503              	.LVL116:
 1504              	.L102:
 1505              		.cfi_restore_state
 337:Generated_Source\PSoC5/USBFS_std.c **** 
 1506              		.loc 1 337 0
 1507 0232 0020     		movs	r0, #0
 1508 0234 38BD     		pop	{r3, r4, r5, pc}
 1509              	.L156:
 1510 0236 00BF     		.align	2
ARM GAS  C:\Users\RABBIT~1\AppData\Local\Temp\ccYRpEyv.s 			page 52


 1511              	.L155:
 1512 0238 00000000 		.word	USBFS_currentTD
 1513 023c 00600040 		.word	1073766400
 1514 0240 01600040 		.word	1073766401
 1515 0244 03600040 		.word	1073766403
 1516 0248 00000000 		.word	USBFS_device
 1517 024c 00000000 		.word	USBFS_TABLE
 1518 0250 02600040 		.word	1073766402
 1519 0254 00000000 		.word	USBFS_STRING_DESCRIPTORS
 1520 0258 00000000 		.word	USBFS_DEVICE0_DESCR
 1521 025c 00000000 		.word	USBFS_SN_STRING_DESCRIPTOR
 1522 0260 04600040 		.word	1073766404
 1523 0264 00000000 		.word	USBFS_EP
 1524 0268 00000000 		.word	.LANCHOR0
 1525 026c 00000000 		.word	USBFS_deviceStatus
 1526 0270 00000000 		.word	USBFS_configuration
 1527 0274 00000000 		.word	USBFS_interfaceSetting
 1528 0278 00000000 		.word	USBFS_deviceAddress
 1529 027c 00000000 		.word	USBFS_configurationChanged
 1530 0280 00000000 		.word	USBFS_interfaceNumber
 1531 0284 00000000 		.word	USBFS_interfaceSetting_last
 1532 0288 00000000 		.word	USBFS_interfaceStatus
 1533              		.cfi_endproc
 1534              	.LFE0:
 1535              		.size	USBFS_HandleStandardRqst, .-USBFS_HandleStandardRqst
 1536              		.bss
 1537              		.set	.LANCHOR0,. + 0
 1538              		.type	USBFS_tBuffer.5195, %object
 1539              		.size	USBFS_tBuffer.5195, 2
 1540              	USBFS_tBuffer.5195:
 1541 0000 0000     		.space	2
 1542              		.text
 1543              	.Letext0:
 1544              		.file 2 "Generated_Source\\PSoC5\\cytypes.h"
 1545              		.file 3 "Generated_Source\\PSoC5\\USBFS.h"
 1546              		.file 4 "Generated_Source\\PSoC5\\USBFS_pvt.h"