ARM GAS  C:\Users\RABBIT~1\AppData\Local\Temp\ccHwaQfy.s 			page 1


   1              		.syntax unified
   2              		.cpu cortex-m3
   3              		.fpu softvfp
   4              		.eabi_attribute 20, 1
   5              		.eabi_attribute 21, 1
   6              		.eabi_attribute 23, 3
   7              		.eabi_attribute 24, 1
   8              		.eabi_attribute 25, 1
   9              		.eabi_attribute 26, 1
  10              		.eabi_attribute 30, 4
  11              		.eabi_attribute 34, 1
  12              		.eabi_attribute 18, 4
  13              		.thumb
  14              		.syntax unified
  15              		.file	"USBFS_boot.c"
  16              		.text
  17              	.Ltext0:
  18              		.cfi_sections	.debug_frame
  19              		.section	.text.USBFS_CyBtldrCommStart,"ax",%progbits
  20              		.align	1
  21              		.global	USBFS_CyBtldrCommStart
  22              		.thumb
  23              		.thumb_func
  24              		.type	USBFS_CyBtldrCommStart, %function
  25              	USBFS_CyBtldrCommStart:
  26              	.LFB0:
  27              		.file 1 "Generated_Source\\PSoC5\\USBFS_boot.c"
   1:Generated_Source\PSoC5/USBFS_boot.c **** /*******************************************************************************
   2:Generated_Source\PSoC5/USBFS_boot.c **** * File Name: USBFS_boot.c
   3:Generated_Source\PSoC5/USBFS_boot.c **** * Version 2.80
   4:Generated_Source\PSoC5/USBFS_boot.c **** *
   5:Generated_Source\PSoC5/USBFS_boot.c **** * Description:
   6:Generated_Source\PSoC5/USBFS_boot.c **** *  Boot loader API for USBFS Component.
   7:Generated_Source\PSoC5/USBFS_boot.c **** *
   8:Generated_Source\PSoC5/USBFS_boot.c **** *  Note:
   9:Generated_Source\PSoC5/USBFS_boot.c **** *
  10:Generated_Source\PSoC5/USBFS_boot.c **** ********************************************************************************
  11:Generated_Source\PSoC5/USBFS_boot.c **** * Copyright 2008-2014, Cypress Semiconductor Corporation.  All rights reserved.
  12:Generated_Source\PSoC5/USBFS_boot.c **** * You may use this file only in accordance with the license, terms, conditions,
  13:Generated_Source\PSoC5/USBFS_boot.c **** * disclaimers, and limitations in the end user license agreement accompanying
  14:Generated_Source\PSoC5/USBFS_boot.c **** * the software package with which this file was provided.
  15:Generated_Source\PSoC5/USBFS_boot.c **** *******************************************************************************/
  16:Generated_Source\PSoC5/USBFS_boot.c **** 
  17:Generated_Source\PSoC5/USBFS_boot.c **** #include "USBFS.h"
  18:Generated_Source\PSoC5/USBFS_boot.c **** 
  19:Generated_Source\PSoC5/USBFS_boot.c **** #if defined(CYDEV_BOOTLOADER_IO_COMP) && ((CYDEV_BOOTLOADER_IO_COMP == CyBtldr_USBFS) || \
  20:Generated_Source\PSoC5/USBFS_boot.c ****                                           (CYDEV_BOOTLOADER_IO_COMP == CyBtldr_Custom_Interface))
  21:Generated_Source\PSoC5/USBFS_boot.c **** 
  22:Generated_Source\PSoC5/USBFS_boot.c **** 
  23:Generated_Source\PSoC5/USBFS_boot.c **** /***************************************
  24:Generated_Source\PSoC5/USBFS_boot.c **** *    Bootloader Variables
  25:Generated_Source\PSoC5/USBFS_boot.c **** ***************************************/
  26:Generated_Source\PSoC5/USBFS_boot.c **** 
  27:Generated_Source\PSoC5/USBFS_boot.c **** static uint8  USBFS_started = 0u;
  28:Generated_Source\PSoC5/USBFS_boot.c **** 
  29:Generated_Source\PSoC5/USBFS_boot.c **** 
  30:Generated_Source\PSoC5/USBFS_boot.c **** /*******************************************************************************
ARM GAS  C:\Users\RABBIT~1\AppData\Local\Temp\ccHwaQfy.s 			page 2


  31:Generated_Source\PSoC5/USBFS_boot.c **** * Function Name: USBFS_CyBtldrCommStart
  32:Generated_Source\PSoC5/USBFS_boot.c **** ********************************************************************************
  33:Generated_Source\PSoC5/USBFS_boot.c **** *
  34:Generated_Source\PSoC5/USBFS_boot.c **** * Summary:
  35:Generated_Source\PSoC5/USBFS_boot.c **** *  Starts the component and enables the interrupt.
  36:Generated_Source\PSoC5/USBFS_boot.c **** *
  37:Generated_Source\PSoC5/USBFS_boot.c **** * Parameters:
  38:Generated_Source\PSoC5/USBFS_boot.c **** *  None.
  39:Generated_Source\PSoC5/USBFS_boot.c **** *
  40:Generated_Source\PSoC5/USBFS_boot.c **** * Return:
  41:Generated_Source\PSoC5/USBFS_boot.c **** *  None.
  42:Generated_Source\PSoC5/USBFS_boot.c **** *
  43:Generated_Source\PSoC5/USBFS_boot.c **** * Side Effects:
  44:Generated_Source\PSoC5/USBFS_boot.c **** *  This function starts the USB with 3V or 5V operation.
  45:Generated_Source\PSoC5/USBFS_boot.c **** *
  46:Generated_Source\PSoC5/USBFS_boot.c **** * Reentrant:
  47:Generated_Source\PSoC5/USBFS_boot.c **** *  No.
  48:Generated_Source\PSoC5/USBFS_boot.c **** *
  49:Generated_Source\PSoC5/USBFS_boot.c **** *******************************************************************************/
  50:Generated_Source\PSoC5/USBFS_boot.c **** void USBFS_CyBtldrCommStart(void) 
  51:Generated_Source\PSoC5/USBFS_boot.c **** {
  28              		.loc 1 51 0
  29              		.cfi_startproc
  30              		@ args = 0, pretend = 0, frame = 0
  31              		@ frame_needed = 0, uses_anonymous_args = 0
  32 0000 08B5     		push	{r3, lr}
  33              		.cfi_def_cfa_offset 8
  34              		.cfi_offset 3, -8
  35              		.cfi_offset 14, -4
  52:Generated_Source\PSoC5/USBFS_boot.c ****     CyGlobalIntEnable;      /* Enable Global Interrupts */
  36              		.loc 1 52 0
  37              		.syntax unified
  38              	@ 52 "Generated_Source\PSoC5\USBFS_boot.c" 1
  39 0002 62B6     		CPSIE   i
  40              	@ 0 "" 2
  53:Generated_Source\PSoC5/USBFS_boot.c **** 
  54:Generated_Source\PSoC5/USBFS_boot.c ****     /*Start USBFS Operation/device 0 and with 5V or 3V operation depend on Voltage Configuration in
  55:Generated_Source\PSoC5/USBFS_boot.c ****     USBFS_Start(0u, USBFS_DWR_VDDD_OPERATION);
  41              		.loc 1 55 0
  42              		.thumb
  43              		.syntax unified
  44 0004 0221     		movs	r1, #2
  45 0006 0020     		movs	r0, #0
  46 0008 FFF7FEFF 		bl	USBFS_Start
  47              	.LVL0:
  56:Generated_Source\PSoC5/USBFS_boot.c **** 
  57:Generated_Source\PSoC5/USBFS_boot.c ****     /* USB component started, the correct enumeration will be checked in first Read operation */
  58:Generated_Source\PSoC5/USBFS_boot.c ****     USBFS_started = 1u;
  48              		.loc 1 58 0
  49 000c 014B     		ldr	r3, .L2
  50 000e 0122     		movs	r2, #1
  51 0010 1A70     		strb	r2, [r3]
  52 0012 08BD     		pop	{r3, pc}
  53              	.L3:
  54              		.align	2
  55              	.L2:
  56 0014 00000000 		.word	.LANCHOR0
ARM GAS  C:\Users\RABBIT~1\AppData\Local\Temp\ccHwaQfy.s 			page 3


  57              		.cfi_endproc
  58              	.LFE0:
  59              		.size	USBFS_CyBtldrCommStart, .-USBFS_CyBtldrCommStart
  60              		.section	.text.USBFS_CyBtldrCommStop,"ax",%progbits
  61              		.align	1
  62              		.global	USBFS_CyBtldrCommStop
  63              		.thumb
  64              		.thumb_func
  65              		.type	USBFS_CyBtldrCommStop, %function
  66              	USBFS_CyBtldrCommStop:
  67              	.LFB1:
  59:Generated_Source\PSoC5/USBFS_boot.c **** }
  60:Generated_Source\PSoC5/USBFS_boot.c **** 
  61:Generated_Source\PSoC5/USBFS_boot.c **** 
  62:Generated_Source\PSoC5/USBFS_boot.c **** /*******************************************************************************
  63:Generated_Source\PSoC5/USBFS_boot.c **** * Function Name: USBFS_CyBtldrCommStop.
  64:Generated_Source\PSoC5/USBFS_boot.c **** ********************************************************************************
  65:Generated_Source\PSoC5/USBFS_boot.c **** *
  66:Generated_Source\PSoC5/USBFS_boot.c **** * Summary:
  67:Generated_Source\PSoC5/USBFS_boot.c **** *  Disable the component and disable the interrupt.
  68:Generated_Source\PSoC5/USBFS_boot.c **** *
  69:Generated_Source\PSoC5/USBFS_boot.c **** * Parameters:
  70:Generated_Source\PSoC5/USBFS_boot.c **** *  None.
  71:Generated_Source\PSoC5/USBFS_boot.c **** *
  72:Generated_Source\PSoC5/USBFS_boot.c **** * Return:
  73:Generated_Source\PSoC5/USBFS_boot.c **** *  None.
  74:Generated_Source\PSoC5/USBFS_boot.c **** *
  75:Generated_Source\PSoC5/USBFS_boot.c **** *******************************************************************************/
  76:Generated_Source\PSoC5/USBFS_boot.c **** void USBFS_CyBtldrCommStop(void) 
  77:Generated_Source\PSoC5/USBFS_boot.c **** {
  68              		.loc 1 77 0
  69              		.cfi_startproc
  70              		@ args = 0, pretend = 0, frame = 0
  71              		@ frame_needed = 0, uses_anonymous_args = 0
  72              		@ link register save eliminated.
  78:Generated_Source\PSoC5/USBFS_boot.c ****     USBFS_Stop();
  73              		.loc 1 78 0
  74 0000 FFF7FEBF 		b	USBFS_Stop
  75              	.LVL1:
  76              		.cfi_endproc
  77              	.LFE1:
  78              		.size	USBFS_CyBtldrCommStop, .-USBFS_CyBtldrCommStop
  79              		.section	.text.USBFS_CyBtldrCommReset,"ax",%progbits
  80              		.align	1
  81              		.global	USBFS_CyBtldrCommReset
  82              		.thumb
  83              		.thumb_func
  84              		.type	USBFS_CyBtldrCommReset, %function
  85              	USBFS_CyBtldrCommReset:
  86              	.LFB2:
  79:Generated_Source\PSoC5/USBFS_boot.c **** }
  80:Generated_Source\PSoC5/USBFS_boot.c **** 
  81:Generated_Source\PSoC5/USBFS_boot.c **** 
  82:Generated_Source\PSoC5/USBFS_boot.c **** /*******************************************************************************
  83:Generated_Source\PSoC5/USBFS_boot.c **** * Function Name: USBFS_CyBtldrCommReset.
  84:Generated_Source\PSoC5/USBFS_boot.c **** ********************************************************************************
  85:Generated_Source\PSoC5/USBFS_boot.c **** *
ARM GAS  C:\Users\RABBIT~1\AppData\Local\Temp\ccHwaQfy.s 			page 4


  86:Generated_Source\PSoC5/USBFS_boot.c **** * Summary:
  87:Generated_Source\PSoC5/USBFS_boot.c **** *  Resets the receive and transmit communication Buffers.
  88:Generated_Source\PSoC5/USBFS_boot.c **** *
  89:Generated_Source\PSoC5/USBFS_boot.c **** * Parameters:
  90:Generated_Source\PSoC5/USBFS_boot.c **** *  None
  91:Generated_Source\PSoC5/USBFS_boot.c **** *
  92:Generated_Source\PSoC5/USBFS_boot.c **** * Return:
  93:Generated_Source\PSoC5/USBFS_boot.c **** *  None
  94:Generated_Source\PSoC5/USBFS_boot.c **** *
  95:Generated_Source\PSoC5/USBFS_boot.c **** * Reentrant:
  96:Generated_Source\PSoC5/USBFS_boot.c **** *  No
  97:Generated_Source\PSoC5/USBFS_boot.c **** *
  98:Generated_Source\PSoC5/USBFS_boot.c **** *******************************************************************************/
  99:Generated_Source\PSoC5/USBFS_boot.c **** void USBFS_CyBtldrCommReset(void) 
 100:Generated_Source\PSoC5/USBFS_boot.c **** {
  87              		.loc 1 100 0
  88              		.cfi_startproc
  89              		@ args = 0, pretend = 0, frame = 0
  90              		@ frame_needed = 0, uses_anonymous_args = 0
  91              		@ link register save eliminated.
 101:Generated_Source\PSoC5/USBFS_boot.c ****     USBFS_EnableOutEP(USBFS_BTLDR_OUT_EP);  /* Enable the OUT endpoint */
  92              		.loc 1 101 0
  93 0000 0120     		movs	r0, #1
  94 0002 FFF7FEBF 		b	USBFS_EnableOutEP
  95              	.LVL2:
  96              		.cfi_endproc
  97              	.LFE2:
  98              		.size	USBFS_CyBtldrCommReset, .-USBFS_CyBtldrCommReset
  99              		.section	.text.USBFS_CyBtldrCommWrite,"ax",%progbits
 100              		.align	1
 101              		.global	USBFS_CyBtldrCommWrite
 102              		.thumb
 103              		.thumb_func
 104              		.type	USBFS_CyBtldrCommWrite, %function
 105              	USBFS_CyBtldrCommWrite:
 106              	.LFB3:
 102:Generated_Source\PSoC5/USBFS_boot.c **** }
 103:Generated_Source\PSoC5/USBFS_boot.c **** 
 104:Generated_Source\PSoC5/USBFS_boot.c **** 
 105:Generated_Source\PSoC5/USBFS_boot.c **** /*******************************************************************************
 106:Generated_Source\PSoC5/USBFS_boot.c **** * Function Name: USBFS_CyBtldrCommWrite.
 107:Generated_Source\PSoC5/USBFS_boot.c **** ********************************************************************************
 108:Generated_Source\PSoC5/USBFS_boot.c **** *
 109:Generated_Source\PSoC5/USBFS_boot.c **** * Summary:
 110:Generated_Source\PSoC5/USBFS_boot.c **** *  Allows the caller to write data to the boot loader host. The function will
 111:Generated_Source\PSoC5/USBFS_boot.c **** *  handle polling to allow a block of data to be completely sent to the host
 112:Generated_Source\PSoC5/USBFS_boot.c **** *  device.
 113:Generated_Source\PSoC5/USBFS_boot.c **** *
 114:Generated_Source\PSoC5/USBFS_boot.c **** * Parameters:
 115:Generated_Source\PSoC5/USBFS_boot.c **** *  pData:    A pointer to the block of data to send to the device
 116:Generated_Source\PSoC5/USBFS_boot.c **** *  size:     The number of bytes to write.
 117:Generated_Source\PSoC5/USBFS_boot.c **** *  count:    Pointer to an unsigned short variable to write the number of
 118:Generated_Source\PSoC5/USBFS_boot.c **** *             bytes actually written.
 119:Generated_Source\PSoC5/USBFS_boot.c **** *  timeOut:  Number of units to wait before returning because of a timeout.
 120:Generated_Source\PSoC5/USBFS_boot.c **** *
 121:Generated_Source\PSoC5/USBFS_boot.c **** * Return:
 122:Generated_Source\PSoC5/USBFS_boot.c **** *  Returns the value that best describes the problem.
ARM GAS  C:\Users\RABBIT~1\AppData\Local\Temp\ccHwaQfy.s 			page 5


 123:Generated_Source\PSoC5/USBFS_boot.c **** *
 124:Generated_Source\PSoC5/USBFS_boot.c **** * Reentrant:
 125:Generated_Source\PSoC5/USBFS_boot.c **** *  No
 126:Generated_Source\PSoC5/USBFS_boot.c **** *
 127:Generated_Source\PSoC5/USBFS_boot.c **** *******************************************************************************/
 128:Generated_Source\PSoC5/USBFS_boot.c **** cystatus USBFS_CyBtldrCommWrite(const uint8 pData[], uint16 size, uint16 *count, uint8 timeOut) CYS
 129:Generated_Source\PSoC5/USBFS_boot.c ****                                                             
 130:Generated_Source\PSoC5/USBFS_boot.c **** {
 107              		.loc 1 130 0
 108              		.cfi_startproc
 109              		@ args = 0, pretend = 0, frame = 0
 110              		@ frame_needed = 0, uses_anonymous_args = 0
 111              	.LVL3:
 112 0000 70B5     		push	{r4, r5, r6, lr}
 113              		.cfi_def_cfa_offset 16
 114              		.cfi_offset 4, -16
 115              		.cfi_offset 5, -12
 116              		.cfi_offset 6, -8
 117              		.cfi_offset 14, -4
 131:Generated_Source\PSoC5/USBFS_boot.c ****     cystatus retCode;
 132:Generated_Source\PSoC5/USBFS_boot.c ****     uint16 timeoutMs;
 133:Generated_Source\PSoC5/USBFS_boot.c **** 
 134:Generated_Source\PSoC5/USBFS_boot.c ****     timeoutMs = ((uint16) 10u * timeOut);  /* Convert from 10mS check to number 1mS checks */
 118              		.loc 1 134 0
 119 0002 03EB8303 		add	r3, r3, r3, lsl #2
 120              	.LVL4:
 130:Generated_Source\PSoC5/USBFS_boot.c ****     cystatus retCode;
 121              		.loc 1 130 0
 122 0006 0E46     		mov	r6, r1
 123 0008 1546     		mov	r5, r2
 135:Generated_Source\PSoC5/USBFS_boot.c **** 
 136:Generated_Source\PSoC5/USBFS_boot.c ****     /* Enable IN transfer */
 137:Generated_Source\PSoC5/USBFS_boot.c ****     USBFS_LoadInEP(USBFS_BTLDR_IN_EP, pData, USBFS_BTLDR_SIZEOF_READ_BUFFER);
 124              		.loc 1 137 0
 125 000a 0146     		mov	r1, r0
 126              	.LVL5:
 127 000c 4022     		movs	r2, #64
 128              	.LVL6:
 129 000e 0220     		movs	r0, #2
 130              	.LVL7:
 134:Generated_Source\PSoC5/USBFS_boot.c **** 
 131              		.loc 1 134 0
 132 0010 5C00     		lsls	r4, r3, #1
 133              	.LVL8:
 134              		.loc 1 137 0
 135 0012 FFF7FEFF 		bl	USBFS_LoadInEP
 136              	.LVL9:
 137              	.L7:
 138:Generated_Source\PSoC5/USBFS_boot.c **** 
 139:Generated_Source\PSoC5/USBFS_boot.c ****     /* Wait for the master to read it. */
 140:Generated_Source\PSoC5/USBFS_boot.c ****     while ((USBFS_GetEPState(USBFS_BTLDR_IN_EP) == USBFS_IN_BUFFER_FULL) &&
 138              		.loc 1 140 0
 139 0016 0220     		movs	r0, #2
 140 0018 FFF7FEFF 		bl	USBFS_GetEPState
 141              	.LVL10:
 142 001c 30B9     		cbnz	r0, .L8
 143              		.loc 1 140 0 is_stmt 0 discriminator 1
ARM GAS  C:\Users\RABBIT~1\AppData\Local\Temp\ccHwaQfy.s 			page 6


 144 001e 2CB1     		cbz	r4, .L8
 141:Generated_Source\PSoC5/USBFS_boot.c ****            (0u != timeoutMs))
 142:Generated_Source\PSoC5/USBFS_boot.c ****     {
 143:Generated_Source\PSoC5/USBFS_boot.c ****         CyDelay(USBFS_BTLDR_WAIT_1_MS);
 145              		.loc 1 143 0 is_stmt 1
 146 0020 0120     		movs	r0, #1
 144:Generated_Source\PSoC5/USBFS_boot.c ****         timeoutMs--;
 147              		.loc 1 144 0
 148 0022 013C     		subs	r4, r4, #1
 149              	.LVL11:
 143:Generated_Source\PSoC5/USBFS_boot.c ****         timeoutMs--;
 150              		.loc 1 143 0
 151 0024 FFF7FEFF 		bl	CyDelay
 152              	.LVL12:
 153              		.loc 1 144 0
 154 0028 A4B2     		uxth	r4, r4
 155              	.LVL13:
 156 002a F4E7     		b	.L7
 157              	.L8:
 145:Generated_Source\PSoC5/USBFS_boot.c ****     }
 146:Generated_Source\PSoC5/USBFS_boot.c **** 
 147:Generated_Source\PSoC5/USBFS_boot.c ****     if (USBFS_GetEPState(USBFS_BTLDR_IN_EP) == USBFS_IN_BUFFER_FULL)
 158              		.loc 1 147 0
 159 002c 0220     		movs	r0, #2
 160 002e FFF7FEFF 		bl	USBFS_GetEPState
 161              	.LVL14:
 162 0032 10B1     		cbz	r0, .L11
 148:Generated_Source\PSoC5/USBFS_boot.c ****     {
 149:Generated_Source\PSoC5/USBFS_boot.c ****         retCode = CYRET_TIMEOUT;
 150:Generated_Source\PSoC5/USBFS_boot.c ****     }
 151:Generated_Source\PSoC5/USBFS_boot.c ****     else
 152:Generated_Source\PSoC5/USBFS_boot.c ****     {
 153:Generated_Source\PSoC5/USBFS_boot.c ****         *count = size;
 163              		.loc 1 153 0
 164 0034 2E80     		strh	r6, [r5]	@ movhi
 165              	.LVL15:
 154:Generated_Source\PSoC5/USBFS_boot.c ****         retCode = CYRET_SUCCESS;
 166              		.loc 1 154 0
 167 0036 0020     		movs	r0, #0
 168 0038 70BD     		pop	{r4, r5, r6, pc}
 169              	.LVL16:
 170              	.L11:
 149:Generated_Source\PSoC5/USBFS_boot.c ****     }
 171              		.loc 1 149 0
 172 003a 1020     		movs	r0, #16
 173              	.LVL17:
 155:Generated_Source\PSoC5/USBFS_boot.c ****     }
 156:Generated_Source\PSoC5/USBFS_boot.c **** 
 157:Generated_Source\PSoC5/USBFS_boot.c ****     return(retCode);
 158:Generated_Source\PSoC5/USBFS_boot.c **** }
 174              		.loc 1 158 0
 175 003c 70BD     		pop	{r4, r5, r6, pc}
 176              		.cfi_endproc
 177              	.LFE3:
 178              		.size	USBFS_CyBtldrCommWrite, .-USBFS_CyBtldrCommWrite
 179              		.section	.text.USBFS_CyBtldrCommRead,"ax",%progbits
 180              		.align	1
ARM GAS  C:\Users\RABBIT~1\AppData\Local\Temp\ccHwaQfy.s 			page 7


 181              		.global	USBFS_CyBtldrCommRead
 182              		.thumb
 183              		.thumb_func
 184              		.type	USBFS_CyBtldrCommRead, %function
 185              	USBFS_CyBtldrCommRead:
 186              	.LFB4:
 159:Generated_Source\PSoC5/USBFS_boot.c **** 
 160:Generated_Source\PSoC5/USBFS_boot.c **** 
 161:Generated_Source\PSoC5/USBFS_boot.c **** /*******************************************************************************
 162:Generated_Source\PSoC5/USBFS_boot.c **** * Function Name: USBFS_CyBtldrCommRead.
 163:Generated_Source\PSoC5/USBFS_boot.c **** ********************************************************************************
 164:Generated_Source\PSoC5/USBFS_boot.c **** *
 165:Generated_Source\PSoC5/USBFS_boot.c **** * Summary:
 166:Generated_Source\PSoC5/USBFS_boot.c **** *  Allows the caller to read data from the boot loader host. The function will
 167:Generated_Source\PSoC5/USBFS_boot.c **** *  handle polling to allow a block of data to be completely received from the
 168:Generated_Source\PSoC5/USBFS_boot.c **** *  host device.
 169:Generated_Source\PSoC5/USBFS_boot.c **** *
 170:Generated_Source\PSoC5/USBFS_boot.c **** * Parameters:
 171:Generated_Source\PSoC5/USBFS_boot.c **** *  pData:    A pointer to the area to store the block of data received
 172:Generated_Source\PSoC5/USBFS_boot.c **** *             from the device.
 173:Generated_Source\PSoC5/USBFS_boot.c **** *  size:     The number of bytes to read.
 174:Generated_Source\PSoC5/USBFS_boot.c **** *  count:    Pointer to an unsigned short variable to write the number
 175:Generated_Source\PSoC5/USBFS_boot.c **** *             of bytes actually read.
 176:Generated_Source\PSoC5/USBFS_boot.c **** *  timeOut:  Number of units to wait before returning because of a timeOut.
 177:Generated_Source\PSoC5/USBFS_boot.c **** *            Timeout is measured in 10s of ms.
 178:Generated_Source\PSoC5/USBFS_boot.c **** *
 179:Generated_Source\PSoC5/USBFS_boot.c **** * Return:
 180:Generated_Source\PSoC5/USBFS_boot.c **** *  Returns the value that best describes the problem.
 181:Generated_Source\PSoC5/USBFS_boot.c **** *
 182:Generated_Source\PSoC5/USBFS_boot.c **** * Reentrant:
 183:Generated_Source\PSoC5/USBFS_boot.c **** *  No
 184:Generated_Source\PSoC5/USBFS_boot.c **** *
 185:Generated_Source\PSoC5/USBFS_boot.c **** *******************************************************************************/
 186:Generated_Source\PSoC5/USBFS_boot.c **** cystatus USBFS_CyBtldrCommRead(uint8 pData[], uint16 size, uint16 *count, uint8 timeOut) CYSMALL
 187:Generated_Source\PSoC5/USBFS_boot.c ****                                                             
 188:Generated_Source\PSoC5/USBFS_boot.c **** {
 187              		.loc 1 188 0
 188              		.cfi_startproc
 189              		@ args = 0, pretend = 0, frame = 0
 190              		@ frame_needed = 0, uses_anonymous_args = 0
 191              	.LVL18:
 192 0000 2DE9F843 		push	{r3, r4, r5, r6, r7, r8, r9, lr}
 193              		.cfi_def_cfa_offset 32
 194              		.cfi_offset 3, -32
 195              		.cfi_offset 4, -28
 196              		.cfi_offset 5, -24
 197              		.cfi_offset 6, -20
 198              		.cfi_offset 7, -16
 199              		.cfi_offset 8, -12
 200              		.cfi_offset 9, -8
 201              		.cfi_offset 14, -4
 189:Generated_Source\PSoC5/USBFS_boot.c ****     cystatus retCode;
 190:Generated_Source\PSoC5/USBFS_boot.c ****     uint16 timeoutMs;
 191:Generated_Source\PSoC5/USBFS_boot.c **** 
 192:Generated_Source\PSoC5/USBFS_boot.c ****     timeoutMs = ((uint16) 10u * timeOut);  /* Convert from 10mS check to number 1mS checks */
 202              		.loc 1 192 0
 203 0004 03EB8303 		add	r3, r3, r3, lsl #2
ARM GAS  C:\Users\RABBIT~1\AppData\Local\Temp\ccHwaQfy.s 			page 8


 204              	.LVL19:
 205 0008 5C00     		lsls	r4, r3, #1
 206              	.LVL20:
 193:Generated_Source\PSoC5/USBFS_boot.c **** 
 194:Generated_Source\PSoC5/USBFS_boot.c ****     if (size > USBFS_BTLDR_SIZEOF_WRITE_BUFFER)
 195:Generated_Source\PSoC5/USBFS_boot.c ****     {
 196:Generated_Source\PSoC5/USBFS_boot.c ****         size = USBFS_BTLDR_SIZEOF_WRITE_BUFFER;
 197:Generated_Source\PSoC5/USBFS_boot.c ****     }
 198:Generated_Source\PSoC5/USBFS_boot.c **** 
 199:Generated_Source\PSoC5/USBFS_boot.c ****     /* Wait on enumeration in first time */
 200:Generated_Source\PSoC5/USBFS_boot.c ****     if (0u != USBFS_started)
 207              		.loc 1 200 0
 208 000a 224B     		ldr	r3, .L36
 188:Generated_Source\PSoC5/USBFS_boot.c ****     cystatus retCode;
 209              		.loc 1 188 0
 210 000c 1746     		mov	r7, r2
 211              		.loc 1 200 0
 212 000e 1A78     		ldrb	r2, [r3]	@ zero_extendqisi2
 213              	.LVL21:
 188:Generated_Source\PSoC5/USBFS_boot.c ****     cystatus retCode;
 214              		.loc 1 188 0
 215 0010 8046     		mov	r8, r0
 216 0012 8946     		mov	r9, r1
 217              	.LVL22:
 218 0014 1E46     		mov	r6, r3
 219              		.loc 1 200 0
 220 0016 A2B1     		cbz	r2, .L14
 221 0018 2546     		mov	r5, r4
 222              	.LVL23:
 223              	.L15:
 201:Generated_Source\PSoC5/USBFS_boot.c ****     {
 202:Generated_Source\PSoC5/USBFS_boot.c ****         /* Wait for Device to enumerate */
 203:Generated_Source\PSoC5/USBFS_boot.c ****         while ((0u ==USBFS_GetConfiguration()) && (0u != timeoutMs))
 224              		.loc 1 203 0
 225 001a FFF7FEFF 		bl	USBFS_GetConfiguration
 226              	.LVL24:
 227 001e 30B9     		cbnz	r0, .L16
 228              		.loc 1 203 0 is_stmt 0 discriminator 1
 229 0020 2DB1     		cbz	r5, .L16
 204:Generated_Source\PSoC5/USBFS_boot.c ****         {
 205:Generated_Source\PSoC5/USBFS_boot.c ****             CyDelay(USBFS_BTLDR_WAIT_1_MS);
 230              		.loc 1 205 0 is_stmt 1
 231 0022 0120     		movs	r0, #1
 206:Generated_Source\PSoC5/USBFS_boot.c ****             timeoutMs--;
 232              		.loc 1 206 0
 233 0024 013D     		subs	r5, r5, #1
 234              	.LVL25:
 205:Generated_Source\PSoC5/USBFS_boot.c ****             timeoutMs--;
 235              		.loc 1 205 0
 236 0026 FFF7FEFF 		bl	CyDelay
 237              	.LVL26:
 238              		.loc 1 206 0
 239 002a ADB2     		uxth	r5, r5
 240              	.LVL27:
 241 002c F5E7     		b	.L15
 242              	.L16:
 207:Generated_Source\PSoC5/USBFS_boot.c ****         }
ARM GAS  C:\Users\RABBIT~1\AppData\Local\Temp\ccHwaQfy.s 			page 9


 208:Generated_Source\PSoC5/USBFS_boot.c **** 
 209:Generated_Source\PSoC5/USBFS_boot.c ****         /* Enable first OUT, if enumeration complete */
 210:Generated_Source\PSoC5/USBFS_boot.c ****         if (0u != USBFS_GetConfiguration())
 243              		.loc 1 210 0
 244 002e FFF7FEFF 		bl	USBFS_GetConfiguration
 245              	.LVL28:
 246 0032 A0B1     		cbz	r0, .L20
 211:Generated_Source\PSoC5/USBFS_boot.c ****         {
 212:Generated_Source\PSoC5/USBFS_boot.c ****             (void) USBFS_IsConfigurationChanged();  /* Clear configuration changes state status */
 247              		.loc 1 212 0
 248 0034 FFF7FEFF 		bl	USBFS_IsConfigurationChanged
 249              	.LVL29:
 213:Generated_Source\PSoC5/USBFS_boot.c ****             USBFS_CyBtldrCommReset();
 250              		.loc 1 213 0
 251 0038 FFF7FEFF 		bl	USBFS_CyBtldrCommReset
 252              	.LVL30:
 214:Generated_Source\PSoC5/USBFS_boot.c ****             USBFS_started = 0u;
 253              		.loc 1 214 0
 254 003c 0023     		movs	r3, #0
 255 003e 3370     		strb	r3, [r6]
 256 0040 0DE0     		b	.L20
 257              	.LVL31:
 258              	.L14:
 215:Generated_Source\PSoC5/USBFS_boot.c ****         }
 216:Generated_Source\PSoC5/USBFS_boot.c ****     }
 217:Generated_Source\PSoC5/USBFS_boot.c ****     else /* Check for configuration changes, has been done by Host */
 218:Generated_Source\PSoC5/USBFS_boot.c ****     {
 219:Generated_Source\PSoC5/USBFS_boot.c ****         if (0u != USBFS_IsConfigurationChanged()) /* Host could send double SET_INTERFACE request o
 259              		.loc 1 219 0
 260 0042 FFF7FEFF 		bl	USBFS_IsConfigurationChanged
 261              	.LVL32:
 262 0046 50B1     		cbz	r0, .L20
 220:Generated_Source\PSoC5/USBFS_boot.c ****         {
 221:Generated_Source\PSoC5/USBFS_boot.c ****             if (0u != USBFS_GetConfiguration())   /* Init OUT endpoints when device reconfigured */
 263              		.loc 1 221 0
 264 0048 FFF7FEFF 		bl	USBFS_GetConfiguration
 265              	.LVL33:
 266 004c 38B1     		cbz	r0, .L20
 222:Generated_Source\PSoC5/USBFS_boot.c ****             {
 223:Generated_Source\PSoC5/USBFS_boot.c ****                 USBFS_CyBtldrCommReset();
 267              		.loc 1 223 0
 268 004e FFF7FEFF 		bl	USBFS_CyBtldrCommReset
 269              	.LVL34:
 270 0052 04E0     		b	.L20
 271              	.L35:
 224:Generated_Source\PSoC5/USBFS_boot.c ****             }
 225:Generated_Source\PSoC5/USBFS_boot.c ****         }
 226:Generated_Source\PSoC5/USBFS_boot.c ****     }
 227:Generated_Source\PSoC5/USBFS_boot.c **** 
 228:Generated_Source\PSoC5/USBFS_boot.c ****     timeoutMs = ((uint16) 10u * timeOut); /* Re-arm timeout */
 229:Generated_Source\PSoC5/USBFS_boot.c **** 
 230:Generated_Source\PSoC5/USBFS_boot.c ****     /* Wait on next packet */
 231:Generated_Source\PSoC5/USBFS_boot.c ****     while((USBFS_GetEPState(USBFS_BTLDR_OUT_EP) != USBFS_OUT_BUFFER_FULL) && \
 272              		.loc 1 231 0 discriminator 1
 273 0054 54B1     		cbz	r4, .L22
 232:Generated_Source\PSoC5/USBFS_boot.c ****           (0u != timeoutMs))
 233:Generated_Source\PSoC5/USBFS_boot.c ****     {
ARM GAS  C:\Users\RABBIT~1\AppData\Local\Temp\ccHwaQfy.s 			page 10


 234:Generated_Source\PSoC5/USBFS_boot.c ****         CyDelay(USBFS_BTLDR_WAIT_1_MS);
 274              		.loc 1 234 0
 275 0056 FFF7FEFF 		bl	CyDelay
 276              	.LVL35:
 235:Generated_Source\PSoC5/USBFS_boot.c ****         timeoutMs--;
 277              		.loc 1 235 0
 278 005a 013C     		subs	r4, r4, #1
 279              	.LVL36:
 280 005c A4B2     		uxth	r4, r4
 281              	.LVL37:
 282              	.L20:
 231:Generated_Source\PSoC5/USBFS_boot.c ****           (0u != timeoutMs))
 283              		.loc 1 231 0
 284 005e 0120     		movs	r0, #1
 285 0060 FFF7FEFF 		bl	USBFS_GetEPState
 286              	.LVL38:
 287 0064 0128     		cmp	r0, #1
 234:Generated_Source\PSoC5/USBFS_boot.c ****         timeoutMs--;
 288              		.loc 1 234 0
 289 0066 4FF00100 		mov	r0, #1
 231:Generated_Source\PSoC5/USBFS_boot.c ****           (0u != timeoutMs))
 290              		.loc 1 231 0
 291 006a F3D1     		bne	.L35
 292              	.L22:
 236:Generated_Source\PSoC5/USBFS_boot.c ****     }
 237:Generated_Source\PSoC5/USBFS_boot.c **** 
 238:Generated_Source\PSoC5/USBFS_boot.c ****     /* OUT EP has completed */
 239:Generated_Source\PSoC5/USBFS_boot.c ****     if (USBFS_GetEPState(USBFS_BTLDR_OUT_EP) == USBFS_OUT_BUFFER_FULL)
 293              		.loc 1 239 0
 294 006c FFF7FEFF 		bl	USBFS_GetEPState
 295              	.LVL39:
 296 0070 0128     		cmp	r0, #1
 297 0072 0AD1     		bne	.L24
 240:Generated_Source\PSoC5/USBFS_boot.c ****     {
 241:Generated_Source\PSoC5/USBFS_boot.c ****         *count = USBFS_ReadOutEP(USBFS_BTLDR_OUT_EP, pData, size);
 298              		.loc 1 241 0
 299 0074 4A46     		mov	r2, r9
 300 0076 402A     		cmp	r2, #64
 301 0078 28BF     		it	cs
 302 007a 4022     		movcs	r2, #64
 303 007c 4146     		mov	r1, r8
 304 007e FFF7FEFF 		bl	USBFS_ReadOutEP
 305              	.LVL40:
 306 0082 3880     		strh	r0, [r7]	@ movhi
 307              	.LVL41:
 242:Generated_Source\PSoC5/USBFS_boot.c ****         retCode = CYRET_SUCCESS;
 308              		.loc 1 242 0
 309 0084 0020     		movs	r0, #0
 310 0086 BDE8F883 		pop	{r3, r4, r5, r6, r7, r8, r9, pc}
 311              	.LVL42:
 312              	.L24:
 243:Generated_Source\PSoC5/USBFS_boot.c ****     }
 244:Generated_Source\PSoC5/USBFS_boot.c ****     else
 245:Generated_Source\PSoC5/USBFS_boot.c ****     {
 246:Generated_Source\PSoC5/USBFS_boot.c ****         *count = 0u;
 313              		.loc 1 246 0
 314 008a 0023     		movs	r3, #0
ARM GAS  C:\Users\RABBIT~1\AppData\Local\Temp\ccHwaQfy.s 			page 11


 315 008c 3B80     		strh	r3, [r7]	@ movhi
 316              	.LVL43:
 247:Generated_Source\PSoC5/USBFS_boot.c ****         retCode = CYRET_TIMEOUT;
 317              		.loc 1 247 0
 318 008e 1020     		movs	r0, #16
 319              	.LVL44:
 248:Generated_Source\PSoC5/USBFS_boot.c ****     }
 249:Generated_Source\PSoC5/USBFS_boot.c **** 
 250:Generated_Source\PSoC5/USBFS_boot.c ****     return(retCode);
 251:Generated_Source\PSoC5/USBFS_boot.c **** }
 320              		.loc 1 251 0
 321 0090 BDE8F883 		pop	{r3, r4, r5, r6, r7, r8, r9, pc}
 322              	.LVL45:
 323              	.L37:
 324              		.align	2
 325              	.L36:
 326 0094 00000000 		.word	.LANCHOR0
 327              		.cfi_endproc
 328              	.LFE4:
 329              		.size	USBFS_CyBtldrCommRead, .-USBFS_CyBtldrCommRead
 330              		.bss
 331              		.set	.LANCHOR0,. + 0
 332              		.type	USBFS_started, %object
 333              		.size	USBFS_started, 1
 334              	USBFS_started:
 335 0000 00       		.space	1
 336              		.text
 337              	.Letext0:
 338              		.file 2 "Generated_Source\\PSoC5\\cytypes.h"
 339              		.file 3 "Generated_Source\\PSoC5\\USBFS.h"
 340              		.file 4 "Generated_Source\\PSoC5\\CyLib.h"