ARM GAS  C:\Users\RABBIT~1\AppData\Local\Temp\ccOHC74T.s 			page 1


   1              		.syntax unified
   2              		.cpu cortex-m3
   3              		.fpu softvfp
   4              		.eabi_attribute 20, 1
   5              		.eabi_attribute 21, 1
   6              		.eabi_attribute 23, 3
   7              		.eabi_attribute 24, 1
   8              		.eabi_attribute 25, 1
   9              		.eabi_attribute 26, 1
  10              		.eabi_attribute 30, 4
  11              		.eabi_attribute 34, 1
  12              		.eabi_attribute 18, 4
  13              		.thumb
  14              		.syntax unified
  15              		.file	"USBFS_drv.c"
  16              		.text
  17              	.Ltext0:
  18              		.cfi_sections	.debug_frame
  19              		.section	.text.USBFS_LoadEP0,"ax",%progbits
  20              		.align	1
  21              		.global	USBFS_LoadEP0
  22              		.thumb
  23              		.thumb_func
  24              		.type	USBFS_LoadEP0, %function
  25              	USBFS_LoadEP0:
  26              	.LFB4:
  27              		.file 1 "Generated_Source\\PSoC5\\USBFS_drv.c"
   1:Generated_Source\PSoC5/USBFS_drv.c **** /*******************************************************************************
   2:Generated_Source\PSoC5/USBFS_drv.c **** * File Name: USBFS_drv.c
   3:Generated_Source\PSoC5/USBFS_drv.c **** * Version 2.80
   4:Generated_Source\PSoC5/USBFS_drv.c **** *
   5:Generated_Source\PSoC5/USBFS_drv.c **** * Description:
   6:Generated_Source\PSoC5/USBFS_drv.c **** *  Endpoint 0 Driver for the USBFS Component.
   7:Generated_Source\PSoC5/USBFS_drv.c **** *
   8:Generated_Source\PSoC5/USBFS_drv.c **** * Note:
   9:Generated_Source\PSoC5/USBFS_drv.c **** *
  10:Generated_Source\PSoC5/USBFS_drv.c **** ********************************************************************************
  11:Generated_Source\PSoC5/USBFS_drv.c **** * Copyright 2008-2014, Cypress Semiconductor Corporation.  All rights reserved.
  12:Generated_Source\PSoC5/USBFS_drv.c **** * You may use this file only in accordance with the license, terms, conditions,
  13:Generated_Source\PSoC5/USBFS_drv.c **** * disclaimers, and limitations in the end user license agreement accompanying
  14:Generated_Source\PSoC5/USBFS_drv.c **** * the software package with which this file was provided.
  15:Generated_Source\PSoC5/USBFS_drv.c **** *******************************************************************************/
  16:Generated_Source\PSoC5/USBFS_drv.c **** 
  17:Generated_Source\PSoC5/USBFS_drv.c **** #include "USBFS.h"
  18:Generated_Source\PSoC5/USBFS_drv.c **** #include "USBFS_pvt.h"
  19:Generated_Source\PSoC5/USBFS_drv.c **** 
  20:Generated_Source\PSoC5/USBFS_drv.c **** 
  21:Generated_Source\PSoC5/USBFS_drv.c **** 
  22:Generated_Source\PSoC5/USBFS_drv.c **** /***************************************
  23:Generated_Source\PSoC5/USBFS_drv.c **** * Global data allocation
  24:Generated_Source\PSoC5/USBFS_drv.c **** ***************************************/
  25:Generated_Source\PSoC5/USBFS_drv.c **** 
  26:Generated_Source\PSoC5/USBFS_drv.c **** volatile T_USBFS_EP_CTL_BLOCK USBFS_EP[USBFS_MAX_EP];
  27:Generated_Source\PSoC5/USBFS_drv.c **** volatile uint8 USBFS_configuration;
  28:Generated_Source\PSoC5/USBFS_drv.c **** volatile uint8 USBFS_interfaceNumber;
  29:Generated_Source\PSoC5/USBFS_drv.c **** volatile uint8 USBFS_configurationChanged;
  30:Generated_Source\PSoC5/USBFS_drv.c **** volatile uint8 USBFS_deviceAddress;
ARM GAS  C:\Users\RABBIT~1\AppData\Local\Temp\ccOHC74T.s 			page 2


  31:Generated_Source\PSoC5/USBFS_drv.c **** volatile uint8 USBFS_deviceStatus;
  32:Generated_Source\PSoC5/USBFS_drv.c **** volatile uint8 USBFS_interfaceSetting[USBFS_MAX_INTERFACES_NUMBER];
  33:Generated_Source\PSoC5/USBFS_drv.c **** volatile uint8 USBFS_interfaceSetting_last[USBFS_MAX_INTERFACES_NUMBER];
  34:Generated_Source\PSoC5/USBFS_drv.c **** volatile uint8 USBFS_interfaceStatus[USBFS_MAX_INTERFACES_NUMBER];
  35:Generated_Source\PSoC5/USBFS_drv.c **** volatile uint8 USBFS_device;
  36:Generated_Source\PSoC5/USBFS_drv.c **** const uint8 CYCODE *USBFS_interfaceClass;
  37:Generated_Source\PSoC5/USBFS_drv.c **** 
  38:Generated_Source\PSoC5/USBFS_drv.c **** 
  39:Generated_Source\PSoC5/USBFS_drv.c **** /***************************************
  40:Generated_Source\PSoC5/USBFS_drv.c **** * Local data allocation
  41:Generated_Source\PSoC5/USBFS_drv.c **** ***************************************/
  42:Generated_Source\PSoC5/USBFS_drv.c **** 
  43:Generated_Source\PSoC5/USBFS_drv.c **** volatile uint8 USBFS_ep0Toggle;
  44:Generated_Source\PSoC5/USBFS_drv.c **** volatile uint8 USBFS_lastPacketSize;
  45:Generated_Source\PSoC5/USBFS_drv.c **** volatile uint8 USBFS_transferState;
  46:Generated_Source\PSoC5/USBFS_drv.c **** volatile T_USBFS_TD USBFS_currentTD;
  47:Generated_Source\PSoC5/USBFS_drv.c **** volatile uint8 USBFS_ep0Mode;
  48:Generated_Source\PSoC5/USBFS_drv.c **** volatile uint8 USBFS_ep0Count;
  49:Generated_Source\PSoC5/USBFS_drv.c **** volatile uint16 USBFS_transferByteCount;
  50:Generated_Source\PSoC5/USBFS_drv.c **** 
  51:Generated_Source\PSoC5/USBFS_drv.c **** 
  52:Generated_Source\PSoC5/USBFS_drv.c **** /*******************************************************************************
  53:Generated_Source\PSoC5/USBFS_drv.c **** * Function Name: USBFS_ep_0_Interrupt
  54:Generated_Source\PSoC5/USBFS_drv.c **** ********************************************************************************
  55:Generated_Source\PSoC5/USBFS_drv.c **** *
  56:Generated_Source\PSoC5/USBFS_drv.c **** * Summary:
  57:Generated_Source\PSoC5/USBFS_drv.c **** *  This Interrupt Service Routine handles Endpoint 0 (Control Pipe) traffic.
  58:Generated_Source\PSoC5/USBFS_drv.c **** *  It dispatches setup requests and handles the data and status stages.
  59:Generated_Source\PSoC5/USBFS_drv.c **** *
  60:Generated_Source\PSoC5/USBFS_drv.c **** * Parameters:
  61:Generated_Source\PSoC5/USBFS_drv.c **** *  None.
  62:Generated_Source\PSoC5/USBFS_drv.c **** *
  63:Generated_Source\PSoC5/USBFS_drv.c **** * Return:
  64:Generated_Source\PSoC5/USBFS_drv.c **** *  None.
  65:Generated_Source\PSoC5/USBFS_drv.c **** *
  66:Generated_Source\PSoC5/USBFS_drv.c **** *******************************************************************************/
  67:Generated_Source\PSoC5/USBFS_drv.c **** CY_ISR(USBFS_EP_0_ISR)
  68:Generated_Source\PSoC5/USBFS_drv.c **** {
  69:Generated_Source\PSoC5/USBFS_drv.c ****     uint8 bRegTemp;
  70:Generated_Source\PSoC5/USBFS_drv.c ****     uint8 modifyReg;
  71:Generated_Source\PSoC5/USBFS_drv.c **** 
  72:Generated_Source\PSoC5/USBFS_drv.c ****     #ifdef USBFS_EP_0_ISR_ENTRY_CALLBACK
  73:Generated_Source\PSoC5/USBFS_drv.c ****         USBFS_EP_0_ISR_EntryCallback();
  74:Generated_Source\PSoC5/USBFS_drv.c ****     #endif /* USBFS_EP_0_ISR_ENTRY_CALLBACK */
  75:Generated_Source\PSoC5/USBFS_drv.c ****     
  76:Generated_Source\PSoC5/USBFS_drv.c ****     bRegTemp = CY_GET_REG8(USBFS_EP0_CR_PTR);
  77:Generated_Source\PSoC5/USBFS_drv.c ****     if ((bRegTemp & USBFS_MODE_ACKD) != 0u)
  78:Generated_Source\PSoC5/USBFS_drv.c ****     {
  79:Generated_Source\PSoC5/USBFS_drv.c ****         modifyReg = 1u;
  80:Generated_Source\PSoC5/USBFS_drv.c ****         if ((bRegTemp & USBFS_MODE_SETUP_RCVD) != 0u)
  81:Generated_Source\PSoC5/USBFS_drv.c ****         {
  82:Generated_Source\PSoC5/USBFS_drv.c ****             if((bRegTemp & USBFS_MODE_MASK) != USBFS_MODE_NAK_IN_OUT)
  83:Generated_Source\PSoC5/USBFS_drv.c ****             {
  84:Generated_Source\PSoC5/USBFS_drv.c ****                 modifyReg = 0u;                                     /* When mode not NAK_IN_OUT => 
  85:Generated_Source\PSoC5/USBFS_drv.c ****             }
  86:Generated_Source\PSoC5/USBFS_drv.c ****             else
  87:Generated_Source\PSoC5/USBFS_drv.c ****             {
ARM GAS  C:\Users\RABBIT~1\AppData\Local\Temp\ccOHC74T.s 			page 3


  88:Generated_Source\PSoC5/USBFS_drv.c ****                 USBFS_HandleSetup();
  89:Generated_Source\PSoC5/USBFS_drv.c ****                 if((USBFS_ep0Mode & USBFS_MODE_SETUP_RCVD) != 0u)
  90:Generated_Source\PSoC5/USBFS_drv.c ****                 {
  91:Generated_Source\PSoC5/USBFS_drv.c ****                     modifyReg = 0u;                         /* if SETUP bit set -> exit without mod
  92:Generated_Source\PSoC5/USBFS_drv.c ****                 }
  93:Generated_Source\PSoC5/USBFS_drv.c **** 
  94:Generated_Source\PSoC5/USBFS_drv.c ****             }
  95:Generated_Source\PSoC5/USBFS_drv.c ****         }
  96:Generated_Source\PSoC5/USBFS_drv.c ****         else if ((bRegTemp & USBFS_MODE_IN_RCVD) != 0u)
  97:Generated_Source\PSoC5/USBFS_drv.c ****         {
  98:Generated_Source\PSoC5/USBFS_drv.c ****             USBFS_HandleIN();
  99:Generated_Source\PSoC5/USBFS_drv.c ****         }
 100:Generated_Source\PSoC5/USBFS_drv.c ****         else if ((bRegTemp & USBFS_MODE_OUT_RCVD) != 0u)
 101:Generated_Source\PSoC5/USBFS_drv.c ****         {
 102:Generated_Source\PSoC5/USBFS_drv.c ****             USBFS_HandleOUT();
 103:Generated_Source\PSoC5/USBFS_drv.c ****         }
 104:Generated_Source\PSoC5/USBFS_drv.c ****         else
 105:Generated_Source\PSoC5/USBFS_drv.c ****         {
 106:Generated_Source\PSoC5/USBFS_drv.c ****             modifyReg = 0u;
 107:Generated_Source\PSoC5/USBFS_drv.c ****         }
 108:Generated_Source\PSoC5/USBFS_drv.c ****         if(modifyReg != 0u)
 109:Generated_Source\PSoC5/USBFS_drv.c ****         {
 110:Generated_Source\PSoC5/USBFS_drv.c ****             bRegTemp = CY_GET_REG8(USBFS_EP0_CR_PTR);    /* unlock registers */
 111:Generated_Source\PSoC5/USBFS_drv.c ****             if((bRegTemp & USBFS_MODE_SETUP_RCVD) == 0u)  /* Check if SETUP bit is not set, otherwi
 112:Generated_Source\PSoC5/USBFS_drv.c ****             {
 113:Generated_Source\PSoC5/USBFS_drv.c ****                 /* Update the count register */
 114:Generated_Source\PSoC5/USBFS_drv.c ****                 bRegTemp = USBFS_ep0Toggle | USBFS_ep0Count;
 115:Generated_Source\PSoC5/USBFS_drv.c ****                 CY_SET_REG8(USBFS_EP0_CNT_PTR, bRegTemp);
 116:Generated_Source\PSoC5/USBFS_drv.c ****                 if(bRegTemp == CY_GET_REG8(USBFS_EP0_CNT_PTR))   /* continue if writing was success
 117:Generated_Source\PSoC5/USBFS_drv.c ****                 {
 118:Generated_Source\PSoC5/USBFS_drv.c ****                     do
 119:Generated_Source\PSoC5/USBFS_drv.c ****                     {
 120:Generated_Source\PSoC5/USBFS_drv.c ****                         modifyReg = USBFS_ep0Mode;       /* Init temporary variable */
 121:Generated_Source\PSoC5/USBFS_drv.c ****                         /* Unlock registers */
 122:Generated_Source\PSoC5/USBFS_drv.c ****                         bRegTemp = CY_GET_REG8(USBFS_EP0_CR_PTR) & USBFS_MODE_SETUP_RCVD;
 123:Generated_Source\PSoC5/USBFS_drv.c ****                         if(bRegTemp == 0u)                          /* Check if SETUP bit is not se
 124:Generated_Source\PSoC5/USBFS_drv.c ****                         {
 125:Generated_Source\PSoC5/USBFS_drv.c ****                             /* Set the Mode Register  */
 126:Generated_Source\PSoC5/USBFS_drv.c ****                             CY_SET_REG8(USBFS_EP0_CR_PTR, USBFS_ep0Mode);
 127:Generated_Source\PSoC5/USBFS_drv.c ****                             /* Writing check */
 128:Generated_Source\PSoC5/USBFS_drv.c ****                             modifyReg = CY_GET_REG8(USBFS_EP0_CR_PTR) & USBFS_MODE_MASK;
 129:Generated_Source\PSoC5/USBFS_drv.c ****                         }
 130:Generated_Source\PSoC5/USBFS_drv.c ****                     }while(modifyReg != USBFS_ep0Mode);  /* Repeat if writing was not successful */
 131:Generated_Source\PSoC5/USBFS_drv.c ****                 }
 132:Generated_Source\PSoC5/USBFS_drv.c ****             }
 133:Generated_Source\PSoC5/USBFS_drv.c ****         }
 134:Generated_Source\PSoC5/USBFS_drv.c ****     }
 135:Generated_Source\PSoC5/USBFS_drv.c ****     #ifdef USBFS_EP_0_ISR_EXIT_CALLBACK
 136:Generated_Source\PSoC5/USBFS_drv.c ****         USBFS_EP_0_ISR_ExitCallback();
 137:Generated_Source\PSoC5/USBFS_drv.c ****     #endif /* USBFS_EP_0_ISR_EXIT_CALLBACK */
 138:Generated_Source\PSoC5/USBFS_drv.c **** }
 139:Generated_Source\PSoC5/USBFS_drv.c **** 
 140:Generated_Source\PSoC5/USBFS_drv.c **** 
 141:Generated_Source\PSoC5/USBFS_drv.c **** /*******************************************************************************
 142:Generated_Source\PSoC5/USBFS_drv.c **** * Function Name: USBFS_HandleSetup
 143:Generated_Source\PSoC5/USBFS_drv.c **** ********************************************************************************
 144:Generated_Source\PSoC5/USBFS_drv.c **** *
ARM GAS  C:\Users\RABBIT~1\AppData\Local\Temp\ccOHC74T.s 			page 4


 145:Generated_Source\PSoC5/USBFS_drv.c **** * Summary:
 146:Generated_Source\PSoC5/USBFS_drv.c **** *  This Routine dispatches requests for the four USB request types
 147:Generated_Source\PSoC5/USBFS_drv.c **** *
 148:Generated_Source\PSoC5/USBFS_drv.c **** * Parameters:
 149:Generated_Source\PSoC5/USBFS_drv.c **** *  None.
 150:Generated_Source\PSoC5/USBFS_drv.c **** *
 151:Generated_Source\PSoC5/USBFS_drv.c **** * Return:
 152:Generated_Source\PSoC5/USBFS_drv.c **** *  None.
 153:Generated_Source\PSoC5/USBFS_drv.c **** *
 154:Generated_Source\PSoC5/USBFS_drv.c **** * Reentrant:
 155:Generated_Source\PSoC5/USBFS_drv.c **** *  No.
 156:Generated_Source\PSoC5/USBFS_drv.c **** *
 157:Generated_Source\PSoC5/USBFS_drv.c **** *******************************************************************************/
 158:Generated_Source\PSoC5/USBFS_drv.c **** void USBFS_HandleSetup(void) 
 159:Generated_Source\PSoC5/USBFS_drv.c **** {
 160:Generated_Source\PSoC5/USBFS_drv.c ****     uint8 requestHandled;
 161:Generated_Source\PSoC5/USBFS_drv.c **** 
 162:Generated_Source\PSoC5/USBFS_drv.c ****     requestHandled = CY_GET_REG8(USBFS_EP0_CR_PTR);      /* unlock registers */
 163:Generated_Source\PSoC5/USBFS_drv.c ****     CY_SET_REG8(USBFS_EP0_CR_PTR, requestHandled);       /* clear setup bit */
 164:Generated_Source\PSoC5/USBFS_drv.c ****     requestHandled = CY_GET_REG8(USBFS_EP0_CR_PTR);      /* reread register */
 165:Generated_Source\PSoC5/USBFS_drv.c ****     if((requestHandled & USBFS_MODE_SETUP_RCVD) != 0u)
 166:Generated_Source\PSoC5/USBFS_drv.c ****     {
 167:Generated_Source\PSoC5/USBFS_drv.c ****         USBFS_ep0Mode = requestHandled;        /* if SETUP bit set -> exit without modifying the mo
 168:Generated_Source\PSoC5/USBFS_drv.c ****     }
 169:Generated_Source\PSoC5/USBFS_drv.c ****     else
 170:Generated_Source\PSoC5/USBFS_drv.c ****     {
 171:Generated_Source\PSoC5/USBFS_drv.c ****         /* In case the previous transfer did not complete, close it out */
 172:Generated_Source\PSoC5/USBFS_drv.c ****         USBFS_UpdateStatusBlock(USBFS_XFER_PREMATURE);
 173:Generated_Source\PSoC5/USBFS_drv.c **** 
 174:Generated_Source\PSoC5/USBFS_drv.c ****         switch (CY_GET_REG8(USBFS_bmRequestType) & USBFS_RQST_TYPE_MASK)
 175:Generated_Source\PSoC5/USBFS_drv.c ****         {
 176:Generated_Source\PSoC5/USBFS_drv.c ****             case USBFS_RQST_TYPE_STD:
 177:Generated_Source\PSoC5/USBFS_drv.c ****                 requestHandled = USBFS_HandleStandardRqst();
 178:Generated_Source\PSoC5/USBFS_drv.c ****                 break;
 179:Generated_Source\PSoC5/USBFS_drv.c ****             case USBFS_RQST_TYPE_CLS:
 180:Generated_Source\PSoC5/USBFS_drv.c ****                 requestHandled = USBFS_DispatchClassRqst();
 181:Generated_Source\PSoC5/USBFS_drv.c ****                 break;
 182:Generated_Source\PSoC5/USBFS_drv.c ****             case USBFS_RQST_TYPE_VND:
 183:Generated_Source\PSoC5/USBFS_drv.c ****                 requestHandled = USBFS_HandleVendorRqst();
 184:Generated_Source\PSoC5/USBFS_drv.c ****                 break;
 185:Generated_Source\PSoC5/USBFS_drv.c ****             default:
 186:Generated_Source\PSoC5/USBFS_drv.c ****                 requestHandled = USBFS_FALSE;
 187:Generated_Source\PSoC5/USBFS_drv.c ****                 break;
 188:Generated_Source\PSoC5/USBFS_drv.c ****         }
 189:Generated_Source\PSoC5/USBFS_drv.c ****         if (requestHandled == USBFS_FALSE)
 190:Generated_Source\PSoC5/USBFS_drv.c ****         {
 191:Generated_Source\PSoC5/USBFS_drv.c ****             USBFS_ep0Mode = USBFS_MODE_STALL_IN_OUT;
 192:Generated_Source\PSoC5/USBFS_drv.c ****         }
 193:Generated_Source\PSoC5/USBFS_drv.c ****     }
 194:Generated_Source\PSoC5/USBFS_drv.c **** }
 195:Generated_Source\PSoC5/USBFS_drv.c **** 
 196:Generated_Source\PSoC5/USBFS_drv.c **** 
 197:Generated_Source\PSoC5/USBFS_drv.c **** /*******************************************************************************
 198:Generated_Source\PSoC5/USBFS_drv.c **** * Function Name: USBFS_HandleIN
 199:Generated_Source\PSoC5/USBFS_drv.c **** ********************************************************************************
 200:Generated_Source\PSoC5/USBFS_drv.c **** *
 201:Generated_Source\PSoC5/USBFS_drv.c **** * Summary:
ARM GAS  C:\Users\RABBIT~1\AppData\Local\Temp\ccOHC74T.s 			page 5


 202:Generated_Source\PSoC5/USBFS_drv.c **** *  This routine handles EP0 IN transfers.
 203:Generated_Source\PSoC5/USBFS_drv.c **** *
 204:Generated_Source\PSoC5/USBFS_drv.c **** * Parameters:
 205:Generated_Source\PSoC5/USBFS_drv.c **** *  None.
 206:Generated_Source\PSoC5/USBFS_drv.c **** *
 207:Generated_Source\PSoC5/USBFS_drv.c **** * Return:
 208:Generated_Source\PSoC5/USBFS_drv.c **** *  None.
 209:Generated_Source\PSoC5/USBFS_drv.c **** *
 210:Generated_Source\PSoC5/USBFS_drv.c **** * Reentrant:
 211:Generated_Source\PSoC5/USBFS_drv.c **** *  No.
 212:Generated_Source\PSoC5/USBFS_drv.c **** *
 213:Generated_Source\PSoC5/USBFS_drv.c **** *******************************************************************************/
 214:Generated_Source\PSoC5/USBFS_drv.c **** void USBFS_HandleIN(void) 
 215:Generated_Source\PSoC5/USBFS_drv.c **** {
 216:Generated_Source\PSoC5/USBFS_drv.c ****     switch (USBFS_transferState)
 217:Generated_Source\PSoC5/USBFS_drv.c ****     {
 218:Generated_Source\PSoC5/USBFS_drv.c ****         case USBFS_TRANS_STATE_IDLE:
 219:Generated_Source\PSoC5/USBFS_drv.c ****             break;
 220:Generated_Source\PSoC5/USBFS_drv.c ****         case USBFS_TRANS_STATE_CONTROL_READ:
 221:Generated_Source\PSoC5/USBFS_drv.c ****             USBFS_ControlReadDataStage();
 222:Generated_Source\PSoC5/USBFS_drv.c ****             break;
 223:Generated_Source\PSoC5/USBFS_drv.c ****         case USBFS_TRANS_STATE_CONTROL_WRITE:
 224:Generated_Source\PSoC5/USBFS_drv.c ****             USBFS_ControlWriteStatusStage();
 225:Generated_Source\PSoC5/USBFS_drv.c ****             break;
 226:Generated_Source\PSoC5/USBFS_drv.c ****         case USBFS_TRANS_STATE_NO_DATA_CONTROL:
 227:Generated_Source\PSoC5/USBFS_drv.c ****             USBFS_NoDataControlStatusStage();
 228:Generated_Source\PSoC5/USBFS_drv.c ****             break;
 229:Generated_Source\PSoC5/USBFS_drv.c ****         default:    /* there are no more states */
 230:Generated_Source\PSoC5/USBFS_drv.c ****             break;
 231:Generated_Source\PSoC5/USBFS_drv.c ****     }
 232:Generated_Source\PSoC5/USBFS_drv.c **** }
 233:Generated_Source\PSoC5/USBFS_drv.c **** 
 234:Generated_Source\PSoC5/USBFS_drv.c **** 
 235:Generated_Source\PSoC5/USBFS_drv.c **** /*******************************************************************************
 236:Generated_Source\PSoC5/USBFS_drv.c **** * Function Name: USBFS_HandleOUT
 237:Generated_Source\PSoC5/USBFS_drv.c **** ********************************************************************************
 238:Generated_Source\PSoC5/USBFS_drv.c **** *
 239:Generated_Source\PSoC5/USBFS_drv.c **** * Summary:
 240:Generated_Source\PSoC5/USBFS_drv.c **** *  This routine handles EP0 OUT transfers.
 241:Generated_Source\PSoC5/USBFS_drv.c **** *
 242:Generated_Source\PSoC5/USBFS_drv.c **** * Parameters:
 243:Generated_Source\PSoC5/USBFS_drv.c **** *  None.
 244:Generated_Source\PSoC5/USBFS_drv.c **** *
 245:Generated_Source\PSoC5/USBFS_drv.c **** * Return:
 246:Generated_Source\PSoC5/USBFS_drv.c **** *  None.
 247:Generated_Source\PSoC5/USBFS_drv.c **** *
 248:Generated_Source\PSoC5/USBFS_drv.c **** * Reentrant:
 249:Generated_Source\PSoC5/USBFS_drv.c **** *  No.
 250:Generated_Source\PSoC5/USBFS_drv.c **** *
 251:Generated_Source\PSoC5/USBFS_drv.c **** *******************************************************************************/
 252:Generated_Source\PSoC5/USBFS_drv.c **** void USBFS_HandleOUT(void) 
 253:Generated_Source\PSoC5/USBFS_drv.c **** {
 254:Generated_Source\PSoC5/USBFS_drv.c ****     switch (USBFS_transferState)
 255:Generated_Source\PSoC5/USBFS_drv.c ****     {
 256:Generated_Source\PSoC5/USBFS_drv.c ****         case USBFS_TRANS_STATE_IDLE:
 257:Generated_Source\PSoC5/USBFS_drv.c ****             break;
 258:Generated_Source\PSoC5/USBFS_drv.c ****         case USBFS_TRANS_STATE_CONTROL_READ:
ARM GAS  C:\Users\RABBIT~1\AppData\Local\Temp\ccOHC74T.s 			page 6


 259:Generated_Source\PSoC5/USBFS_drv.c ****             USBFS_ControlReadStatusStage();
 260:Generated_Source\PSoC5/USBFS_drv.c ****             break;
 261:Generated_Source\PSoC5/USBFS_drv.c ****         case USBFS_TRANS_STATE_CONTROL_WRITE:
 262:Generated_Source\PSoC5/USBFS_drv.c ****             USBFS_ControlWriteDataStage();
 263:Generated_Source\PSoC5/USBFS_drv.c ****             break;
 264:Generated_Source\PSoC5/USBFS_drv.c ****         case USBFS_TRANS_STATE_NO_DATA_CONTROL:
 265:Generated_Source\PSoC5/USBFS_drv.c ****             /* Update the completion block */
 266:Generated_Source\PSoC5/USBFS_drv.c ****             USBFS_UpdateStatusBlock(USBFS_XFER_ERROR);
 267:Generated_Source\PSoC5/USBFS_drv.c ****             /* We expect no more data, so stall INs and OUTs */
 268:Generated_Source\PSoC5/USBFS_drv.c ****             USBFS_ep0Mode = USBFS_MODE_STALL_IN_OUT;
 269:Generated_Source\PSoC5/USBFS_drv.c ****             break;
 270:Generated_Source\PSoC5/USBFS_drv.c ****         default:    /* There are no more states */
 271:Generated_Source\PSoC5/USBFS_drv.c ****             break;
 272:Generated_Source\PSoC5/USBFS_drv.c ****     }
 273:Generated_Source\PSoC5/USBFS_drv.c **** }
 274:Generated_Source\PSoC5/USBFS_drv.c **** 
 275:Generated_Source\PSoC5/USBFS_drv.c **** 
 276:Generated_Source\PSoC5/USBFS_drv.c **** /*******************************************************************************
 277:Generated_Source\PSoC5/USBFS_drv.c **** * Function Name: USBFS_LoadEP0
 278:Generated_Source\PSoC5/USBFS_drv.c **** ********************************************************************************
 279:Generated_Source\PSoC5/USBFS_drv.c **** *
 280:Generated_Source\PSoC5/USBFS_drv.c **** * Summary:
 281:Generated_Source\PSoC5/USBFS_drv.c **** *  This routine loads the EP0 data registers for OUT transfers.  It uses the
 282:Generated_Source\PSoC5/USBFS_drv.c **** *  currentTD (previously initialized by the _InitControlWrite function and
 283:Generated_Source\PSoC5/USBFS_drv.c **** *  updated for each OUT transfer, and the bLastPacketSize) to determine how
 284:Generated_Source\PSoC5/USBFS_drv.c **** *  many uint8s to transfer on the current OUT.
 285:Generated_Source\PSoC5/USBFS_drv.c **** *
 286:Generated_Source\PSoC5/USBFS_drv.c **** *  If the number of uint8s remaining is zero and the last transfer was full,
 287:Generated_Source\PSoC5/USBFS_drv.c **** *  we need to send a zero length packet.  Otherwise we send the minimum
 288:Generated_Source\PSoC5/USBFS_drv.c **** *  of the control endpoint size (8) or remaining number of uint8s for the
 289:Generated_Source\PSoC5/USBFS_drv.c **** *  transaction.
 290:Generated_Source\PSoC5/USBFS_drv.c **** *
 291:Generated_Source\PSoC5/USBFS_drv.c **** * Parameters:
 292:Generated_Source\PSoC5/USBFS_drv.c **** *  None.
 293:Generated_Source\PSoC5/USBFS_drv.c **** *
 294:Generated_Source\PSoC5/USBFS_drv.c **** * Return:
 295:Generated_Source\PSoC5/USBFS_drv.c **** *  None.
 296:Generated_Source\PSoC5/USBFS_drv.c **** *
 297:Generated_Source\PSoC5/USBFS_drv.c **** * Global variables:
 298:Generated_Source\PSoC5/USBFS_drv.c **** *  USBFS_transferByteCount - Update the transfer byte count from the
 299:Generated_Source\PSoC5/USBFS_drv.c **** *     last transaction.
 300:Generated_Source\PSoC5/USBFS_drv.c **** *  USBFS_ep0Count - counts the data loaded to the SIE memory in
 301:Generated_Source\PSoC5/USBFS_drv.c **** *     current packet.
 302:Generated_Source\PSoC5/USBFS_drv.c **** *  USBFS_lastPacketSize - remembers the USBFS_ep0Count value for the
 303:Generated_Source\PSoC5/USBFS_drv.c **** *     next packet.
 304:Generated_Source\PSoC5/USBFS_drv.c **** *  USBFS_transferByteCount - sum of the previous bytes transferred
 305:Generated_Source\PSoC5/USBFS_drv.c **** *     on previous packets(sum of USBFS_lastPacketSize)
 306:Generated_Source\PSoC5/USBFS_drv.c **** *  USBFS_ep0Toggle - inverted
 307:Generated_Source\PSoC5/USBFS_drv.c **** *  USBFS_ep0Mode  - prepare for mode register content.
 308:Generated_Source\PSoC5/USBFS_drv.c **** *  USBFS_transferState - set to TRANS_STATE_CONTROL_READ
 309:Generated_Source\PSoC5/USBFS_drv.c **** *
 310:Generated_Source\PSoC5/USBFS_drv.c **** * Reentrant:
 311:Generated_Source\PSoC5/USBFS_drv.c **** *  No.
 312:Generated_Source\PSoC5/USBFS_drv.c **** *
 313:Generated_Source\PSoC5/USBFS_drv.c **** *******************************************************************************/
 314:Generated_Source\PSoC5/USBFS_drv.c **** void USBFS_LoadEP0(void) 
 315:Generated_Source\PSoC5/USBFS_drv.c **** {
ARM GAS  C:\Users\RABBIT~1\AppData\Local\Temp\ccOHC74T.s 			page 7


  28              		.loc 1 315 0
  29              		.cfi_startproc
  30              		@ args = 0, pretend = 0, frame = 0
  31              		@ frame_needed = 0, uses_anonymous_args = 0
  32              	.LVL0:
  33 0000 30B5     		push	{r4, r5, lr}
  34              		.cfi_def_cfa_offset 12
  35              		.cfi_offset 4, -12
  36              		.cfi_offset 5, -8
  37              		.cfi_offset 14, -4
 316:Generated_Source\PSoC5/USBFS_drv.c ****     uint8 ep0Count = 0u;
 317:Generated_Source\PSoC5/USBFS_drv.c **** 
 318:Generated_Source\PSoC5/USBFS_drv.c ****     /* Update the transfer byte count from the last transaction */
 319:Generated_Source\PSoC5/USBFS_drv.c ****     USBFS_transferByteCount += USBFS_lastPacketSize;
  38              		.loc 1 319 0
  39 0002 1A49     		ldr	r1, .L17
  40 0004 1A4A     		ldr	r2, .L17+4
 320:Generated_Source\PSoC5/USBFS_drv.c ****     /* Now load the next transaction */
 321:Generated_Source\PSoC5/USBFS_drv.c ****     while ((USBFS_currentTD.count > 0u) && (ep0Count < 8u))
  41              		.loc 1 321 0
  42 0006 1B4D     		ldr	r5, .L17+8
 319:Generated_Source\PSoC5/USBFS_drv.c ****     /* Now load the next transaction */
  43              		.loc 1 319 0
  44 0008 1078     		ldrb	r0, [r2]	@ zero_extendqisi2
  45 000a 0B88     		ldrh	r3, [r1]
  46 000c 0344     		add	r3, r3, r0
  47 000e 9BB2     		uxth	r3, r3
  48 0010 0B80     		strh	r3, [r1]	@ movhi
  49              		.loc 1 321 0
  50 0012 1948     		ldr	r0, .L17+12
  51 0014 194B     		ldr	r3, .L17+16
  52              	.LVL1:
  53              	.L2:
  54 0016 1C88     		ldrh	r4, [r3]
  55 0018 C1B2     		uxtb	r1, r0
  56              	.LVL2:
  57 001a A4B2     		uxth	r4, r4
  58 001c 7CB1     		cbz	r4, .L3
  59              		.loc 1 321 0 is_stmt 0 discriminator 1
  60 001e A842     		cmp	r0, r5
  61 0020 0CD0     		beq	.L16
 322:Generated_Source\PSoC5/USBFS_drv.c ****     {
 323:Generated_Source\PSoC5/USBFS_drv.c ****         CY_SET_REG8((reg8 *)(USBFS_EP0_DR0_IND + ep0Count), *USBFS_currentTD.pData);
  62              		.loc 1 323 0 is_stmt 1
  63 0022 5968     		ldr	r1, [r3, #4]
  64              	.LVL3:
  65 0024 0978     		ldrb	r1, [r1]	@ zero_extendqisi2
  66 0026 C9B2     		uxtb	r1, r1
  67 0028 00F8011B 		strb	r1, [r0], #1
  68              	.LVL4:
 324:Generated_Source\PSoC5/USBFS_drv.c ****         USBFS_currentTD.pData = &USBFS_currentTD.pData[1u];
  69              		.loc 1 324 0
  70 002c 5968     		ldr	r1, [r3, #4]
  71 002e 0131     		adds	r1, r1, #1
  72 0030 5960     		str	r1, [r3, #4]
  73              	.LVL5:
 325:Generated_Source\PSoC5/USBFS_drv.c ****         ep0Count++;
ARM GAS  C:\Users\RABBIT~1\AppData\Local\Temp\ccOHC74T.s 			page 8


 326:Generated_Source\PSoC5/USBFS_drv.c ****         USBFS_currentTD.count--;
  74              		.loc 1 326 0
  75 0032 1988     		ldrh	r1, [r3]
  76 0034 0139     		subs	r1, r1, #1
  77 0036 89B2     		uxth	r1, r1
  78 0038 1980     		strh	r1, [r3]	@ movhi
  79 003a ECE7     		b	.L2
  80              	.LVL6:
  81              	.L16:
  82 003c 0821     		movs	r1, #8
  83              	.LVL7:
  84              	.L3:
 327:Generated_Source\PSoC5/USBFS_drv.c ****     }
 328:Generated_Source\PSoC5/USBFS_drv.c ****     /* Support zero-length packet*/
 329:Generated_Source\PSoC5/USBFS_drv.c ****     if( (USBFS_lastPacketSize == 8u) || (ep0Count > 0u) )
  85              		.loc 1 329 0
  86 003e 1378     		ldrb	r3, [r2]	@ zero_extendqisi2
  87 0040 0F4C     		ldr	r4, .L17+20
  88 0042 082B     		cmp	r3, #8
  89 0044 0F48     		ldr	r0, .L17+24
  90              	.LVL8:
  91 0046 00D0     		beq	.L5
  92              		.loc 1 329 0 is_stmt 0 discriminator 1
  93 0048 41B1     		cbz	r1, .L6
  94              	.L5:
 330:Generated_Source\PSoC5/USBFS_drv.c ****     {
 331:Generated_Source\PSoC5/USBFS_drv.c ****         /* Update the data toggle */
 332:Generated_Source\PSoC5/USBFS_drv.c ****         USBFS_ep0Toggle ^= USBFS_EP0_CNT_DATA_TOGGLE;
  95              		.loc 1 332 0 is_stmt 1
  96 004a 0F4D     		ldr	r5, .L17+28
  97 004c 2B78     		ldrb	r3, [r5]	@ zero_extendqisi2
  98 004e 83F08003 		eor	r3, r3, #128
  99 0052 2B70     		strb	r3, [r5]
 333:Generated_Source\PSoC5/USBFS_drv.c ****         /* Set the Mode Register  */
 334:Generated_Source\PSoC5/USBFS_drv.c ****         USBFS_ep0Mode = USBFS_MODE_ACK_IN_STATUS_OUT;
 100              		.loc 1 334 0
 101 0054 0F23     		movs	r3, #15
 102 0056 2370     		strb	r3, [r4]
 335:Generated_Source\PSoC5/USBFS_drv.c ****         /* Update the state (or stay the same) */
 336:Generated_Source\PSoC5/USBFS_drv.c ****         USBFS_transferState = USBFS_TRANS_STATE_CONTROL_READ;
 103              		.loc 1 336 0
 104 0058 0223     		movs	r3, #2
 105 005a 01E0     		b	.L14
 106              	.L6:
 337:Generated_Source\PSoC5/USBFS_drv.c ****     }
 338:Generated_Source\PSoC5/USBFS_drv.c ****     else
 339:Generated_Source\PSoC5/USBFS_drv.c ****     {
 340:Generated_Source\PSoC5/USBFS_drv.c ****         /* Expect Status Stage Out */
 341:Generated_Source\PSoC5/USBFS_drv.c ****         USBFS_ep0Mode = USBFS_MODE_STATUS_OUT_ONLY;
 107              		.loc 1 341 0
 108 005c 0223     		movs	r3, #2
 109 005e 2370     		strb	r3, [r4]
 110              	.L14:
 342:Generated_Source\PSoC5/USBFS_drv.c ****         /* Update the state (or stay the same) */
 343:Generated_Source\PSoC5/USBFS_drv.c ****         USBFS_transferState = USBFS_TRANS_STATE_CONTROL_READ;
 111              		.loc 1 343 0
 112 0060 0370     		strb	r3, [r0]
ARM GAS  C:\Users\RABBIT~1\AppData\Local\Temp\ccOHC74T.s 			page 9


 344:Generated_Source\PSoC5/USBFS_drv.c ****     }
 345:Generated_Source\PSoC5/USBFS_drv.c **** 
 346:Generated_Source\PSoC5/USBFS_drv.c ****     /* Save the packet size for next time */
 347:Generated_Source\PSoC5/USBFS_drv.c ****     USBFS_lastPacketSize = ep0Count;
 348:Generated_Source\PSoC5/USBFS_drv.c ****     USBFS_ep0Count = ep0Count;
 113              		.loc 1 348 0
 114 0062 0A4B     		ldr	r3, .L17+32
 347:Generated_Source\PSoC5/USBFS_drv.c ****     USBFS_ep0Count = ep0Count;
 115              		.loc 1 347 0
 116 0064 1170     		strb	r1, [r2]
 117              		.loc 1 348 0
 118 0066 1970     		strb	r1, [r3]
 119 0068 30BD     		pop	{r4, r5, pc}
 120              	.L18:
 121 006a 00BF     		.align	2
 122              	.L17:
 123 006c 00000000 		.word	USBFS_transferByteCount
 124 0070 00000000 		.word	USBFS_lastPacketSize
 125 0074 08600040 		.word	1073766408
 126 0078 00600040 		.word	1073766400
 127 007c 00000000 		.word	USBFS_currentTD
 128 0080 00000000 		.word	USBFS_ep0Mode
 129 0084 00000000 		.word	USBFS_transferState
 130 0088 00000000 		.word	USBFS_ep0Toggle
 131 008c 00000000 		.word	USBFS_ep0Count
 132              		.cfi_endproc
 133              	.LFE4:
 134              		.size	USBFS_LoadEP0, .-USBFS_LoadEP0
 135              		.section	.text.USBFS_InitZeroLengthControlTransfer,"ax",%progbits
 136              		.align	1
 137              		.global	USBFS_InitZeroLengthControlTransfer
 138              		.thumb
 139              		.thumb_func
 140              		.type	USBFS_InitZeroLengthControlTransfer, %function
 141              	USBFS_InitZeroLengthControlTransfer:
 142              	.LFB6:
 349:Generated_Source\PSoC5/USBFS_drv.c **** }
 350:Generated_Source\PSoC5/USBFS_drv.c **** 
 351:Generated_Source\PSoC5/USBFS_drv.c **** 
 352:Generated_Source\PSoC5/USBFS_drv.c **** /*******************************************************************************
 353:Generated_Source\PSoC5/USBFS_drv.c **** * Function Name: USBFS_InitControlRead
 354:Generated_Source\PSoC5/USBFS_drv.c **** ********************************************************************************
 355:Generated_Source\PSoC5/USBFS_drv.c **** *
 356:Generated_Source\PSoC5/USBFS_drv.c **** * Summary:
 357:Generated_Source\PSoC5/USBFS_drv.c **** *  Initialize a control read transaction, usable to send data to the host.
 358:Generated_Source\PSoC5/USBFS_drv.c **** *  The following global variables should be initialized before this function
 359:Generated_Source\PSoC5/USBFS_drv.c **** *  called. To send zero length packet use InitZeroLengthControlTransfer
 360:Generated_Source\PSoC5/USBFS_drv.c **** *  function.
 361:Generated_Source\PSoC5/USBFS_drv.c **** *
 362:Generated_Source\PSoC5/USBFS_drv.c **** * Parameters:
 363:Generated_Source\PSoC5/USBFS_drv.c **** *  None.
 364:Generated_Source\PSoC5/USBFS_drv.c **** *
 365:Generated_Source\PSoC5/USBFS_drv.c **** * Return:
 366:Generated_Source\PSoC5/USBFS_drv.c **** *  requestHandled state.
 367:Generated_Source\PSoC5/USBFS_drv.c **** *
 368:Generated_Source\PSoC5/USBFS_drv.c **** * Global variables:
 369:Generated_Source\PSoC5/USBFS_drv.c **** *  USBFS_currentTD.count - counts of data to be sent.
ARM GAS  C:\Users\RABBIT~1\AppData\Local\Temp\ccOHC74T.s 			page 10


 370:Generated_Source\PSoC5/USBFS_drv.c **** *  USBFS_currentTD.pData - data pointer.
 371:Generated_Source\PSoC5/USBFS_drv.c **** *
 372:Generated_Source\PSoC5/USBFS_drv.c **** * Reentrant:
 373:Generated_Source\PSoC5/USBFS_drv.c **** *  No.
 374:Generated_Source\PSoC5/USBFS_drv.c **** *
 375:Generated_Source\PSoC5/USBFS_drv.c **** *******************************************************************************/
 376:Generated_Source\PSoC5/USBFS_drv.c **** uint8 USBFS_InitControlRead(void) 
 377:Generated_Source\PSoC5/USBFS_drv.c **** {
 378:Generated_Source\PSoC5/USBFS_drv.c ****     uint16 xferCount;
 379:Generated_Source\PSoC5/USBFS_drv.c ****     if(USBFS_currentTD.count == 0u)
 380:Generated_Source\PSoC5/USBFS_drv.c ****     {
 381:Generated_Source\PSoC5/USBFS_drv.c ****         (void) USBFS_InitZeroLengthControlTransfer();
 382:Generated_Source\PSoC5/USBFS_drv.c ****     }
 383:Generated_Source\PSoC5/USBFS_drv.c ****     else
 384:Generated_Source\PSoC5/USBFS_drv.c ****     {
 385:Generated_Source\PSoC5/USBFS_drv.c ****         /* Set up the state machine */
 386:Generated_Source\PSoC5/USBFS_drv.c ****         USBFS_transferState = USBFS_TRANS_STATE_CONTROL_READ;
 387:Generated_Source\PSoC5/USBFS_drv.c ****         /* Set the toggle, it gets updated in LoadEP */
 388:Generated_Source\PSoC5/USBFS_drv.c ****         USBFS_ep0Toggle = 0u;
 389:Generated_Source\PSoC5/USBFS_drv.c ****         /* Initialize the Status Block */
 390:Generated_Source\PSoC5/USBFS_drv.c ****         USBFS_InitializeStatusBlock();
 391:Generated_Source\PSoC5/USBFS_drv.c ****         xferCount = (((uint16)CY_GET_REG8(USBFS_lengthHi) << 8u) | (CY_GET_REG8(USBFS_lengthLo)));
 392:Generated_Source\PSoC5/USBFS_drv.c **** 
 393:Generated_Source\PSoC5/USBFS_drv.c ****         if (USBFS_currentTD.count > xferCount)
 394:Generated_Source\PSoC5/USBFS_drv.c ****         {
 395:Generated_Source\PSoC5/USBFS_drv.c ****             USBFS_currentTD.count = xferCount;
 396:Generated_Source\PSoC5/USBFS_drv.c ****         }
 397:Generated_Source\PSoC5/USBFS_drv.c ****         USBFS_LoadEP0();
 398:Generated_Source\PSoC5/USBFS_drv.c ****     }
 399:Generated_Source\PSoC5/USBFS_drv.c **** 
 400:Generated_Source\PSoC5/USBFS_drv.c ****     return(USBFS_TRUE);
 401:Generated_Source\PSoC5/USBFS_drv.c **** }
 402:Generated_Source\PSoC5/USBFS_drv.c **** 
 403:Generated_Source\PSoC5/USBFS_drv.c **** 
 404:Generated_Source\PSoC5/USBFS_drv.c **** /*******************************************************************************
 405:Generated_Source\PSoC5/USBFS_drv.c **** * Function Name: USBFS_InitZeroLengthControlTransfer
 406:Generated_Source\PSoC5/USBFS_drv.c **** ********************************************************************************
 407:Generated_Source\PSoC5/USBFS_drv.c **** *
 408:Generated_Source\PSoC5/USBFS_drv.c **** * Summary:
 409:Generated_Source\PSoC5/USBFS_drv.c **** *  Initialize a zero length data IN transfer.
 410:Generated_Source\PSoC5/USBFS_drv.c **** *
 411:Generated_Source\PSoC5/USBFS_drv.c **** * Parameters:
 412:Generated_Source\PSoC5/USBFS_drv.c **** *  None.
 413:Generated_Source\PSoC5/USBFS_drv.c **** *
 414:Generated_Source\PSoC5/USBFS_drv.c **** * Return:
 415:Generated_Source\PSoC5/USBFS_drv.c **** *  requestHandled state.
 416:Generated_Source\PSoC5/USBFS_drv.c **** *
 417:Generated_Source\PSoC5/USBFS_drv.c **** * Global variables:
 418:Generated_Source\PSoC5/USBFS_drv.c **** *  USBFS_ep0Toggle - set to EP0_CNT_DATA_TOGGLE
 419:Generated_Source\PSoC5/USBFS_drv.c **** *  USBFS_ep0Mode  - prepare for mode register content.
 420:Generated_Source\PSoC5/USBFS_drv.c **** *  USBFS_transferState - set to TRANS_STATE_CONTROL_READ
 421:Generated_Source\PSoC5/USBFS_drv.c **** *  USBFS_ep0Count - cleared, means the zero-length packet.
 422:Generated_Source\PSoC5/USBFS_drv.c **** *  USBFS_lastPacketSize - cleared.
 423:Generated_Source\PSoC5/USBFS_drv.c **** *
 424:Generated_Source\PSoC5/USBFS_drv.c **** * Reentrant:
 425:Generated_Source\PSoC5/USBFS_drv.c **** *  No.
 426:Generated_Source\PSoC5/USBFS_drv.c **** *
ARM GAS  C:\Users\RABBIT~1\AppData\Local\Temp\ccOHC74T.s 			page 11


 427:Generated_Source\PSoC5/USBFS_drv.c **** *******************************************************************************/
 428:Generated_Source\PSoC5/USBFS_drv.c **** uint8 USBFS_InitZeroLengthControlTransfer(void)
 429:Generated_Source\PSoC5/USBFS_drv.c ****                                                 
 430:Generated_Source\PSoC5/USBFS_drv.c **** {
 143              		.loc 1 430 0
 144              		.cfi_startproc
 145              		@ args = 0, pretend = 0, frame = 0
 146              		@ frame_needed = 0, uses_anonymous_args = 0
 147              		@ link register save eliminated.
 431:Generated_Source\PSoC5/USBFS_drv.c ****     /* Update the state */
 432:Generated_Source\PSoC5/USBFS_drv.c ****     USBFS_transferState = USBFS_TRANS_STATE_CONTROL_READ;
 148              		.loc 1 432 0
 149 0000 074B     		ldr	r3, .L20
 150 0002 0222     		movs	r2, #2
 151 0004 1A70     		strb	r2, [r3]
 433:Generated_Source\PSoC5/USBFS_drv.c ****     /* Set the data toggle */
 434:Generated_Source\PSoC5/USBFS_drv.c ****     USBFS_ep0Toggle = USBFS_EP0_CNT_DATA_TOGGLE;
 152              		.loc 1 434 0
 153 0006 074B     		ldr	r3, .L20+4
 154 0008 8022     		movs	r2, #128
 155 000a 1A70     		strb	r2, [r3]
 435:Generated_Source\PSoC5/USBFS_drv.c ****     /* Set the Mode Register  */
 436:Generated_Source\PSoC5/USBFS_drv.c ****     USBFS_ep0Mode = USBFS_MODE_ACK_IN_STATUS_OUT;
 156              		.loc 1 436 0
 157 000c 064B     		ldr	r3, .L20+8
 158 000e 0F22     		movs	r2, #15
 159 0010 1A70     		strb	r2, [r3]
 437:Generated_Source\PSoC5/USBFS_drv.c ****     /* Save the packet size for next time */
 438:Generated_Source\PSoC5/USBFS_drv.c ****     USBFS_lastPacketSize = 0u;
 160              		.loc 1 438 0
 161 0012 064A     		ldr	r2, .L20+12
 162 0014 0023     		movs	r3, #0
 163 0016 1370     		strb	r3, [r2]
 439:Generated_Source\PSoC5/USBFS_drv.c ****     USBFS_ep0Count = 0u;
 164              		.loc 1 439 0
 165 0018 054A     		ldr	r2, .L20+16
 440:Generated_Source\PSoC5/USBFS_drv.c **** 
 441:Generated_Source\PSoC5/USBFS_drv.c ****     return(USBFS_TRUE);
 442:Generated_Source\PSoC5/USBFS_drv.c **** }
 166              		.loc 1 442 0
 167 001a 0120     		movs	r0, #1
 439:Generated_Source\PSoC5/USBFS_drv.c ****     USBFS_ep0Count = 0u;
 168              		.loc 1 439 0
 169 001c 1370     		strb	r3, [r2]
 170              		.loc 1 442 0
 171 001e 7047     		bx	lr
 172              	.L21:
 173              		.align	2
 174              	.L20:
 175 0020 00000000 		.word	USBFS_transferState
 176 0024 00000000 		.word	USBFS_ep0Toggle
 177 0028 00000000 		.word	USBFS_ep0Mode
 178 002c 00000000 		.word	USBFS_lastPacketSize
 179 0030 00000000 		.word	USBFS_ep0Count
 180              		.cfi_endproc
 181              	.LFE6:
 182              		.size	USBFS_InitZeroLengthControlTransfer, .-USBFS_InitZeroLengthControlTransfer
ARM GAS  C:\Users\RABBIT~1\AppData\Local\Temp\ccOHC74T.s 			page 12


 183              		.section	.text.USBFS_ControlReadDataStage,"ax",%progbits
 184              		.align	1
 185              		.global	USBFS_ControlReadDataStage
 186              		.thumb
 187              		.thumb_func
 188              		.type	USBFS_ControlReadDataStage, %function
 189              	USBFS_ControlReadDataStage:
 190              	.LFB7:
 443:Generated_Source\PSoC5/USBFS_drv.c **** 
 444:Generated_Source\PSoC5/USBFS_drv.c **** 
 445:Generated_Source\PSoC5/USBFS_drv.c **** /*******************************************************************************
 446:Generated_Source\PSoC5/USBFS_drv.c **** * Function Name: USBFS_ControlReadDataStage
 447:Generated_Source\PSoC5/USBFS_drv.c **** ********************************************************************************
 448:Generated_Source\PSoC5/USBFS_drv.c **** *
 449:Generated_Source\PSoC5/USBFS_drv.c **** * Summary:
 450:Generated_Source\PSoC5/USBFS_drv.c **** *  Handle the Data Stage of a control read transfer.
 451:Generated_Source\PSoC5/USBFS_drv.c **** *
 452:Generated_Source\PSoC5/USBFS_drv.c **** * Parameters:
 453:Generated_Source\PSoC5/USBFS_drv.c **** *  None.
 454:Generated_Source\PSoC5/USBFS_drv.c **** *
 455:Generated_Source\PSoC5/USBFS_drv.c **** * Return:
 456:Generated_Source\PSoC5/USBFS_drv.c **** *  None.
 457:Generated_Source\PSoC5/USBFS_drv.c **** *
 458:Generated_Source\PSoC5/USBFS_drv.c **** * Reentrant:
 459:Generated_Source\PSoC5/USBFS_drv.c **** *  No.
 460:Generated_Source\PSoC5/USBFS_drv.c **** *
 461:Generated_Source\PSoC5/USBFS_drv.c **** *******************************************************************************/
 462:Generated_Source\PSoC5/USBFS_drv.c **** void USBFS_ControlReadDataStage(void) 
 463:Generated_Source\PSoC5/USBFS_drv.c **** 
 464:Generated_Source\PSoC5/USBFS_drv.c **** {
 191              		.loc 1 464 0
 192              		.cfi_startproc
 193              		@ args = 0, pretend = 0, frame = 0
 194              		@ frame_needed = 0, uses_anonymous_args = 0
 195              		@ link register save eliminated.
 465:Generated_Source\PSoC5/USBFS_drv.c ****     USBFS_LoadEP0();
 196              		.loc 1 465 0
 197 0000 FFF7FEBF 		b	USBFS_LoadEP0
 198              	.LVL9:
 199              		.cfi_endproc
 200              	.LFE7:
 201              		.size	USBFS_ControlReadDataStage, .-USBFS_ControlReadDataStage
 202              		.section	.text.USBFS_ControlWriteDataStage,"ax",%progbits
 203              		.align	1
 204              		.global	USBFS_ControlWriteDataStage
 205              		.thumb
 206              		.thumb_func
 207              		.type	USBFS_ControlWriteDataStage, %function
 208              	USBFS_ControlWriteDataStage:
 209              	.LFB10:
 466:Generated_Source\PSoC5/USBFS_drv.c **** }
 467:Generated_Source\PSoC5/USBFS_drv.c **** 
 468:Generated_Source\PSoC5/USBFS_drv.c **** 
 469:Generated_Source\PSoC5/USBFS_drv.c **** /*******************************************************************************
 470:Generated_Source\PSoC5/USBFS_drv.c **** * Function Name: USBFS_ControlReadStatusStage
 471:Generated_Source\PSoC5/USBFS_drv.c **** ********************************************************************************
 472:Generated_Source\PSoC5/USBFS_drv.c **** *
ARM GAS  C:\Users\RABBIT~1\AppData\Local\Temp\ccOHC74T.s 			page 13


 473:Generated_Source\PSoC5/USBFS_drv.c **** * Summary:
 474:Generated_Source\PSoC5/USBFS_drv.c **** *  Handle the Status Stage of a control read transfer.
 475:Generated_Source\PSoC5/USBFS_drv.c **** *
 476:Generated_Source\PSoC5/USBFS_drv.c **** * Parameters:
 477:Generated_Source\PSoC5/USBFS_drv.c **** *  None.
 478:Generated_Source\PSoC5/USBFS_drv.c **** *
 479:Generated_Source\PSoC5/USBFS_drv.c **** * Return:
 480:Generated_Source\PSoC5/USBFS_drv.c **** *  None.
 481:Generated_Source\PSoC5/USBFS_drv.c **** *
 482:Generated_Source\PSoC5/USBFS_drv.c **** * Global variables:
 483:Generated_Source\PSoC5/USBFS_drv.c **** *  USBFS_USBFS_transferByteCount - updated with last packet size.
 484:Generated_Source\PSoC5/USBFS_drv.c **** *  USBFS_transferState - set to TRANS_STATE_IDLE.
 485:Generated_Source\PSoC5/USBFS_drv.c **** *  USBFS_ep0Mode  - set to MODE_STALL_IN_OUT.
 486:Generated_Source\PSoC5/USBFS_drv.c **** *
 487:Generated_Source\PSoC5/USBFS_drv.c **** * Reentrant:
 488:Generated_Source\PSoC5/USBFS_drv.c **** *  No.
 489:Generated_Source\PSoC5/USBFS_drv.c **** *
 490:Generated_Source\PSoC5/USBFS_drv.c **** *******************************************************************************/
 491:Generated_Source\PSoC5/USBFS_drv.c **** void USBFS_ControlReadStatusStage(void) 
 492:Generated_Source\PSoC5/USBFS_drv.c **** {
 493:Generated_Source\PSoC5/USBFS_drv.c ****     /* Update the transfer byte count */
 494:Generated_Source\PSoC5/USBFS_drv.c ****     USBFS_transferByteCount += USBFS_lastPacketSize;
 495:Generated_Source\PSoC5/USBFS_drv.c ****     /* Go Idle */
 496:Generated_Source\PSoC5/USBFS_drv.c ****     USBFS_transferState = USBFS_TRANS_STATE_IDLE;
 497:Generated_Source\PSoC5/USBFS_drv.c ****     /* Update the completion block */
 498:Generated_Source\PSoC5/USBFS_drv.c ****     USBFS_UpdateStatusBlock(USBFS_XFER_STATUS_ACK);
 499:Generated_Source\PSoC5/USBFS_drv.c ****     /* We expect no more data, so stall INs and OUTs */
 500:Generated_Source\PSoC5/USBFS_drv.c ****     USBFS_ep0Mode =  USBFS_MODE_STALL_IN_OUT;
 501:Generated_Source\PSoC5/USBFS_drv.c **** }
 502:Generated_Source\PSoC5/USBFS_drv.c **** 
 503:Generated_Source\PSoC5/USBFS_drv.c **** 
 504:Generated_Source\PSoC5/USBFS_drv.c **** /*******************************************************************************
 505:Generated_Source\PSoC5/USBFS_drv.c **** * Function Name: USBFS_InitControlWrite
 506:Generated_Source\PSoC5/USBFS_drv.c **** ********************************************************************************
 507:Generated_Source\PSoC5/USBFS_drv.c **** *
 508:Generated_Source\PSoC5/USBFS_drv.c **** * Summary:
 509:Generated_Source\PSoC5/USBFS_drv.c **** *  Initialize a control write transaction
 510:Generated_Source\PSoC5/USBFS_drv.c **** *
 511:Generated_Source\PSoC5/USBFS_drv.c **** * Parameters:
 512:Generated_Source\PSoC5/USBFS_drv.c **** *  None.
 513:Generated_Source\PSoC5/USBFS_drv.c **** *
 514:Generated_Source\PSoC5/USBFS_drv.c **** * Return:
 515:Generated_Source\PSoC5/USBFS_drv.c **** *  requestHandled state.
 516:Generated_Source\PSoC5/USBFS_drv.c **** *
 517:Generated_Source\PSoC5/USBFS_drv.c **** * Global variables:
 518:Generated_Source\PSoC5/USBFS_drv.c **** *  USBFS_USBFS_transferState - set to TRANS_STATE_CONTROL_WRITE
 519:Generated_Source\PSoC5/USBFS_drv.c **** *  USBFS_ep0Toggle - set to EP0_CNT_DATA_TOGGLE
 520:Generated_Source\PSoC5/USBFS_drv.c **** *  USBFS_ep0Mode  - set to MODE_ACK_OUT_STATUS_IN
 521:Generated_Source\PSoC5/USBFS_drv.c **** *
 522:Generated_Source\PSoC5/USBFS_drv.c **** * Reentrant:
 523:Generated_Source\PSoC5/USBFS_drv.c **** *  No.
 524:Generated_Source\PSoC5/USBFS_drv.c **** *
 525:Generated_Source\PSoC5/USBFS_drv.c **** *******************************************************************************/
 526:Generated_Source\PSoC5/USBFS_drv.c **** uint8 USBFS_InitControlWrite(void) 
 527:Generated_Source\PSoC5/USBFS_drv.c **** {
 528:Generated_Source\PSoC5/USBFS_drv.c ****     uint16 xferCount;
 529:Generated_Source\PSoC5/USBFS_drv.c **** 
ARM GAS  C:\Users\RABBIT~1\AppData\Local\Temp\ccOHC74T.s 			page 14


 530:Generated_Source\PSoC5/USBFS_drv.c ****     /* Set up the state machine */
 531:Generated_Source\PSoC5/USBFS_drv.c ****     USBFS_transferState = USBFS_TRANS_STATE_CONTROL_WRITE;
 532:Generated_Source\PSoC5/USBFS_drv.c ****     /* This might not be necessary */
 533:Generated_Source\PSoC5/USBFS_drv.c ****     USBFS_ep0Toggle = USBFS_EP0_CNT_DATA_TOGGLE;
 534:Generated_Source\PSoC5/USBFS_drv.c ****     /* Initialize the Status Block */
 535:Generated_Source\PSoC5/USBFS_drv.c ****     USBFS_InitializeStatusBlock();
 536:Generated_Source\PSoC5/USBFS_drv.c **** 
 537:Generated_Source\PSoC5/USBFS_drv.c ****     xferCount = (((uint16)CY_GET_REG8(USBFS_lengthHi) << 8u) | (CY_GET_REG8(USBFS_lengthLo)));
 538:Generated_Source\PSoC5/USBFS_drv.c **** 
 539:Generated_Source\PSoC5/USBFS_drv.c ****     if (USBFS_currentTD.count > xferCount)
 540:Generated_Source\PSoC5/USBFS_drv.c ****     {
 541:Generated_Source\PSoC5/USBFS_drv.c ****         USBFS_currentTD.count = xferCount;
 542:Generated_Source\PSoC5/USBFS_drv.c ****     }
 543:Generated_Source\PSoC5/USBFS_drv.c **** 
 544:Generated_Source\PSoC5/USBFS_drv.c ****     /* Expect Data or Status Stage */
 545:Generated_Source\PSoC5/USBFS_drv.c ****     USBFS_ep0Mode = USBFS_MODE_ACK_OUT_STATUS_IN;
 546:Generated_Source\PSoC5/USBFS_drv.c **** 
 547:Generated_Source\PSoC5/USBFS_drv.c ****     return(USBFS_TRUE);
 548:Generated_Source\PSoC5/USBFS_drv.c **** }
 549:Generated_Source\PSoC5/USBFS_drv.c **** 
 550:Generated_Source\PSoC5/USBFS_drv.c **** 
 551:Generated_Source\PSoC5/USBFS_drv.c **** /*******************************************************************************
 552:Generated_Source\PSoC5/USBFS_drv.c **** * Function Name: USBFS_ControlWriteDataStage
 553:Generated_Source\PSoC5/USBFS_drv.c **** ********************************************************************************
 554:Generated_Source\PSoC5/USBFS_drv.c **** *
 555:Generated_Source\PSoC5/USBFS_drv.c **** * Summary:
 556:Generated_Source\PSoC5/USBFS_drv.c **** *  Handle the Data Stage of a control write transfer
 557:Generated_Source\PSoC5/USBFS_drv.c **** *       1. Get the data (We assume the destination was validated previously)
 558:Generated_Source\PSoC5/USBFS_drv.c **** *       2. Update the count and data toggle
 559:Generated_Source\PSoC5/USBFS_drv.c **** *       3. Update the mode register for the next transaction
 560:Generated_Source\PSoC5/USBFS_drv.c **** *
 561:Generated_Source\PSoC5/USBFS_drv.c **** * Parameters:
 562:Generated_Source\PSoC5/USBFS_drv.c **** *  None.
 563:Generated_Source\PSoC5/USBFS_drv.c **** *
 564:Generated_Source\PSoC5/USBFS_drv.c **** * Return:
 565:Generated_Source\PSoC5/USBFS_drv.c **** *  None.
 566:Generated_Source\PSoC5/USBFS_drv.c **** *
 567:Generated_Source\PSoC5/USBFS_drv.c **** * Global variables:
 568:Generated_Source\PSoC5/USBFS_drv.c **** *  USBFS_transferByteCount - Update the transfer byte count from the
 569:Generated_Source\PSoC5/USBFS_drv.c **** *    last transaction.
 570:Generated_Source\PSoC5/USBFS_drv.c **** *  USBFS_ep0Count - counts the data loaded from the SIE memory
 571:Generated_Source\PSoC5/USBFS_drv.c **** *    in current packet.
 572:Generated_Source\PSoC5/USBFS_drv.c **** *  USBFS_transferByteCount - sum of the previous bytes transferred
 573:Generated_Source\PSoC5/USBFS_drv.c **** *    on previous packets(sum of USBFS_lastPacketSize)
 574:Generated_Source\PSoC5/USBFS_drv.c **** *  USBFS_ep0Toggle - inverted
 575:Generated_Source\PSoC5/USBFS_drv.c **** *  USBFS_ep0Mode  - set to MODE_ACK_OUT_STATUS_IN.
 576:Generated_Source\PSoC5/USBFS_drv.c **** *
 577:Generated_Source\PSoC5/USBFS_drv.c **** * Reentrant:
 578:Generated_Source\PSoC5/USBFS_drv.c **** *  No.
 579:Generated_Source\PSoC5/USBFS_drv.c **** *
 580:Generated_Source\PSoC5/USBFS_drv.c **** *******************************************************************************/
 581:Generated_Source\PSoC5/USBFS_drv.c **** void USBFS_ControlWriteDataStage(void) 
 582:Generated_Source\PSoC5/USBFS_drv.c **** {
 210              		.loc 1 582 0
 211              		.cfi_startproc
 212              		@ args = 0, pretend = 0, frame = 0
 213              		@ frame_needed = 0, uses_anonymous_args = 0
ARM GAS  C:\Users\RABBIT~1\AppData\Local\Temp\ccOHC74T.s 			page 15


 214              	.LVL10:
 215 0000 10B5     		push	{r4, lr}
 216              		.cfi_def_cfa_offset 8
 217              		.cfi_offset 4, -8
 218              		.cfi_offset 14, -4
 583:Generated_Source\PSoC5/USBFS_drv.c ****     uint8 ep0Count;
 584:Generated_Source\PSoC5/USBFS_drv.c ****     uint8 regIndex = 0u;
 585:Generated_Source\PSoC5/USBFS_drv.c **** 
 586:Generated_Source\PSoC5/USBFS_drv.c ****     ep0Count = (CY_GET_REG8(USBFS_EP0_CNT_PTR) & USBFS_EPX_CNT0_MASK) -
 219              		.loc 1 586 0
 220 0002 154B     		ldr	r3, .L30
 587:Generated_Source\PSoC5/USBFS_drv.c ****                USBFS_EPX_CNTX_CRC_COUNT;
 588:Generated_Source\PSoC5/USBFS_drv.c **** 
 589:Generated_Source\PSoC5/USBFS_drv.c ****     USBFS_transferByteCount += ep0Count;
 221              		.loc 1 589 0
 222 0004 1549     		ldr	r1, .L30+4
 586:Generated_Source\PSoC5/USBFS_drv.c ****                USBFS_EPX_CNTX_CRC_COUNT;
 223              		.loc 1 586 0
 224 0006 1B78     		ldrb	r3, [r3]	@ zero_extendqisi2
 225              		.loc 1 589 0
 226 0008 0A88     		ldrh	r2, [r1]
 586:Generated_Source\PSoC5/USBFS_drv.c ****                USBFS_EPX_CNTX_CRC_COUNT;
 227              		.loc 1 586 0
 228 000a 03F00F03 		and	r3, r3, #15
 229 000e 023B     		subs	r3, r3, #2
 230 0010 DBB2     		uxtb	r3, r3
 231              	.LVL11:
 232              		.loc 1 589 0
 233 0012 1A44     		add	r2, r2, r3
 234 0014 92B2     		uxth	r2, r2
 235 0016 0A80     		strh	r2, [r1]	@ movhi
 590:Generated_Source\PSoC5/USBFS_drv.c **** 
 591:Generated_Source\PSoC5/USBFS_drv.c ****     while ((USBFS_currentTD.count > 0u) && (ep0Count > 0u))
 236              		.loc 1 591 0
 237 0018 1148     		ldr	r0, .L30+8
 238 001a 124A     		ldr	r2, .L30+12
 239              	.LVL12:
 240              	.L24:
 241 001c 1188     		ldrh	r1, [r2]
 242 001e 89B2     		uxth	r1, r1
 243 0020 79B1     		cbz	r1, .L25
 244              		.loc 1 591 0 is_stmt 0 discriminator 1
 245 0022 73B1     		cbz	r3, .L25
 592:Generated_Source\PSoC5/USBFS_drv.c ****     {
 593:Generated_Source\PSoC5/USBFS_drv.c ****         *USBFS_currentTD.pData = CY_GET_REG8((reg8 *)(USBFS_EP0_DR0_IND + regIndex));
 246              		.loc 1 593 0 is_stmt 1
 247 0024 5468     		ldr	r4, [r2, #4]
 248 0026 10F8011B 		ldrb	r1, [r0], #1	@ zero_extendqisi2
 249              	.LVL13:
 594:Generated_Source\PSoC5/USBFS_drv.c ****         USBFS_currentTD.pData = &USBFS_currentTD.pData[1u];
 595:Generated_Source\PSoC5/USBFS_drv.c ****         regIndex++;
 596:Generated_Source\PSoC5/USBFS_drv.c ****         ep0Count--;
 250              		.loc 1 596 0
 251 002a 013B     		subs	r3, r3, #1
 252              	.LVL14:
 593:Generated_Source\PSoC5/USBFS_drv.c ****         USBFS_currentTD.pData = &USBFS_currentTD.pData[1u];
 253              		.loc 1 593 0
ARM GAS  C:\Users\RABBIT~1\AppData\Local\Temp\ccOHC74T.s 			page 16


 254 002c C9B2     		uxtb	r1, r1
 255 002e 2170     		strb	r1, [r4]
 594:Generated_Source\PSoC5/USBFS_drv.c ****         USBFS_currentTD.pData = &USBFS_currentTD.pData[1u];
 256              		.loc 1 594 0
 257 0030 5168     		ldr	r1, [r2, #4]
 258              		.loc 1 596 0
 259 0032 DBB2     		uxtb	r3, r3
 594:Generated_Source\PSoC5/USBFS_drv.c ****         USBFS_currentTD.pData = &USBFS_currentTD.pData[1u];
 260              		.loc 1 594 0
 261 0034 0131     		adds	r1, r1, #1
 262 0036 5160     		str	r1, [r2, #4]
 263              	.LVL15:
 597:Generated_Source\PSoC5/USBFS_drv.c ****         USBFS_currentTD.count--;
 264              		.loc 1 597 0
 265 0038 1188     		ldrh	r1, [r2]
 266 003a 0139     		subs	r1, r1, #1
 267 003c 89B2     		uxth	r1, r1
 268 003e 1180     		strh	r1, [r2]	@ movhi
 269 0040 ECE7     		b	.L24
 270              	.LVL16:
 271              	.L25:
 598:Generated_Source\PSoC5/USBFS_drv.c ****     }
 599:Generated_Source\PSoC5/USBFS_drv.c ****     USBFS_ep0Count = ep0Count;
 272              		.loc 1 599 0
 273 0042 094A     		ldr	r2, .L30+16
 274 0044 1370     		strb	r3, [r2]
 600:Generated_Source\PSoC5/USBFS_drv.c ****     /* Update the data toggle */
 601:Generated_Source\PSoC5/USBFS_drv.c ****     USBFS_ep0Toggle ^= USBFS_EP0_CNT_DATA_TOGGLE;
 275              		.loc 1 601 0
 276 0046 094A     		ldr	r2, .L30+20
 277 0048 1378     		ldrb	r3, [r2]	@ zero_extendqisi2
 278              	.LVL17:
 279 004a 83F08003 		eor	r3, r3, #128
 280 004e 1370     		strb	r3, [r2]
 281              	.LVL18:
 602:Generated_Source\PSoC5/USBFS_drv.c ****     /* Expect Data or Status Stage */
 603:Generated_Source\PSoC5/USBFS_drv.c ****     USBFS_ep0Mode = USBFS_MODE_ACK_OUT_STATUS_IN;
 282              		.loc 1 603 0
 283 0050 074B     		ldr	r3, .L30+24
 284 0052 0B22     		movs	r2, #11
 285 0054 1A70     		strb	r2, [r3]
 286 0056 10BD     		pop	{r4, pc}
 287              	.L31:
 288              		.align	2
 289              	.L30:
 290 0058 29600040 		.word	1073766441
 291 005c 00000000 		.word	USBFS_transferByteCount
 292 0060 00600040 		.word	1073766400
 293 0064 00000000 		.word	USBFS_currentTD
 294 0068 00000000 		.word	USBFS_ep0Count
 295 006c 00000000 		.word	USBFS_ep0Toggle
 296 0070 00000000 		.word	USBFS_ep0Mode
 297              		.cfi_endproc
 298              	.LFE10:
 299              		.size	USBFS_ControlWriteDataStage, .-USBFS_ControlWriteDataStage
 300              		.section	.text.USBFS_InitNoDataControlTransfer,"ax",%progbits
 301              		.align	1
ARM GAS  C:\Users\RABBIT~1\AppData\Local\Temp\ccOHC74T.s 			page 17


 302              		.global	USBFS_InitNoDataControlTransfer
 303              		.thumb
 304              		.thumb_func
 305              		.type	USBFS_InitNoDataControlTransfer, %function
 306              	USBFS_InitNoDataControlTransfer:
 307              	.LFB12:
 604:Generated_Source\PSoC5/USBFS_drv.c **** }
 605:Generated_Source\PSoC5/USBFS_drv.c **** 
 606:Generated_Source\PSoC5/USBFS_drv.c **** 
 607:Generated_Source\PSoC5/USBFS_drv.c **** /*******************************************************************************
 608:Generated_Source\PSoC5/USBFS_drv.c **** * Function Name: USBFS_ControlWriteStatusStage
 609:Generated_Source\PSoC5/USBFS_drv.c **** ********************************************************************************
 610:Generated_Source\PSoC5/USBFS_drv.c **** *
 611:Generated_Source\PSoC5/USBFS_drv.c **** * Summary:
 612:Generated_Source\PSoC5/USBFS_drv.c **** *  Handle the Status Stage of a control write transfer
 613:Generated_Source\PSoC5/USBFS_drv.c **** *
 614:Generated_Source\PSoC5/USBFS_drv.c **** * Parameters:
 615:Generated_Source\PSoC5/USBFS_drv.c **** *  None.
 616:Generated_Source\PSoC5/USBFS_drv.c **** *
 617:Generated_Source\PSoC5/USBFS_drv.c **** * Return:
 618:Generated_Source\PSoC5/USBFS_drv.c **** *  None.
 619:Generated_Source\PSoC5/USBFS_drv.c **** *
 620:Generated_Source\PSoC5/USBFS_drv.c **** * Global variables:
 621:Generated_Source\PSoC5/USBFS_drv.c **** *  USBFS_transferState - set to TRANS_STATE_IDLE.
 622:Generated_Source\PSoC5/USBFS_drv.c **** *  USBFS_USBFS_ep0Mode  - set to MODE_STALL_IN_OUT.
 623:Generated_Source\PSoC5/USBFS_drv.c **** *
 624:Generated_Source\PSoC5/USBFS_drv.c **** * Reentrant:
 625:Generated_Source\PSoC5/USBFS_drv.c **** *  No.
 626:Generated_Source\PSoC5/USBFS_drv.c **** *
 627:Generated_Source\PSoC5/USBFS_drv.c **** *******************************************************************************/
 628:Generated_Source\PSoC5/USBFS_drv.c **** void USBFS_ControlWriteStatusStage(void) 
 629:Generated_Source\PSoC5/USBFS_drv.c **** {
 630:Generated_Source\PSoC5/USBFS_drv.c ****     /* Go Idle */
 631:Generated_Source\PSoC5/USBFS_drv.c ****     USBFS_transferState = USBFS_TRANS_STATE_IDLE;
 632:Generated_Source\PSoC5/USBFS_drv.c ****     /* Update the completion block */
 633:Generated_Source\PSoC5/USBFS_drv.c ****     USBFS_UpdateStatusBlock(USBFS_XFER_STATUS_ACK);
 634:Generated_Source\PSoC5/USBFS_drv.c ****     /* We expect no more data, so stall INs and OUTs */
 635:Generated_Source\PSoC5/USBFS_drv.c ****     USBFS_ep0Mode = USBFS_MODE_STALL_IN_OUT;
 636:Generated_Source\PSoC5/USBFS_drv.c **** }
 637:Generated_Source\PSoC5/USBFS_drv.c **** 
 638:Generated_Source\PSoC5/USBFS_drv.c **** 
 639:Generated_Source\PSoC5/USBFS_drv.c **** /*******************************************************************************
 640:Generated_Source\PSoC5/USBFS_drv.c **** * Function Name: USBFS_InitNoDataControlTransfer
 641:Generated_Source\PSoC5/USBFS_drv.c **** ********************************************************************************
 642:Generated_Source\PSoC5/USBFS_drv.c **** *
 643:Generated_Source\PSoC5/USBFS_drv.c **** * Summary:
 644:Generated_Source\PSoC5/USBFS_drv.c **** *  Initialize a no data control transfer
 645:Generated_Source\PSoC5/USBFS_drv.c **** *
 646:Generated_Source\PSoC5/USBFS_drv.c **** * Parameters:
 647:Generated_Source\PSoC5/USBFS_drv.c **** *  None.
 648:Generated_Source\PSoC5/USBFS_drv.c **** *
 649:Generated_Source\PSoC5/USBFS_drv.c **** * Return:
 650:Generated_Source\PSoC5/USBFS_drv.c **** *  requestHandled state.
 651:Generated_Source\PSoC5/USBFS_drv.c **** *
 652:Generated_Source\PSoC5/USBFS_drv.c **** * Global variables:
 653:Generated_Source\PSoC5/USBFS_drv.c **** *  USBFS_transferState - set to TRANS_STATE_NO_DATA_CONTROL.
 654:Generated_Source\PSoC5/USBFS_drv.c **** *  USBFS_ep0Mode  - set to MODE_STATUS_IN_ONLY.
ARM GAS  C:\Users\RABBIT~1\AppData\Local\Temp\ccOHC74T.s 			page 18


 655:Generated_Source\PSoC5/USBFS_drv.c **** *  USBFS_ep0Count - cleared.
 656:Generated_Source\PSoC5/USBFS_drv.c **** *  USBFS_ep0Toggle - set to EP0_CNT_DATA_TOGGLE
 657:Generated_Source\PSoC5/USBFS_drv.c **** *
 658:Generated_Source\PSoC5/USBFS_drv.c **** * Reentrant:
 659:Generated_Source\PSoC5/USBFS_drv.c **** *  No.
 660:Generated_Source\PSoC5/USBFS_drv.c **** *
 661:Generated_Source\PSoC5/USBFS_drv.c **** *******************************************************************************/
 662:Generated_Source\PSoC5/USBFS_drv.c **** uint8 USBFS_InitNoDataControlTransfer(void) 
 663:Generated_Source\PSoC5/USBFS_drv.c **** {
 308              		.loc 1 663 0
 309              		.cfi_startproc
 310              		@ args = 0, pretend = 0, frame = 0
 311              		@ frame_needed = 0, uses_anonymous_args = 0
 312              		@ link register save eliminated.
 664:Generated_Source\PSoC5/USBFS_drv.c ****     USBFS_transferState = USBFS_TRANS_STATE_NO_DATA_CONTROL;
 313              		.loc 1 664 0
 314 0000 064A     		ldr	r2, .L33
 315 0002 0623     		movs	r3, #6
 316 0004 1370     		strb	r3, [r2]
 665:Generated_Source\PSoC5/USBFS_drv.c ****     USBFS_ep0Mode = USBFS_MODE_STATUS_IN_ONLY;
 317              		.loc 1 665 0
 318 0006 064A     		ldr	r2, .L33+4
 666:Generated_Source\PSoC5/USBFS_drv.c ****     USBFS_ep0Toggle = USBFS_EP0_CNT_DATA_TOGGLE;
 667:Generated_Source\PSoC5/USBFS_drv.c ****     USBFS_ep0Count = 0u;
 668:Generated_Source\PSoC5/USBFS_drv.c **** 
 669:Generated_Source\PSoC5/USBFS_drv.c ****     return(USBFS_TRUE);
 670:Generated_Source\PSoC5/USBFS_drv.c **** }
 319              		.loc 1 670 0
 320 0008 0120     		movs	r0, #1
 665:Generated_Source\PSoC5/USBFS_drv.c ****     USBFS_ep0Mode = USBFS_MODE_STATUS_IN_ONLY;
 321              		.loc 1 665 0
 322 000a 1370     		strb	r3, [r2]
 666:Generated_Source\PSoC5/USBFS_drv.c ****     USBFS_ep0Toggle = USBFS_EP0_CNT_DATA_TOGGLE;
 323              		.loc 1 666 0
 324 000c 054B     		ldr	r3, .L33+8
 325 000e 8022     		movs	r2, #128
 326 0010 1A70     		strb	r2, [r3]
 667:Generated_Source\PSoC5/USBFS_drv.c **** 
 327              		.loc 1 667 0
 328 0012 054B     		ldr	r3, .L33+12
 329 0014 0022     		movs	r2, #0
 330 0016 1A70     		strb	r2, [r3]
 331              		.loc 1 670 0
 332 0018 7047     		bx	lr
 333              	.L34:
 334 001a 00BF     		.align	2
 335              	.L33:
 336 001c 00000000 		.word	USBFS_transferState
 337 0020 00000000 		.word	USBFS_ep0Mode
 338 0024 00000000 		.word	USBFS_ep0Toggle
 339 0028 00000000 		.word	USBFS_ep0Count
 340              		.cfi_endproc
 341              	.LFE12:
 342              		.size	USBFS_InitNoDataControlTransfer, .-USBFS_InitNoDataControlTransfer
 343              		.section	.text.USBFS_UpdateStatusBlock,"ax",%progbits
 344              		.align	1
 345              		.global	USBFS_UpdateStatusBlock
ARM GAS  C:\Users\RABBIT~1\AppData\Local\Temp\ccOHC74T.s 			page 19


 346              		.thumb
 347              		.thumb_func
 348              		.type	USBFS_UpdateStatusBlock, %function
 349              	USBFS_UpdateStatusBlock:
 350              	.LFB14:
 671:Generated_Source\PSoC5/USBFS_drv.c **** 
 672:Generated_Source\PSoC5/USBFS_drv.c **** 
 673:Generated_Source\PSoC5/USBFS_drv.c **** /*******************************************************************************
 674:Generated_Source\PSoC5/USBFS_drv.c **** * Function Name: USBFS_NoDataControlStatusStage
 675:Generated_Source\PSoC5/USBFS_drv.c **** ********************************************************************************
 676:Generated_Source\PSoC5/USBFS_drv.c **** * Summary:
 677:Generated_Source\PSoC5/USBFS_drv.c **** *  Handle the Status Stage of a no data control transfer.
 678:Generated_Source\PSoC5/USBFS_drv.c **** *
 679:Generated_Source\PSoC5/USBFS_drv.c **** *  SET_ADDRESS is special, since we need to receive the status stage with
 680:Generated_Source\PSoC5/USBFS_drv.c **** *  the old address.
 681:Generated_Source\PSoC5/USBFS_drv.c **** *
 682:Generated_Source\PSoC5/USBFS_drv.c **** * Parameters:
 683:Generated_Source\PSoC5/USBFS_drv.c **** *  None.
 684:Generated_Source\PSoC5/USBFS_drv.c **** *
 685:Generated_Source\PSoC5/USBFS_drv.c **** * Return:
 686:Generated_Source\PSoC5/USBFS_drv.c **** *  None.
 687:Generated_Source\PSoC5/USBFS_drv.c **** *
 688:Generated_Source\PSoC5/USBFS_drv.c **** * Global variables:
 689:Generated_Source\PSoC5/USBFS_drv.c **** *  USBFS_transferState - set to TRANS_STATE_IDLE.
 690:Generated_Source\PSoC5/USBFS_drv.c **** *  USBFS_ep0Mode  - set to MODE_STALL_IN_OUT.
 691:Generated_Source\PSoC5/USBFS_drv.c **** *  USBFS_ep0Toggle - set to EP0_CNT_DATA_TOGGLE
 692:Generated_Source\PSoC5/USBFS_drv.c **** *  USBFS_deviceAddress - used to set new address and cleared
 693:Generated_Source\PSoC5/USBFS_drv.c **** *
 694:Generated_Source\PSoC5/USBFS_drv.c **** * Reentrant:
 695:Generated_Source\PSoC5/USBFS_drv.c **** *  No.
 696:Generated_Source\PSoC5/USBFS_drv.c **** *
 697:Generated_Source\PSoC5/USBFS_drv.c **** *******************************************************************************/
 698:Generated_Source\PSoC5/USBFS_drv.c **** void USBFS_NoDataControlStatusStage(void) 
 699:Generated_Source\PSoC5/USBFS_drv.c **** {
 700:Generated_Source\PSoC5/USBFS_drv.c ****     /* Change the USB address register if we got a SET_ADDRESS. */
 701:Generated_Source\PSoC5/USBFS_drv.c ****     if (USBFS_deviceAddress != 0u)
 702:Generated_Source\PSoC5/USBFS_drv.c ****     {
 703:Generated_Source\PSoC5/USBFS_drv.c ****         CY_SET_REG8(USBFS_CR0_PTR, USBFS_deviceAddress | USBFS_CR0_ENABLE);
 704:Generated_Source\PSoC5/USBFS_drv.c ****         USBFS_deviceAddress = 0u;
 705:Generated_Source\PSoC5/USBFS_drv.c ****     }
 706:Generated_Source\PSoC5/USBFS_drv.c ****     /* Go Idle */
 707:Generated_Source\PSoC5/USBFS_drv.c ****     USBFS_transferState = USBFS_TRANS_STATE_IDLE;
 708:Generated_Source\PSoC5/USBFS_drv.c ****     /* Update the completion block */
 709:Generated_Source\PSoC5/USBFS_drv.c ****     USBFS_UpdateStatusBlock(USBFS_XFER_STATUS_ACK);
 710:Generated_Source\PSoC5/USBFS_drv.c ****      /* We expect no more data, so stall INs and OUTs */
 711:Generated_Source\PSoC5/USBFS_drv.c ****     USBFS_ep0Mode = USBFS_MODE_STALL_IN_OUT;
 712:Generated_Source\PSoC5/USBFS_drv.c **** }
 713:Generated_Source\PSoC5/USBFS_drv.c **** 
 714:Generated_Source\PSoC5/USBFS_drv.c **** 
 715:Generated_Source\PSoC5/USBFS_drv.c **** /*******************************************************************************
 716:Generated_Source\PSoC5/USBFS_drv.c **** * Function Name: USBFS_UpdateStatusBlock
 717:Generated_Source\PSoC5/USBFS_drv.c **** ********************************************************************************
 718:Generated_Source\PSoC5/USBFS_drv.c **** *
 719:Generated_Source\PSoC5/USBFS_drv.c **** * Summary:
 720:Generated_Source\PSoC5/USBFS_drv.c **** *  Update the Completion Status Block for a Request.  The block is updated
 721:Generated_Source\PSoC5/USBFS_drv.c **** *  with the completion code the USBFS_transferByteCount.  The
 722:Generated_Source\PSoC5/USBFS_drv.c **** *  StatusBlock Pointer is set to NULL.
ARM GAS  C:\Users\RABBIT~1\AppData\Local\Temp\ccOHC74T.s 			page 20


 723:Generated_Source\PSoC5/USBFS_drv.c **** *
 724:Generated_Source\PSoC5/USBFS_drv.c **** * Parameters:
 725:Generated_Source\PSoC5/USBFS_drv.c **** *  completionCode - status.
 726:Generated_Source\PSoC5/USBFS_drv.c **** *
 727:Generated_Source\PSoC5/USBFS_drv.c **** * Return:
 728:Generated_Source\PSoC5/USBFS_drv.c **** *  None.
 729:Generated_Source\PSoC5/USBFS_drv.c **** *
 730:Generated_Source\PSoC5/USBFS_drv.c **** * Global variables:
 731:Generated_Source\PSoC5/USBFS_drv.c **** *  USBFS_currentTD.pStatusBlock->status - updated by the
 732:Generated_Source\PSoC5/USBFS_drv.c **** *    completionCode parameter.
 733:Generated_Source\PSoC5/USBFS_drv.c **** *  USBFS_currentTD.pStatusBlock->length - updated.
 734:Generated_Source\PSoC5/USBFS_drv.c **** *  USBFS_currentTD.pStatusBlock - cleared.
 735:Generated_Source\PSoC5/USBFS_drv.c **** *
 736:Generated_Source\PSoC5/USBFS_drv.c **** * Reentrant:
 737:Generated_Source\PSoC5/USBFS_drv.c **** *  No.
 738:Generated_Source\PSoC5/USBFS_drv.c **** *
 739:Generated_Source\PSoC5/USBFS_drv.c **** *******************************************************************************/
 740:Generated_Source\PSoC5/USBFS_drv.c **** void USBFS_UpdateStatusBlock(uint8 completionCode) 
 741:Generated_Source\PSoC5/USBFS_drv.c **** {
 351              		.loc 1 741 0
 352              		.cfi_startproc
 353              		@ args = 0, pretend = 0, frame = 0
 354              		@ frame_needed = 0, uses_anonymous_args = 0
 355              		@ link register save eliminated.
 356              	.LVL19:
 742:Generated_Source\PSoC5/USBFS_drv.c ****     if (USBFS_currentTD.pStatusBlock != NULL)
 357              		.loc 1 742 0
 358 0000 054B     		ldr	r3, .L40
 359 0002 9A68     		ldr	r2, [r3, #8]
 360 0004 3AB1     		cbz	r2, .L35
 743:Generated_Source\PSoC5/USBFS_drv.c ****     {
 744:Generated_Source\PSoC5/USBFS_drv.c ****         USBFS_currentTD.pStatusBlock->status = completionCode;
 361              		.loc 1 744 0
 362 0006 9A68     		ldr	r2, [r3, #8]
 745:Generated_Source\PSoC5/USBFS_drv.c ****         USBFS_currentTD.pStatusBlock->length = USBFS_transferByteCount;
 363              		.loc 1 745 0
 364 0008 0449     		ldr	r1, .L40+4
 744:Generated_Source\PSoC5/USBFS_drv.c ****         USBFS_currentTD.pStatusBlock->length = USBFS_transferByteCount;
 365              		.loc 1 744 0
 366 000a 1070     		strb	r0, [r2]
 367              		.loc 1 745 0
 368 000c 9A68     		ldr	r2, [r3, #8]
 369 000e 0988     		ldrh	r1, [r1]
 370 0010 5180     		strh	r1, [r2, #2]	@ movhi
 746:Generated_Source\PSoC5/USBFS_drv.c ****         USBFS_currentTD.pStatusBlock = NULL;
 371              		.loc 1 746 0
 372 0012 0022     		movs	r2, #0
 373 0014 9A60     		str	r2, [r3, #8]
 374              	.L35:
 375 0016 7047     		bx	lr
 376              	.L41:
 377              		.align	2
 378              	.L40:
 379 0018 00000000 		.word	USBFS_currentTD
 380 001c 00000000 		.word	USBFS_transferByteCount
 381              		.cfi_endproc
 382              	.LFE14:
ARM GAS  C:\Users\RABBIT~1\AppData\Local\Temp\ccOHC74T.s 			page 21


 383              		.size	USBFS_UpdateStatusBlock, .-USBFS_UpdateStatusBlock
 384              		.section	.text.USBFS_HandleSetup,"ax",%progbits
 385              		.align	1
 386              		.global	USBFS_HandleSetup
 387              		.thumb
 388              		.thumb_func
 389              		.type	USBFS_HandleSetup, %function
 390              	USBFS_HandleSetup:
 391              	.LFB1:
 159:Generated_Source\PSoC5/USBFS_drv.c ****     uint8 requestHandled;
 392              		.loc 1 159 0
 393              		.cfi_startproc
 394              		@ args = 0, pretend = 0, frame = 0
 395              		@ frame_needed = 0, uses_anonymous_args = 0
 396 0000 08B5     		push	{r3, lr}
 397              		.cfi_def_cfa_offset 8
 398              		.cfi_offset 3, -8
 399              		.cfi_offset 14, -4
 162:Generated_Source\PSoC5/USBFS_drv.c ****     CY_SET_REG8(USBFS_EP0_CR_PTR, requestHandled);       /* clear setup bit */
 400              		.loc 1 162 0
 401 0002 124B     		ldr	r3, .L50
 402 0004 1A78     		ldrb	r2, [r3]	@ zero_extendqisi2
 403 0006 D2B2     		uxtb	r2, r2
 404              	.LVL20:
 163:Generated_Source\PSoC5/USBFS_drv.c ****     requestHandled = CY_GET_REG8(USBFS_EP0_CR_PTR);      /* reread register */
 405              		.loc 1 163 0
 406 0008 1A70     		strb	r2, [r3]
 164:Generated_Source\PSoC5/USBFS_drv.c ****     if((requestHandled & USBFS_MODE_SETUP_RCVD) != 0u)
 407              		.loc 1 164 0
 408 000a 1B78     		ldrb	r3, [r3]	@ zero_extendqisi2
 409 000c DBB2     		uxtb	r3, r3
 410              	.LVL21:
 165:Generated_Source\PSoC5/USBFS_drv.c ****     {
 411              		.loc 1 165 0
 412 000e 1A06     		lsls	r2, r3, #24
 413 0010 02D5     		bpl	.L43
 167:Generated_Source\PSoC5/USBFS_drv.c ****     }
 414              		.loc 1 167 0
 415 0012 0F4A     		ldr	r2, .L50+4
 416 0014 1370     		strb	r3, [r2]
 417 0016 08BD     		pop	{r3, pc}
 418              	.LVL22:
 419              	.L43:
 420              	.LBB6:
 421              	.LBB7:
 172:Generated_Source\PSoC5/USBFS_drv.c **** 
 422              		.loc 1 172 0
 423 0018 0220     		movs	r0, #2
 424 001a FFF7FEFF 		bl	USBFS_UpdateStatusBlock
 425              	.LVL23:
 174:Generated_Source\PSoC5/USBFS_drv.c ****         {
 426              		.loc 1 174 0
 427 001e 0D4B     		ldr	r3, .L50+8
 428 0020 1B78     		ldrb	r3, [r3]	@ zero_extendqisi2
 429 0022 03F06003 		and	r3, r3, #96
 430 0026 202B     		cmp	r3, #32
 431 0028 05D0     		beq	.L46
ARM GAS  C:\Users\RABBIT~1\AppData\Local\Temp\ccOHC74T.s 			page 22


 432 002a 402B     		cmp	r3, #64
 433 002c 06D0     		beq	.L47
 434 002e 43B9     		cbnz	r3, .L45
 177:Generated_Source\PSoC5/USBFS_drv.c ****                 break;
 435              		.loc 1 177 0
 436 0030 FFF7FEFF 		bl	USBFS_HandleStandardRqst
 437              	.LVL24:
 438 0034 04E0     		b	.L49
 439              	.LVL25:
 440              	.L46:
 180:Generated_Source\PSoC5/USBFS_drv.c ****                 break;
 441              		.loc 1 180 0
 442 0036 FFF7FEFF 		bl	USBFS_DispatchClassRqst
 443              	.LVL26:
 444 003a 01E0     		b	.L49
 445              	.LVL27:
 446              	.L47:
 183:Generated_Source\PSoC5/USBFS_drv.c ****                 break;
 447              		.loc 1 183 0
 448 003c FFF7FEFF 		bl	USBFS_HandleVendorRqst
 449              	.LVL28:
 450              	.L49:
 189:Generated_Source\PSoC5/USBFS_drv.c ****         {
 451              		.loc 1 189 0
 452 0040 10B9     		cbnz	r0, .L42
 453              	.LVL29:
 454              	.L45:
 191:Generated_Source\PSoC5/USBFS_drv.c ****         }
 455              		.loc 1 191 0
 456 0042 034B     		ldr	r3, .L50+4
 457 0044 0322     		movs	r2, #3
 458 0046 1A70     		strb	r2, [r3]
 459              	.L42:
 460 0048 08BD     		pop	{r3, pc}
 461              	.L51:
 462 004a 00BF     		.align	2
 463              	.L50:
 464 004c 28600040 		.word	1073766440
 465 0050 00000000 		.word	USBFS_ep0Mode
 466 0054 00600040 		.word	1073766400
 467              	.LBE7:
 468              	.LBE6:
 469              		.cfi_endproc
 470              	.LFE1:
 471              		.size	USBFS_HandleSetup, .-USBFS_HandleSetup
 472              		.section	.text.USBFS_ControlReadStatusStage,"ax",%progbits
 473              		.align	1
 474              		.global	USBFS_ControlReadStatusStage
 475              		.thumb
 476              		.thumb_func
 477              		.type	USBFS_ControlReadStatusStage, %function
 478              	USBFS_ControlReadStatusStage:
 479              	.LFB8:
 492:Generated_Source\PSoC5/USBFS_drv.c ****     /* Update the transfer byte count */
 480              		.loc 1 492 0
 481              		.cfi_startproc
 482              		@ args = 0, pretend = 0, frame = 0
ARM GAS  C:\Users\RABBIT~1\AppData\Local\Temp\ccOHC74T.s 			page 23


 483              		@ frame_needed = 0, uses_anonymous_args = 0
 484 0000 08B5     		push	{r3, lr}
 485              		.cfi_def_cfa_offset 8
 486              		.cfi_offset 3, -8
 487              		.cfi_offset 14, -4
 494:Generated_Source\PSoC5/USBFS_drv.c ****     /* Go Idle */
 488              		.loc 1 494 0
 489 0002 084A     		ldr	r2, .L53
 490 0004 084B     		ldr	r3, .L53+4
 498:Generated_Source\PSoC5/USBFS_drv.c ****     /* We expect no more data, so stall INs and OUTs */
 491              		.loc 1 498 0
 492 0006 0120     		movs	r0, #1
 494:Generated_Source\PSoC5/USBFS_drv.c ****     /* Go Idle */
 493              		.loc 1 494 0
 494 0008 1978     		ldrb	r1, [r3]	@ zero_extendqisi2
 495 000a 1388     		ldrh	r3, [r2]
 496 000c 0B44     		add	r3, r3, r1
 497 000e 9BB2     		uxth	r3, r3
 498 0010 1380     		strh	r3, [r2]	@ movhi
 496:Generated_Source\PSoC5/USBFS_drv.c ****     /* Update the completion block */
 499              		.loc 1 496 0
 500 0012 064B     		ldr	r3, .L53+8
 501 0014 0022     		movs	r2, #0
 502 0016 1A70     		strb	r2, [r3]
 498:Generated_Source\PSoC5/USBFS_drv.c ****     /* We expect no more data, so stall INs and OUTs */
 503              		.loc 1 498 0
 504 0018 FFF7FEFF 		bl	USBFS_UpdateStatusBlock
 505              	.LVL30:
 500:Generated_Source\PSoC5/USBFS_drv.c **** }
 506              		.loc 1 500 0
 507 001c 044B     		ldr	r3, .L53+12
 508 001e 0322     		movs	r2, #3
 509 0020 1A70     		strb	r2, [r3]
 510 0022 08BD     		pop	{r3, pc}
 511              	.L54:
 512              		.align	2
 513              	.L53:
 514 0024 00000000 		.word	USBFS_transferByteCount
 515 0028 00000000 		.word	USBFS_lastPacketSize
 516 002c 00000000 		.word	USBFS_transferState
 517 0030 00000000 		.word	USBFS_ep0Mode
 518              		.cfi_endproc
 519              	.LFE8:
 520              		.size	USBFS_ControlReadStatusStage, .-USBFS_ControlReadStatusStage
 521              		.section	.text.USBFS_HandleOUT,"ax",%progbits
 522              		.align	1
 523              		.global	USBFS_HandleOUT
 524              		.thumb
 525              		.thumb_func
 526              		.type	USBFS_HandleOUT, %function
 527              	USBFS_HandleOUT:
 528              	.LFB3:
 253:Generated_Source\PSoC5/USBFS_drv.c ****     switch (USBFS_transferState)
 529              		.loc 1 253 0
 530              		.cfi_startproc
 531              		@ args = 0, pretend = 0, frame = 0
 532              		@ frame_needed = 0, uses_anonymous_args = 0
ARM GAS  C:\Users\RABBIT~1\AppData\Local\Temp\ccOHC74T.s 			page 24


 533 0000 08B5     		push	{r3, lr}
 534              		.cfi_def_cfa_offset 8
 535              		.cfi_offset 3, -8
 536              		.cfi_offset 14, -4
 254:Generated_Source\PSoC5/USBFS_drv.c ****     {
 537              		.loc 1 254 0
 538 0002 0C4B     		ldr	r3, .L60
 539 0004 1B78     		ldrb	r3, [r3]	@ zero_extendqisi2
 540 0006 DBB2     		uxtb	r3, r3
 541 0008 042B     		cmp	r3, #4
 542 000a 07D0     		beq	.L57
 543 000c 062B     		cmp	r3, #6
 544 000e 09D0     		beq	.L58
 545 0010 022B     		cmp	r3, #2
 546 0012 0DD1     		bne	.L55
 273:Generated_Source\PSoC5/USBFS_drv.c **** 
 547              		.loc 1 273 0
 548 0014 BDE80840 		pop	{r3, lr}
 549              		.cfi_remember_state
 550              		.cfi_restore 14
 551              		.cfi_restore 3
 552              		.cfi_def_cfa_offset 0
 259:Generated_Source\PSoC5/USBFS_drv.c ****             break;
 553              		.loc 1 259 0
 554 0018 FFF7FEBF 		b	USBFS_ControlReadStatusStage
 555              	.LVL31:
 556              	.L57:
 557              		.cfi_restore_state
 273:Generated_Source\PSoC5/USBFS_drv.c **** 
 558              		.loc 1 273 0
 559 001c BDE80840 		pop	{r3, lr}
 560              		.cfi_remember_state
 561              		.cfi_restore 14
 562              		.cfi_restore 3
 563              		.cfi_def_cfa_offset 0
 262:Generated_Source\PSoC5/USBFS_drv.c ****             break;
 564              		.loc 1 262 0
 565 0020 FFF7FEBF 		b	USBFS_ControlWriteDataStage
 566              	.LVL32:
 567              	.L58:
 568              		.cfi_restore_state
 569              	.LBB10:
 570              	.LBB11:
 266:Generated_Source\PSoC5/USBFS_drv.c ****             /* We expect no more data, so stall INs and OUTs */
 571              		.loc 1 266 0
 572 0024 0320     		movs	r0, #3
 573 0026 FFF7FEFF 		bl	USBFS_UpdateStatusBlock
 574              	.LVL33:
 268:Generated_Source\PSoC5/USBFS_drv.c ****             break;
 575              		.loc 1 268 0
 576 002a 034B     		ldr	r3, .L60+4
 577 002c 0322     		movs	r2, #3
 578 002e 1A70     		strb	r2, [r3]
 579              	.L55:
 580 0030 08BD     		pop	{r3, pc}
 581              	.L61:
 582 0032 00BF     		.align	2
ARM GAS  C:\Users\RABBIT~1\AppData\Local\Temp\ccOHC74T.s 			page 25


 583              	.L60:
 584 0034 00000000 		.word	USBFS_transferState
 585 0038 00000000 		.word	USBFS_ep0Mode
 586              	.LBE11:
 587              	.LBE10:
 588              		.cfi_endproc
 589              	.LFE3:
 590              		.size	USBFS_HandleOUT, .-USBFS_HandleOUT
 591              		.section	.text.USBFS_ControlWriteStatusStage,"ax",%progbits
 592              		.align	1
 593              		.global	USBFS_ControlWriteStatusStage
 594              		.thumb
 595              		.thumb_func
 596              		.type	USBFS_ControlWriteStatusStage, %function
 597              	USBFS_ControlWriteStatusStage:
 598              	.LFB11:
 629:Generated_Source\PSoC5/USBFS_drv.c ****     /* Go Idle */
 599              		.loc 1 629 0
 600              		.cfi_startproc
 601              		@ args = 0, pretend = 0, frame = 0
 602              		@ frame_needed = 0, uses_anonymous_args = 0
 603 0000 08B5     		push	{r3, lr}
 604              		.cfi_def_cfa_offset 8
 605              		.cfi_offset 3, -8
 606              		.cfi_offset 14, -4
 631:Generated_Source\PSoC5/USBFS_drv.c ****     /* Update the completion block */
 607              		.loc 1 631 0
 608 0002 054B     		ldr	r3, .L63
 609 0004 0022     		movs	r2, #0
 633:Generated_Source\PSoC5/USBFS_drv.c ****     /* We expect no more data, so stall INs and OUTs */
 610              		.loc 1 633 0
 611 0006 0120     		movs	r0, #1
 631:Generated_Source\PSoC5/USBFS_drv.c ****     /* Update the completion block */
 612              		.loc 1 631 0
 613 0008 1A70     		strb	r2, [r3]
 633:Generated_Source\PSoC5/USBFS_drv.c ****     /* We expect no more data, so stall INs and OUTs */
 614              		.loc 1 633 0
 615 000a FFF7FEFF 		bl	USBFS_UpdateStatusBlock
 616              	.LVL34:
 635:Generated_Source\PSoC5/USBFS_drv.c **** }
 617              		.loc 1 635 0
 618 000e 034B     		ldr	r3, .L63+4
 619 0010 0322     		movs	r2, #3
 620 0012 1A70     		strb	r2, [r3]
 621 0014 08BD     		pop	{r3, pc}
 622              	.L64:
 623 0016 00BF     		.align	2
 624              	.L63:
 625 0018 00000000 		.word	USBFS_transferState
 626 001c 00000000 		.word	USBFS_ep0Mode
 627              		.cfi_endproc
 628              	.LFE11:
 629              		.size	USBFS_ControlWriteStatusStage, .-USBFS_ControlWriteStatusStage
 630              		.section	.text.USBFS_NoDataControlStatusStage,"ax",%progbits
 631              		.align	1
 632              		.global	USBFS_NoDataControlStatusStage
 633              		.thumb
ARM GAS  C:\Users\RABBIT~1\AppData\Local\Temp\ccOHC74T.s 			page 26


 634              		.thumb_func
 635              		.type	USBFS_NoDataControlStatusStage, %function
 636              	USBFS_NoDataControlStatusStage:
 637              	.LFB13:
 699:Generated_Source\PSoC5/USBFS_drv.c ****     /* Change the USB address register if we got a SET_ADDRESS. */
 638              		.loc 1 699 0
 639              		.cfi_startproc
 640              		@ args = 0, pretend = 0, frame = 0
 641              		@ frame_needed = 0, uses_anonymous_args = 0
 642 0000 08B5     		push	{r3, lr}
 643              		.cfi_def_cfa_offset 8
 644              		.cfi_offset 3, -8
 645              		.cfi_offset 14, -4
 701:Generated_Source\PSoC5/USBFS_drv.c ****     {
 646              		.loc 1 701 0
 647 0002 0A4B     		ldr	r3, .L70
 648 0004 1A78     		ldrb	r2, [r3]	@ zero_extendqisi2
 649 0006 32B1     		cbz	r2, .L66
 703:Generated_Source\PSoC5/USBFS_drv.c ****         USBFS_deviceAddress = 0u;
 650              		.loc 1 703 0
 651 0008 1A78     		ldrb	r2, [r3]	@ zero_extendqisi2
 652 000a 0949     		ldr	r1, .L70+4
 653 000c 42F08002 		orr	r2, r2, #128
 654 0010 0A70     		strb	r2, [r1]
 704:Generated_Source\PSoC5/USBFS_drv.c ****     }
 655              		.loc 1 704 0
 656 0012 0022     		movs	r2, #0
 657 0014 1A70     		strb	r2, [r3]
 658              	.L66:
 707:Generated_Source\PSoC5/USBFS_drv.c ****     /* Update the completion block */
 659              		.loc 1 707 0
 660 0016 074B     		ldr	r3, .L70+8
 661 0018 0022     		movs	r2, #0
 709:Generated_Source\PSoC5/USBFS_drv.c ****      /* We expect no more data, so stall INs and OUTs */
 662              		.loc 1 709 0
 663 001a 0120     		movs	r0, #1
 707:Generated_Source\PSoC5/USBFS_drv.c ****     /* Update the completion block */
 664              		.loc 1 707 0
 665 001c 1A70     		strb	r2, [r3]
 709:Generated_Source\PSoC5/USBFS_drv.c ****      /* We expect no more data, so stall INs and OUTs */
 666              		.loc 1 709 0
 667 001e FFF7FEFF 		bl	USBFS_UpdateStatusBlock
 668              	.LVL35:
 711:Generated_Source\PSoC5/USBFS_drv.c **** }
 669              		.loc 1 711 0
 670 0022 054B     		ldr	r3, .L70+12
 671 0024 0322     		movs	r2, #3
 672 0026 1A70     		strb	r2, [r3]
 673 0028 08BD     		pop	{r3, pc}
 674              	.L71:
 675 002a 00BF     		.align	2
 676              	.L70:
 677 002c 00000000 		.word	USBFS_deviceAddress
 678 0030 08600040 		.word	1073766408
 679 0034 00000000 		.word	USBFS_transferState
 680 0038 00000000 		.word	USBFS_ep0Mode
 681              		.cfi_endproc
ARM GAS  C:\Users\RABBIT~1\AppData\Local\Temp\ccOHC74T.s 			page 27


 682              	.LFE13:
 683              		.size	USBFS_NoDataControlStatusStage, .-USBFS_NoDataControlStatusStage
 684              		.section	.text.USBFS_HandleIN,"ax",%progbits
 685              		.align	1
 686              		.global	USBFS_HandleIN
 687              		.thumb
 688              		.thumb_func
 689              		.type	USBFS_HandleIN, %function
 690              	USBFS_HandleIN:
 691              	.LFB2:
 215:Generated_Source\PSoC5/USBFS_drv.c ****     switch (USBFS_transferState)
 692              		.loc 1 215 0
 693              		.cfi_startproc
 694              		@ args = 0, pretend = 0, frame = 0
 695              		@ frame_needed = 0, uses_anonymous_args = 0
 696              		@ link register save eliminated.
 216:Generated_Source\PSoC5/USBFS_drv.c ****     {
 697              		.loc 1 216 0
 698 0000 074B     		ldr	r3, .L78
 699 0002 1B78     		ldrb	r3, [r3]	@ zero_extendqisi2
 700 0004 DBB2     		uxtb	r3, r3
 701 0006 042B     		cmp	r3, #4
 702 0008 05D0     		beq	.L74
 703 000a 062B     		cmp	r3, #6
 704 000c 05D0     		beq	.L75
 705 000e 022B     		cmp	r3, #2
 706 0010 05D1     		bne	.L77
 707              	.LBB12:
 708              	.LBB13:
 465:Generated_Source\PSoC5/USBFS_drv.c **** }
 709              		.loc 1 465 0
 710 0012 FFF7FEBF 		b	USBFS_LoadEP0
 711              	.LVL36:
 712              	.L74:
 713              	.LBE13:
 714              	.LBE12:
 224:Generated_Source\PSoC5/USBFS_drv.c ****             break;
 715              		.loc 1 224 0
 716 0016 FFF7FEBF 		b	USBFS_ControlWriteStatusStage
 717              	.LVL37:
 718              	.L75:
 227:Generated_Source\PSoC5/USBFS_drv.c ****             break;
 719              		.loc 1 227 0
 720 001a FFF7FEBF 		b	USBFS_NoDataControlStatusStage
 721              	.LVL38:
 722              	.L77:
 723 001e 7047     		bx	lr
 724              	.L79:
 725              		.align	2
 726              	.L78:
 727 0020 00000000 		.word	USBFS_transferState
 728              		.cfi_endproc
 729              	.LFE2:
 730              		.size	USBFS_HandleIN, .-USBFS_HandleIN
 731              		.section	.text.USBFS_EP_0_ISR,"ax",%progbits
 732              		.align	1
 733              		.global	USBFS_EP_0_ISR
ARM GAS  C:\Users\RABBIT~1\AppData\Local\Temp\ccOHC74T.s 			page 28


 734              		.thumb
 735              		.thumb_func
 736              		.type	USBFS_EP_0_ISR, %function
 737              	USBFS_EP_0_ISR:
 738              	.LFB0:
  68:Generated_Source\PSoC5/USBFS_drv.c ****     uint8 bRegTemp;
 739              		.loc 1 68 0
 740              		.cfi_startproc
 741              		@ args = 0, pretend = 0, frame = 0
 742              		@ frame_needed = 0, uses_anonymous_args = 0
 743 0000 38B5     		push	{r3, r4, r5, lr}
 744              		.cfi_def_cfa_offset 16
 745              		.cfi_offset 3, -16
 746              		.cfi_offset 4, -12
 747              		.cfi_offset 5, -8
 748              		.cfi_offset 14, -4
  76:Generated_Source\PSoC5/USBFS_drv.c ****     if ((bRegTemp & USBFS_MODE_ACKD) != 0u)
 749              		.loc 1 76 0
 750 0002 1D4C     		ldr	r4, .L97
 751 0004 2378     		ldrb	r3, [r4]	@ zero_extendqisi2
 752 0006 DBB2     		uxtb	r3, r3
 753              	.LVL39:
  77:Generated_Source\PSoC5/USBFS_drv.c ****     {
 754              		.loc 1 77 0
 755 0008 DD06     		lsls	r5, r3, #27
 756 000a 34D5     		bpl	.L80
 757              	.LVL40:
  80:Generated_Source\PSoC5/USBFS_drv.c ****         {
 758              		.loc 1 80 0
 759 000c 1806     		lsls	r0, r3, #24
 760 000e 0AD5     		bpl	.L82
  82:Generated_Source\PSoC5/USBFS_drv.c ****             {
 761              		.loc 1 82 0
 762 0010 03F00F03 		and	r3, r3, #15
 763              	.LVL41:
 764 0014 012B     		cmp	r3, #1
 765 0016 2ED1     		bne	.L80
  88:Generated_Source\PSoC5/USBFS_drv.c ****                 if((USBFS_ep0Mode & USBFS_MODE_SETUP_RCVD) != 0u)
 766              		.loc 1 88 0
 767 0018 FFF7FEFF 		bl	USBFS_HandleSetup
 768              	.LVL42:
  89:Generated_Source\PSoC5/USBFS_drv.c ****                 {
 769              		.loc 1 89 0
 770 001c 174B     		ldr	r3, .L97+4
 771 001e 1B78     		ldrb	r3, [r3]	@ zero_extendqisi2
 772 0020 1906     		lsls	r1, r3, #24
 773 0022 09D5     		bpl	.L84
 774 0024 38BD     		pop	{r3, r4, r5, pc}
 775              	.LVL43:
 776              	.L82:
  96:Generated_Source\PSoC5/USBFS_drv.c ****         {
 777              		.loc 1 96 0
 778 0026 5A06     		lsls	r2, r3, #25
 779 0028 02D5     		bpl	.L85
  98:Generated_Source\PSoC5/USBFS_drv.c ****         }
 780              		.loc 1 98 0
 781 002a FFF7FEFF 		bl	USBFS_HandleIN
ARM GAS  C:\Users\RABBIT~1\AppData\Local\Temp\ccOHC74T.s 			page 29


 782              	.LVL44:
 783 002e 03E0     		b	.L84
 784              	.LVL45:
 785              	.L85:
 100:Generated_Source\PSoC5/USBFS_drv.c ****         {
 786              		.loc 1 100 0
 787 0030 9D06     		lsls	r5, r3, #26
 788 0032 20D5     		bpl	.L80
 102:Generated_Source\PSoC5/USBFS_drv.c ****         }
 789              		.loc 1 102 0
 790 0034 FFF7FEFF 		bl	USBFS_HandleOUT
 791              	.LVL46:
 792              	.L84:
 110:Generated_Source\PSoC5/USBFS_drv.c ****             if((bRegTemp & USBFS_MODE_SETUP_RCVD) == 0u)  /* Check if SETUP bit is not set, otherwi
 793              		.loc 1 110 0
 794 0038 2378     		ldrb	r3, [r4]	@ zero_extendqisi2
 795              	.LVL47:
 111:Generated_Source\PSoC5/USBFS_drv.c ****             {
 796              		.loc 1 111 0
 797 003a 1B06     		lsls	r3, r3, #24
 798              	.LVL48:
 799 003c 1BD4     		bmi	.L80
 114:Generated_Source\PSoC5/USBFS_drv.c ****                 CY_SET_REG8(USBFS_EP0_CNT_PTR, bRegTemp);
 800              		.loc 1 114 0
 801 003e 104B     		ldr	r3, .L97+8
 802 0040 1A78     		ldrb	r2, [r3]	@ zero_extendqisi2
 803 0042 104B     		ldr	r3, .L97+12
 804 0044 1B78     		ldrb	r3, [r3]	@ zero_extendqisi2
 805 0046 1343     		orrs	r3, r3, r2
 806              	.LVL49:
 115:Generated_Source\PSoC5/USBFS_drv.c ****                 if(bRegTemp == CY_GET_REG8(USBFS_EP0_CNT_PTR))   /* continue if writing was success
 807              		.loc 1 115 0
 808 0048 0F4A     		ldr	r2, .L97+16
 809 004a 1370     		strb	r3, [r2]
 116:Generated_Source\PSoC5/USBFS_drv.c ****                 {
 810              		.loc 1 116 0
 811 004c 1278     		ldrb	r2, [r2]	@ zero_extendqisi2
 812 004e 9342     		cmp	r3, r2
 813 0050 11D1     		bne	.L80
 120:Generated_Source\PSoC5/USBFS_drv.c ****                         /* Unlock registers */
 814              		.loc 1 120 0
 815 0052 0A4A     		ldr	r2, .L97+4
 122:Generated_Source\PSoC5/USBFS_drv.c ****                         if(bRegTemp == 0u)                          /* Check if SETUP bit is not se
 816              		.loc 1 122 0
 817 0054 0849     		ldr	r1, .L97
 818 0056 1546     		mov	r5, r2
 819              	.LVL50:
 820              	.L93:
 120:Generated_Source\PSoC5/USBFS_drv.c ****                         /* Unlock registers */
 821              		.loc 1 120 0
 822 0058 1378     		ldrb	r3, [r2]	@ zero_extendqisi2
 122:Generated_Source\PSoC5/USBFS_drv.c ****                         if(bRegTemp == 0u)                          /* Check if SETUP bit is not se
 823              		.loc 1 122 0
 824 005a 2078     		ldrb	r0, [r4]	@ zero_extendqisi2
 120:Generated_Source\PSoC5/USBFS_drv.c ****                         /* Unlock registers */
 825              		.loc 1 120 0
 826 005c DBB2     		uxtb	r3, r3
ARM GAS  C:\Users\RABBIT~1\AppData\Local\Temp\ccOHC74T.s 			page 30


 827              	.LVL51:
 123:Generated_Source\PSoC5/USBFS_drv.c ****                         {
 828              		.loc 1 123 0
 829 005e 0006     		lsls	r0, r0, #24
 830              	.LVL52:
 831 0060 05D4     		bmi	.L86
 126:Generated_Source\PSoC5/USBFS_drv.c ****                             /* Writing check */
 832              		.loc 1 126 0
 833 0062 1378     		ldrb	r3, [r2]	@ zero_extendqisi2
 834              	.LVL53:
 835 0064 DBB2     		uxtb	r3, r3
 836 0066 0B70     		strb	r3, [r1]
 128:Generated_Source\PSoC5/USBFS_drv.c ****                         }
 837              		.loc 1 128 0
 838 0068 0B78     		ldrb	r3, [r1]	@ zero_extendqisi2
 839 006a 03F00F03 		and	r3, r3, #15
 840              	.LVL54:
 841              	.L86:
 130:Generated_Source\PSoC5/USBFS_drv.c ****                 }
 842              		.loc 1 130 0
 843 006e 2878     		ldrb	r0, [r5]	@ zero_extendqisi2
 844 0070 8342     		cmp	r3, r0
 845 0072 F1D1     		bne	.L93
 846 0074 38BD     		pop	{r3, r4, r5, pc}
 847              	.LVL55:
 848              	.L80:
 849 0076 38BD     		pop	{r3, r4, r5, pc}
 850              	.L98:
 851              		.align	2
 852              	.L97:
 853 0078 28600040 		.word	1073766440
 854 007c 00000000 		.word	USBFS_ep0Mode
 855 0080 00000000 		.word	USBFS_ep0Toggle
 856 0084 00000000 		.word	USBFS_ep0Count
 857 0088 29600040 		.word	1073766441
 858              		.cfi_endproc
 859              	.LFE0:
 860              		.size	USBFS_EP_0_ISR, .-USBFS_EP_0_ISR
 861              		.section	.text.USBFS_InitializeStatusBlock,"ax",%progbits
 862              		.align	1
 863              		.global	USBFS_InitializeStatusBlock
 864              		.thumb
 865              		.thumb_func
 866              		.type	USBFS_InitializeStatusBlock, %function
 867              	USBFS_InitializeStatusBlock:
 868              	.LFB15:
 747:Generated_Source\PSoC5/USBFS_drv.c ****     }
 748:Generated_Source\PSoC5/USBFS_drv.c **** }
 749:Generated_Source\PSoC5/USBFS_drv.c **** 
 750:Generated_Source\PSoC5/USBFS_drv.c **** 
 751:Generated_Source\PSoC5/USBFS_drv.c **** /*******************************************************************************
 752:Generated_Source\PSoC5/USBFS_drv.c **** * Function Name: USBFS_InitializeStatusBlock
 753:Generated_Source\PSoC5/USBFS_drv.c **** ********************************************************************************
 754:Generated_Source\PSoC5/USBFS_drv.c **** *
 755:Generated_Source\PSoC5/USBFS_drv.c **** * Summary:
 756:Generated_Source\PSoC5/USBFS_drv.c **** *  Initialize the Completion Status Block for a Request.  The completion
 757:Generated_Source\PSoC5/USBFS_drv.c **** *  code is set to USB_XFER_IDLE.
ARM GAS  C:\Users\RABBIT~1\AppData\Local\Temp\ccOHC74T.s 			page 31


 758:Generated_Source\PSoC5/USBFS_drv.c **** *
 759:Generated_Source\PSoC5/USBFS_drv.c **** *  Also, initializes USBFS_transferByteCount.  Save some space,
 760:Generated_Source\PSoC5/USBFS_drv.c **** *  this is the only consumer.
 761:Generated_Source\PSoC5/USBFS_drv.c **** *
 762:Generated_Source\PSoC5/USBFS_drv.c **** * Parameters:
 763:Generated_Source\PSoC5/USBFS_drv.c **** *  None.
 764:Generated_Source\PSoC5/USBFS_drv.c **** *
 765:Generated_Source\PSoC5/USBFS_drv.c **** * Return:
 766:Generated_Source\PSoC5/USBFS_drv.c **** *  None.
 767:Generated_Source\PSoC5/USBFS_drv.c **** *
 768:Generated_Source\PSoC5/USBFS_drv.c **** * Global variables:
 769:Generated_Source\PSoC5/USBFS_drv.c **** *  USBFS_currentTD.pStatusBlock->status - set to XFER_IDLE.
 770:Generated_Source\PSoC5/USBFS_drv.c **** *  USBFS_currentTD.pStatusBlock->length - cleared.
 771:Generated_Source\PSoC5/USBFS_drv.c **** *  USBFS_transferByteCount - cleared.
 772:Generated_Source\PSoC5/USBFS_drv.c **** *
 773:Generated_Source\PSoC5/USBFS_drv.c **** * Reentrant:
 774:Generated_Source\PSoC5/USBFS_drv.c **** *  No.
 775:Generated_Source\PSoC5/USBFS_drv.c **** *
 776:Generated_Source\PSoC5/USBFS_drv.c **** *******************************************************************************/
 777:Generated_Source\PSoC5/USBFS_drv.c **** void USBFS_InitializeStatusBlock(void) 
 778:Generated_Source\PSoC5/USBFS_drv.c **** {
 869              		.loc 1 778 0
 870              		.cfi_startproc
 871              		@ args = 0, pretend = 0, frame = 0
 872              		@ frame_needed = 0, uses_anonymous_args = 0
 873              		@ link register save eliminated.
 779:Generated_Source\PSoC5/USBFS_drv.c ****     USBFS_transferByteCount = 0u;
 874              		.loc 1 779 0
 875 0000 054A     		ldr	r2, .L104
 876 0002 0023     		movs	r3, #0
 877 0004 1380     		strh	r3, [r2]	@ movhi
 780:Generated_Source\PSoC5/USBFS_drv.c ****     if(USBFS_currentTD.pStatusBlock != NULL)
 878              		.loc 1 780 0
 879 0006 054A     		ldr	r2, .L104+4
 880 0008 9168     		ldr	r1, [r2, #8]
 881 000a 19B1     		cbz	r1, .L99
 781:Generated_Source\PSoC5/USBFS_drv.c ****     {
 782:Generated_Source\PSoC5/USBFS_drv.c ****         USBFS_currentTD.pStatusBlock->status = USBFS_XFER_IDLE;
 882              		.loc 1 782 0
 883 000c 9168     		ldr	r1, [r2, #8]
 884 000e 0B70     		strb	r3, [r1]
 783:Generated_Source\PSoC5/USBFS_drv.c ****         USBFS_currentTD.pStatusBlock->length = 0u;
 885              		.loc 1 783 0
 886 0010 9268     		ldr	r2, [r2, #8]
 887 0012 5380     		strh	r3, [r2, #2]	@ movhi
 888              	.L99:
 889 0014 7047     		bx	lr
 890              	.L105:
 891 0016 00BF     		.align	2
 892              	.L104:
 893 0018 00000000 		.word	USBFS_transferByteCount
 894 001c 00000000 		.word	USBFS_currentTD
 895              		.cfi_endproc
 896              	.LFE15:
 897              		.size	USBFS_InitializeStatusBlock, .-USBFS_InitializeStatusBlock
 898              		.section	.text.USBFS_InitControlRead,"ax",%progbits
 899              		.align	1
ARM GAS  C:\Users\RABBIT~1\AppData\Local\Temp\ccOHC74T.s 			page 32


 900              		.global	USBFS_InitControlRead
 901              		.thumb
 902              		.thumb_func
 903              		.type	USBFS_InitControlRead, %function
 904              	USBFS_InitControlRead:
 905              	.LFB5:
 377:Generated_Source\PSoC5/USBFS_drv.c ****     uint16 xferCount;
 906              		.loc 1 377 0
 907              		.cfi_startproc
 908              		@ args = 0, pretend = 0, frame = 0
 909              		@ frame_needed = 0, uses_anonymous_args = 0
 379:Generated_Source\PSoC5/USBFS_drv.c ****     {
 910              		.loc 1 379 0
 911 0000 0F48     		ldr	r0, .L110
 377:Generated_Source\PSoC5/USBFS_drv.c ****     uint16 xferCount;
 912              		.loc 1 377 0
 913 0002 08B5     		push	{r3, lr}
 914              		.cfi_def_cfa_offset 8
 915              		.cfi_offset 3, -8
 916              		.cfi_offset 14, -4
 379:Generated_Source\PSoC5/USBFS_drv.c ****     {
 917              		.loc 1 379 0
 918 0004 0388     		ldrh	r3, [r0]
 919 0006 9BB2     		uxth	r3, r3
 920 0008 13B9     		cbnz	r3, .L107
 381:Generated_Source\PSoC5/USBFS_drv.c ****     }
 921              		.loc 1 381 0
 922 000a FFF7FEFF 		bl	USBFS_InitZeroLengthControlTransfer
 923              	.LVL56:
 924 000e 14E0     		b	.L108
 925              	.L107:
 386:Generated_Source\PSoC5/USBFS_drv.c ****         /* Set the toggle, it gets updated in LoadEP */
 926              		.loc 1 386 0
 927 0010 0C4B     		ldr	r3, .L110+4
 928 0012 0222     		movs	r2, #2
 929 0014 1A70     		strb	r2, [r3]
 388:Generated_Source\PSoC5/USBFS_drv.c ****         /* Initialize the Status Block */
 930              		.loc 1 388 0
 931 0016 0C4B     		ldr	r3, .L110+8
 932 0018 0022     		movs	r2, #0
 933 001a 1A70     		strb	r2, [r3]
 390:Generated_Source\PSoC5/USBFS_drv.c ****         xferCount = (((uint16)CY_GET_REG8(USBFS_lengthHi) << 8u) | (CY_GET_REG8(USBFS_lengthLo)));
 934              		.loc 1 390 0
 935 001c FFF7FEFF 		bl	USBFS_InitializeStatusBlock
 936              	.LVL57:
 391:Generated_Source\PSoC5/USBFS_drv.c **** 
 937              		.loc 1 391 0
 938 0020 0A4B     		ldr	r3, .L110+12
 939 0022 1A78     		ldrb	r2, [r3]	@ zero_extendqisi2
 940 0024 013B     		subs	r3, r3, #1
 941 0026 1B78     		ldrb	r3, [r3]	@ zero_extendqisi2
 942 0028 43EA0223 		orr	r3, r3, r2, lsl #8
 943              	.LVL58:
 393:Generated_Source\PSoC5/USBFS_drv.c ****         {
 944              		.loc 1 393 0
 945 002c 0288     		ldrh	r2, [r0]
 946 002e 92B2     		uxth	r2, r2
ARM GAS  C:\Users\RABBIT~1\AppData\Local\Temp\ccOHC74T.s 			page 33


 947 0030 9342     		cmp	r3, r2
 395:Generated_Source\PSoC5/USBFS_drv.c ****         }
 948              		.loc 1 395 0
 949 0032 38BF     		it	cc
 950 0034 0380     		strhcc	r3, [r0]	@ movhi
 397:Generated_Source\PSoC5/USBFS_drv.c ****     }
 951              		.loc 1 397 0
 952 0036 FFF7FEFF 		bl	USBFS_LoadEP0
 953              	.LVL59:
 954              	.L108:
 401:Generated_Source\PSoC5/USBFS_drv.c **** 
 955              		.loc 1 401 0
 956 003a 0120     		movs	r0, #1
 957 003c 08BD     		pop	{r3, pc}
 958              	.L111:
 959 003e 00BF     		.align	2
 960              	.L110:
 961 0040 00000000 		.word	USBFS_currentTD
 962 0044 00000000 		.word	USBFS_transferState
 963 0048 00000000 		.word	USBFS_ep0Toggle
 964 004c 07600040 		.word	1073766407
 965              		.cfi_endproc
 966              	.LFE5:
 967              		.size	USBFS_InitControlRead, .-USBFS_InitControlRead
 968              		.section	.text.USBFS_InitControlWrite,"ax",%progbits
 969              		.align	1
 970              		.global	USBFS_InitControlWrite
 971              		.thumb
 972              		.thumb_func
 973              		.type	USBFS_InitControlWrite, %function
 974              	USBFS_InitControlWrite:
 975              	.LFB9:
 527:Generated_Source\PSoC5/USBFS_drv.c ****     uint16 xferCount;
 976              		.loc 1 527 0
 977              		.cfi_startproc
 978              		@ args = 0, pretend = 0, frame = 0
 979              		@ frame_needed = 0, uses_anonymous_args = 0
 980 0000 08B5     		push	{r3, lr}
 981              		.cfi_def_cfa_offset 8
 982              		.cfi_offset 3, -8
 983              		.cfi_offset 14, -4
 531:Generated_Source\PSoC5/USBFS_drv.c ****     /* This might not be necessary */
 984              		.loc 1 531 0
 985 0002 0C4B     		ldr	r3, .L114
 986 0004 0422     		movs	r2, #4
 987 0006 1A70     		strb	r2, [r3]
 533:Generated_Source\PSoC5/USBFS_drv.c ****     /* Initialize the Status Block */
 988              		.loc 1 533 0
 989 0008 0B4B     		ldr	r3, .L114+4
 990 000a 8022     		movs	r2, #128
 991 000c 1A70     		strb	r2, [r3]
 535:Generated_Source\PSoC5/USBFS_drv.c **** 
 992              		.loc 1 535 0
 993 000e FFF7FEFF 		bl	USBFS_InitializeStatusBlock
 994              	.LVL60:
 537:Generated_Source\PSoC5/USBFS_drv.c **** 
 995              		.loc 1 537 0
ARM GAS  C:\Users\RABBIT~1\AppData\Local\Temp\ccOHC74T.s 			page 34


 996 0012 0A4B     		ldr	r3, .L114+8
 539:Generated_Source\PSoC5/USBFS_drv.c ****     {
 997              		.loc 1 539 0
 998 0014 0A49     		ldr	r1, .L114+12
 537:Generated_Source\PSoC5/USBFS_drv.c **** 
 999              		.loc 1 537 0
 1000 0016 1A78     		ldrb	r2, [r3]	@ zero_extendqisi2
 1001 0018 013B     		subs	r3, r3, #1
 1002 001a 1B78     		ldrb	r3, [r3]	@ zero_extendqisi2
 548:Generated_Source\PSoC5/USBFS_drv.c **** 
 1003              		.loc 1 548 0
 1004 001c 0120     		movs	r0, #1
 537:Generated_Source\PSoC5/USBFS_drv.c **** 
 1005              		.loc 1 537 0
 1006 001e 43EA0223 		orr	r3, r3, r2, lsl #8
 1007              	.LVL61:
 539:Generated_Source\PSoC5/USBFS_drv.c ****     {
 1008              		.loc 1 539 0
 1009 0022 0A88     		ldrh	r2, [r1]
 1010 0024 92B2     		uxth	r2, r2
 1011 0026 9342     		cmp	r3, r2
 541:Generated_Source\PSoC5/USBFS_drv.c ****     }
 1012              		.loc 1 541 0
 1013 0028 38BF     		it	cc
 1014 002a 0B80     		strhcc	r3, [r1]	@ movhi
 545:Generated_Source\PSoC5/USBFS_drv.c **** 
 1015              		.loc 1 545 0
 1016 002c 054B     		ldr	r3, .L114+16
 1017              	.LVL62:
 1018 002e 0B22     		movs	r2, #11
 1019 0030 1A70     		strb	r2, [r3]
 548:Generated_Source\PSoC5/USBFS_drv.c **** 
 1020              		.loc 1 548 0
 1021 0032 08BD     		pop	{r3, pc}
 1022              	.L115:
 1023              		.align	2
 1024              	.L114:
 1025 0034 00000000 		.word	USBFS_transferState
 1026 0038 00000000 		.word	USBFS_ep0Toggle
 1027 003c 07600040 		.word	1073766407
 1028 0040 00000000 		.word	USBFS_currentTD
 1029 0044 00000000 		.word	USBFS_ep0Mode
 1030              		.cfi_endproc
 1031              	.LFE9:
 1032              		.size	USBFS_InitControlWrite, .-USBFS_InitControlWrite
 1033              		.comm	USBFS_transferByteCount,2,2
 1034              		.comm	USBFS_ep0Count,1,1
 1035              		.comm	USBFS_ep0Mode,1,1
 1036              		.comm	USBFS_currentTD,12,4
 1037              		.comm	USBFS_transferState,1,1
 1038              		.comm	USBFS_lastPacketSize,1,1
 1039              		.comm	USBFS_ep0Toggle,1,1
 1040              		.comm	USBFS_interfaceClass,4,4
 1041              		.comm	USBFS_device,1,1
 1042              		.comm	USBFS_interfaceStatus,1,1
 1043              		.comm	USBFS_interfaceSetting_last,1,1
 1044              		.comm	USBFS_interfaceSetting,1,1
ARM GAS  C:\Users\RABBIT~1\AppData\Local\Temp\ccOHC74T.s 			page 35


 1045              		.comm	USBFS_deviceStatus,1,1
 1046              		.comm	USBFS_deviceAddress,1,1
 1047              		.comm	USBFS_configurationChanged,1,1
 1048              		.comm	USBFS_interfaceNumber,1,1
 1049              		.comm	USBFS_configuration,1,1
 1050              		.comm	USBFS_EP,108,2
 1051              		.text
 1052              	.Letext0:
 1053              		.file 2 "Generated_Source\\PSoC5\\cytypes.h"
 1054              		.file 3 "Generated_Source\\PSoC5\\USBFS.h"
 1055              		.file 4 "Generated_Source\\PSoC5\\USBFS_pvt.h"