ARM GAS  C:\Users\RABBIT~1\AppData\Local\Temp\ccYRpEyv.s 			page 1


   1              		.syntax unified
   2              		.cpu cortex-m3
   3              		.fpu softvfp
   4              		.eabi_attribute 20, 1
   5              		.eabi_attribute 21, 1
   6              		.eabi_attribute 23, 3
   7              		.eabi_attribute 24, 1
   8              		.eabi_attribute 25, 1
   9              		.eabi_attribute 26, 1
  10              		.eabi_attribute 30, 4
  11              		.eabi_attribute 34, 1
  12              		.eabi_attribute 18, 4
  13              		.thumb
  14              		.syntax unified
  15              		.file	"USBFS_std.c"
  16              		.text
  17              	.Ltext0:
  18              		.cfi_sections	.debug_frame
  19              		.section	.text.USBFS_ConfigReg,"ax",%progbits
  20              		.align	1
  21              		.global	USBFS_ConfigReg
  22              		.thumb
  23              		.thumb_func
  24              		.type	USBFS_ConfigReg, %function
  25              	USBFS_ConfigReg:
  26              	.LFB1:
  27              		.file 1 "Generated_Source\\PSoC5\\USBFS_std.c"
   1:Generated_Source\PSoC5/USBFS_std.c **** /*******************************************************************************
   2:Generated_Source\PSoC5/USBFS_std.c **** * File Name: USBFS_std.c
   3:Generated_Source\PSoC5/USBFS_std.c **** * Version 2.80
   4:Generated_Source\PSoC5/USBFS_std.c **** *
   5:Generated_Source\PSoC5/USBFS_std.c **** * Description:
   6:Generated_Source\PSoC5/USBFS_std.c **** *  USB Standard request handler.
   7:Generated_Source\PSoC5/USBFS_std.c **** *
   8:Generated_Source\PSoC5/USBFS_std.c **** * Note:
   9:Generated_Source\PSoC5/USBFS_std.c **** *
  10:Generated_Source\PSoC5/USBFS_std.c **** ********************************************************************************
  11:Generated_Source\PSoC5/USBFS_std.c **** * Copyright 2008-2014, Cypress Semiconductor Corporation.  All rights reserved.
  12:Generated_Source\PSoC5/USBFS_std.c **** * You may use this file only in accordance with the license, terms, conditions,
  13:Generated_Source\PSoC5/USBFS_std.c **** * disclaimers, and limitations in the end user license agreement accompanying
  14:Generated_Source\PSoC5/USBFS_std.c **** * the software package with which this file was provided.
  15:Generated_Source\PSoC5/USBFS_std.c **** *******************************************************************************/
  16:Generated_Source\PSoC5/USBFS_std.c **** 
  17:Generated_Source\PSoC5/USBFS_std.c **** #include "USBFS.h"
  18:Generated_Source\PSoC5/USBFS_std.c **** #include "USBFS_cdc.h"
  19:Generated_Source\PSoC5/USBFS_std.c **** #include "USBFS_pvt.h"
  20:Generated_Source\PSoC5/USBFS_std.c **** #if defined(USBFS_ENABLE_MIDI_STREAMING)
  21:Generated_Source\PSoC5/USBFS_std.c ****     #include "USBFS_midi.h"
  22:Generated_Source\PSoC5/USBFS_std.c **** #endif /*  USBFS_ENABLE_MIDI_STREAMING*/
  23:Generated_Source\PSoC5/USBFS_std.c **** 
  24:Generated_Source\PSoC5/USBFS_std.c **** 
  25:Generated_Source\PSoC5/USBFS_std.c **** /***************************************
  26:Generated_Source\PSoC5/USBFS_std.c **** *   Static data allocation
  27:Generated_Source\PSoC5/USBFS_std.c **** ***************************************/
  28:Generated_Source\PSoC5/USBFS_std.c **** 
  29:Generated_Source\PSoC5/USBFS_std.c **** #if defined(USBFS_ENABLE_FWSN_STRING)
  30:Generated_Source\PSoC5/USBFS_std.c ****     static volatile uint8 *USBFS_fwSerialNumberStringDescriptor;
ARM GAS  C:\Users\RABBIT~1\AppData\Local\Temp\ccYRpEyv.s 			page 2


  31:Generated_Source\PSoC5/USBFS_std.c ****     static volatile uint8 USBFS_snStringConfirm = USBFS_FALSE;
  32:Generated_Source\PSoC5/USBFS_std.c **** #endif  /* USBFS_ENABLE_FWSN_STRING */
  33:Generated_Source\PSoC5/USBFS_std.c **** 
  34:Generated_Source\PSoC5/USBFS_std.c **** #if defined(USBFS_ENABLE_FWSN_STRING)
  35:Generated_Source\PSoC5/USBFS_std.c **** 
  36:Generated_Source\PSoC5/USBFS_std.c ****     /*******************************************************************************
  37:Generated_Source\PSoC5/USBFS_std.c ****     * Function Name: USBFS_SerialNumString
  38:Generated_Source\PSoC5/USBFS_std.c ****     ********************************************************************************
  39:Generated_Source\PSoC5/USBFS_std.c ****     *
  40:Generated_Source\PSoC5/USBFS_std.c ****     * Summary:
  41:Generated_Source\PSoC5/USBFS_std.c ****     *  Application firmware may supply the source of the USB device descriptors
  42:Generated_Source\PSoC5/USBFS_std.c ****     *  serial number string during runtime.
  43:Generated_Source\PSoC5/USBFS_std.c ****     *
  44:Generated_Source\PSoC5/USBFS_std.c ****     * Parameters:
  45:Generated_Source\PSoC5/USBFS_std.c ****     *  snString:  pointer to string.
  46:Generated_Source\PSoC5/USBFS_std.c ****     *
  47:Generated_Source\PSoC5/USBFS_std.c ****     * Return:
  48:Generated_Source\PSoC5/USBFS_std.c ****     *  None.
  49:Generated_Source\PSoC5/USBFS_std.c ****     *
  50:Generated_Source\PSoC5/USBFS_std.c ****     * Reentrant:
  51:Generated_Source\PSoC5/USBFS_std.c ****     *  No.
  52:Generated_Source\PSoC5/USBFS_std.c ****     *
  53:Generated_Source\PSoC5/USBFS_std.c ****     *******************************************************************************/
  54:Generated_Source\PSoC5/USBFS_std.c ****     void  USBFS_SerialNumString(uint8 snString[]) 
  55:Generated_Source\PSoC5/USBFS_std.c ****     {
  56:Generated_Source\PSoC5/USBFS_std.c ****         USBFS_snStringConfirm = USBFS_FALSE;
  57:Generated_Source\PSoC5/USBFS_std.c ****         if(snString != NULL)
  58:Generated_Source\PSoC5/USBFS_std.c ****         {
  59:Generated_Source\PSoC5/USBFS_std.c ****             /* Check descriptor validation */
  60:Generated_Source\PSoC5/USBFS_std.c ****             if( (snString[0u] > 1u ) && (snString[1u] == USBFS_DESCR_STRING) )
  61:Generated_Source\PSoC5/USBFS_std.c ****             {
  62:Generated_Source\PSoC5/USBFS_std.c ****                 USBFS_fwSerialNumberStringDescriptor = snString;
  63:Generated_Source\PSoC5/USBFS_std.c ****                 USBFS_snStringConfirm = USBFS_TRUE;
  64:Generated_Source\PSoC5/USBFS_std.c ****             }
  65:Generated_Source\PSoC5/USBFS_std.c ****         }
  66:Generated_Source\PSoC5/USBFS_std.c ****     }
  67:Generated_Source\PSoC5/USBFS_std.c **** 
  68:Generated_Source\PSoC5/USBFS_std.c **** #endif  /* USBFS_ENABLE_FWSN_STRING */
  69:Generated_Source\PSoC5/USBFS_std.c **** 
  70:Generated_Source\PSoC5/USBFS_std.c **** 
  71:Generated_Source\PSoC5/USBFS_std.c **** /*******************************************************************************
  72:Generated_Source\PSoC5/USBFS_std.c **** * Function Name: USBFS_HandleStandardRqst
  73:Generated_Source\PSoC5/USBFS_std.c **** ********************************************************************************
  74:Generated_Source\PSoC5/USBFS_std.c **** *
  75:Generated_Source\PSoC5/USBFS_std.c **** * Summary:
  76:Generated_Source\PSoC5/USBFS_std.c **** *  This Routine dispatches standard requests
  77:Generated_Source\PSoC5/USBFS_std.c **** *
  78:Generated_Source\PSoC5/USBFS_std.c **** * Parameters:
  79:Generated_Source\PSoC5/USBFS_std.c **** *  None.
  80:Generated_Source\PSoC5/USBFS_std.c **** *
  81:Generated_Source\PSoC5/USBFS_std.c **** * Return:
  82:Generated_Source\PSoC5/USBFS_std.c **** *  TRUE if request handled.
  83:Generated_Source\PSoC5/USBFS_std.c **** *
  84:Generated_Source\PSoC5/USBFS_std.c **** * Reentrant:
  85:Generated_Source\PSoC5/USBFS_std.c **** *  No.
  86:Generated_Source\PSoC5/USBFS_std.c **** *
  87:Generated_Source\PSoC5/USBFS_std.c **** *******************************************************************************/
ARM GAS  C:\Users\RABBIT~1\AppData\Local\Temp\ccYRpEyv.s 			page 3


  88:Generated_Source\PSoC5/USBFS_std.c **** uint8 USBFS_HandleStandardRqst(void) 
  89:Generated_Source\PSoC5/USBFS_std.c **** {
  90:Generated_Source\PSoC5/USBFS_std.c ****     uint8 requestHandled = USBFS_FALSE;
  91:Generated_Source\PSoC5/USBFS_std.c ****     uint8 interfaceNumber;
  92:Generated_Source\PSoC5/USBFS_std.c ****     uint8 configurationN;
  93:Generated_Source\PSoC5/USBFS_std.c ****     #if defined(USBFS_ENABLE_STRINGS)
  94:Generated_Source\PSoC5/USBFS_std.c ****         volatile uint8 *pStr = 0u;
  95:Generated_Source\PSoC5/USBFS_std.c ****         #if defined(USBFS_ENABLE_DESCRIPTOR_STRINGS)
  96:Generated_Source\PSoC5/USBFS_std.c ****             uint8 nStr;
  97:Generated_Source\PSoC5/USBFS_std.c ****             uint8 descrLength;
  98:Generated_Source\PSoC5/USBFS_std.c ****         #endif /* USBFS_ENABLE_DESCRIPTOR_STRINGS */
  99:Generated_Source\PSoC5/USBFS_std.c ****     #endif /* USBFS_ENABLE_STRINGS */
 100:Generated_Source\PSoC5/USBFS_std.c ****     static volatile uint8 USBFS_tBuffer[USBFS_STATUS_LENGTH_MAX];
 101:Generated_Source\PSoC5/USBFS_std.c ****     const T_USBFS_LUT CYCODE *pTmp;
 102:Generated_Source\PSoC5/USBFS_std.c ****     USBFS_currentTD.count = 0u;
 103:Generated_Source\PSoC5/USBFS_std.c **** 
 104:Generated_Source\PSoC5/USBFS_std.c ****     if ((CY_GET_REG8(USBFS_bmRequestType) & USBFS_RQST_DIR_MASK) == USBFS_RQST_DIR_D2H)
 105:Generated_Source\PSoC5/USBFS_std.c ****     {
 106:Generated_Source\PSoC5/USBFS_std.c ****         /* Control Read */
 107:Generated_Source\PSoC5/USBFS_std.c ****         switch (CY_GET_REG8(USBFS_bRequest))
 108:Generated_Source\PSoC5/USBFS_std.c ****         {
 109:Generated_Source\PSoC5/USBFS_std.c ****             case USBFS_GET_DESCRIPTOR:
 110:Generated_Source\PSoC5/USBFS_std.c ****                 if (CY_GET_REG8(USBFS_wValueHi) == USBFS_DESCR_DEVICE)
 111:Generated_Source\PSoC5/USBFS_std.c ****                 {
 112:Generated_Source\PSoC5/USBFS_std.c ****                     pTmp = USBFS_GetDeviceTablePtr();
 113:Generated_Source\PSoC5/USBFS_std.c ****                     USBFS_currentTD.pData = (volatile uint8 *)pTmp->p_list;
 114:Generated_Source\PSoC5/USBFS_std.c ****                     USBFS_currentTD.count = USBFS_DEVICE_DESCR_LENGTH;
 115:Generated_Source\PSoC5/USBFS_std.c ****                     requestHandled  = USBFS_InitControlRead();
 116:Generated_Source\PSoC5/USBFS_std.c ****                 }
 117:Generated_Source\PSoC5/USBFS_std.c ****                 else if (CY_GET_REG8(USBFS_wValueHi) == USBFS_DESCR_CONFIG)
 118:Generated_Source\PSoC5/USBFS_std.c ****                 {
 119:Generated_Source\PSoC5/USBFS_std.c ****                     pTmp = USBFS_GetConfigTablePtr(CY_GET_REG8(USBFS_wValueLo));
 120:Generated_Source\PSoC5/USBFS_std.c ****                     if( pTmp != NULL )  /* Verify that requested descriptor exists */
 121:Generated_Source\PSoC5/USBFS_std.c ****                     {
 122:Generated_Source\PSoC5/USBFS_std.c ****                         USBFS_currentTD.pData = (volatile uint8 *)pTmp->p_list;
 123:Generated_Source\PSoC5/USBFS_std.c ****                         USBFS_currentTD.count = ((uint16)(USBFS_currentTD.pData)[ \
 124:Generated_Source\PSoC5/USBFS_std.c ****                                           USBFS_CONFIG_DESCR_TOTAL_LENGTH_HI] << 8u) | \
 125:Generated_Source\PSoC5/USBFS_std.c ****                                          (USBFS_currentTD.pData)[USBFS_CONFIG_DESCR_TOTAL_LENGTH_LO
 126:Generated_Source\PSoC5/USBFS_std.c ****                         requestHandled  = USBFS_InitControlRead();
 127:Generated_Source\PSoC5/USBFS_std.c ****                     }
 128:Generated_Source\PSoC5/USBFS_std.c ****                 }
 129:Generated_Source\PSoC5/USBFS_std.c ****                 #if defined(USBFS_ENABLE_STRINGS)
 130:Generated_Source\PSoC5/USBFS_std.c ****                 else if (CY_GET_REG8(USBFS_wValueHi) == USBFS_DESCR_STRING)
 131:Generated_Source\PSoC5/USBFS_std.c ****                 {
 132:Generated_Source\PSoC5/USBFS_std.c ****                     /* Descriptor Strings*/
 133:Generated_Source\PSoC5/USBFS_std.c ****                     #if defined(USBFS_ENABLE_DESCRIPTOR_STRINGS)
 134:Generated_Source\PSoC5/USBFS_std.c ****                         nStr = 0u;
 135:Generated_Source\PSoC5/USBFS_std.c ****                         pStr = (volatile uint8 *)&USBFS_STRING_DESCRIPTORS[0u];
 136:Generated_Source\PSoC5/USBFS_std.c ****                         while ( (CY_GET_REG8(USBFS_wValueLo) > nStr) && (*pStr != 0u) )
 137:Generated_Source\PSoC5/USBFS_std.c ****                         {
 138:Generated_Source\PSoC5/USBFS_std.c ****                             /* Read descriptor length from 1st byte */
 139:Generated_Source\PSoC5/USBFS_std.c ****                             descrLength = *pStr;
 140:Generated_Source\PSoC5/USBFS_std.c ****                             /* Move to next string descriptor */
 141:Generated_Source\PSoC5/USBFS_std.c ****                             pStr = &pStr[descrLength];
 142:Generated_Source\PSoC5/USBFS_std.c ****                             nStr++;
 143:Generated_Source\PSoC5/USBFS_std.c ****                         }
 144:Generated_Source\PSoC5/USBFS_std.c ****                     #endif /*  USBFS_ENABLE_DESCRIPTOR_STRINGS */
ARM GAS  C:\Users\RABBIT~1\AppData\Local\Temp\ccYRpEyv.s 			page 4


 145:Generated_Source\PSoC5/USBFS_std.c ****                     /* Microsoft OS String*/
 146:Generated_Source\PSoC5/USBFS_std.c ****                     #if defined(USBFS_ENABLE_MSOS_STRING)
 147:Generated_Source\PSoC5/USBFS_std.c ****                         if( CY_GET_REG8(USBFS_wValueLo) == USBFS_STRING_MSOS )
 148:Generated_Source\PSoC5/USBFS_std.c ****                         {
 149:Generated_Source\PSoC5/USBFS_std.c ****                             pStr = (volatile uint8 *)&USBFS_MSOS_DESCRIPTOR[0u];
 150:Generated_Source\PSoC5/USBFS_std.c ****                         }
 151:Generated_Source\PSoC5/USBFS_std.c ****                     #endif /*  USBFS_ENABLE_MSOS_STRING*/
 152:Generated_Source\PSoC5/USBFS_std.c ****                     /* SN string */
 153:Generated_Source\PSoC5/USBFS_std.c ****                     #if defined(USBFS_ENABLE_SN_STRING)
 154:Generated_Source\PSoC5/USBFS_std.c ****                         if( (CY_GET_REG8(USBFS_wValueLo) != 0u) &&
 155:Generated_Source\PSoC5/USBFS_std.c ****                             (CY_GET_REG8(USBFS_wValueLo) ==
 156:Generated_Source\PSoC5/USBFS_std.c ****                             USBFS_DEVICE0_DESCR[USBFS_DEVICE_DESCR_SN_SHIFT]) )
 157:Generated_Source\PSoC5/USBFS_std.c ****                         {
 158:Generated_Source\PSoC5/USBFS_std.c **** 
 159:Generated_Source\PSoC5/USBFS_std.c ****                             #if defined(USBFS_ENABLE_IDSN_STRING)
 160:Generated_Source\PSoC5/USBFS_std.c ****                                 /* Read DIE ID and generate string descriptor in RAM */
 161:Generated_Source\PSoC5/USBFS_std.c ****                                 USBFS_ReadDieID(USBFS_idSerialNumberStringDescriptor);
 162:Generated_Source\PSoC5/USBFS_std.c ****                                 pStr = USBFS_idSerialNumberStringDescriptor;
 163:Generated_Source\PSoC5/USBFS_std.c ****                             #elif defined(USBFS_ENABLE_FWSN_STRING)
 164:Generated_Source\PSoC5/USBFS_std.c ****                                 if(USBFS_snStringConfirm != USBFS_FALSE)
 165:Generated_Source\PSoC5/USBFS_std.c ****                                 {
 166:Generated_Source\PSoC5/USBFS_std.c ****                                     pStr = USBFS_fwSerialNumberStringDescriptor;
 167:Generated_Source\PSoC5/USBFS_std.c ****                                 }
 168:Generated_Source\PSoC5/USBFS_std.c ****                                 else
 169:Generated_Source\PSoC5/USBFS_std.c ****                                 {
 170:Generated_Source\PSoC5/USBFS_std.c ****                                     pStr = (volatile uint8 *)&USBFS_SN_STRING_DESCRIPTOR[0u];
 171:Generated_Source\PSoC5/USBFS_std.c ****                                 }
 172:Generated_Source\PSoC5/USBFS_std.c ****                             #else
 173:Generated_Source\PSoC5/USBFS_std.c ****                                 pStr = (volatile uint8 *)&USBFS_SN_STRING_DESCRIPTOR[0u];
 174:Generated_Source\PSoC5/USBFS_std.c ****                             #endif  /* defined(USBFS_ENABLE_IDSN_STRING) */
 175:Generated_Source\PSoC5/USBFS_std.c ****                         }
 176:Generated_Source\PSoC5/USBFS_std.c ****                     #endif    /*  USBFS_ENABLE_SN_STRING */
 177:Generated_Source\PSoC5/USBFS_std.c ****                     if (*pStr != 0u)
 178:Generated_Source\PSoC5/USBFS_std.c ****                     {
 179:Generated_Source\PSoC5/USBFS_std.c ****                         USBFS_currentTD.count = *pStr;
 180:Generated_Source\PSoC5/USBFS_std.c ****                         USBFS_currentTD.pData = pStr;
 181:Generated_Source\PSoC5/USBFS_std.c ****                         requestHandled  = USBFS_InitControlRead();
 182:Generated_Source\PSoC5/USBFS_std.c ****                     }
 183:Generated_Source\PSoC5/USBFS_std.c ****                 }
 184:Generated_Source\PSoC5/USBFS_std.c ****                 #endif /*  USBFS_ENABLE_STRINGS */
 185:Generated_Source\PSoC5/USBFS_std.c ****                 else
 186:Generated_Source\PSoC5/USBFS_std.c ****                 {
 187:Generated_Source\PSoC5/USBFS_std.c ****                     requestHandled = USBFS_DispatchClassRqst();
 188:Generated_Source\PSoC5/USBFS_std.c ****                 }
 189:Generated_Source\PSoC5/USBFS_std.c ****                 break;
 190:Generated_Source\PSoC5/USBFS_std.c ****             case USBFS_GET_STATUS:
 191:Generated_Source\PSoC5/USBFS_std.c ****                 switch ((CY_GET_REG8(USBFS_bmRequestType) & USBFS_RQST_RCPT_MASK))
 192:Generated_Source\PSoC5/USBFS_std.c ****                 {
 193:Generated_Source\PSoC5/USBFS_std.c ****                     case USBFS_RQST_RCPT_EP:
 194:Generated_Source\PSoC5/USBFS_std.c ****                         USBFS_currentTD.count = USBFS_EP_STATUS_LENGTH;
 195:Generated_Source\PSoC5/USBFS_std.c ****                         USBFS_tBuffer[0u] = USBFS_EP[ \
 196:Generated_Source\PSoC5/USBFS_std.c ****                                         CY_GET_REG8(USBFS_wIndexLo) & USBFS_DIR_UNUSED].hwEpState;
 197:Generated_Source\PSoC5/USBFS_std.c ****                         USBFS_tBuffer[1u] = 0u;
 198:Generated_Source\PSoC5/USBFS_std.c ****                         USBFS_currentTD.pData = &USBFS_tBuffer[0u];
 199:Generated_Source\PSoC5/USBFS_std.c ****                         requestHandled  = USBFS_InitControlRead();
 200:Generated_Source\PSoC5/USBFS_std.c ****                         break;
 201:Generated_Source\PSoC5/USBFS_std.c ****                     case USBFS_RQST_RCPT_DEV:
ARM GAS  C:\Users\RABBIT~1\AppData\Local\Temp\ccYRpEyv.s 			page 5


 202:Generated_Source\PSoC5/USBFS_std.c ****                         USBFS_currentTD.count = USBFS_DEVICE_STATUS_LENGTH;
 203:Generated_Source\PSoC5/USBFS_std.c ****                         USBFS_tBuffer[0u] = USBFS_deviceStatus;
 204:Generated_Source\PSoC5/USBFS_std.c ****                         USBFS_tBuffer[1u] = 0u;
 205:Generated_Source\PSoC5/USBFS_std.c ****                         USBFS_currentTD.pData = &USBFS_tBuffer[0u];
 206:Generated_Source\PSoC5/USBFS_std.c ****                         requestHandled  = USBFS_InitControlRead();
 207:Generated_Source\PSoC5/USBFS_std.c ****                         break;
 208:Generated_Source\PSoC5/USBFS_std.c ****                     default:    /* requestHandled is initialized as FALSE by default */
 209:Generated_Source\PSoC5/USBFS_std.c ****                         break;
 210:Generated_Source\PSoC5/USBFS_std.c ****                 }
 211:Generated_Source\PSoC5/USBFS_std.c ****                 break;
 212:Generated_Source\PSoC5/USBFS_std.c ****             case USBFS_GET_CONFIGURATION:
 213:Generated_Source\PSoC5/USBFS_std.c ****                 USBFS_currentTD.count = 1u;
 214:Generated_Source\PSoC5/USBFS_std.c ****                 USBFS_currentTD.pData = (volatile uint8 *)&USBFS_configuration;
 215:Generated_Source\PSoC5/USBFS_std.c ****                 requestHandled  = USBFS_InitControlRead();
 216:Generated_Source\PSoC5/USBFS_std.c ****                 break;
 217:Generated_Source\PSoC5/USBFS_std.c ****             case USBFS_GET_INTERFACE:
 218:Generated_Source\PSoC5/USBFS_std.c ****                 USBFS_currentTD.count = 1u;
 219:Generated_Source\PSoC5/USBFS_std.c ****                 USBFS_currentTD.pData = (volatile uint8 *)&USBFS_interfaceSetting[ \
 220:Generated_Source\PSoC5/USBFS_std.c ****                                                                             CY_GET_REG8(USBFS_wInde
 221:Generated_Source\PSoC5/USBFS_std.c ****                 requestHandled  = USBFS_InitControlRead();
 222:Generated_Source\PSoC5/USBFS_std.c ****                 break;
 223:Generated_Source\PSoC5/USBFS_std.c ****             default: /* requestHandled is initialized as FALSE by default */
 224:Generated_Source\PSoC5/USBFS_std.c ****                 break;
 225:Generated_Source\PSoC5/USBFS_std.c ****         }
 226:Generated_Source\PSoC5/USBFS_std.c ****     }
 227:Generated_Source\PSoC5/USBFS_std.c ****     else {
 228:Generated_Source\PSoC5/USBFS_std.c ****         /* Control Write */
 229:Generated_Source\PSoC5/USBFS_std.c ****         switch (CY_GET_REG8(USBFS_bRequest))
 230:Generated_Source\PSoC5/USBFS_std.c ****         {
 231:Generated_Source\PSoC5/USBFS_std.c ****             case USBFS_SET_ADDRESS:
 232:Generated_Source\PSoC5/USBFS_std.c ****                 USBFS_deviceAddress = CY_GET_REG8(USBFS_wValueLo);
 233:Generated_Source\PSoC5/USBFS_std.c ****                 requestHandled = USBFS_InitNoDataControlTransfer();
 234:Generated_Source\PSoC5/USBFS_std.c ****                 break;
 235:Generated_Source\PSoC5/USBFS_std.c ****             case USBFS_SET_CONFIGURATION:
 236:Generated_Source\PSoC5/USBFS_std.c ****                 configurationN = CY_GET_REG8(USBFS_wValueLo);
 237:Generated_Source\PSoC5/USBFS_std.c ****                 if(configurationN > 0u)
 238:Generated_Source\PSoC5/USBFS_std.c ****                 {   /* Verify that configuration descriptor exists */
 239:Generated_Source\PSoC5/USBFS_std.c ****                     pTmp = USBFS_GetConfigTablePtr(configurationN - 1u);
 240:Generated_Source\PSoC5/USBFS_std.c ****                 }
 241:Generated_Source\PSoC5/USBFS_std.c ****                 /* Responds with a Request Error when configuration number is invalid */
 242:Generated_Source\PSoC5/USBFS_std.c ****                 if (((configurationN > 0u) && (pTmp != NULL)) || (configurationN == 0u))
 243:Generated_Source\PSoC5/USBFS_std.c ****                 {
 244:Generated_Source\PSoC5/USBFS_std.c ****                     /* Set new configuration if it has been changed */
 245:Generated_Source\PSoC5/USBFS_std.c ****                     if(configurationN != USBFS_configuration)
 246:Generated_Source\PSoC5/USBFS_std.c ****                     {
 247:Generated_Source\PSoC5/USBFS_std.c ****                         USBFS_configuration = configurationN;
 248:Generated_Source\PSoC5/USBFS_std.c ****                         USBFS_configurationChanged = USBFS_TRUE;
 249:Generated_Source\PSoC5/USBFS_std.c ****                         USBFS_Config(USBFS_TRUE);
 250:Generated_Source\PSoC5/USBFS_std.c ****                     }
 251:Generated_Source\PSoC5/USBFS_std.c ****                     requestHandled = USBFS_InitNoDataControlTransfer();
 252:Generated_Source\PSoC5/USBFS_std.c ****                 }
 253:Generated_Source\PSoC5/USBFS_std.c ****                 break;
 254:Generated_Source\PSoC5/USBFS_std.c ****             case USBFS_SET_INTERFACE:
 255:Generated_Source\PSoC5/USBFS_std.c ****                 if (USBFS_ValidateAlternateSetting() != 0u)
 256:Generated_Source\PSoC5/USBFS_std.c ****                 {
 257:Generated_Source\PSoC5/USBFS_std.c ****                     interfaceNumber = CY_GET_REG8(USBFS_wIndexLo);
 258:Generated_Source\PSoC5/USBFS_std.c ****                     USBFS_interfaceNumber = interfaceNumber;
ARM GAS  C:\Users\RABBIT~1\AppData\Local\Temp\ccYRpEyv.s 			page 6


 259:Generated_Source\PSoC5/USBFS_std.c ****                     USBFS_configurationChanged = USBFS_TRUE;
 260:Generated_Source\PSoC5/USBFS_std.c ****                     #if ((USBFS_EP_MA == USBFS__MA_DYNAMIC) && \
 261:Generated_Source\PSoC5/USBFS_std.c ****                          (USBFS_EP_MM == USBFS__EP_MANUAL) )
 262:Generated_Source\PSoC5/USBFS_std.c ****                         USBFS_Config(USBFS_FALSE);
 263:Generated_Source\PSoC5/USBFS_std.c ****                     #else
 264:Generated_Source\PSoC5/USBFS_std.c ****                         USBFS_ConfigAltChanged();
 265:Generated_Source\PSoC5/USBFS_std.c ****                     #endif /*  (USBFS_EP_MA == USBFS__MA_DYNAMIC) */
 266:Generated_Source\PSoC5/USBFS_std.c ****                     /* Update handled Alt setting changes status */
 267:Generated_Source\PSoC5/USBFS_std.c ****                     USBFS_interfaceSetting_last[interfaceNumber] =
 268:Generated_Source\PSoC5/USBFS_std.c ****                          USBFS_interfaceSetting[interfaceNumber];
 269:Generated_Source\PSoC5/USBFS_std.c ****                     requestHandled = USBFS_InitNoDataControlTransfer();
 270:Generated_Source\PSoC5/USBFS_std.c ****                 }
 271:Generated_Source\PSoC5/USBFS_std.c ****                 break;
 272:Generated_Source\PSoC5/USBFS_std.c ****             case USBFS_CLEAR_FEATURE:
 273:Generated_Source\PSoC5/USBFS_std.c ****                 switch (CY_GET_REG8(USBFS_bmRequestType) & USBFS_RQST_RCPT_MASK)
 274:Generated_Source\PSoC5/USBFS_std.c ****                 {
 275:Generated_Source\PSoC5/USBFS_std.c ****                     case USBFS_RQST_RCPT_EP:
 276:Generated_Source\PSoC5/USBFS_std.c ****                         if (CY_GET_REG8(USBFS_wValueLo) == USBFS_ENDPOINT_HALT)
 277:Generated_Source\PSoC5/USBFS_std.c ****                         {
 278:Generated_Source\PSoC5/USBFS_std.c ****                             requestHandled = USBFS_ClearEndpointHalt();
 279:Generated_Source\PSoC5/USBFS_std.c ****                         }
 280:Generated_Source\PSoC5/USBFS_std.c ****                         break;
 281:Generated_Source\PSoC5/USBFS_std.c ****                     case USBFS_RQST_RCPT_DEV:
 282:Generated_Source\PSoC5/USBFS_std.c ****                         /* Clear device REMOTE_WAKEUP */
 283:Generated_Source\PSoC5/USBFS_std.c ****                         if (CY_GET_REG8(USBFS_wValueLo) == USBFS_DEVICE_REMOTE_WAKEUP)
 284:Generated_Source\PSoC5/USBFS_std.c ****                         {
 285:Generated_Source\PSoC5/USBFS_std.c ****                             USBFS_deviceStatus &= (uint8)~USBFS_DEVICE_STATUS_REMOTE_WAKEUP;
 286:Generated_Source\PSoC5/USBFS_std.c ****                             requestHandled = USBFS_InitNoDataControlTransfer();
 287:Generated_Source\PSoC5/USBFS_std.c ****                         }
 288:Generated_Source\PSoC5/USBFS_std.c ****                         break;
 289:Generated_Source\PSoC5/USBFS_std.c ****                     case USBFS_RQST_RCPT_IFC:
 290:Generated_Source\PSoC5/USBFS_std.c ****                         /* Validate interfaceNumber */
 291:Generated_Source\PSoC5/USBFS_std.c ****                         if (CY_GET_REG8(USBFS_wIndexLo) < USBFS_MAX_INTERFACES_NUMBER)
 292:Generated_Source\PSoC5/USBFS_std.c ****                         {
 293:Generated_Source\PSoC5/USBFS_std.c ****                             USBFS_interfaceStatus[CY_GET_REG8(USBFS_wIndexLo)] &=
 294:Generated_Source\PSoC5/USBFS_std.c ****                                                                 (uint8)~(CY_GET_REG8(USBFS_wValueLo
 295:Generated_Source\PSoC5/USBFS_std.c ****                             requestHandled = USBFS_InitNoDataControlTransfer();
 296:Generated_Source\PSoC5/USBFS_std.c ****                         }
 297:Generated_Source\PSoC5/USBFS_std.c ****                         break;
 298:Generated_Source\PSoC5/USBFS_std.c ****                     default:    /* requestHandled is initialized as FALSE by default */
 299:Generated_Source\PSoC5/USBFS_std.c ****                         break;
 300:Generated_Source\PSoC5/USBFS_std.c ****                 }
 301:Generated_Source\PSoC5/USBFS_std.c ****                 break;
 302:Generated_Source\PSoC5/USBFS_std.c ****             case USBFS_SET_FEATURE:
 303:Generated_Source\PSoC5/USBFS_std.c ****                 switch (CY_GET_REG8(USBFS_bmRequestType) & USBFS_RQST_RCPT_MASK)
 304:Generated_Source\PSoC5/USBFS_std.c ****                 {
 305:Generated_Source\PSoC5/USBFS_std.c ****                     case USBFS_RQST_RCPT_EP:
 306:Generated_Source\PSoC5/USBFS_std.c ****                         if (CY_GET_REG8(USBFS_wValueLo) == USBFS_ENDPOINT_HALT)
 307:Generated_Source\PSoC5/USBFS_std.c ****                         {
 308:Generated_Source\PSoC5/USBFS_std.c ****                             requestHandled = USBFS_SetEndpointHalt();
 309:Generated_Source\PSoC5/USBFS_std.c ****                         }
 310:Generated_Source\PSoC5/USBFS_std.c ****                         break;
 311:Generated_Source\PSoC5/USBFS_std.c ****                     case USBFS_RQST_RCPT_DEV:
 312:Generated_Source\PSoC5/USBFS_std.c ****                         /* Set device REMOTE_WAKEUP */
 313:Generated_Source\PSoC5/USBFS_std.c ****                         if (CY_GET_REG8(USBFS_wValueLo) == USBFS_DEVICE_REMOTE_WAKEUP)
 314:Generated_Source\PSoC5/USBFS_std.c ****                         {
 315:Generated_Source\PSoC5/USBFS_std.c ****                             USBFS_deviceStatus |= USBFS_DEVICE_STATUS_REMOTE_WAKEUP;
ARM GAS  C:\Users\RABBIT~1\AppData\Local\Temp\ccYRpEyv.s 			page 7


 316:Generated_Source\PSoC5/USBFS_std.c ****                             requestHandled = USBFS_InitNoDataControlTransfer();
 317:Generated_Source\PSoC5/USBFS_std.c ****                         }
 318:Generated_Source\PSoC5/USBFS_std.c ****                         break;
 319:Generated_Source\PSoC5/USBFS_std.c ****                     case USBFS_RQST_RCPT_IFC:
 320:Generated_Source\PSoC5/USBFS_std.c ****                         /* Validate interfaceNumber */
 321:Generated_Source\PSoC5/USBFS_std.c ****                         if (CY_GET_REG8(USBFS_wIndexLo) < USBFS_MAX_INTERFACES_NUMBER)
 322:Generated_Source\PSoC5/USBFS_std.c ****                         {
 323:Generated_Source\PSoC5/USBFS_std.c ****                             USBFS_interfaceStatus[CY_GET_REG8(USBFS_wIndexLo)] &=
 324:Generated_Source\PSoC5/USBFS_std.c ****                                                                 (uint8)~(CY_GET_REG8(USBFS_wValueLo
 325:Generated_Source\PSoC5/USBFS_std.c ****                             requestHandled = USBFS_InitNoDataControlTransfer();
 326:Generated_Source\PSoC5/USBFS_std.c ****                         }
 327:Generated_Source\PSoC5/USBFS_std.c ****                         break;
 328:Generated_Source\PSoC5/USBFS_std.c ****                     default:    /* requestHandled is initialized as FALSE by default */
 329:Generated_Source\PSoC5/USBFS_std.c ****                         break;
 330:Generated_Source\PSoC5/USBFS_std.c ****                 }
 331:Generated_Source\PSoC5/USBFS_std.c ****                 break;
 332:Generated_Source\PSoC5/USBFS_std.c ****             default:    /* requestHandled is initialized as FALSE by default */
 333:Generated_Source\PSoC5/USBFS_std.c ****                 break;
 334:Generated_Source\PSoC5/USBFS_std.c ****         }
 335:Generated_Source\PSoC5/USBFS_std.c ****     }
 336:Generated_Source\PSoC5/USBFS_std.c ****     return(requestHandled);
 337:Generated_Source\PSoC5/USBFS_std.c **** }
 338:Generated_Source\PSoC5/USBFS_std.c **** 
 339:Generated_Source\PSoC5/USBFS_std.c **** 
 340:Generated_Source\PSoC5/USBFS_std.c **** #if defined(USBFS_ENABLE_IDSN_STRING)
 341:Generated_Source\PSoC5/USBFS_std.c **** 
 342:Generated_Source\PSoC5/USBFS_std.c ****     /***************************************************************************
 343:Generated_Source\PSoC5/USBFS_std.c ****     * Function Name: USBFS_ReadDieID
 344:Generated_Source\PSoC5/USBFS_std.c ****     ****************************************************************************
 345:Generated_Source\PSoC5/USBFS_std.c ****     *
 346:Generated_Source\PSoC5/USBFS_std.c ****     * Summary:
 347:Generated_Source\PSoC5/USBFS_std.c ****     *  This routine read Die ID and generate Serial Number string descriptor.
 348:Generated_Source\PSoC5/USBFS_std.c ****     *
 349:Generated_Source\PSoC5/USBFS_std.c ****     * Parameters:
 350:Generated_Source\PSoC5/USBFS_std.c ****     *  descr:  pointer on string descriptor.
 351:Generated_Source\PSoC5/USBFS_std.c ****     *
 352:Generated_Source\PSoC5/USBFS_std.c ****     * Return:
 353:Generated_Source\PSoC5/USBFS_std.c ****     *  None.
 354:Generated_Source\PSoC5/USBFS_std.c ****     *
 355:Generated_Source\PSoC5/USBFS_std.c ****     * Reentrant:
 356:Generated_Source\PSoC5/USBFS_std.c ****     *  No.
 357:Generated_Source\PSoC5/USBFS_std.c ****     *
 358:Generated_Source\PSoC5/USBFS_std.c ****     ***************************************************************************/
 359:Generated_Source\PSoC5/USBFS_std.c ****     void USBFS_ReadDieID(uint8 descr[]) 
 360:Generated_Source\PSoC5/USBFS_std.c ****     {
 361:Generated_Source\PSoC5/USBFS_std.c ****         uint8 i;
 362:Generated_Source\PSoC5/USBFS_std.c ****         uint8 j = 0u;
 363:Generated_Source\PSoC5/USBFS_std.c ****         uint8 value;
 364:Generated_Source\PSoC5/USBFS_std.c ****         const char8 CYCODE hex[16u] = "0123456789ABCDEF";
 365:Generated_Source\PSoC5/USBFS_std.c **** 
 366:Generated_Source\PSoC5/USBFS_std.c ****         /* Check descriptor validation */
 367:Generated_Source\PSoC5/USBFS_std.c ****         if( descr != NULL)
 368:Generated_Source\PSoC5/USBFS_std.c ****         {
 369:Generated_Source\PSoC5/USBFS_std.c ****             descr[0u] = USBFS_IDSN_DESCR_LENGTH;
 370:Generated_Source\PSoC5/USBFS_std.c ****             descr[1u] = USBFS_DESCR_STRING;
 371:Generated_Source\PSoC5/USBFS_std.c **** 
 372:Generated_Source\PSoC5/USBFS_std.c ****             /* fill descriptor */
ARM GAS  C:\Users\RABBIT~1\AppData\Local\Temp\ccYRpEyv.s 			page 8


 373:Generated_Source\PSoC5/USBFS_std.c ****             for(i = 2u; i < USBFS_IDSN_DESCR_LENGTH; i += 4u)
 374:Generated_Source\PSoC5/USBFS_std.c ****             {
 375:Generated_Source\PSoC5/USBFS_std.c ****                 value = CY_GET_XTND_REG8((void CYFAR *)(USBFS_DIE_ID + j));
 376:Generated_Source\PSoC5/USBFS_std.c ****                 j++;
 377:Generated_Source\PSoC5/USBFS_std.c ****                 descr[i] = (uint8)hex[value >> 4u];
 378:Generated_Source\PSoC5/USBFS_std.c ****                 descr[i + 2u] = (uint8)hex[value & 0x0Fu];
 379:Generated_Source\PSoC5/USBFS_std.c ****             }
 380:Generated_Source\PSoC5/USBFS_std.c ****         }
 381:Generated_Source\PSoC5/USBFS_std.c ****     }
 382:Generated_Source\PSoC5/USBFS_std.c **** 
 383:Generated_Source\PSoC5/USBFS_std.c **** #endif /*  USBFS_ENABLE_IDSN_STRING */
 384:Generated_Source\PSoC5/USBFS_std.c **** 
 385:Generated_Source\PSoC5/USBFS_std.c **** 
 386:Generated_Source\PSoC5/USBFS_std.c **** /*******************************************************************************
 387:Generated_Source\PSoC5/USBFS_std.c **** * Function Name: USBFS_ConfigReg
 388:Generated_Source\PSoC5/USBFS_std.c **** ********************************************************************************
 389:Generated_Source\PSoC5/USBFS_std.c **** *
 390:Generated_Source\PSoC5/USBFS_std.c **** * Summary:
 391:Generated_Source\PSoC5/USBFS_std.c **** *  This routine configures hardware registers from the variables.
 392:Generated_Source\PSoC5/USBFS_std.c **** *  It is called from USBFS_Config() function and from RestoreConfig
 393:Generated_Source\PSoC5/USBFS_std.c **** *  after Wakeup.
 394:Generated_Source\PSoC5/USBFS_std.c **** *
 395:Generated_Source\PSoC5/USBFS_std.c **** * Parameters:
 396:Generated_Source\PSoC5/USBFS_std.c **** *  None.
 397:Generated_Source\PSoC5/USBFS_std.c **** *
 398:Generated_Source\PSoC5/USBFS_std.c **** * Return:
 399:Generated_Source\PSoC5/USBFS_std.c **** *  None.
 400:Generated_Source\PSoC5/USBFS_std.c **** *
 401:Generated_Source\PSoC5/USBFS_std.c **** *******************************************************************************/
 402:Generated_Source\PSoC5/USBFS_std.c **** void USBFS_ConfigReg(void) 
 403:Generated_Source\PSoC5/USBFS_std.c **** {
  28              		.loc 1 403 0
  29              		.cfi_startproc
  30              		@ args = 0, pretend = 0, frame = 0
  31              		@ frame_needed = 0, uses_anonymous_args = 0
  32              	.LVL0:
  33 0000 F0B5     		push	{r4, r5, r6, r7, lr}
  34              		.cfi_def_cfa_offset 20
  35              		.cfi_offset 4, -20
  36              		.cfi_offset 5, -16
  37              		.cfi_offset 6, -12
  38              		.cfi_offset 7, -8
  39              		.cfi_offset 14, -4
 404:Generated_Source\PSoC5/USBFS_std.c ****     uint8 ep;
 405:Generated_Source\PSoC5/USBFS_std.c ****     uint8 i;
 406:Generated_Source\PSoC5/USBFS_std.c ****     #if(USBFS_EP_MM == USBFS__EP_DMAAUTO)
 407:Generated_Source\PSoC5/USBFS_std.c ****         uint8 epType = 0u;
 408:Generated_Source\PSoC5/USBFS_std.c ****     #endif /*  USBFS_EP_MM == USBFS__EP_DMAAUTO */
 409:Generated_Source\PSoC5/USBFS_std.c **** 
 410:Generated_Source\PSoC5/USBFS_std.c ****     /* Set the endpoint buffer addresses */
 411:Generated_Source\PSoC5/USBFS_std.c ****     ep = USBFS_EP1;
 412:Generated_Source\PSoC5/USBFS_std.c ****     for (i = 0u; i < 0x80u; i+= 0x10u)
 413:Generated_Source\PSoC5/USBFS_std.c ****     {
 414:Generated_Source\PSoC5/USBFS_std.c ****         CY_SET_REG8((reg8 *)(USBFS_ARB_EP1_CFG_IND + i), USBFS_ARB_EPX_CFG_DEFAULT);
 415:Generated_Source\PSoC5/USBFS_std.c ****         #if(USBFS_EP_MM != USBFS__EP_MANUAL)
 416:Generated_Source\PSoC5/USBFS_std.c ****             /* Enable all Arbiter EP Interrupts : err, buf under, buf over, dma gnt(mode2 only), in
 417:Generated_Source\PSoC5/USBFS_std.c ****             CY_SET_REG8((reg8 *)(USBFS_ARB_EP1_INT_EN_IND + i), USBFS_ARB_EPX_INT_MASK);
ARM GAS  C:\Users\RABBIT~1\AppData\Local\Temp\ccYRpEyv.s 			page 9


 418:Generated_Source\PSoC5/USBFS_std.c ****         #endif   /*  USBFS_EP_MM != USBFS__EP_MANUAL */
 419:Generated_Source\PSoC5/USBFS_std.c **** 
 420:Generated_Source\PSoC5/USBFS_std.c ****         if(USBFS_EP[ep].epMode != USBFS_MODE_DISABLE)
  40              		.loc 1 420 0
  41 0002 1F4D     		ldr	r5, .L8
 403:Generated_Source\PSoC5/USBFS_std.c ****     uint8 ep;
  42              		.loc 1 403 0
  43 0004 1F4B     		ldr	r3, .L8+4
  44 0006 2F46     		mov	r7, r5
 412:Generated_Source\PSoC5/USBFS_std.c ****     {
  45              		.loc 1 412 0
  46 0008 1F4E     		ldr	r6, .L8+8
 403:Generated_Source\PSoC5/USBFS_std.c ****     uint8 ep;
  47              		.loc 1 403 0
  48 000a 0121     		movs	r1, #1
 414:Generated_Source\PSoC5/USBFS_std.c ****         #if(USBFS_EP_MM != USBFS__EP_MANUAL)
  49              		.loc 1 414 0
  50 000c 0C20     		movs	r0, #12
 421:Generated_Source\PSoC5/USBFS_std.c ****         {
 422:Generated_Source\PSoC5/USBFS_std.c ****             if((USBFS_EP[ep].addr & USBFS_DIR_IN) != 0u )
 423:Generated_Source\PSoC5/USBFS_std.c ****             {
 424:Generated_Source\PSoC5/USBFS_std.c ****                 CY_SET_REG8((reg8 *)(USBFS_SIE_EP1_CR0_IND + i), USBFS_MODE_NAK_IN);
 425:Generated_Source\PSoC5/USBFS_std.c ****             }
 426:Generated_Source\PSoC5/USBFS_std.c ****             else
 427:Generated_Source\PSoC5/USBFS_std.c ****             {
 428:Generated_Source\PSoC5/USBFS_std.c ****                 CY_SET_REG8((reg8 *)(USBFS_SIE_EP1_CR0_IND + i), USBFS_MODE_NAK_OUT);
 429:Generated_Source\PSoC5/USBFS_std.c ****                 /* Prepare EP type mask for automatic memory allocation */
 430:Generated_Source\PSoC5/USBFS_std.c ****                 #if(USBFS_EP_MM == USBFS__EP_DMAAUTO)
 431:Generated_Source\PSoC5/USBFS_std.c ****                     epType |= (uint8)(0x01u << (ep - USBFS_EP1));
 432:Generated_Source\PSoC5/USBFS_std.c ****                 #endif /*  USBFS_EP_MM == USBFS__EP_DMAAUTO */
 433:Generated_Source\PSoC5/USBFS_std.c ****             }
 434:Generated_Source\PSoC5/USBFS_std.c ****         }
 435:Generated_Source\PSoC5/USBFS_std.c ****         else
 436:Generated_Source\PSoC5/USBFS_std.c ****         {
 437:Generated_Source\PSoC5/USBFS_std.c ****             CY_SET_REG8((reg8 *)(USBFS_SIE_EP1_CR0_IND + i), USBFS_MODE_STALL_DATA_EP);
  51              		.loc 1 437 0
  52 000e 4FF0800E 		mov	lr, #128
 428:Generated_Source\PSoC5/USBFS_std.c ****                 /* Prepare EP type mask for automatic memory allocation */
  53              		.loc 1 428 0
  54 0012 4FF0080C 		mov	ip, #8
  55              	.LVL1:
  56              	.L5:
 420:Generated_Source\PSoC5/USBFS_std.c ****         {
  57              		.loc 1 420 0
  58 0016 00FB0152 		mla	r2, r0, r1, r5
 414:Generated_Source\PSoC5/USBFS_std.c ****         #if(USBFS_EP_MM != USBFS__EP_MANUAL)
  59              		.loc 1 414 0
  60 001a 83F87200 		strb	r0, [r3, #114]
 420:Generated_Source\PSoC5/USBFS_std.c ****         {
  61              		.loc 1 420 0
  62 001e 5479     		ldrb	r4, [r2, #5]	@ zero_extendqisi2
  63 0020 34B1     		cbz	r4, .L2
 422:Generated_Source\PSoC5/USBFS_std.c ****             {
  64              		.loc 1 422 0
  65 0022 1279     		ldrb	r2, [r2, #4]	@ zero_extendqisi2
  66 0024 1206     		lsls	r2, r2, #24
 424:Generated_Source\PSoC5/USBFS_std.c ****             }
ARM GAS  C:\Users\RABBIT~1\AppData\Local\Temp\ccYRpEyv.s 			page 10


  67              		.loc 1 424 0
  68 0026 4CBF     		ite	mi
  69 0028 1870     		strbmi	r0, [r3]
 428:Generated_Source\PSoC5/USBFS_std.c ****                 /* Prepare EP type mask for automatic memory allocation */
  70              		.loc 1 428 0
  71 002a 83F800C0 		strbpl	ip, [r3]
  72 002e 01E0     		b	.L4
  73              	.L2:
  74              		.loc 1 437 0
  75 0030 83F800E0 		strb	lr, [r3]
  76              	.L4:
 438:Generated_Source\PSoC5/USBFS_std.c ****         }
 439:Generated_Source\PSoC5/USBFS_std.c **** 
 440:Generated_Source\PSoC5/USBFS_std.c ****         #if(USBFS_EP_MM != USBFS__EP_DMAAUTO)
 441:Generated_Source\PSoC5/USBFS_std.c ****             CY_SET_REG8((reg8 *)(USBFS_SIE_EP1_CNT0_IND + i),   USBFS_EP[ep].bufferSize >> 8u);
  77              		.loc 1 441 0 discriminator 2
  78 0034 00FB0172 		mla	r2, r0, r1, r7
  79 0038 1489     		ldrh	r4, [r2, #8]
  80 003a 1033     		adds	r3, r3, #16
  81              	.LVL2:
  82 003c C4F30724 		ubfx	r4, r4, #8, #8
  83 0040 03F8124C 		strb	r4, [r3, #-18]
 442:Generated_Source\PSoC5/USBFS_std.c ****             CY_SET_REG8((reg8 *)(USBFS_SIE_EP1_CNT1_IND + i),   USBFS_EP[ep].bufferSize & 0xFFu);
  84              		.loc 1 442 0 discriminator 2
  85 0044 1489     		ldrh	r4, [r2, #8]
  86 0046 0131     		adds	r1, r1, #1
  87              	.LVL3:
  88 0048 E4B2     		uxtb	r4, r4
  89 004a 03F8114C 		strb	r4, [r3, #-17]
 443:Generated_Source\PSoC5/USBFS_std.c **** 
 444:Generated_Source\PSoC5/USBFS_std.c ****             CY_SET_REG8((reg8 *)(USBFS_ARB_RW1_RA_IND + i),     USBFS_EP[ep].buffOffset & 0xFFu);
  90              		.loc 1 444 0 discriminator 2
  91 004e D488     		ldrh	r4, [r2, #6]
  92 0050 E4B2     		uxtb	r4, r4
  93 0052 83F86840 		strb	r4, [r3, #104]
 445:Generated_Source\PSoC5/USBFS_std.c ****             CY_SET_REG8((reg8 *)(USBFS_ARB_RW1_RA_MSB_IND + i), USBFS_EP[ep].buffOffset >> 8u);
  94              		.loc 1 445 0 discriminator 2
  95 0056 D488     		ldrh	r4, [r2, #6]
  96 0058 C4F30724 		ubfx	r4, r4, #8, #8
  97 005c 83F86940 		strb	r4, [r3, #105]
 446:Generated_Source\PSoC5/USBFS_std.c ****             CY_SET_REG8((reg8 *)(USBFS_ARB_RW1_WA_IND + i),     USBFS_EP[ep].buffOffset & 0xFFu);
  98              		.loc 1 446 0 discriminator 2
  99 0060 D488     		ldrh	r4, [r2, #6]
 100 0062 E4B2     		uxtb	r4, r4
 101 0064 83F86640 		strb	r4, [r3, #102]
 447:Generated_Source\PSoC5/USBFS_std.c ****             CY_SET_REG8((reg8 *)(USBFS_ARB_RW1_WA_MSB_IND + i), USBFS_EP[ep].buffOffset >> 8u);
 102              		.loc 1 447 0 discriminator 2
 103 0068 D288     		ldrh	r2, [r2, #6]
 104 006a C2F30722 		ubfx	r2, r2, #8, #8
 105 006e 83F86720 		strb	r2, [r3, #103]
 106              	.LVL4:
 412:Generated_Source\PSoC5/USBFS_std.c ****     {
 107              		.loc 1 412 0 discriminator 2
 108 0072 B342     		cmp	r3, r6
 109 0074 CFD1     		bne	.L5
 448:Generated_Source\PSoC5/USBFS_std.c ****         #endif /*  USBFS_EP_MM != USBFS__EP_DMAAUTO */
 449:Generated_Source\PSoC5/USBFS_std.c **** 
ARM GAS  C:\Users\RABBIT~1\AppData\Local\Temp\ccYRpEyv.s 			page 11


 450:Generated_Source\PSoC5/USBFS_std.c ****         ep++;
 451:Generated_Source\PSoC5/USBFS_std.c ****     }
 452:Generated_Source\PSoC5/USBFS_std.c **** 
 453:Generated_Source\PSoC5/USBFS_std.c ****     #if(USBFS_EP_MM == USBFS__EP_DMAAUTO)
 454:Generated_Source\PSoC5/USBFS_std.c ****          /* BUF_SIZE depend on DMA_THRESS value: 55-32 bytes  44-16 bytes 33-8 bytes 22-4 bytes 11-
 455:Generated_Source\PSoC5/USBFS_std.c ****         USBFS_BUF_SIZE_REG = USBFS_DMA_BUF_SIZE;
 456:Generated_Source\PSoC5/USBFS_std.c ****         USBFS_DMA_THRES_REG = USBFS_DMA_BYTES_PER_BURST;   /* DMA burst threshold */
 457:Generated_Source\PSoC5/USBFS_std.c ****         USBFS_DMA_THRES_MSB_REG = 0u;
 458:Generated_Source\PSoC5/USBFS_std.c ****         USBFS_EP_ACTIVE_REG = USBFS_ARB_INT_MASK;
 459:Generated_Source\PSoC5/USBFS_std.c ****         USBFS_EP_TYPE_REG = epType;
 460:Generated_Source\PSoC5/USBFS_std.c ****         /* Cfg_cmp bit set to 1 once configuration is complete. */
 461:Generated_Source\PSoC5/USBFS_std.c ****         USBFS_ARB_CFG_REG = USBFS_ARB_CFG_AUTO_DMA | USBFS_ARB_CFG_AUTO_MEM |
 462:Generated_Source\PSoC5/USBFS_std.c ****                                        USBFS_ARB_CFG_CFG_CPM;
 463:Generated_Source\PSoC5/USBFS_std.c ****         /* Cfg_cmp bit set to 0 during configuration of PFSUSB Registers. */
 464:Generated_Source\PSoC5/USBFS_std.c ****         USBFS_ARB_CFG_REG = USBFS_ARB_CFG_AUTO_DMA | USBFS_ARB_CFG_AUTO_MEM;
 465:Generated_Source\PSoC5/USBFS_std.c ****     #endif /*  USBFS_EP_MM == USBFS__EP_DMAAUTO */
 466:Generated_Source\PSoC5/USBFS_std.c **** 
 467:Generated_Source\PSoC5/USBFS_std.c ****     CY_SET_REG8(USBFS_SIE_EP_INT_EN_PTR, 0xFFu);
 110              		.loc 1 467 0
 111 0076 054B     		ldr	r3, .L8+12
 112              	.LVL5:
 113 0078 FF22     		movs	r2, #255
 114 007a 1A70     		strb	r2, [r3]
 115 007c F0BD     		pop	{r4, r5, r6, r7, pc}
 116              	.L9:
 117 007e 00BF     		.align	2
 118              	.L8:
 119 0080 00000000 		.word	USBFS_EP
 120 0084 0E600040 		.word	1073766414
 121 0088 8E600040 		.word	1073766542
 122 008c 0A600040 		.word	1073766410
 123              		.cfi_endproc
 124              	.LFE1:
 125              		.size	USBFS_ConfigReg, .-USBFS_ConfigReg
 126              		.section	.text.USBFS_GetConfigTablePtr,"ax",%progbits
 127              		.align	1
 128              		.global	USBFS_GetConfigTablePtr
 129              		.thumb
 130              		.thumb_func
 131              		.type	USBFS_GetConfigTablePtr, %function
 132              	USBFS_GetConfigTablePtr:
 133              	.LFB4:
 468:Generated_Source\PSoC5/USBFS_std.c **** }
 469:Generated_Source\PSoC5/USBFS_std.c **** 
 470:Generated_Source\PSoC5/USBFS_std.c **** 
 471:Generated_Source\PSoC5/USBFS_std.c **** /*******************************************************************************
 472:Generated_Source\PSoC5/USBFS_std.c **** * Function Name: USBFS_Config
 473:Generated_Source\PSoC5/USBFS_std.c **** ********************************************************************************
 474:Generated_Source\PSoC5/USBFS_std.c **** *
 475:Generated_Source\PSoC5/USBFS_std.c **** * Summary:
 476:Generated_Source\PSoC5/USBFS_std.c **** *  This routine configures endpoints for the entire configuration by scanning
 477:Generated_Source\PSoC5/USBFS_std.c **** *  the configuration descriptor.
 478:Generated_Source\PSoC5/USBFS_std.c **** *
 479:Generated_Source\PSoC5/USBFS_std.c **** * Parameters:
 480:Generated_Source\PSoC5/USBFS_std.c **** *  clearAltSetting: It configures the bAlternateSetting 0 for each interface.
 481:Generated_Source\PSoC5/USBFS_std.c **** *
 482:Generated_Source\PSoC5/USBFS_std.c **** * Return:
ARM GAS  C:\Users\RABBIT~1\AppData\Local\Temp\ccYRpEyv.s 			page 12


 483:Generated_Source\PSoC5/USBFS_std.c **** *  None.
 484:Generated_Source\PSoC5/USBFS_std.c **** *
 485:Generated_Source\PSoC5/USBFS_std.c **** * USBFS_interfaceClass - Initialized class array for each interface.
 486:Generated_Source\PSoC5/USBFS_std.c **** *   It is used for handling Class specific requests depend on interface class.
 487:Generated_Source\PSoC5/USBFS_std.c **** *   Different classes in multiple Alternate settings does not supported.
 488:Generated_Source\PSoC5/USBFS_std.c **** *
 489:Generated_Source\PSoC5/USBFS_std.c **** * Reentrant:
 490:Generated_Source\PSoC5/USBFS_std.c **** *  No.
 491:Generated_Source\PSoC5/USBFS_std.c **** *
 492:Generated_Source\PSoC5/USBFS_std.c **** *******************************************************************************/
 493:Generated_Source\PSoC5/USBFS_std.c **** void USBFS_Config(uint8 clearAltSetting) 
 494:Generated_Source\PSoC5/USBFS_std.c **** {
 495:Generated_Source\PSoC5/USBFS_std.c ****     uint8 ep;
 496:Generated_Source\PSoC5/USBFS_std.c ****     uint8 cur_ep;
 497:Generated_Source\PSoC5/USBFS_std.c ****     uint8 i;
 498:Generated_Source\PSoC5/USBFS_std.c ****     uint8 epType;
 499:Generated_Source\PSoC5/USBFS_std.c ****     const uint8 *pDescr;
 500:Generated_Source\PSoC5/USBFS_std.c ****     #if(USBFS_EP_MM != USBFS__EP_DMAAUTO)
 501:Generated_Source\PSoC5/USBFS_std.c ****         uint16 buffCount = 0u;
 502:Generated_Source\PSoC5/USBFS_std.c ****     #endif /*  USBFS_EP_MM != USBFS__EP_DMAAUTO */
 503:Generated_Source\PSoC5/USBFS_std.c **** 
 504:Generated_Source\PSoC5/USBFS_std.c ****     const T_USBFS_LUT CYCODE *pTmp;
 505:Generated_Source\PSoC5/USBFS_std.c ****     const T_USBFS_EP_SETTINGS_BLOCK CYCODE *pEP;
 506:Generated_Source\PSoC5/USBFS_std.c **** 
 507:Generated_Source\PSoC5/USBFS_std.c ****     /* Clear all of the endpoints */
 508:Generated_Source\PSoC5/USBFS_std.c ****     for (ep = 0u; ep < USBFS_MAX_EP; ep++)
 509:Generated_Source\PSoC5/USBFS_std.c ****     {
 510:Generated_Source\PSoC5/USBFS_std.c ****         USBFS_EP[ep].attrib = 0u;
 511:Generated_Source\PSoC5/USBFS_std.c ****         USBFS_EP[ep].hwEpState = 0u;
 512:Generated_Source\PSoC5/USBFS_std.c ****         USBFS_EP[ep].apiEpState = USBFS_NO_EVENT_PENDING;
 513:Generated_Source\PSoC5/USBFS_std.c ****         USBFS_EP[ep].epToggle = 0u;
 514:Generated_Source\PSoC5/USBFS_std.c ****         USBFS_EP[ep].epMode = USBFS_MODE_DISABLE;
 515:Generated_Source\PSoC5/USBFS_std.c ****         USBFS_EP[ep].bufferSize = 0u;
 516:Generated_Source\PSoC5/USBFS_std.c ****         USBFS_EP[ep].interface = 0u;
 517:Generated_Source\PSoC5/USBFS_std.c **** 
 518:Generated_Source\PSoC5/USBFS_std.c ****     }
 519:Generated_Source\PSoC5/USBFS_std.c **** 
 520:Generated_Source\PSoC5/USBFS_std.c ****     /* Clear Alternate settings for all interfaces */
 521:Generated_Source\PSoC5/USBFS_std.c ****     if(clearAltSetting != 0u)
 522:Generated_Source\PSoC5/USBFS_std.c ****     {
 523:Generated_Source\PSoC5/USBFS_std.c ****         for (i = 0u; i < USBFS_MAX_INTERFACES_NUMBER; i++)
 524:Generated_Source\PSoC5/USBFS_std.c ****         {
 525:Generated_Source\PSoC5/USBFS_std.c ****             USBFS_interfaceSetting[i] = 0x00u;
 526:Generated_Source\PSoC5/USBFS_std.c ****             USBFS_interfaceSetting_last[i] = 0x00u;
 527:Generated_Source\PSoC5/USBFS_std.c ****         }
 528:Generated_Source\PSoC5/USBFS_std.c ****     }
 529:Generated_Source\PSoC5/USBFS_std.c **** 
 530:Generated_Source\PSoC5/USBFS_std.c ****     /* Init Endpoints and Device Status if configured */
 531:Generated_Source\PSoC5/USBFS_std.c ****     if(USBFS_configuration > 0u)
 532:Generated_Source\PSoC5/USBFS_std.c ****     {
 533:Generated_Source\PSoC5/USBFS_std.c ****         pTmp = USBFS_GetConfigTablePtr(USBFS_configuration - 1u);
 534:Generated_Source\PSoC5/USBFS_std.c ****         /* Set Power status for current configuration */
 535:Generated_Source\PSoC5/USBFS_std.c ****         pDescr = (const uint8 *)pTmp->p_list;
 536:Generated_Source\PSoC5/USBFS_std.c ****         if((pDescr[USBFS_CONFIG_DESCR_ATTRIB] & USBFS_CONFIG_DESCR_ATTRIB_SELF_POWERED) != 0u)
 537:Generated_Source\PSoC5/USBFS_std.c ****         {
 538:Generated_Source\PSoC5/USBFS_std.c ****             USBFS_deviceStatus |=  USBFS_DEVICE_STATUS_SELF_POWERED;
 539:Generated_Source\PSoC5/USBFS_std.c ****         }
ARM GAS  C:\Users\RABBIT~1\AppData\Local\Temp\ccYRpEyv.s 			page 13


 540:Generated_Source\PSoC5/USBFS_std.c ****         else
 541:Generated_Source\PSoC5/USBFS_std.c ****         {
 542:Generated_Source\PSoC5/USBFS_std.c ****             USBFS_deviceStatus &=  (uint8)~USBFS_DEVICE_STATUS_SELF_POWERED;
 543:Generated_Source\PSoC5/USBFS_std.c ****         }
 544:Generated_Source\PSoC5/USBFS_std.c ****         /* Move to next element */
 545:Generated_Source\PSoC5/USBFS_std.c ****         pTmp = &pTmp[1u];
 546:Generated_Source\PSoC5/USBFS_std.c ****         ep = pTmp->c;  /* For this table, c is the number of endpoints configurations  */
 547:Generated_Source\PSoC5/USBFS_std.c **** 
 548:Generated_Source\PSoC5/USBFS_std.c ****         #if ((USBFS_EP_MA == USBFS__MA_DYNAMIC) && \
 549:Generated_Source\PSoC5/USBFS_std.c ****              (USBFS_EP_MM == USBFS__EP_MANUAL) )
 550:Generated_Source\PSoC5/USBFS_std.c ****             /* Configure for dynamic EP memory allocation */
 551:Generated_Source\PSoC5/USBFS_std.c ****             /* p_list points the endpoint setting table. */
 552:Generated_Source\PSoC5/USBFS_std.c ****             pEP = (T_USBFS_EP_SETTINGS_BLOCK *) pTmp->p_list;
 553:Generated_Source\PSoC5/USBFS_std.c ****             for (i = 0u; i < ep; i++)
 554:Generated_Source\PSoC5/USBFS_std.c ****             {
 555:Generated_Source\PSoC5/USBFS_std.c ****                 /* Compare current Alternate setting with EP Alt */
 556:Generated_Source\PSoC5/USBFS_std.c ****                 if(USBFS_interfaceSetting[pEP->interface] == pEP->altSetting)
 557:Generated_Source\PSoC5/USBFS_std.c ****                 {
 558:Generated_Source\PSoC5/USBFS_std.c ****                     cur_ep = pEP->addr & USBFS_DIR_UNUSED;
 559:Generated_Source\PSoC5/USBFS_std.c ****                     epType = pEP->attributes & USBFS_EP_TYPE_MASK;
 560:Generated_Source\PSoC5/USBFS_std.c ****                     if (pEP->addr & USBFS_DIR_IN)
 561:Generated_Source\PSoC5/USBFS_std.c ****                     {
 562:Generated_Source\PSoC5/USBFS_std.c ****                         /* IN Endpoint */
 563:Generated_Source\PSoC5/USBFS_std.c ****                         USBFS_EP[cur_ep].apiEpState = USBFS_EVENT_PENDING;
 564:Generated_Source\PSoC5/USBFS_std.c ****                         USBFS_EP[cur_ep].epMode = (epType == USBFS_EP_TYPE_ISOC) ?
 565:Generated_Source\PSoC5/USBFS_std.c ****                                                         USBFS_MODE_ISO_IN : USBFS_MODE_ACK_IN;
 566:Generated_Source\PSoC5/USBFS_std.c ****                         #if defined(USBFS_ENABLE_CDC_CLASS)
 567:Generated_Source\PSoC5/USBFS_std.c ****                             if(((pEP->bMisc == USBFS_CLASS_CDC_DATA) ||
 568:Generated_Source\PSoC5/USBFS_std.c ****                                 (pEP->bMisc == USBFS_CLASS_CDC)) &&
 569:Generated_Source\PSoC5/USBFS_std.c ****                                 (epType != USBFS_EP_TYPE_INT))
 570:Generated_Source\PSoC5/USBFS_std.c ****                             {
 571:Generated_Source\PSoC5/USBFS_std.c ****                                 USBFS_cdc_data_in_ep = cur_ep;
 572:Generated_Source\PSoC5/USBFS_std.c ****                             }
 573:Generated_Source\PSoC5/USBFS_std.c ****                         #endif  /*  USBFS_ENABLE_CDC_CLASS*/
 574:Generated_Source\PSoC5/USBFS_std.c ****                         #if ( defined(USBFS_ENABLE_MIDI_STREAMING) && \
 575:Generated_Source\PSoC5/USBFS_std.c ****                                              (USBFS_MIDI_IN_BUFF_SIZE > 0) )
 576:Generated_Source\PSoC5/USBFS_std.c ****                             if((pEP->bMisc == USBFS_CLASS_AUDIO) &&
 577:Generated_Source\PSoC5/USBFS_std.c ****                                (epType == USBFS_EP_TYPE_BULK))
 578:Generated_Source\PSoC5/USBFS_std.c ****                             {
 579:Generated_Source\PSoC5/USBFS_std.c ****                                 USBFS_midi_in_ep = cur_ep;
 580:Generated_Source\PSoC5/USBFS_std.c ****                             }
 581:Generated_Source\PSoC5/USBFS_std.c ****                         #endif  /*  USBFS_ENABLE_MIDI_STREAMING*/
 582:Generated_Source\PSoC5/USBFS_std.c ****                     }
 583:Generated_Source\PSoC5/USBFS_std.c ****                     else
 584:Generated_Source\PSoC5/USBFS_std.c ****                     {
 585:Generated_Source\PSoC5/USBFS_std.c ****                         /* OUT Endpoint */
 586:Generated_Source\PSoC5/USBFS_std.c ****                         USBFS_EP[cur_ep].apiEpState = USBFS_NO_EVENT_PENDING;
 587:Generated_Source\PSoC5/USBFS_std.c ****                         USBFS_EP[cur_ep].epMode = (epType == USBFS_EP_TYPE_ISOC) ?
 588:Generated_Source\PSoC5/USBFS_std.c ****                                                     USBFS_MODE_ISO_OUT : USBFS_MODE_ACK_OUT;
 589:Generated_Source\PSoC5/USBFS_std.c ****                         #if defined(USBFS_ENABLE_CDC_CLASS)
 590:Generated_Source\PSoC5/USBFS_std.c ****                             if(((pEP->bMisc == USBFS_CLASS_CDC_DATA) ||
 591:Generated_Source\PSoC5/USBFS_std.c ****                                 (pEP->bMisc == USBFS_CLASS_CDC)) &&
 592:Generated_Source\PSoC5/USBFS_std.c ****                                 (epType != USBFS_EP_TYPE_INT))
 593:Generated_Source\PSoC5/USBFS_std.c ****                             {
 594:Generated_Source\PSoC5/USBFS_std.c ****                                 USBFS_cdc_data_out_ep = cur_ep;
 595:Generated_Source\PSoC5/USBFS_std.c ****                             }
 596:Generated_Source\PSoC5/USBFS_std.c ****                         #endif  /*  USBFS_ENABLE_CDC_CLASS*/
ARM GAS  C:\Users\RABBIT~1\AppData\Local\Temp\ccYRpEyv.s 			page 14


 597:Generated_Source\PSoC5/USBFS_std.c ****                         #if ( defined(USBFS_ENABLE_MIDI_STREAMING) && \
 598:Generated_Source\PSoC5/USBFS_std.c ****                                      (USBFS_MIDI_OUT_BUFF_SIZE > 0) )
 599:Generated_Source\PSoC5/USBFS_std.c ****                             if((pEP->bMisc == USBFS_CLASS_AUDIO) &&
 600:Generated_Source\PSoC5/USBFS_std.c ****                                (epType == USBFS_EP_TYPE_BULK))
 601:Generated_Source\PSoC5/USBFS_std.c ****                             {
 602:Generated_Source\PSoC5/USBFS_std.c ****                                 USBFS_midi_out_ep = cur_ep;
 603:Generated_Source\PSoC5/USBFS_std.c ****                             }
 604:Generated_Source\PSoC5/USBFS_std.c ****                         #endif  /*  USBFS_ENABLE_MIDI_STREAMING*/
 605:Generated_Source\PSoC5/USBFS_std.c ****                     }
 606:Generated_Source\PSoC5/USBFS_std.c ****                     USBFS_EP[cur_ep].bufferSize = pEP->bufferSize;
 607:Generated_Source\PSoC5/USBFS_std.c ****                     USBFS_EP[cur_ep].addr = pEP->addr;
 608:Generated_Source\PSoC5/USBFS_std.c ****                     USBFS_EP[cur_ep].attrib = pEP->attributes;
 609:Generated_Source\PSoC5/USBFS_std.c ****                 }
 610:Generated_Source\PSoC5/USBFS_std.c ****                 pEP = &pEP[1u];
 611:Generated_Source\PSoC5/USBFS_std.c ****             }
 612:Generated_Source\PSoC5/USBFS_std.c ****         #else /* Configure for static EP memory allocation  */
 613:Generated_Source\PSoC5/USBFS_std.c ****             for (i = USBFS_EP1; i < USBFS_MAX_EP; i++)
 614:Generated_Source\PSoC5/USBFS_std.c ****             {
 615:Generated_Source\PSoC5/USBFS_std.c ****                 /* p_list points the endpoint setting table. */
 616:Generated_Source\PSoC5/USBFS_std.c ****                 pEP = (const T_USBFS_EP_SETTINGS_BLOCK CYCODE *) pTmp->p_list;
 617:Generated_Source\PSoC5/USBFS_std.c ****                 /* Find max length for each EP and select it (length could be different in differen
 618:Generated_Source\PSoC5/USBFS_std.c ****                 /* but other settings should be correct with regards to Interface alt Setting */
 619:Generated_Source\PSoC5/USBFS_std.c ****                 for (cur_ep = 0u; cur_ep < ep; cur_ep++)
 620:Generated_Source\PSoC5/USBFS_std.c ****                 {
 621:Generated_Source\PSoC5/USBFS_std.c ****                     /* EP count is equal to EP # in table and we found larger EP length than have b
 622:Generated_Source\PSoC5/USBFS_std.c ****                     if(i == (pEP->addr & USBFS_DIR_UNUSED))
 623:Generated_Source\PSoC5/USBFS_std.c ****                     {
 624:Generated_Source\PSoC5/USBFS_std.c ****                         if(USBFS_EP[i].bufferSize < pEP->bufferSize)
 625:Generated_Source\PSoC5/USBFS_std.c ****                         {
 626:Generated_Source\PSoC5/USBFS_std.c ****                             USBFS_EP[i].bufferSize = pEP->bufferSize;
 627:Generated_Source\PSoC5/USBFS_std.c ****                         }
 628:Generated_Source\PSoC5/USBFS_std.c ****                         /* Compare current Alternate setting with EP Alt*/
 629:Generated_Source\PSoC5/USBFS_std.c ****                         if(USBFS_interfaceSetting[pEP->interface] == pEP->altSetting)
 630:Generated_Source\PSoC5/USBFS_std.c ****                         {
 631:Generated_Source\PSoC5/USBFS_std.c ****                             epType = pEP->attributes & USBFS_EP_TYPE_MASK;
 632:Generated_Source\PSoC5/USBFS_std.c ****                             if ((pEP->addr & USBFS_DIR_IN) != 0u)
 633:Generated_Source\PSoC5/USBFS_std.c ****                             {
 634:Generated_Source\PSoC5/USBFS_std.c ****                                 /* IN Endpoint */
 635:Generated_Source\PSoC5/USBFS_std.c ****                                 USBFS_EP[i].apiEpState = USBFS_EVENT_PENDING;
 636:Generated_Source\PSoC5/USBFS_std.c ****                                 USBFS_EP[i].epMode = (epType == USBFS_EP_TYPE_ISOC) ?
 637:Generated_Source\PSoC5/USBFS_std.c ****                                                         USBFS_MODE_ISO_IN : USBFS_MODE_ACK_IN;
 638:Generated_Source\PSoC5/USBFS_std.c ****                                 /* Find and initialize CDC IN endpoint number */
 639:Generated_Source\PSoC5/USBFS_std.c ****                                 #if defined(USBFS_ENABLE_CDC_CLASS)
 640:Generated_Source\PSoC5/USBFS_std.c ****                                     if(((pEP->bMisc == USBFS_CLASS_CDC_DATA) ||
 641:Generated_Source\PSoC5/USBFS_std.c ****                                         (pEP->bMisc == USBFS_CLASS_CDC)) &&
 642:Generated_Source\PSoC5/USBFS_std.c ****                                         (epType != USBFS_EP_TYPE_INT))
 643:Generated_Source\PSoC5/USBFS_std.c ****                                     {
 644:Generated_Source\PSoC5/USBFS_std.c ****                                         USBFS_cdc_data_in_ep = i;
 645:Generated_Source\PSoC5/USBFS_std.c ****                                     }
 646:Generated_Source\PSoC5/USBFS_std.c ****                                 #endif  /*  USBFS_ENABLE_CDC_CLASS*/
 647:Generated_Source\PSoC5/USBFS_std.c ****                                 #if ( defined(USBFS_ENABLE_MIDI_STREAMING) && \
 648:Generated_Source\PSoC5/USBFS_std.c ****                                              (USBFS_MIDI_IN_BUFF_SIZE > 0) )
 649:Generated_Source\PSoC5/USBFS_std.c ****                                     if((pEP->bMisc == USBFS_CLASS_AUDIO) &&
 650:Generated_Source\PSoC5/USBFS_std.c ****                                        (epType == USBFS_EP_TYPE_BULK))
 651:Generated_Source\PSoC5/USBFS_std.c ****                                     {
 652:Generated_Source\PSoC5/USBFS_std.c ****                                         USBFS_midi_in_ep = i;
 653:Generated_Source\PSoC5/USBFS_std.c ****                                     }
ARM GAS  C:\Users\RABBIT~1\AppData\Local\Temp\ccYRpEyv.s 			page 15


 654:Generated_Source\PSoC5/USBFS_std.c ****                                 #endif  /*  USBFS_ENABLE_MIDI_STREAMING*/
 655:Generated_Source\PSoC5/USBFS_std.c ****                             }
 656:Generated_Source\PSoC5/USBFS_std.c ****                             else
 657:Generated_Source\PSoC5/USBFS_std.c ****                             {
 658:Generated_Source\PSoC5/USBFS_std.c ****                                 /* OUT Endpoint */
 659:Generated_Source\PSoC5/USBFS_std.c ****                                 USBFS_EP[i].apiEpState = USBFS_NO_EVENT_PENDING;
 660:Generated_Source\PSoC5/USBFS_std.c ****                                 USBFS_EP[i].epMode = (epType == USBFS_EP_TYPE_ISOC) ?
 661:Generated_Source\PSoC5/USBFS_std.c ****                                                     USBFS_MODE_ISO_OUT : USBFS_MODE_ACK_OUT;
 662:Generated_Source\PSoC5/USBFS_std.c ****                                 /* Find and initialize CDC IN endpoint number */
 663:Generated_Source\PSoC5/USBFS_std.c ****                                 #if defined(USBFS_ENABLE_CDC_CLASS)
 664:Generated_Source\PSoC5/USBFS_std.c ****                                     if(((pEP->bMisc == USBFS_CLASS_CDC_DATA) ||
 665:Generated_Source\PSoC5/USBFS_std.c ****                                         (pEP->bMisc == USBFS_CLASS_CDC)) &&
 666:Generated_Source\PSoC5/USBFS_std.c ****                                         (epType != USBFS_EP_TYPE_INT))
 667:Generated_Source\PSoC5/USBFS_std.c ****                                     {
 668:Generated_Source\PSoC5/USBFS_std.c ****                                         USBFS_cdc_data_out_ep = i;
 669:Generated_Source\PSoC5/USBFS_std.c ****                                     }
 670:Generated_Source\PSoC5/USBFS_std.c ****                                 #endif  /*  USBFS_ENABLE_CDC_CLASS*/
 671:Generated_Source\PSoC5/USBFS_std.c ****                                 #if ( defined(USBFS_ENABLE_MIDI_STREAMING) && \
 672:Generated_Source\PSoC5/USBFS_std.c ****                                              (USBFS_MIDI_OUT_BUFF_SIZE > 0) )
 673:Generated_Source\PSoC5/USBFS_std.c ****                                     if((pEP->bMisc == USBFS_CLASS_AUDIO) &&
 674:Generated_Source\PSoC5/USBFS_std.c ****                                        (epType == USBFS_EP_TYPE_BULK))
 675:Generated_Source\PSoC5/USBFS_std.c ****                                     {
 676:Generated_Source\PSoC5/USBFS_std.c ****                                         USBFS_midi_out_ep = i;
 677:Generated_Source\PSoC5/USBFS_std.c ****                                     }
 678:Generated_Source\PSoC5/USBFS_std.c ****                                 #endif  /*  USBFS_ENABLE_MIDI_STREAMING*/
 679:Generated_Source\PSoC5/USBFS_std.c ****                             }
 680:Generated_Source\PSoC5/USBFS_std.c ****                             USBFS_EP[i].addr = pEP->addr;
 681:Generated_Source\PSoC5/USBFS_std.c ****                             USBFS_EP[i].attrib = pEP->attributes;
 682:Generated_Source\PSoC5/USBFS_std.c **** 
 683:Generated_Source\PSoC5/USBFS_std.c ****                             #if(USBFS_EP_MM == USBFS__EP_DMAAUTO)
 684:Generated_Source\PSoC5/USBFS_std.c ****                                 break;      /* use first EP setting in Auto memory managment */
 685:Generated_Source\PSoC5/USBFS_std.c ****                             #endif /*  USBFS_EP_MM == USBFS__EP_DMAAUTO */
 686:Generated_Source\PSoC5/USBFS_std.c ****                         }
 687:Generated_Source\PSoC5/USBFS_std.c ****                     }
 688:Generated_Source\PSoC5/USBFS_std.c ****                     pEP = &pEP[1u];
 689:Generated_Source\PSoC5/USBFS_std.c ****                 }
 690:Generated_Source\PSoC5/USBFS_std.c ****             }
 691:Generated_Source\PSoC5/USBFS_std.c ****         #endif /*  (USBFS_EP_MA == USBFS__MA_DYNAMIC) */
 692:Generated_Source\PSoC5/USBFS_std.c **** 
 693:Generated_Source\PSoC5/USBFS_std.c ****         /* Init class array for each interface and interface number for each EP.
 694:Generated_Source\PSoC5/USBFS_std.c ****         *  It is used for handling Class specific requests directed to either an
 695:Generated_Source\PSoC5/USBFS_std.c ****         *  interface or the endpoint.
 696:Generated_Source\PSoC5/USBFS_std.c ****         */
 697:Generated_Source\PSoC5/USBFS_std.c ****         /* p_list points the endpoint setting table. */
 698:Generated_Source\PSoC5/USBFS_std.c ****         pEP = (const T_USBFS_EP_SETTINGS_BLOCK CYCODE *) pTmp->p_list;
 699:Generated_Source\PSoC5/USBFS_std.c ****         for (i = 0u; i < ep; i++)
 700:Generated_Source\PSoC5/USBFS_std.c ****         {
 701:Generated_Source\PSoC5/USBFS_std.c ****             /* Configure interface number for each EP*/
 702:Generated_Source\PSoC5/USBFS_std.c ****             USBFS_EP[pEP->addr & USBFS_DIR_UNUSED].interface = pEP->interface;
 703:Generated_Source\PSoC5/USBFS_std.c ****             pEP = &pEP[1u];
 704:Generated_Source\PSoC5/USBFS_std.c ****         }
 705:Generated_Source\PSoC5/USBFS_std.c ****         /* Init pointer on interface class table*/
 706:Generated_Source\PSoC5/USBFS_std.c ****         USBFS_interfaceClass = USBFS_GetInterfaceClassTablePtr();
 707:Generated_Source\PSoC5/USBFS_std.c ****         /* Set the endpoint buffer addresses */
 708:Generated_Source\PSoC5/USBFS_std.c **** 
 709:Generated_Source\PSoC5/USBFS_std.c ****         #if(USBFS_EP_MM != USBFS__EP_DMAAUTO)
 710:Generated_Source\PSoC5/USBFS_std.c ****             for (ep = USBFS_EP1; ep < USBFS_MAX_EP; ep++)
ARM GAS  C:\Users\RABBIT~1\AppData\Local\Temp\ccYRpEyv.s 			page 16


 711:Generated_Source\PSoC5/USBFS_std.c ****             {
 712:Generated_Source\PSoC5/USBFS_std.c ****                 USBFS_EP[ep].buffOffset = buffCount;
 713:Generated_Source\PSoC5/USBFS_std.c ****                  buffCount += USBFS_EP[ep].bufferSize;
 714:Generated_Source\PSoC5/USBFS_std.c ****             }
 715:Generated_Source\PSoC5/USBFS_std.c ****         #endif /*  USBFS_EP_MM != USBFS__EP_DMAAUTO */
 716:Generated_Source\PSoC5/USBFS_std.c **** 
 717:Generated_Source\PSoC5/USBFS_std.c ****         /* Configure hardware registers */
 718:Generated_Source\PSoC5/USBFS_std.c ****         USBFS_ConfigReg();
 719:Generated_Source\PSoC5/USBFS_std.c ****     } /* USBFS_configuration > 0 */
 720:Generated_Source\PSoC5/USBFS_std.c **** }
 721:Generated_Source\PSoC5/USBFS_std.c **** 
 722:Generated_Source\PSoC5/USBFS_std.c **** 
 723:Generated_Source\PSoC5/USBFS_std.c **** /*******************************************************************************
 724:Generated_Source\PSoC5/USBFS_std.c **** * Function Name: USBFS_ConfigAltChanged
 725:Generated_Source\PSoC5/USBFS_std.c **** ********************************************************************************
 726:Generated_Source\PSoC5/USBFS_std.c **** *
 727:Generated_Source\PSoC5/USBFS_std.c **** * Summary:
 728:Generated_Source\PSoC5/USBFS_std.c **** *  This routine update configuration for the required endpoints only.
 729:Generated_Source\PSoC5/USBFS_std.c **** *  It is called after SET_INTERFACE request when Static memory allocation used.
 730:Generated_Source\PSoC5/USBFS_std.c **** *
 731:Generated_Source\PSoC5/USBFS_std.c **** * Parameters:
 732:Generated_Source\PSoC5/USBFS_std.c **** *  None.
 733:Generated_Source\PSoC5/USBFS_std.c **** *
 734:Generated_Source\PSoC5/USBFS_std.c **** * Return:
 735:Generated_Source\PSoC5/USBFS_std.c **** *  None.
 736:Generated_Source\PSoC5/USBFS_std.c **** *
 737:Generated_Source\PSoC5/USBFS_std.c **** * Reentrant:
 738:Generated_Source\PSoC5/USBFS_std.c **** *  No.
 739:Generated_Source\PSoC5/USBFS_std.c **** *
 740:Generated_Source\PSoC5/USBFS_std.c **** *******************************************************************************/
 741:Generated_Source\PSoC5/USBFS_std.c **** void USBFS_ConfigAltChanged(void) 
 742:Generated_Source\PSoC5/USBFS_std.c **** {
 743:Generated_Source\PSoC5/USBFS_std.c ****     uint8 ep;
 744:Generated_Source\PSoC5/USBFS_std.c ****     uint8 cur_ep;
 745:Generated_Source\PSoC5/USBFS_std.c ****     uint8 i;
 746:Generated_Source\PSoC5/USBFS_std.c ****     uint8 epType;
 747:Generated_Source\PSoC5/USBFS_std.c ****     uint8 ri;
 748:Generated_Source\PSoC5/USBFS_std.c **** 
 749:Generated_Source\PSoC5/USBFS_std.c ****     const T_USBFS_LUT CYCODE *pTmp;
 750:Generated_Source\PSoC5/USBFS_std.c ****     const T_USBFS_EP_SETTINGS_BLOCK CYCODE *pEP;
 751:Generated_Source\PSoC5/USBFS_std.c **** 
 752:Generated_Source\PSoC5/USBFS_std.c **** 
 753:Generated_Source\PSoC5/USBFS_std.c ****     /* Init Endpoints and Device Status if configured */
 754:Generated_Source\PSoC5/USBFS_std.c ****     if(USBFS_configuration > 0u)
 755:Generated_Source\PSoC5/USBFS_std.c ****     {
 756:Generated_Source\PSoC5/USBFS_std.c ****         pTmp = USBFS_GetConfigTablePtr(USBFS_configuration - 1u);
 757:Generated_Source\PSoC5/USBFS_std.c ****         pTmp = &pTmp[1u];
 758:Generated_Source\PSoC5/USBFS_std.c ****         ep = pTmp->c;  /* For this table, c is the number of endpoints configurations  */
 759:Generated_Source\PSoC5/USBFS_std.c **** 
 760:Generated_Source\PSoC5/USBFS_std.c ****         /* Do not touch EP which doesn't need reconfiguration */
 761:Generated_Source\PSoC5/USBFS_std.c ****         /* When Alt setting changed, the only required endpoints need to be reconfigured */
 762:Generated_Source\PSoC5/USBFS_std.c ****         /* p_list points the endpoint setting table. */
 763:Generated_Source\PSoC5/USBFS_std.c ****         pEP = (const T_USBFS_EP_SETTINGS_BLOCK CYCODE *) pTmp->p_list;
 764:Generated_Source\PSoC5/USBFS_std.c ****         for (i = 0u; i < ep; i++)
 765:Generated_Source\PSoC5/USBFS_std.c ****         {
 766:Generated_Source\PSoC5/USBFS_std.c ****             /*If Alt setting changed and new is same with EP Alt */
 767:Generated_Source\PSoC5/USBFS_std.c ****             if((USBFS_interfaceSetting[pEP->interface] !=
ARM GAS  C:\Users\RABBIT~1\AppData\Local\Temp\ccYRpEyv.s 			page 17


 768:Generated_Source\PSoC5/USBFS_std.c ****                 USBFS_interfaceSetting_last[pEP->interface] ) &&
 769:Generated_Source\PSoC5/USBFS_std.c ****                (USBFS_interfaceSetting[pEP->interface] == pEP->altSetting) &&
 770:Generated_Source\PSoC5/USBFS_std.c ****                (pEP->interface == CY_GET_REG8(USBFS_wIndexLo)))
 771:Generated_Source\PSoC5/USBFS_std.c ****             {
 772:Generated_Source\PSoC5/USBFS_std.c ****                 cur_ep = pEP->addr & USBFS_DIR_UNUSED;
 773:Generated_Source\PSoC5/USBFS_std.c ****                 ri = ((cur_ep - USBFS_EP1) << USBFS_EPX_CNTX_ADDR_SHIFT);
 774:Generated_Source\PSoC5/USBFS_std.c ****                 epType = pEP->attributes & USBFS_EP_TYPE_MASK;
 775:Generated_Source\PSoC5/USBFS_std.c ****                 if ((pEP->addr & USBFS_DIR_IN) != 0u)
 776:Generated_Source\PSoC5/USBFS_std.c ****                 {
 777:Generated_Source\PSoC5/USBFS_std.c ****                     /* IN Endpoint */
 778:Generated_Source\PSoC5/USBFS_std.c ****                     USBFS_EP[cur_ep].apiEpState = USBFS_EVENT_PENDING;
 779:Generated_Source\PSoC5/USBFS_std.c ****                     USBFS_EP[cur_ep].epMode = (epType == USBFS_EP_TYPE_ISOC) ?
 780:Generated_Source\PSoC5/USBFS_std.c ****                                                 USBFS_MODE_ISO_IN : USBFS_MODE_ACK_IN;
 781:Generated_Source\PSoC5/USBFS_std.c ****                 }
 782:Generated_Source\PSoC5/USBFS_std.c ****                 else
 783:Generated_Source\PSoC5/USBFS_std.c ****                 {
 784:Generated_Source\PSoC5/USBFS_std.c ****                     /* OUT Endpoint */
 785:Generated_Source\PSoC5/USBFS_std.c ****                     USBFS_EP[cur_ep].apiEpState = USBFS_NO_EVENT_PENDING;
 786:Generated_Source\PSoC5/USBFS_std.c ****                     USBFS_EP[cur_ep].epMode = (epType == USBFS_EP_TYPE_ISOC) ?
 787:Generated_Source\PSoC5/USBFS_std.c ****                                                 USBFS_MODE_ISO_OUT : USBFS_MODE_ACK_OUT;
 788:Generated_Source\PSoC5/USBFS_std.c ****                 }
 789:Generated_Source\PSoC5/USBFS_std.c ****                  /* Change the SIE mode for the selected EP to NAK ALL */
 790:Generated_Source\PSoC5/USBFS_std.c ****                  CY_SET_REG8((reg8 *)(USBFS_SIE_EP1_CR0_IND + ri), USBFS_MODE_NAK_IN_OUT);
 791:Generated_Source\PSoC5/USBFS_std.c ****                 USBFS_EP[cur_ep].bufferSize = pEP->bufferSize;
 792:Generated_Source\PSoC5/USBFS_std.c ****                 USBFS_EP[cur_ep].addr = pEP->addr;
 793:Generated_Source\PSoC5/USBFS_std.c ****                 USBFS_EP[cur_ep].attrib = pEP->attributes;
 794:Generated_Source\PSoC5/USBFS_std.c **** 
 795:Generated_Source\PSoC5/USBFS_std.c ****                 /* Clear the data toggle */
 796:Generated_Source\PSoC5/USBFS_std.c ****                 USBFS_EP[cur_ep].epToggle = 0u;
 797:Generated_Source\PSoC5/USBFS_std.c **** 
 798:Generated_Source\PSoC5/USBFS_std.c ****                 /* Dynamic reconfiguration for mode 3 transfer */
 799:Generated_Source\PSoC5/USBFS_std.c ****             #if(USBFS_EP_MM == USBFS__EP_DMAAUTO)
 800:Generated_Source\PSoC5/USBFS_std.c ****                 /* In_data_rdy for selected EP should be set to 0 */
 801:Generated_Source\PSoC5/USBFS_std.c ****                 * (reg8 *)(USBFS_ARB_EP1_CFG_IND + ri) &= (uint8)~USBFS_ARB_EPX_CFG_IN_DATA_RDY;
 802:Generated_Source\PSoC5/USBFS_std.c **** 
 803:Generated_Source\PSoC5/USBFS_std.c ****                 /* write the EP number for which reconfiguration is required */
 804:Generated_Source\PSoC5/USBFS_std.c ****                 USBFS_DYN_RECONFIG_REG = (cur_ep - USBFS_EP1) <<
 805:Generated_Source\PSoC5/USBFS_std.c ****                                                     USBFS_DYN_RECONFIG_EP_SHIFT;
 806:Generated_Source\PSoC5/USBFS_std.c ****                 /* Set the dyn_config_en bit in dynamic reconfiguration register */
 807:Generated_Source\PSoC5/USBFS_std.c ****                 USBFS_DYN_RECONFIG_REG |= USBFS_DYN_RECONFIG_ENABLE;
 808:Generated_Source\PSoC5/USBFS_std.c ****                 /* wait for the dyn_config_rdy bit to set by the block,
 809:Generated_Source\PSoC5/USBFS_std.c ****                 *  this bit will be set to 1 when block is ready for reconfiguration.
 810:Generated_Source\PSoC5/USBFS_std.c ****                 */
 811:Generated_Source\PSoC5/USBFS_std.c ****                 while((USBFS_DYN_RECONFIG_REG & USBFS_DYN_RECONFIG_RDY_STS) == 0u)
 812:Generated_Source\PSoC5/USBFS_std.c ****                 {
 813:Generated_Source\PSoC5/USBFS_std.c ****                     ;
 814:Generated_Source\PSoC5/USBFS_std.c ****                 }
 815:Generated_Source\PSoC5/USBFS_std.c ****                 /* Once dyn_config_rdy bit is set, FW can change the EP configuration. */
 816:Generated_Source\PSoC5/USBFS_std.c ****                 /* Change EP Type with new direction */
 817:Generated_Source\PSoC5/USBFS_std.c ****                 if((pEP->addr & USBFS_DIR_IN) == 0u)
 818:Generated_Source\PSoC5/USBFS_std.c ****                 {
 819:Generated_Source\PSoC5/USBFS_std.c ****                     USBFS_EP_TYPE_REG |= (uint8)(0x01u << (cur_ep - USBFS_EP1));
 820:Generated_Source\PSoC5/USBFS_std.c ****                 }
 821:Generated_Source\PSoC5/USBFS_std.c ****                 else
 822:Generated_Source\PSoC5/USBFS_std.c ****                 {
 823:Generated_Source\PSoC5/USBFS_std.c ****                     USBFS_EP_TYPE_REG &= (uint8)~(uint8)(0x01u << (cur_ep - USBFS_EP1));
 824:Generated_Source\PSoC5/USBFS_std.c ****                 }
ARM GAS  C:\Users\RABBIT~1\AppData\Local\Temp\ccYRpEyv.s 			page 18


 825:Generated_Source\PSoC5/USBFS_std.c ****                 /* dynamic reconfiguration enable bit cleared, pointers and control/status
 826:Generated_Source\PSoC5/USBFS_std.c ****                 *  signals for the selected EP is cleared/re-initialized on negative edge
 827:Generated_Source\PSoC5/USBFS_std.c ****                 *  of dynamic reconfiguration enable bit).
 828:Generated_Source\PSoC5/USBFS_std.c ****                 */
 829:Generated_Source\PSoC5/USBFS_std.c ****                 USBFS_DYN_RECONFIG_REG &= (uint8)~USBFS_DYN_RECONFIG_ENABLE;
 830:Generated_Source\PSoC5/USBFS_std.c ****                 /* The main loop has to re-enable DMA and OUT endpoint*/
 831:Generated_Source\PSoC5/USBFS_std.c ****             #else
 832:Generated_Source\PSoC5/USBFS_std.c ****                 CY_SET_REG8((reg8 *)(USBFS_SIE_EP1_CNT0_IND + ri),
 833:Generated_Source\PSoC5/USBFS_std.c ****                                                                 USBFS_EP[cur_ep].bufferSize >> 8u);
 834:Generated_Source\PSoC5/USBFS_std.c ****                 CY_SET_REG8((reg8 *)(USBFS_SIE_EP1_CNT1_IND + ri),
 835:Generated_Source\PSoC5/USBFS_std.c ****                                                                 USBFS_EP[cur_ep].bufferSize & 0xFFu
 836:Generated_Source\PSoC5/USBFS_std.c ****                 CY_SET_REG8((reg8 *)(USBFS_ARB_RW1_RA_IND + ri),
 837:Generated_Source\PSoC5/USBFS_std.c ****                                                                 USBFS_EP[cur_ep].buffOffset & 0xFFu
 838:Generated_Source\PSoC5/USBFS_std.c ****                 CY_SET_REG8((reg8 *)(USBFS_ARB_RW1_RA_MSB_IND + ri),
 839:Generated_Source\PSoC5/USBFS_std.c ****                                                                 USBFS_EP[cur_ep].buffOffset >> 8u);
 840:Generated_Source\PSoC5/USBFS_std.c ****                 CY_SET_REG8((reg8 *)(USBFS_ARB_RW1_WA_IND + ri),
 841:Generated_Source\PSoC5/USBFS_std.c ****                                                                 USBFS_EP[cur_ep].buffOffset & 0xFFu
 842:Generated_Source\PSoC5/USBFS_std.c ****                 CY_SET_REG8((reg8 *)(USBFS_ARB_RW1_WA_MSB_IND + ri),
 843:Generated_Source\PSoC5/USBFS_std.c ****                                                                 USBFS_EP[cur_ep].buffOffset >> 8u);
 844:Generated_Source\PSoC5/USBFS_std.c ****             #endif /*  USBFS_EP_MM == USBFS__EP_DMAAUTO */
 845:Generated_Source\PSoC5/USBFS_std.c ****             }
 846:Generated_Source\PSoC5/USBFS_std.c ****             /* Get next EP element */
 847:Generated_Source\PSoC5/USBFS_std.c ****             pEP = &pEP[1u];
 848:Generated_Source\PSoC5/USBFS_std.c ****         }
 849:Generated_Source\PSoC5/USBFS_std.c ****     }   /* USBFS_configuration > 0 */
 850:Generated_Source\PSoC5/USBFS_std.c **** }
 851:Generated_Source\PSoC5/USBFS_std.c **** 
 852:Generated_Source\PSoC5/USBFS_std.c **** 
 853:Generated_Source\PSoC5/USBFS_std.c **** /*******************************************************************************
 854:Generated_Source\PSoC5/USBFS_std.c **** * Function Name: USBFS_GetConfigTablePtr
 855:Generated_Source\PSoC5/USBFS_std.c **** ********************************************************************************
 856:Generated_Source\PSoC5/USBFS_std.c **** *
 857:Generated_Source\PSoC5/USBFS_std.c **** * Summary:
 858:Generated_Source\PSoC5/USBFS_std.c **** *  This routine returns a pointer a configuration table entry
 859:Generated_Source\PSoC5/USBFS_std.c **** *
 860:Generated_Source\PSoC5/USBFS_std.c **** * Parameters:
 861:Generated_Source\PSoC5/USBFS_std.c **** *  confIndex:  Configuration Index
 862:Generated_Source\PSoC5/USBFS_std.c **** *
 863:Generated_Source\PSoC5/USBFS_std.c **** * Return:
 864:Generated_Source\PSoC5/USBFS_std.c **** *  Device Descriptor pointer or NULL when descriptor isn't exists.
 865:Generated_Source\PSoC5/USBFS_std.c **** *
 866:Generated_Source\PSoC5/USBFS_std.c **** *******************************************************************************/
 867:Generated_Source\PSoC5/USBFS_std.c **** const T_USBFS_LUT CYCODE *USBFS_GetConfigTablePtr(uint8 confIndex)
 868:Generated_Source\PSoC5/USBFS_std.c ****                                                         
 869:Generated_Source\PSoC5/USBFS_std.c **** {
 134              		.loc 1 869 0
 135              		.cfi_startproc
 136              		@ args = 0, pretend = 0, frame = 0
 137              		@ frame_needed = 0, uses_anonymous_args = 0
 138              		@ link register save eliminated.
 139              	.LVL6:
 870:Generated_Source\PSoC5/USBFS_std.c ****     /* Device Table */
 871:Generated_Source\PSoC5/USBFS_std.c ****     const T_USBFS_LUT CYCODE *pTmp;
 872:Generated_Source\PSoC5/USBFS_std.c **** 
 873:Generated_Source\PSoC5/USBFS_std.c ****     pTmp = (const T_USBFS_LUT CYCODE *) USBFS_TABLE[USBFS_device].p_list;
 140              		.loc 1 873 0
 141 0000 064B     		ldr	r3, .L13
ARM GAS  C:\Users\RABBIT~1\AppData\Local\Temp\ccYRpEyv.s 			page 19


 142 0002 074A     		ldr	r2, .L13+4
 143 0004 1B78     		ldrb	r3, [r3]	@ zero_extendqisi2
 144 0006 02EBC302 		add	r2, r2, r3, lsl #3
 145 000a 5368     		ldr	r3, [r2, #4]
 146              	.LVL7:
 874:Generated_Source\PSoC5/USBFS_std.c **** 
 875:Generated_Source\PSoC5/USBFS_std.c ****     /* The first entry points to the Device Descriptor,
 876:Generated_Source\PSoC5/USBFS_std.c ****     *  the rest configuration entries.
 877:Generated_Source\PSoC5/USBFS_std.c ****     *  Set pointer to the first Configuration Descriptor
 878:Generated_Source\PSoC5/USBFS_std.c ****     */
 879:Generated_Source\PSoC5/USBFS_std.c ****     pTmp = &pTmp[1u];
 880:Generated_Source\PSoC5/USBFS_std.c ****     /* For this table, c is the number of configuration descriptors  */
 881:Generated_Source\PSoC5/USBFS_std.c ****     if(confIndex >= pTmp->c)   /* Verify that required configuration descriptor exists */
 147              		.loc 1 881 0
 148 000c 1A7A     		ldrb	r2, [r3, #8]	@ zero_extendqisi2
 149 000e 8242     		cmp	r2, r0
 882:Generated_Source\PSoC5/USBFS_std.c ****     {
 883:Generated_Source\PSoC5/USBFS_std.c ****         pTmp = (const T_USBFS_LUT CYCODE *) NULL;
 884:Generated_Source\PSoC5/USBFS_std.c ****     }
 885:Generated_Source\PSoC5/USBFS_std.c ****     else
 886:Generated_Source\PSoC5/USBFS_std.c ****     {
 887:Generated_Source\PSoC5/USBFS_std.c ****         pTmp = (const T_USBFS_LUT CYCODE *) pTmp[confIndex].p_list;
 150              		.loc 1 887 0
 151 0010 86BF     		itte	hi
 152 0012 03EBC003 		addhi	r3, r3, r0, lsl #3
 153              	.LVL8:
 154 0016 D868     		ldrhi	r0, [r3, #12]
 155              	.LVL9:
 883:Generated_Source\PSoC5/USBFS_std.c ****     }
 156              		.loc 1 883 0
 157 0018 0020     		movls	r0, #0
 158              	.LVL10:
 888:Generated_Source\PSoC5/USBFS_std.c ****     }
 889:Generated_Source\PSoC5/USBFS_std.c **** 
 890:Generated_Source\PSoC5/USBFS_std.c ****     return( pTmp );
 891:Generated_Source\PSoC5/USBFS_std.c **** }
 159              		.loc 1 891 0
 160 001a 7047     		bx	lr
 161              	.L14:
 162              		.align	2
 163              	.L13:
 164 001c 00000000 		.word	USBFS_device
 165 0020 00000000 		.word	USBFS_TABLE
 166              		.cfi_endproc
 167              	.LFE4:
 168              		.size	USBFS_GetConfigTablePtr, .-USBFS_GetConfigTablePtr
 169              		.section	.text.USBFS_ConfigAltChanged,"ax",%progbits
 170              		.align	1
 171              		.global	USBFS_ConfigAltChanged
 172              		.thumb
 173              		.thumb_func
 174              		.type	USBFS_ConfigAltChanged, %function
 175              	USBFS_ConfigAltChanged:
 176              	.LFB3:
 742:Generated_Source\PSoC5/USBFS_std.c ****     uint8 ep;
 177              		.loc 1 742 0
 178              		.cfi_startproc
ARM GAS  C:\Users\RABBIT~1\AppData\Local\Temp\ccYRpEyv.s 			page 20


 179              		@ args = 0, pretend = 0, frame = 0
 180              		@ frame_needed = 0, uses_anonymous_args = 0
 181 0000 2DE9F047 		push	{r4, r5, r6, r7, r8, r9, r10, lr}
 182              		.cfi_def_cfa_offset 32
 183              		.cfi_offset 4, -32
 184              		.cfi_offset 5, -28
 185              		.cfi_offset 6, -24
 186              		.cfi_offset 7, -20
 187              		.cfi_offset 8, -16
 188              		.cfi_offset 9, -12
 189              		.cfi_offset 10, -8
 190              		.cfi_offset 14, -4
 754:Generated_Source\PSoC5/USBFS_std.c ****     {
 191              		.loc 1 754 0
 192 0004 434B     		ldr	r3, .L28
 193 0006 1A78     		ldrb	r2, [r3]	@ zero_extendqisi2
 194 0008 002A     		cmp	r2, #0
 195 000a 00F08180 		beq	.L15
 196              	.LBB6:
 197              	.LBB7:
 756:Generated_Source\PSoC5/USBFS_std.c ****         pTmp = &pTmp[1u];
 198              		.loc 1 756 0
 199 000e 1878     		ldrb	r0, [r3]	@ zero_extendqisi2
 767:Generated_Source\PSoC5/USBFS_std.c ****                 USBFS_interfaceSetting_last[pEP->interface] ) &&
 200              		.loc 1 767 0
 201 0010 414F     		ldr	r7, .L28+4
 756:Generated_Source\PSoC5/USBFS_std.c ****         pTmp = &pTmp[1u];
 202              		.loc 1 756 0
 203 0012 0138     		subs	r0, r0, #1
 204 0014 C0B2     		uxtb	r0, r0
 205 0016 FFF7FEFF 		bl	USBFS_GetConfigTablePtr
 206              	.LVL11:
 763:Generated_Source\PSoC5/USBFS_std.c ****         for (i = 0u; i < ep; i++)
 207              		.loc 1 763 0
 208 001a C368     		ldr	r3, [r0, #12]
 209              	.LVL12:
 210 001c 057A     		ldrb	r5, [r0, #8]	@ zero_extendqisi2
 768:Generated_Source\PSoC5/USBFS_std.c ****                (USBFS_interfaceSetting[pEP->interface] == pEP->altSetting) &&
 211              		.loc 1 768 0
 212 001e DFF80881 		ldr	r8, .L28+20
 770:Generated_Source\PSoC5/USBFS_std.c ****             {
 213              		.loc 1 770 0
 214 0022 DFF80891 		ldr	r9, .L28+24
 215 0026 3D48     		ldr	r0, .L28+8
 216              	.LVL13:
 217 0028 03EBC505 		add	r5, r3, r5, lsl #3
 218              	.LVL14:
 219 002c 0C26     		movs	r6, #12
 790:Generated_Source\PSoC5/USBFS_std.c ****                 USBFS_EP[cur_ep].bufferSize = pEP->bufferSize;
 220              		.loc 1 790 0
 221 002e 4FF0010E 		mov	lr, #1
 796:Generated_Source\PSoC5/USBFS_std.c **** 
 222              		.loc 1 796 0
 223 0032 4FF0000C 		mov	ip, #0
 224              	.LVL15:
 225              	.L17:
 764:Generated_Source\PSoC5/USBFS_std.c ****         {
ARM GAS  C:\Users\RABBIT~1\AppData\Local\Temp\ccYRpEyv.s 			page 21


 226              		.loc 1 764 0
 227 0036 AB42     		cmp	r3, r5
 228 0038 6AD0     		beq	.L15
 767:Generated_Source\PSoC5/USBFS_std.c ****                 USBFS_interfaceSetting_last[pEP->interface] ) &&
 229              		.loc 1 767 0
 230 003a 1A78     		ldrb	r2, [r3]	@ zero_extendqisi2
 231 003c BC5C     		ldrb	r4, [r7, r2]	@ zero_extendqisi2
 768:Generated_Source\PSoC5/USBFS_std.c ****                (USBFS_interfaceSetting[pEP->interface] == pEP->altSetting) &&
 232              		.loc 1 768 0
 233 003e 18F80210 		ldrb	r1, [r8, r2]	@ zero_extendqisi2
 767:Generated_Source\PSoC5/USBFS_std.c ****                 USBFS_interfaceSetting_last[pEP->interface] ) &&
 234              		.loc 1 767 0
 235 0042 8C42     		cmp	r4, r1
 236 0044 62D0     		beq	.L18
 769:Generated_Source\PSoC5/USBFS_std.c ****                (pEP->interface == CY_GET_REG8(USBFS_wIndexLo)))
 237              		.loc 1 769 0
 238 0046 B95C     		ldrb	r1, [r7, r2]	@ zero_extendqisi2
 768:Generated_Source\PSoC5/USBFS_std.c ****                (USBFS_interfaceSetting[pEP->interface] == pEP->altSetting) &&
 239              		.loc 1 768 0
 240 0048 5C78     		ldrb	r4, [r3, #1]	@ zero_extendqisi2
 241 004a 8C42     		cmp	r4, r1
 242 004c 5ED1     		bne	.L18
 770:Generated_Source\PSoC5/USBFS_std.c ****             {
 243              		.loc 1 770 0
 244 004e 99F80010 		ldrb	r1, [r9]	@ zero_extendqisi2
 769:Generated_Source\PSoC5/USBFS_std.c ****                (pEP->interface == CY_GET_REG8(USBFS_wIndexLo)))
 245              		.loc 1 769 0
 246 0052 8A42     		cmp	r2, r1
 247 0054 5AD1     		bne	.L18
 772:Generated_Source\PSoC5/USBFS_std.c ****                 ri = ((cur_ep - USBFS_EP1) << USBFS_EPX_CNTX_ADDR_SHIFT);
 248              		.loc 1 772 0
 249 0056 93F802A0 		ldrb	r10, [r3, #2]	@ zero_extendqisi2
 774:Generated_Source\PSoC5/USBFS_std.c ****                 if ((pEP->addr & USBFS_DIR_IN) != 0u)
 250              		.loc 1 774 0
 251 005a DC78     		ldrb	r4, [r3, #3]	@ zero_extendqisi2
 772:Generated_Source\PSoC5/USBFS_std.c ****                 ri = ((cur_ep - USBFS_EP1) << USBFS_EPX_CNTX_ADDR_SHIFT);
 252              		.loc 1 772 0
 253 005c 0AF07F01 		and	r1, r10, #127
 254              	.LVL16:
 773:Generated_Source\PSoC5/USBFS_std.c ****                 epType = pEP->attributes & USBFS_EP_TYPE_MASK;
 255              		.loc 1 773 0
 256 0060 4A1E     		subs	r2, r1, #1
 257 0062 1201     		lsls	r2, r2, #4
 775:Generated_Source\PSoC5/USBFS_std.c ****                 {
 258              		.loc 1 775 0
 259 0064 1AF0800F 		tst	r10, #128
 773:Generated_Source\PSoC5/USBFS_std.c ****                 epType = pEP->attributes & USBFS_EP_TYPE_MASK;
 260              		.loc 1 773 0
 261 0068 D2B2     		uxtb	r2, r2
 262              	.LVL17:
 774:Generated_Source\PSoC5/USBFS_std.c ****                 if ((pEP->addr & USBFS_DIR_IN) != 0u)
 263              		.loc 1 774 0
 264 006a 04F00304 		and	r4, r4, #3
 265              	.LVL18:
 778:Generated_Source\PSoC5/USBFS_std.c ****                     USBFS_EP[cur_ep].epMode = (epType == USBFS_EP_TYPE_ISOC) ?
 266              		.loc 1 778 0
 267 006e 06FB010A 		mla	r10, r6, r1, r0
ARM GAS  C:\Users\RABBIT~1\AppData\Local\Temp\ccYRpEyv.s 			page 22


 775:Generated_Source\PSoC5/USBFS_std.c ****                 {
 268              		.loc 1 775 0
 269 0072 06D0     		beq	.L19
 779:Generated_Source\PSoC5/USBFS_std.c ****                                                 USBFS_MODE_ISO_IN : USBFS_MODE_ACK_IN;
 270              		.loc 1 779 0
 271 0074 012C     		cmp	r4, #1
 778:Generated_Source\PSoC5/USBFS_std.c ****                     USBFS_EP[cur_ep].epMode = (epType == USBFS_EP_TYPE_ISOC) ?
 272              		.loc 1 778 0
 273 0076 8AF801E0 		strb	lr, [r10, #1]
 779:Generated_Source\PSoC5/USBFS_std.c ****                                                 USBFS_MODE_ISO_IN : USBFS_MODE_ACK_IN;
 274              		.loc 1 779 0
 275 007a 0CBF     		ite	eq
 276 007c 0724     		moveq	r4, #7
 277              	.LVL19:
 278 007e 0D24     		movne	r4, #13
 279 0080 05E0     		b	.L27
 280              	.LVL20:
 281              	.L19:
 786:Generated_Source\PSoC5/USBFS_std.c ****                                                 USBFS_MODE_ISO_OUT : USBFS_MODE_ACK_OUT;
 282              		.loc 1 786 0
 283 0082 012C     		cmp	r4, #1
 785:Generated_Source\PSoC5/USBFS_std.c ****                     USBFS_EP[cur_ep].epMode = (epType == USBFS_EP_TYPE_ISOC) ?
 284              		.loc 1 785 0
 285 0084 8AF801C0 		strb	ip, [r10, #1]
 786:Generated_Source\PSoC5/USBFS_std.c ****                                                 USBFS_MODE_ISO_OUT : USBFS_MODE_ACK_OUT;
 286              		.loc 1 786 0
 287 0088 0CBF     		ite	eq
 288 008a 0524     		moveq	r4, #5
 289              	.LVL21:
 290 008c 0924     		movne	r4, #9
 291              	.L27:
 292 008e 8AF80540 		strb	r4, [r10, #5]
 790:Generated_Source\PSoC5/USBFS_std.c ****                 USBFS_EP[cur_ep].bufferSize = pEP->bufferSize;
 293              		.loc 1 790 0
 294 0092 234C     		ldr	r4, .L28+12
 295 0094 04F802E0 		strb	lr, [r4, r2]
 791:Generated_Source\PSoC5/USBFS_std.c ****                 USBFS_EP[cur_ep].addr = pEP->addr;
 296              		.loc 1 791 0
 297 0098 06FB01F4 		mul	r4, r6, r1
 298 009c B3F804A0 		ldrh	r10, [r3, #4]
 299 00a0 0119     		adds	r1, r0, r4
 300              	.LVL22:
 301 00a2 A1F808A0 		strh	r10, [r1, #8]	@ movhi
 792:Generated_Source\PSoC5/USBFS_std.c ****                 USBFS_EP[cur_ep].attrib = pEP->attributes;
 302              		.loc 1 792 0
 303 00a6 93F802A0 		ldrb	r10, [r3, #2]	@ zero_extendqisi2
 304 00aa 81F804A0 		strb	r10, [r1, #4]
 793:Generated_Source\PSoC5/USBFS_std.c **** 
 305              		.loc 1 793 0
 306 00ae 93F803A0 		ldrb	r10, [r3, #3]	@ zero_extendqisi2
 307 00b2 00F804A0 		strb	r10, [r0, r4]
 796:Generated_Source\PSoC5/USBFS_std.c **** 
 308              		.loc 1 796 0
 309 00b6 81F803C0 		strb	ip, [r1, #3]
 832:Generated_Source\PSoC5/USBFS_std.c ****                                                                 USBFS_EP[cur_ep].bufferSize >> 8u);
 310              		.loc 1 832 0
 311 00ba B1F808A0 		ldrh	r10, [r1, #8]
ARM GAS  C:\Users\RABBIT~1\AppData\Local\Temp\ccYRpEyv.s 			page 23


 312 00be 194C     		ldr	r4, .L28+16
 313 00c0 CAF3072A 		ubfx	r10, r10, #8, #8
 314 00c4 04F802A0 		strb	r10, [r4, r2]
 834:Generated_Source\PSoC5/USBFS_std.c ****                                                                 USBFS_EP[cur_ep].bufferSize & 0xFFu
 315              		.loc 1 834 0
 316 00c8 B1F808A0 		ldrh	r10, [r1, #8]
 317 00cc 0134     		adds	r4, r4, #1
 318 00ce 5FFA8AFA 		uxtb	r10, r10
 319 00d2 04F802A0 		strb	r10, [r4, r2]
 836:Generated_Source\PSoC5/USBFS_std.c ****                                                                 USBFS_EP[cur_ep].buffOffset & 0xFFu
 320              		.loc 1 836 0
 321 00d6 B1F806A0 		ldrh	r10, [r1, #6]
 322 00da 7934     		adds	r4, r4, #121
 323 00dc 5FFA8AFA 		uxtb	r10, r10
 324 00e0 04F802A0 		strb	r10, [r4, r2]
 838:Generated_Source\PSoC5/USBFS_std.c ****                                                                 USBFS_EP[cur_ep].buffOffset >> 8u);
 325              		.loc 1 838 0
 326 00e4 B1F806A0 		ldrh	r10, [r1, #6]
 327 00e8 0134     		adds	r4, r4, #1
 328 00ea CAF3072A 		ubfx	r10, r10, #8, #8
 329 00ee 04F802A0 		strb	r10, [r4, r2]
 840:Generated_Source\PSoC5/USBFS_std.c ****                                                                 USBFS_EP[cur_ep].buffOffset & 0xFFu
 330              		.loc 1 840 0
 331 00f2 B1F806A0 		ldrh	r10, [r1, #6]
 332 00f6 033C     		subs	r4, r4, #3
 333 00f8 5FFA8AFA 		uxtb	r10, r10
 334 00fc 04F802A0 		strb	r10, [r4, r2]
 842:Generated_Source\PSoC5/USBFS_std.c ****                                                                 USBFS_EP[cur_ep].buffOffset >> 8u);
 335              		.loc 1 842 0
 336 0100 0134     		adds	r4, r4, #1
 337 0102 1444     		add	r4, r4, r2
 338 0104 CA88     		ldrh	r2, [r1, #6]
 339              	.LVL23:
 340 0106 C2F30722 		ubfx	r2, r2, #8, #8
 341 010a 2270     		strb	r2, [r4]
 342              	.L18:
 847:Generated_Source\PSoC5/USBFS_std.c ****         }
 343              		.loc 1 847 0
 344 010c 0833     		adds	r3, r3, #8
 345              	.LVL24:
 346 010e 92E7     		b	.L17
 347              	.LVL25:
 348              	.L15:
 349 0110 BDE8F087 		pop	{r4, r5, r6, r7, r8, r9, r10, pc}
 350              	.L29:
 351              		.align	2
 352              	.L28:
 353 0114 00000000 		.word	USBFS_configuration
 354 0118 00000000 		.word	USBFS_interfaceSetting
 355 011c 00000000 		.word	USBFS_EP
 356 0120 0E600040 		.word	1073766414
 357 0124 0C600040 		.word	1073766412
 358 0128 00000000 		.word	USBFS_interfaceSetting_last
 359 012c 04600040 		.word	1073766404
 360              	.LBE7:
 361              	.LBE6:
 362              		.cfi_endproc
ARM GAS  C:\Users\RABBIT~1\AppData\Local\Temp\ccYRpEyv.s 			page 24


 363              	.LFE3:
 364              		.size	USBFS_ConfigAltChanged, .-USBFS_ConfigAltChanged
 365              		.section	.text.USBFS_GetDeviceTablePtr,"ax",%progbits
 366              		.align	1
 367              		.global	USBFS_GetDeviceTablePtr
 368              		.thumb
 369              		.thumb_func
 370              		.type	USBFS_GetDeviceTablePtr, %function
 371              	USBFS_GetDeviceTablePtr:
 372              	.LFB5:
 892:Generated_Source\PSoC5/USBFS_std.c **** 
 893:Generated_Source\PSoC5/USBFS_std.c **** 
 894:Generated_Source\PSoC5/USBFS_std.c **** /*******************************************************************************
 895:Generated_Source\PSoC5/USBFS_std.c **** * Function Name: USBFS_GetDeviceTablePtr
 896:Generated_Source\PSoC5/USBFS_std.c **** ********************************************************************************
 897:Generated_Source\PSoC5/USBFS_std.c **** *
 898:Generated_Source\PSoC5/USBFS_std.c **** * Summary:
 899:Generated_Source\PSoC5/USBFS_std.c **** *  This routine returns a pointer to the Device table
 900:Generated_Source\PSoC5/USBFS_std.c **** *
 901:Generated_Source\PSoC5/USBFS_std.c **** * Parameters:
 902:Generated_Source\PSoC5/USBFS_std.c **** *  None.
 903:Generated_Source\PSoC5/USBFS_std.c **** *
 904:Generated_Source\PSoC5/USBFS_std.c **** * Return:
 905:Generated_Source\PSoC5/USBFS_std.c **** *  Device Table pointer
 906:Generated_Source\PSoC5/USBFS_std.c **** *
 907:Generated_Source\PSoC5/USBFS_std.c **** *******************************************************************************/
 908:Generated_Source\PSoC5/USBFS_std.c **** const T_USBFS_LUT CYCODE *USBFS_GetDeviceTablePtr(void)
 909:Generated_Source\PSoC5/USBFS_std.c ****                                                             
 910:Generated_Source\PSoC5/USBFS_std.c **** {
 373              		.loc 1 910 0
 374              		.cfi_startproc
 375              		@ args = 0, pretend = 0, frame = 0
 376              		@ frame_needed = 0, uses_anonymous_args = 0
 377              		@ link register save eliminated.
 911:Generated_Source\PSoC5/USBFS_std.c ****     /* Device Table */
 912:Generated_Source\PSoC5/USBFS_std.c ****     return( (const T_USBFS_LUT CYCODE *) USBFS_TABLE[USBFS_device].p_list );
 378              		.loc 1 912 0
 379 0000 034B     		ldr	r3, .L31
 380 0002 1A78     		ldrb	r2, [r3]	@ zero_extendqisi2
 381 0004 034B     		ldr	r3, .L31+4
 382 0006 03EBC203 		add	r3, r3, r2, lsl #3
 913:Generated_Source\PSoC5/USBFS_std.c **** }
 383              		.loc 1 913 0
 384 000a 5868     		ldr	r0, [r3, #4]
 385 000c 7047     		bx	lr
 386              	.L32:
 387 000e 00BF     		.align	2
 388              	.L31:
 389 0010 00000000 		.word	USBFS_device
 390 0014 00000000 		.word	USBFS_TABLE
 391              		.cfi_endproc
 392              	.LFE5:
 393              		.size	USBFS_GetDeviceTablePtr, .-USBFS_GetDeviceTablePtr
 394              		.section	.text.USBFS_GetInterfaceClassTablePtr,"ax",%progbits
 395              		.align	1
 396              		.global	USBFS_GetInterfaceClassTablePtr
 397              		.thumb
ARM GAS  C:\Users\RABBIT~1\AppData\Local\Temp\ccYRpEyv.s 			page 25


 398              		.thumb_func
 399              		.type	USBFS_GetInterfaceClassTablePtr, %function
 400              	USBFS_GetInterfaceClassTablePtr:
 401              	.LFB6:
 914:Generated_Source\PSoC5/USBFS_std.c **** 
 915:Generated_Source\PSoC5/USBFS_std.c **** 
 916:Generated_Source\PSoC5/USBFS_std.c **** /*******************************************************************************
 917:Generated_Source\PSoC5/USBFS_std.c **** * Function Name: USB_GetInterfaceClassTablePtr
 918:Generated_Source\PSoC5/USBFS_std.c **** ********************************************************************************
 919:Generated_Source\PSoC5/USBFS_std.c **** *
 920:Generated_Source\PSoC5/USBFS_std.c **** * Summary:
 921:Generated_Source\PSoC5/USBFS_std.c **** *  This routine returns Interface Class table pointer, which contains
 922:Generated_Source\PSoC5/USBFS_std.c **** *  the relation between interface number and interface class.
 923:Generated_Source\PSoC5/USBFS_std.c **** *
 924:Generated_Source\PSoC5/USBFS_std.c **** * Parameters:
 925:Generated_Source\PSoC5/USBFS_std.c **** *  None.
 926:Generated_Source\PSoC5/USBFS_std.c **** *
 927:Generated_Source\PSoC5/USBFS_std.c **** * Return:
 928:Generated_Source\PSoC5/USBFS_std.c **** *  Interface Class table pointer.
 929:Generated_Source\PSoC5/USBFS_std.c **** *
 930:Generated_Source\PSoC5/USBFS_std.c **** *******************************************************************************/
 931:Generated_Source\PSoC5/USBFS_std.c **** const uint8 CYCODE *USBFS_GetInterfaceClassTablePtr(void)
 932:Generated_Source\PSoC5/USBFS_std.c ****                                                         
 933:Generated_Source\PSoC5/USBFS_std.c **** {
 402              		.loc 1 933 0
 403              		.cfi_startproc
 404              		@ args = 0, pretend = 0, frame = 0
 405              		@ frame_needed = 0, uses_anonymous_args = 0
 406 0000 08B5     		push	{r3, lr}
 407              		.cfi_def_cfa_offset 8
 408              		.cfi_offset 3, -8
 409              		.cfi_offset 14, -4
 934:Generated_Source\PSoC5/USBFS_std.c ****     const T_USBFS_LUT CYCODE *pTmp;
 935:Generated_Source\PSoC5/USBFS_std.c ****     const uint8 CYCODE *pInterfaceClass;
 936:Generated_Source\PSoC5/USBFS_std.c ****     uint8 currentInterfacesNum;
 937:Generated_Source\PSoC5/USBFS_std.c **** 
 938:Generated_Source\PSoC5/USBFS_std.c ****     pTmp = USBFS_GetConfigTablePtr(USBFS_configuration - 1u);
 410              		.loc 1 938 0
 411 0002 064B     		ldr	r3, .L36
 412 0004 1878     		ldrb	r0, [r3]	@ zero_extendqisi2
 413 0006 0138     		subs	r0, r0, #1
 414 0008 C0B2     		uxtb	r0, r0
 415 000a FFF7FEFF 		bl	USBFS_GetConfigTablePtr
 416              	.LVL26:
 939:Generated_Source\PSoC5/USBFS_std.c ****     if( pTmp != NULL )
 417              		.loc 1 939 0
 418 000e 20B1     		cbz	r0, .L34
 419              	.LVL27:
 940:Generated_Source\PSoC5/USBFS_std.c ****     {
 941:Generated_Source\PSoC5/USBFS_std.c ****         currentInterfacesNum  = ((const uint8 *) pTmp->p_list)[USBFS_CONFIG_DESCR_NUM_INTERFACES];
 420              		.loc 1 941 0
 421 0010 4368     		ldr	r3, [r0, #4]
 942:Generated_Source\PSoC5/USBFS_std.c ****         /* Third entry in the LUT starts the Interface Table pointers */
 943:Generated_Source\PSoC5/USBFS_std.c ****         /* The INTERFACE_CLASS table is located after all interfaces */
 944:Generated_Source\PSoC5/USBFS_std.c ****         pTmp = &pTmp[currentInterfacesNum + 2u];
 422              		.loc 1 944 0
 423 0012 1B79     		ldrb	r3, [r3, #4]	@ zero_extendqisi2
ARM GAS  C:\Users\RABBIT~1\AppData\Local\Temp\ccYRpEyv.s 			page 26


 424              	.LVL28:
 945:Generated_Source\PSoC5/USBFS_std.c ****         pInterfaceClass = (const uint8 CYCODE *) pTmp->p_list;
 425              		.loc 1 945 0
 426 0014 00EBC300 		add	r0, r0, r3, lsl #3
 427              	.LVL29:
 428 0018 4069     		ldr	r0, [r0, #20]
 429              	.LVL30:
 430              	.L34:
 946:Generated_Source\PSoC5/USBFS_std.c ****     }
 947:Generated_Source\PSoC5/USBFS_std.c ****     else
 948:Generated_Source\PSoC5/USBFS_std.c ****     {
 949:Generated_Source\PSoC5/USBFS_std.c ****         pInterfaceClass = (const uint8 CYCODE *) NULL;
 950:Generated_Source\PSoC5/USBFS_std.c ****     }
 951:Generated_Source\PSoC5/USBFS_std.c **** 
 952:Generated_Source\PSoC5/USBFS_std.c ****     return( pInterfaceClass );
 953:Generated_Source\PSoC5/USBFS_std.c **** }
 431              		.loc 1 953 0
 432 001a 08BD     		pop	{r3, pc}
 433              	.L37:
 434              		.align	2
 435              	.L36:
 436 001c 00000000 		.word	USBFS_configuration
 437              		.cfi_endproc
 438              	.LFE6:
 439              		.size	USBFS_GetInterfaceClassTablePtr, .-USBFS_GetInterfaceClassTablePtr
 440              		.section	.text.USBFS_Config,"ax",%progbits
 441              		.align	1
 442              		.global	USBFS_Config
 443              		.thumb
 444              		.thumb_func
 445              		.type	USBFS_Config, %function
 446              	USBFS_Config:
 447              	.LFB2:
 494:Generated_Source\PSoC5/USBFS_std.c ****     uint8 ep;
 448              		.loc 1 494 0
 449              		.cfi_startproc
 450              		@ args = 0, pretend = 0, frame = 0
 451              		@ frame_needed = 0, uses_anonymous_args = 0
 452              	.LVL31:
 453 0000 0021     		movs	r1, #0
 454 0002 2DE9F84F 		push	{r3, r4, r5, r6, r7, r8, r9, r10, fp, lr}
 455              		.cfi_def_cfa_offset 40
 456              		.cfi_offset 3, -40
 457              		.cfi_offset 4, -36
 458              		.cfi_offset 5, -32
 459              		.cfi_offset 6, -28
 460              		.cfi_offset 7, -24
 461              		.cfi_offset 8, -20
 462              		.cfi_offset 9, -16
 463              		.cfi_offset 10, -12
 464              		.cfi_offset 11, -8
 465              		.cfi_offset 14, -4
 510:Generated_Source\PSoC5/USBFS_std.c ****         USBFS_EP[ep].hwEpState = 0u;
 466              		.loc 1 510 0
 467 0006 0B46     		mov	r3, r1
 468 0008 4A4E     		ldr	r6, .L70
 469 000a 0C27     		movs	r7, #12
ARM GAS  C:\Users\RABBIT~1\AppData\Local\Temp\ccYRpEyv.s 			page 27


 470              	.LVL32:
 471              	.L39:
 510:Generated_Source\PSoC5/USBFS_std.c ****         USBFS_EP[ep].hwEpState = 0u;
 472              		.loc 1 510 0 is_stmt 0 discriminator 3
 473 000c 07FB01F5 		mul	r5, r7, r1
 474 0010 0131     		adds	r1, r1, #1
 475              	.LVL33:
 476 0012 7219     		adds	r2, r6, r5
 508:Generated_Source\PSoC5/USBFS_std.c ****     {
 477              		.loc 1 508 0 is_stmt 1 discriminator 3
 478 0014 0929     		cmp	r1, #9
 510:Generated_Source\PSoC5/USBFS_std.c ****         USBFS_EP[ep].hwEpState = 0u;
 479              		.loc 1 510 0 discriminator 3
 480 0016 7355     		strb	r3, [r6, r5]
 481 0018 4FF00004 		mov	r4, #0
 511:Generated_Source\PSoC5/USBFS_std.c ****         USBFS_EP[ep].apiEpState = USBFS_NO_EVENT_PENDING;
 482              		.loc 1 511 0 discriminator 3
 483 001c 9370     		strb	r3, [r2, #2]
 484 001e 454D     		ldr	r5, .L70
 512:Generated_Source\PSoC5/USBFS_std.c ****         USBFS_EP[ep].epToggle = 0u;
 485              		.loc 1 512 0 discriminator 3
 486 0020 5370     		strb	r3, [r2, #1]
 513:Generated_Source\PSoC5/USBFS_std.c ****         USBFS_EP[ep].epMode = USBFS_MODE_DISABLE;
 487              		.loc 1 513 0 discriminator 3
 488 0022 D370     		strb	r3, [r2, #3]
 514:Generated_Source\PSoC5/USBFS_std.c ****         USBFS_EP[ep].bufferSize = 0u;
 489              		.loc 1 514 0 discriminator 3
 490 0024 5371     		strb	r3, [r2, #5]
 515:Generated_Source\PSoC5/USBFS_std.c ****         USBFS_EP[ep].interface = 0u;
 491              		.loc 1 515 0 discriminator 3
 492 0026 1381     		strh	r3, [r2, #8]	@ movhi
 516:Generated_Source\PSoC5/USBFS_std.c **** 
 493              		.loc 1 516 0 discriminator 3
 494 0028 9372     		strb	r3, [r2, #10]
 508:Generated_Source\PSoC5/USBFS_std.c ****     {
 495              		.loc 1 508 0 discriminator 3
 496 002a EFD1     		bne	.L39
 521:Generated_Source\PSoC5/USBFS_std.c ****     {
 497              		.loc 1 521 0
 498 002c 18B1     		cbz	r0, .L40
 499              	.LVL34:
 525:Generated_Source\PSoC5/USBFS_std.c ****             USBFS_interfaceSetting_last[i] = 0x00u;
 500              		.loc 1 525 0 discriminator 3
 501 002e 424B     		ldr	r3, .L70+4
 502 0030 1C70     		strb	r4, [r3]
 526:Generated_Source\PSoC5/USBFS_std.c ****         }
 503              		.loc 1 526 0 discriminator 3
 504 0032 424B     		ldr	r3, .L70+8
 505 0034 1C70     		strb	r4, [r3]
 506              	.LVL35:
 507              	.L40:
 531:Generated_Source\PSoC5/USBFS_std.c ****     {
 508              		.loc 1 531 0
 509 0036 424B     		ldr	r3, .L70+12
 510 0038 1A78     		ldrb	r2, [r3]	@ zero_extendqisi2
 511 003a 002A     		cmp	r2, #0
 512 003c 77D0     		beq	.L38
ARM GAS  C:\Users\RABBIT~1\AppData\Local\Temp\ccYRpEyv.s 			page 28


 513              	.LVL36:
 514              	.LBB10:
 515              	.LBB11:
 533:Generated_Source\PSoC5/USBFS_std.c ****         /* Set Power status for current configuration */
 516              		.loc 1 533 0
 517 003e 1878     		ldrb	r0, [r3]	@ zero_extendqisi2
 518              	.LVL37:
 546:Generated_Source\PSoC5/USBFS_std.c **** 
 519              		.loc 1 546 0
 520 0040 0124     		movs	r4, #1
 533:Generated_Source\PSoC5/USBFS_std.c ****         /* Set Power status for current configuration */
 521              		.loc 1 533 0
 522 0042 0138     		subs	r0, r0, #1
 523 0044 C0B2     		uxtb	r0, r0
 524 0046 FFF7FEFF 		bl	USBFS_GetConfigTablePtr
 525              	.LVL38:
 635:Generated_Source\PSoC5/USBFS_std.c ****                                 USBFS_EP[i].epMode = (epType == USBFS_EP_TYPE_ISOC) ?
 526              		.loc 1 635 0
 527 004a A146     		mov	r9, r4
 536:Generated_Source\PSoC5/USBFS_std.c ****         {
 528              		.loc 1 536 0
 529 004c 4368     		ldr	r3, [r0, #4]
 629:Generated_Source\PSoC5/USBFS_std.c ****                         {
 530              		.loc 1 629 0
 531 004e DFF8E8C0 		ldr	ip, .L70+4
 536:Generated_Source\PSoC5/USBFS_std.c ****         {
 532              		.loc 1 536 0
 533 0052 DB79     		ldrb	r3, [r3, #7]	@ zero_extendqisi2
 624:Generated_Source\PSoC5/USBFS_std.c ****                         {
 534              		.loc 1 624 0
 535 0054 4FF00C0E 		mov	lr, #12
 536:Generated_Source\PSoC5/USBFS_std.c ****         {
 536              		.loc 1 536 0
 537 0058 13F0400F 		tst	r3, #64
 538 005c 394B     		ldr	r3, .L70+16
 659:Generated_Source\PSoC5/USBFS_std.c ****                                 USBFS_EP[i].epMode = (epType == USBFS_EP_TYPE_ISOC) ?
 539              		.loc 1 659 0
 540 005e 4FF00008 		mov	r8, #0
 538:Generated_Source\PSoC5/USBFS_std.c ****         }
 541              		.loc 1 538 0
 542 0062 1A78     		ldrb	r2, [r3]	@ zero_extendqisi2
 543 0064 14BF     		ite	ne
 544 0066 42F00102 		orrne	r2, r2, #1
 542:Generated_Source\PSoC5/USBFS_std.c ****         }
 545              		.loc 1 542 0
 546 006a 02F0FE02 		andeq	r2, r2, #254
 547 006e 1A70     		strb	r2, [r3]
 548              	.LVL39:
 549 0070 027A     		ldrb	r2, [r0, #8]	@ zero_extendqisi2
 550 0072 D200     		lsls	r2, r2, #3
 551              	.LVL40:
 552              	.L54:
 624:Generated_Source\PSoC5/USBFS_std.c ****                         {
 553              		.loc 1 624 0
 554 0074 0EFB0451 		mla	r1, lr, r4, r5
 616:Generated_Source\PSoC5/USBFS_std.c ****                 /* Find max length for each EP and select it (length could be different in differen
 555              		.loc 1 616 0
ARM GAS  C:\Users\RABBIT~1\AppData\Local\Temp\ccYRpEyv.s 			page 29


 556 0078 C368     		ldr	r3, [r0, #12]
 557              	.LVL41:
 558 007a 03EB020A 		add	r10, r3, r2
 559              	.LVL42:
 560              	.L44:
 619:Generated_Source\PSoC5/USBFS_std.c ****                 {
 561              		.loc 1 619 0
 562 007e 5345     		cmp	r3, r10
 563 0080 2CD0     		beq	.L68
 622:Generated_Source\PSoC5/USBFS_std.c ****                     {
 564              		.loc 1 622 0
 565 0082 9F78     		ldrb	r7, [r3, #2]	@ zero_extendqisi2
 566 0084 07F07F06 		and	r6, r7, #127
 567 0088 A642     		cmp	r6, r4
 568 008a 25D1     		bne	.L46
 624:Generated_Source\PSoC5/USBFS_std.c ****                         {
 569              		.loc 1 624 0
 570 008c 0E89     		ldrh	r6, [r1, #8]
 571 008e B3F804B0 		ldrh	fp, [r3, #4]
 572 0092 B6B2     		uxth	r6, r6
 573 0094 5E45     		cmp	r6, fp
 626:Generated_Source\PSoC5/USBFS_std.c ****                         }
 574              		.loc 1 626 0
 575 0096 38BF     		it	cc
 576 0098 A1F808B0 		strhcc	fp, [r1, #8]	@ movhi
 629:Generated_Source\PSoC5/USBFS_std.c ****                         {
 577              		.loc 1 629 0
 578 009c 1E78     		ldrb	r6, [r3]	@ zero_extendqisi2
 579 009e 93F801B0 		ldrb	fp, [r3, #1]	@ zero_extendqisi2
 580 00a2 1CF80660 		ldrb	r6, [ip, r6]	@ zero_extendqisi2
 581 00a6 B345     		cmp	fp, r6
 582 00a8 16D1     		bne	.L46
 631:Generated_Source\PSoC5/USBFS_std.c ****                             if ((pEP->addr & USBFS_DIR_IN) != 0u)
 583              		.loc 1 631 0
 584 00aa DE78     		ldrb	r6, [r3, #3]	@ zero_extendqisi2
 632:Generated_Source\PSoC5/USBFS_std.c ****                             {
 585              		.loc 1 632 0
 586 00ac 3F06     		lsls	r7, r7, #24
 631:Generated_Source\PSoC5/USBFS_std.c ****                             if ((pEP->addr & USBFS_DIR_IN) != 0u)
 587              		.loc 1 631 0
 588 00ae 06F00306 		and	r6, r6, #3
 589              	.LVL43:
 632:Generated_Source\PSoC5/USBFS_std.c ****                             {
 590              		.loc 1 632 0
 591 00b2 06D5     		bpl	.L49
 636:Generated_Source\PSoC5/USBFS_std.c ****                                                         USBFS_MODE_ISO_IN : USBFS_MODE_ACK_IN;
 592              		.loc 1 636 0
 593 00b4 012E     		cmp	r6, #1
 635:Generated_Source\PSoC5/USBFS_std.c ****                                 USBFS_EP[i].epMode = (epType == USBFS_EP_TYPE_ISOC) ?
 594              		.loc 1 635 0
 595 00b6 81F80190 		strb	r9, [r1, #1]
 636:Generated_Source\PSoC5/USBFS_std.c ****                                                         USBFS_MODE_ISO_IN : USBFS_MODE_ACK_IN;
 596              		.loc 1 636 0
 597 00ba 0CBF     		ite	eq
 598 00bc 0726     		moveq	r6, #7
 599              	.LVL44:
 600 00be 0D26     		movne	r6, #13
ARM GAS  C:\Users\RABBIT~1\AppData\Local\Temp\ccYRpEyv.s 			page 30


 601 00c0 05E0     		b	.L67
 602              	.LVL45:
 603              	.L49:
 660:Generated_Source\PSoC5/USBFS_std.c ****                                                     USBFS_MODE_ISO_OUT : USBFS_MODE_ACK_OUT;
 604              		.loc 1 660 0
 605 00c2 012E     		cmp	r6, #1
 659:Generated_Source\PSoC5/USBFS_std.c ****                                 USBFS_EP[i].epMode = (epType == USBFS_EP_TYPE_ISOC) ?
 606              		.loc 1 659 0
 607 00c4 81F80180 		strb	r8, [r1, #1]
 660:Generated_Source\PSoC5/USBFS_std.c ****                                                     USBFS_MODE_ISO_OUT : USBFS_MODE_ACK_OUT;
 608              		.loc 1 660 0
 609 00c8 0CBF     		ite	eq
 610 00ca 0526     		moveq	r6, #5
 611              	.LVL46:
 612 00cc 0926     		movne	r6, #9
 613              	.L67:
 614 00ce 4E71     		strb	r6, [r1, #5]
 680:Generated_Source\PSoC5/USBFS_std.c ****                             USBFS_EP[i].attrib = pEP->attributes;
 615              		.loc 1 680 0
 616 00d0 9E78     		ldrb	r6, [r3, #2]	@ zero_extendqisi2
 617 00d2 0E71     		strb	r6, [r1, #4]
 681:Generated_Source\PSoC5/USBFS_std.c **** 
 618              		.loc 1 681 0
 619 00d4 DE78     		ldrb	r6, [r3, #3]	@ zero_extendqisi2
 620 00d6 0E70     		strb	r6, [r1]
 621              	.L46:
 688:Generated_Source\PSoC5/USBFS_std.c ****                 }
 622              		.loc 1 688 0
 623 00d8 0833     		adds	r3, r3, #8
 624              	.LVL47:
 625 00da D0E7     		b	.L44
 626              	.L68:
 627              	.LVL48:
 628 00dc 0134     		adds	r4, r4, #1
 629              	.LVL49:
 613:Generated_Source\PSoC5/USBFS_std.c ****             {
 630              		.loc 1 613 0
 631 00de 092C     		cmp	r4, #9
 632 00e0 C8D1     		bne	.L54
 698:Generated_Source\PSoC5/USBFS_std.c ****         for (i = 0u; i < ep; i++)
 633              		.loc 1 698 0
 634 00e2 C168     		ldr	r1, [r0, #12]
 635              	.LVL50:
 636 00e4 0A32     		adds	r2, r2, #10
 637 00e6 8B1C     		adds	r3, r1, #2
 638 00e8 0A44     		add	r2, r2, r1
 702:Generated_Source\PSoC5/USBFS_std.c ****             pEP = &pEP[1u];
 639              		.loc 1 702 0
 640 00ea 0C20     		movs	r0, #12
 641              	.LVL51:
 642              	.L55:
 643 00ec 0833     		adds	r3, r3, #8
 644              	.LVL52:
 699:Generated_Source\PSoC5/USBFS_std.c ****         {
 645              		.loc 1 699 0
 646 00ee 9342     		cmp	r3, r2
 647 00f0 09D0     		beq	.L69
ARM GAS  C:\Users\RABBIT~1\AppData\Local\Temp\ccYRpEyv.s 			page 31


 702:Generated_Source\PSoC5/USBFS_std.c ****             pEP = &pEP[1u];
 648              		.loc 1 702 0
 649 00f2 13F8081C 		ldrb	r1, [r3, #-8]	@ zero_extendqisi2
 650 00f6 13F80A4C 		ldrb	r4, [r3, #-10]	@ zero_extendqisi2
 651 00fa 01F07F01 		and	r1, r1, #127
 652 00fe 00FB0151 		mla	r1, r0, r1, r5
 653 0102 8C72     		strb	r4, [r1, #10]
 654              	.LVL53:
 655 0104 F2E7     		b	.L55
 656              	.LVL54:
 657              	.L69:
 706:Generated_Source\PSoC5/USBFS_std.c ****         /* Set the endpoint buffer addresses */
 658              		.loc 1 706 0
 659 0106 FFF7FEFF 		bl	USBFS_GetInterfaceClassTablePtr
 660              	.LVL55:
 661 010a 0F4B     		ldr	r3, .L70+20
 662 010c 0122     		movs	r2, #1
 663 010e 1860     		str	r0, [r3]
 664              	.LVL56:
 501:Generated_Source\PSoC5/USBFS_std.c ****     #endif /*  USBFS_EP_MM != USBFS__EP_DMAAUTO */
 665              		.loc 1 501 0
 666 0110 0023     		movs	r3, #0
 712:Generated_Source\PSoC5/USBFS_std.c ****                  buffCount += USBFS_EP[ep].bufferSize;
 667              		.loc 1 712 0
 668 0112 0C20     		movs	r0, #12
 669              	.LVL57:
 670              	.L57:
 671 0114 00FB0251 		mla	r1, r0, r2, r5
 672 0118 CB80     		strh	r3, [r1, #6]	@ movhi
 713:Generated_Source\PSoC5/USBFS_std.c ****             }
 673              		.loc 1 713 0
 674 011a 0989     		ldrh	r1, [r1, #8]
 675 011c 0132     		adds	r2, r2, #1
 676              	.LVL58:
 677 011e 0B44     		add	r3, r3, r1
 678              	.LVL59:
 710:Generated_Source\PSoC5/USBFS_std.c ****             {
 679              		.loc 1 710 0
 680 0120 092A     		cmp	r2, #9
 713:Generated_Source\PSoC5/USBFS_std.c ****             }
 681              		.loc 1 713 0
 682 0122 9BB2     		uxth	r3, r3
 683              	.LVL60:
 710:Generated_Source\PSoC5/USBFS_std.c ****             {
 684              		.loc 1 710 0
 685 0124 F6D1     		bne	.L57
 686              	.LBE11:
 687              	.LBE10:
 720:Generated_Source\PSoC5/USBFS_std.c **** 
 688              		.loc 1 720 0
 689 0126 BDE8F84F 		pop	{r3, r4, r5, r6, r7, r8, r9, r10, fp, lr}
 690              		.cfi_remember_state
 691              		.cfi_restore 14
 692              		.cfi_restore 11
 693              		.cfi_restore 10
 694              		.cfi_restore 9
 695              		.cfi_restore 8
ARM GAS  C:\Users\RABBIT~1\AppData\Local\Temp\ccYRpEyv.s 			page 32


 696              		.cfi_restore 7
 697              		.cfi_restore 6
 698              		.cfi_restore 5
 699              		.cfi_restore 4
 700              		.cfi_restore 3
 701              		.cfi_def_cfa_offset 0
 702              	.LVL61:
 703              	.LBB13:
 704              	.LBB12:
 718:Generated_Source\PSoC5/USBFS_std.c ****     } /* USBFS_configuration > 0 */
 705              		.loc 1 718 0
 706 012a FFF7FEBF 		b	USBFS_ConfigReg
 707              	.LVL62:
 708              	.L38:
 709              		.cfi_restore_state
 710 012e BDE8F88F 		pop	{r3, r4, r5, r6, r7, r8, r9, r10, fp, pc}
 711              	.L71:
 712 0132 00BF     		.align	2
 713              	.L70:
 714 0134 00000000 		.word	USBFS_EP
 715 0138 00000000 		.word	USBFS_interfaceSetting
 716 013c 00000000 		.word	USBFS_interfaceSetting_last
 717 0140 00000000 		.word	USBFS_configuration
 718 0144 00000000 		.word	USBFS_deviceStatus
 719 0148 00000000 		.word	USBFS_interfaceClass
 720              	.LBE12:
 721              	.LBE13:
 722              		.cfi_endproc
 723              	.LFE2:
 724              		.size	USBFS_Config, .-USBFS_Config
 725              		.section	.text.USBFS_TerminateEP,"ax",%progbits
 726              		.align	1
 727              		.global	USBFS_TerminateEP
 728              		.thumb
 729              		.thumb_func
 730              		.type	USBFS_TerminateEP, %function
 731              	USBFS_TerminateEP:
 732              	.LFB7:
 954:Generated_Source\PSoC5/USBFS_std.c **** 
 955:Generated_Source\PSoC5/USBFS_std.c **** 
 956:Generated_Source\PSoC5/USBFS_std.c **** /*******************************************************************************
 957:Generated_Source\PSoC5/USBFS_std.c **** * Function Name: USBFS_TerminateEP
 958:Generated_Source\PSoC5/USBFS_std.c **** ********************************************************************************
 959:Generated_Source\PSoC5/USBFS_std.c **** *
 960:Generated_Source\PSoC5/USBFS_std.c **** * Summary:
 961:Generated_Source\PSoC5/USBFS_std.c **** *  This function terminates the specified USBFS endpoint.
 962:Generated_Source\PSoC5/USBFS_std.c **** *  This function should be used before endpoint reconfiguration.
 963:Generated_Source\PSoC5/USBFS_std.c **** *
 964:Generated_Source\PSoC5/USBFS_std.c **** * Parameters:
 965:Generated_Source\PSoC5/USBFS_std.c **** *  Endpoint number.
 966:Generated_Source\PSoC5/USBFS_std.c **** *
 967:Generated_Source\PSoC5/USBFS_std.c **** * Return:
 968:Generated_Source\PSoC5/USBFS_std.c **** *  None.
 969:Generated_Source\PSoC5/USBFS_std.c **** *
 970:Generated_Source\PSoC5/USBFS_std.c **** * Reentrant:
 971:Generated_Source\PSoC5/USBFS_std.c **** *  No.
 972:Generated_Source\PSoC5/USBFS_std.c **** *
ARM GAS  C:\Users\RABBIT~1\AppData\Local\Temp\ccYRpEyv.s 			page 33


 973:Generated_Source\PSoC5/USBFS_std.c **** *******************************************************************************/
 974:Generated_Source\PSoC5/USBFS_std.c **** void USBFS_TerminateEP(uint8 ep) 
 975:Generated_Source\PSoC5/USBFS_std.c **** {
 733              		.loc 1 975 0
 734              		.cfi_startproc
 735              		@ args = 0, pretend = 0, frame = 0
 736              		@ frame_needed = 0, uses_anonymous_args = 0
 737              		@ link register save eliminated.
 738              	.LVL63:
 976:Generated_Source\PSoC5/USBFS_std.c ****     uint8 ri;
 977:Generated_Source\PSoC5/USBFS_std.c **** 
 978:Generated_Source\PSoC5/USBFS_std.c ****     ep &= USBFS_DIR_UNUSED;
 739              		.loc 1 978 0
 740 0000 00F07F00 		and	r0, r0, #127
 741              	.LVL64:
 979:Generated_Source\PSoC5/USBFS_std.c ****     ri = ((ep - USBFS_EP1) << USBFS_EPX_CNTX_ADDR_SHIFT);
 742              		.loc 1 979 0
 743 0004 431E     		subs	r3, r0, #1
 744 0006 DBB2     		uxtb	r3, r3
 745              	.LVL65:
 980:Generated_Source\PSoC5/USBFS_std.c **** 
 981:Generated_Source\PSoC5/USBFS_std.c ****     if ((ep > USBFS_EP0) && (ep < USBFS_MAX_EP))
 746              		.loc 1 981 0
 747 0008 072B     		cmp	r3, #7
 748 000a 14D8     		bhi	.L72
 982:Generated_Source\PSoC5/USBFS_std.c ****     {
 983:Generated_Source\PSoC5/USBFS_std.c ****         /* Set the endpoint Halt */
 984:Generated_Source\PSoC5/USBFS_std.c ****         USBFS_EP[ep].hwEpState |= (USBFS_ENDPOINT_STATUS_HALT);
 749              		.loc 1 984 0
 750 000c 0A4A     		ldr	r2, .L76
 751 000e 0C21     		movs	r1, #12
 752 0010 01FB0020 		mla	r0, r1, r0, r2
 753              	.LVL66:
 754 0014 8278     		ldrb	r2, [r0, #2]	@ zero_extendqisi2
 979:Generated_Source\PSoC5/USBFS_std.c **** 
 755              		.loc 1 979 0
 756 0016 1B01     		lsls	r3, r3, #4
 757              	.LVL67:
 758              		.loc 1 984 0
 759 0018 42F00102 		orr	r2, r2, #1
 760 001c 8270     		strb	r2, [r0, #2]
 985:Generated_Source\PSoC5/USBFS_std.c **** 
 986:Generated_Source\PSoC5/USBFS_std.c ****         /* Clear the data toggle */
 987:Generated_Source\PSoC5/USBFS_std.c ****         USBFS_EP[ep].epToggle = 0u;
 761              		.loc 1 987 0
 762 001e 0022     		movs	r2, #0
 763 0020 C270     		strb	r2, [r0, #3]
 988:Generated_Source\PSoC5/USBFS_std.c ****         USBFS_EP[ep].apiEpState = USBFS_NO_EVENT_ALLOWED;
 764              		.loc 1 988 0
 765 0022 0222     		movs	r2, #2
 766 0024 4270     		strb	r2, [r0, #1]
 989:Generated_Source\PSoC5/USBFS_std.c **** 
 990:Generated_Source\PSoC5/USBFS_std.c ****         if ((USBFS_EP[ep].addr & USBFS_DIR_IN) != 0u)
 767              		.loc 1 990 0
 768 0026 0279     		ldrb	r2, [r0, #4]	@ zero_extendqisi2
 979:Generated_Source\PSoC5/USBFS_std.c **** 
 769              		.loc 1 979 0
ARM GAS  C:\Users\RABBIT~1\AppData\Local\Temp\ccYRpEyv.s 			page 34


 770 0028 DBB2     		uxtb	r3, r3
 771              		.loc 1 990 0
 772 002a 12F0800F 		tst	r2, #128
 773 002e 034A     		ldr	r2, .L76+4
 991:Generated_Source\PSoC5/USBFS_std.c ****         {
 992:Generated_Source\PSoC5/USBFS_std.c ****             /* IN Endpoint */
 993:Generated_Source\PSoC5/USBFS_std.c ****             CY_SET_REG8((reg8 *)(USBFS_SIE_EP1_CR0_IND + ri), USBFS_MODE_NAK_IN);
 994:Generated_Source\PSoC5/USBFS_std.c ****         }
 995:Generated_Source\PSoC5/USBFS_std.c ****         else
 996:Generated_Source\PSoC5/USBFS_std.c ****         {
 997:Generated_Source\PSoC5/USBFS_std.c ****             /* OUT Endpoint */
 998:Generated_Source\PSoC5/USBFS_std.c ****             CY_SET_REG8((reg8 *)(USBFS_SIE_EP1_CR0_IND + ri), USBFS_MODE_NAK_OUT);
 774              		.loc 1 998 0
 775 0030 08BF     		it	eq
 776 0032 0821     		moveq	r1, #8
 777 0034 9954     		strb	r1, [r3, r2]
 778              	.L72:
 779 0036 7047     		bx	lr
 780              	.L77:
 781              		.align	2
 782              	.L76:
 783 0038 00000000 		.word	USBFS_EP
 784 003c 0E600040 		.word	1073766414
 785              		.cfi_endproc
 786              	.LFE7:
 787              		.size	USBFS_TerminateEP, .-USBFS_TerminateEP
 788              		.section	.text.USBFS_SetEndpointHalt,"ax",%progbits
 789              		.align	1
 790              		.global	USBFS_SetEndpointHalt
 791              		.thumb
 792              		.thumb_func
 793              		.type	USBFS_SetEndpointHalt, %function
 794              	USBFS_SetEndpointHalt:
 795              	.LFB8:
 999:Generated_Source\PSoC5/USBFS_std.c ****         }
1000:Generated_Source\PSoC5/USBFS_std.c ****     }
1001:Generated_Source\PSoC5/USBFS_std.c **** }
1002:Generated_Source\PSoC5/USBFS_std.c **** 
1003:Generated_Source\PSoC5/USBFS_std.c **** 
1004:Generated_Source\PSoC5/USBFS_std.c **** /*******************************************************************************
1005:Generated_Source\PSoC5/USBFS_std.c **** * Function Name: USBFS_SetEndpointHalt
1006:Generated_Source\PSoC5/USBFS_std.c **** ********************************************************************************
1007:Generated_Source\PSoC5/USBFS_std.c **** *
1008:Generated_Source\PSoC5/USBFS_std.c **** * Summary:
1009:Generated_Source\PSoC5/USBFS_std.c **** *  This routine handles set endpoint halt.
1010:Generated_Source\PSoC5/USBFS_std.c **** *
1011:Generated_Source\PSoC5/USBFS_std.c **** * Parameters:
1012:Generated_Source\PSoC5/USBFS_std.c **** *  None.
1013:Generated_Source\PSoC5/USBFS_std.c **** *
1014:Generated_Source\PSoC5/USBFS_std.c **** * Return:
1015:Generated_Source\PSoC5/USBFS_std.c **** *  requestHandled.
1016:Generated_Source\PSoC5/USBFS_std.c **** *
1017:Generated_Source\PSoC5/USBFS_std.c **** * Reentrant:
1018:Generated_Source\PSoC5/USBFS_std.c **** *  No.
1019:Generated_Source\PSoC5/USBFS_std.c **** *
1020:Generated_Source\PSoC5/USBFS_std.c **** *******************************************************************************/
1021:Generated_Source\PSoC5/USBFS_std.c **** uint8 USBFS_SetEndpointHalt(void) 
ARM GAS  C:\Users\RABBIT~1\AppData\Local\Temp\ccYRpEyv.s 			page 35


1022:Generated_Source\PSoC5/USBFS_std.c **** {
 796              		.loc 1 1022 0
 797              		.cfi_startproc
 798              		@ args = 0, pretend = 0, frame = 0
 799              		@ frame_needed = 0, uses_anonymous_args = 0
 800              		@ link register save eliminated.
 801              	.LVL68:
1023:Generated_Source\PSoC5/USBFS_std.c ****     uint8 ep;
1024:Generated_Source\PSoC5/USBFS_std.c ****     uint8 ri;
1025:Generated_Source\PSoC5/USBFS_std.c ****     uint8 requestHandled = USBFS_FALSE;
1026:Generated_Source\PSoC5/USBFS_std.c **** 
1027:Generated_Source\PSoC5/USBFS_std.c ****     /* Set endpoint halt */
1028:Generated_Source\PSoC5/USBFS_std.c ****     ep = CY_GET_REG8(USBFS_wIndexLo) & USBFS_DIR_UNUSED;
 802              		.loc 1 1028 0
 803 0000 114B     		ldr	r3, .L83
 804 0002 1B78     		ldrb	r3, [r3]	@ zero_extendqisi2
 805 0004 03F07F02 		and	r2, r3, #127
 806              	.LVL69:
1029:Generated_Source\PSoC5/USBFS_std.c ****     ri = ((ep - USBFS_EP1) << USBFS_EPX_CNTX_ADDR_SHIFT);
 807              		.loc 1 1029 0
 808 0008 511E     		subs	r1, r2, #1
 809 000a C9B2     		uxtb	r1, r1
 810              	.LVL70:
1030:Generated_Source\PSoC5/USBFS_std.c **** 
1031:Generated_Source\PSoC5/USBFS_std.c ****     if ((ep > USBFS_EP0) && (ep < USBFS_MAX_EP))
 811              		.loc 1 1031 0
 812 000c 0729     		cmp	r1, #7
 813 000e 19D8     		bhi	.L79
1032:Generated_Source\PSoC5/USBFS_std.c ****     {
1033:Generated_Source\PSoC5/USBFS_std.c ****         /* Set the endpoint Halt */
1034:Generated_Source\PSoC5/USBFS_std.c ****         USBFS_EP[ep].hwEpState |= (USBFS_ENDPOINT_STATUS_HALT);
 814              		.loc 1 1034 0
 815 0010 0E4B     		ldr	r3, .L83+4
 816 0012 0C20     		movs	r0, #12
 817 0014 00FB0233 		mla	r3, r0, r2, r3
 818 0018 9A78     		ldrb	r2, [r3, #2]	@ zero_extendqisi2
 819              	.LVL71:
1029:Generated_Source\PSoC5/USBFS_std.c **** 
 820              		.loc 1 1029 0
 821 001a 0901     		lsls	r1, r1, #4
 822              	.LVL72:
 823              		.loc 1 1034 0
 824 001c 42F00102 		orr	r2, r2, #1
 825 0020 9A70     		strb	r2, [r3, #2]
1035:Generated_Source\PSoC5/USBFS_std.c **** 
1036:Generated_Source\PSoC5/USBFS_std.c ****         /* Clear the data toggle */
1037:Generated_Source\PSoC5/USBFS_std.c ****         USBFS_EP[ep].epToggle = 0u;
 826              		.loc 1 1037 0
 827 0022 0022     		movs	r2, #0
 828 0024 DA70     		strb	r2, [r3, #3]
1038:Generated_Source\PSoC5/USBFS_std.c ****         USBFS_EP[ep].apiEpState |= USBFS_NO_EVENT_ALLOWED;
 829              		.loc 1 1038 0
 830 0026 5A78     		ldrb	r2, [r3, #1]	@ zero_extendqisi2
1029:Generated_Source\PSoC5/USBFS_std.c **** 
 831              		.loc 1 1029 0
 832 0028 C9B2     		uxtb	r1, r1
 833              		.loc 1 1038 0
ARM GAS  C:\Users\RABBIT~1\AppData\Local\Temp\ccYRpEyv.s 			page 36


 834 002a 42F00202 		orr	r2, r2, #2
 835 002e 5A70     		strb	r2, [r3, #1]
1039:Generated_Source\PSoC5/USBFS_std.c **** 
1040:Generated_Source\PSoC5/USBFS_std.c ****         if ((USBFS_EP[ep].addr & USBFS_DIR_IN) != 0u)
 836              		.loc 1 1040 0
 837 0030 1B79     		ldrb	r3, [r3, #4]	@ zero_extendqisi2
 838 0032 13F0800F 		tst	r3, #128
 839 0036 064B     		ldr	r3, .L83+8
1041:Generated_Source\PSoC5/USBFS_std.c ****         {
1042:Generated_Source\PSoC5/USBFS_std.c ****             /* IN Endpoint */
1043:Generated_Source\PSoC5/USBFS_std.c ****             CY_SET_REG8((reg8 *)(USBFS_SIE_EP1_CR0_IND + ri), USBFS_MODE_STALL_DATA_EP |
 840              		.loc 1 1043 0
 841 0038 14BF     		ite	ne
 842 003a 8D22     		movne	r2, #141
1044:Generated_Source\PSoC5/USBFS_std.c ****                                                                USBFS_MODE_ACK_IN);
1045:Generated_Source\PSoC5/USBFS_std.c ****         }
1046:Generated_Source\PSoC5/USBFS_std.c ****         else
1047:Generated_Source\PSoC5/USBFS_std.c ****         {
1048:Generated_Source\PSoC5/USBFS_std.c ****             /* OUT Endpoint */
1049:Generated_Source\PSoC5/USBFS_std.c ****             CY_SET_REG8((reg8 *)(USBFS_SIE_EP1_CR0_IND + ri), USBFS_MODE_STALL_DATA_EP |
 843              		.loc 1 1049 0
 844 003c 8922     		moveq	r2, #137
 845 003e CA54     		strb	r2, [r1, r3]
1050:Generated_Source\PSoC5/USBFS_std.c ****                                                                USBFS_MODE_ACK_OUT);
1051:Generated_Source\PSoC5/USBFS_std.c ****         }
1052:Generated_Source\PSoC5/USBFS_std.c ****         requestHandled = USBFS_InitNoDataControlTransfer();
 846              		.loc 1 1052 0
 847 0040 FFF7FEBF 		b	USBFS_InitNoDataControlTransfer
 848              	.LVL73:
 849              	.L79:
1053:Generated_Source\PSoC5/USBFS_std.c ****     }
1054:Generated_Source\PSoC5/USBFS_std.c **** 
1055:Generated_Source\PSoC5/USBFS_std.c ****     return(requestHandled);
1056:Generated_Source\PSoC5/USBFS_std.c **** }
 850              		.loc 1 1056 0
 851 0044 0020     		movs	r0, #0
 852 0046 7047     		bx	lr
 853              	.L84:
 854              		.align	2
 855              	.L83:
 856 0048 04600040 		.word	1073766404
 857 004c 00000000 		.word	USBFS_EP
 858 0050 0E600040 		.word	1073766414
 859              		.cfi_endproc
 860              	.LFE8:
 861              		.size	USBFS_SetEndpointHalt, .-USBFS_SetEndpointHalt
 862              		.section	.text.USBFS_ClearEndpointHalt,"ax",%progbits
 863              		.align	1
 864              		.global	USBFS_ClearEndpointHalt
 865              		.thumb
 866              		.thumb_func
 867              		.type	USBFS_ClearEndpointHalt, %function
 868              	USBFS_ClearEndpointHalt:
 869              	.LFB9:
1057:Generated_Source\PSoC5/USBFS_std.c **** 
1058:Generated_Source\PSoC5/USBFS_std.c **** 
1059:Generated_Source\PSoC5/USBFS_std.c **** /*******************************************************************************
ARM GAS  C:\Users\RABBIT~1\AppData\Local\Temp\ccYRpEyv.s 			page 37


1060:Generated_Source\PSoC5/USBFS_std.c **** * Function Name: USBFS_ClearEndpointHalt
1061:Generated_Source\PSoC5/USBFS_std.c **** ********************************************************************************
1062:Generated_Source\PSoC5/USBFS_std.c **** *
1063:Generated_Source\PSoC5/USBFS_std.c **** * Summary:
1064:Generated_Source\PSoC5/USBFS_std.c **** *  This routine handles clear endpoint halt.
1065:Generated_Source\PSoC5/USBFS_std.c **** *
1066:Generated_Source\PSoC5/USBFS_std.c **** * Parameters:
1067:Generated_Source\PSoC5/USBFS_std.c **** *  None.
1068:Generated_Source\PSoC5/USBFS_std.c **** *
1069:Generated_Source\PSoC5/USBFS_std.c **** * Return:
1070:Generated_Source\PSoC5/USBFS_std.c **** *  requestHandled.
1071:Generated_Source\PSoC5/USBFS_std.c **** *
1072:Generated_Source\PSoC5/USBFS_std.c **** * Reentrant:
1073:Generated_Source\PSoC5/USBFS_std.c **** *  No.
1074:Generated_Source\PSoC5/USBFS_std.c **** *
1075:Generated_Source\PSoC5/USBFS_std.c **** *******************************************************************************/
1076:Generated_Source\PSoC5/USBFS_std.c **** uint8 USBFS_ClearEndpointHalt(void) 
1077:Generated_Source\PSoC5/USBFS_std.c **** {
 870              		.loc 1 1077 0
 871              		.cfi_startproc
 872              		@ args = 0, pretend = 0, frame = 0
 873              		@ frame_needed = 0, uses_anonymous_args = 0
 874              		@ link register save eliminated.
 875              	.LVL74:
 876 0000 10B4     		push	{r4}
 877              		.cfi_def_cfa_offset 4
 878              		.cfi_offset 4, -4
1078:Generated_Source\PSoC5/USBFS_std.c ****     uint8 ep;
1079:Generated_Source\PSoC5/USBFS_std.c ****     uint8 ri;
1080:Generated_Source\PSoC5/USBFS_std.c ****     uint8 requestHandled = USBFS_FALSE;
1081:Generated_Source\PSoC5/USBFS_std.c **** 
1082:Generated_Source\PSoC5/USBFS_std.c ****     /* Clear endpoint halt */
1083:Generated_Source\PSoC5/USBFS_std.c ****     ep = CY_GET_REG8(USBFS_wIndexLo) & USBFS_DIR_UNUSED;
 879              		.loc 1 1083 0
 880 0002 1A4B     		ldr	r3, .L92
 881 0004 1A78     		ldrb	r2, [r3]	@ zero_extendqisi2
 882 0006 02F07F02 		and	r2, r2, #127
 883              	.LVL75:
1084:Generated_Source\PSoC5/USBFS_std.c ****     ri = ((ep - USBFS_EP1) << USBFS_EPX_CNTX_ADDR_SHIFT);
 884              		.loc 1 1084 0
 885 000a 531E     		subs	r3, r2, #1
 886 000c DBB2     		uxtb	r3, r3
 887              	.LVL76:
1085:Generated_Source\PSoC5/USBFS_std.c **** 
1086:Generated_Source\PSoC5/USBFS_std.c ****     if ((ep > USBFS_EP0) && (ep < USBFS_MAX_EP))
 888              		.loc 1 1086 0
 889 000e 072B     		cmp	r3, #7
 890 0010 28D8     		bhi	.L86
1087:Generated_Source\PSoC5/USBFS_std.c ****     {
1088:Generated_Source\PSoC5/USBFS_std.c ****         /* Clear the endpoint Halt */
1089:Generated_Source\PSoC5/USBFS_std.c ****         USBFS_EP[ep].hwEpState &= (uint8)~(USBFS_ENDPOINT_STATUS_HALT);
 891              		.loc 1 1089 0
 892 0012 1749     		ldr	r1, .L92+4
 893 0014 0C20     		movs	r0, #12
 894 0016 00FB0212 		mla	r2, r0, r2, r1
 895              	.LVL77:
 896 001a 9178     		ldrb	r1, [r2, #2]	@ zero_extendqisi2
ARM GAS  C:\Users\RABBIT~1\AppData\Local\Temp\ccYRpEyv.s 			page 38


1090:Generated_Source\PSoC5/USBFS_std.c **** 
1091:Generated_Source\PSoC5/USBFS_std.c ****         /* Clear the data toggle */
1092:Generated_Source\PSoC5/USBFS_std.c ****         USBFS_EP[ep].epToggle = 0u;
1093:Generated_Source\PSoC5/USBFS_std.c ****         /* Clear toggle bit for already armed packet */
1094:Generated_Source\PSoC5/USBFS_std.c ****         CY_SET_REG8((reg8 *)(USBFS_SIE_EP1_CNT0_IND + ri), CY_GET_REG8(
 897              		.loc 1 1094 0
 898 001c 154C     		ldr	r4, .L92+8
1089:Generated_Source\PSoC5/USBFS_std.c **** 
 899              		.loc 1 1089 0
 900 001e 01F0FE01 		and	r1, r1, #254
 901 0022 9170     		strb	r1, [r2, #2]
 902              		.loc 1 1094 0
 903 0024 1B01     		lsls	r3, r3, #4
 904              	.LVL78:
1092:Generated_Source\PSoC5/USBFS_std.c ****         /* Clear toggle bit for already armed packet */
 905              		.loc 1 1092 0
 906 0026 0021     		movs	r1, #0
 907 0028 D170     		strb	r1, [r2, #3]
 908              		.loc 1 1094 0
 909 002a DBB2     		uxtb	r3, r3
 910 002c 195D     		ldrb	r1, [r3, r4]	@ zero_extendqisi2
 911 002e 01F07F01 		and	r1, r1, #127
 912 0032 1955     		strb	r1, [r3, r4]
1095:Generated_Source\PSoC5/USBFS_std.c ****                     (reg8 *)(USBFS_SIE_EP1_CNT0_IND + ri)) & (uint8)~USBFS_EPX_CNT_DATA_TOGGLE);
1096:Generated_Source\PSoC5/USBFS_std.c ****         /* Return API State as it was defined before */
1097:Generated_Source\PSoC5/USBFS_std.c ****         USBFS_EP[ep].apiEpState &= (uint8)~USBFS_NO_EVENT_ALLOWED;
 913              		.loc 1 1097 0
 914 0034 5178     		ldrb	r1, [r2, #1]	@ zero_extendqisi2
 915 0036 01F0FD01 		and	r1, r1, #253
 916 003a 5170     		strb	r1, [r2, #1]
1098:Generated_Source\PSoC5/USBFS_std.c **** 
1099:Generated_Source\PSoC5/USBFS_std.c ****         if ((USBFS_EP[ep].addr & USBFS_DIR_IN) != 0u)
 917              		.loc 1 1099 0
 918 003c 1179     		ldrb	r1, [r2, #4]	@ zero_extendqisi2
1100:Generated_Source\PSoC5/USBFS_std.c ****         {
1101:Generated_Source\PSoC5/USBFS_std.c ****             /* IN Endpoint */
1102:Generated_Source\PSoC5/USBFS_std.c ****             if(USBFS_EP[ep].apiEpState == USBFS_IN_BUFFER_EMPTY)
 919              		.loc 1 1102 0
 920 003e 5278     		ldrb	r2, [r2, #1]	@ zero_extendqisi2
1099:Generated_Source\PSoC5/USBFS_std.c ****         {
 921              		.loc 1 1099 0
 922 0040 11F0800F 		tst	r1, #128
 923 0044 0C49     		ldr	r1, .L92+12
 924 0046 05D0     		beq	.L87
 925              		.loc 1 1102 0
 926 0048 012A     		cmp	r2, #1
 927 004a 01D1     		bne	.L88
1103:Generated_Source\PSoC5/USBFS_std.c ****             {       /* Wait for next packet from application */
1104:Generated_Source\PSoC5/USBFS_std.c ****                 CY_SET_REG8((reg8 *)(USBFS_SIE_EP1_CR0_IND + ri), USBFS_MODE_NAK_IN);
 928              		.loc 1 1104 0
 929 004c 5854     		strb	r0, [r3, r1]
 930 004e 06E0     		b	.L89
 931              	.L88:
1105:Generated_Source\PSoC5/USBFS_std.c ****             }
1106:Generated_Source\PSoC5/USBFS_std.c ****             else    /* Continue armed transfer */
1107:Generated_Source\PSoC5/USBFS_std.c ****             {
1108:Generated_Source\PSoC5/USBFS_std.c ****                 CY_SET_REG8((reg8 *)(USBFS_SIE_EP1_CR0_IND + ri), USBFS_MODE_ACK_IN);
ARM GAS  C:\Users\RABBIT~1\AppData\Local\Temp\ccYRpEyv.s 			page 39


 932              		.loc 1 1108 0
 933 0050 0D22     		movs	r2, #13
 934 0052 03E0     		b	.L91
 935              	.L87:
1109:Generated_Source\PSoC5/USBFS_std.c ****             }
1110:Generated_Source\PSoC5/USBFS_std.c ****         }
1111:Generated_Source\PSoC5/USBFS_std.c ****         else
1112:Generated_Source\PSoC5/USBFS_std.c ****         {
1113:Generated_Source\PSoC5/USBFS_std.c ****             /* OUT Endpoint */
1114:Generated_Source\PSoC5/USBFS_std.c ****             if(USBFS_EP[ep].apiEpState == USBFS_OUT_BUFFER_FULL)
 936              		.loc 1 1114 0
 937 0054 012A     		cmp	r2, #1
1115:Generated_Source\PSoC5/USBFS_std.c ****             {       /* Allow application to read full buffer */
1116:Generated_Source\PSoC5/USBFS_std.c ****                 CY_SET_REG8((reg8 *)(USBFS_SIE_EP1_CR0_IND + ri), USBFS_MODE_NAK_OUT);
 938              		.loc 1 1116 0
 939 0056 0CBF     		ite	eq
 940 0058 0822     		moveq	r2, #8
1117:Generated_Source\PSoC5/USBFS_std.c ****             }
1118:Generated_Source\PSoC5/USBFS_std.c ****             else    /* Mark endpoint as empty, so it will be reloaded */
1119:Generated_Source\PSoC5/USBFS_std.c ****             {
1120:Generated_Source\PSoC5/USBFS_std.c ****                 CY_SET_REG8((reg8 *)(USBFS_SIE_EP1_CR0_IND + ri), USBFS_MODE_ACK_OUT);
 941              		.loc 1 1120 0
 942 005a 0922     		movne	r2, #9
 943              	.L91:
 944 005c 5A54     		strb	r2, [r3, r1]
 945              	.L89:
1121:Generated_Source\PSoC5/USBFS_std.c ****             }
1122:Generated_Source\PSoC5/USBFS_std.c ****         }
1123:Generated_Source\PSoC5/USBFS_std.c ****         requestHandled = USBFS_InitNoDataControlTransfer();
1124:Generated_Source\PSoC5/USBFS_std.c ****     }
1125:Generated_Source\PSoC5/USBFS_std.c **** 
1126:Generated_Source\PSoC5/USBFS_std.c ****     return(requestHandled);
1127:Generated_Source\PSoC5/USBFS_std.c **** }
 946              		.loc 1 1127 0
 947 005e 10BC     		pop	{r4}
 948              		.cfi_remember_state
 949              		.cfi_restore 4
 950              		.cfi_def_cfa_offset 0
1123:Generated_Source\PSoC5/USBFS_std.c ****     }
 951              		.loc 1 1123 0
 952 0060 FFF7FEBF 		b	USBFS_InitNoDataControlTransfer
 953              	.LVL79:
 954              	.L86:
 955              		.cfi_restore_state
 956              		.loc 1 1127 0
 957 0064 0020     		movs	r0, #0
 958 0066 10BC     		pop	{r4}
 959              		.cfi_restore 4
 960              		.cfi_def_cfa_offset 0
 961 0068 7047     		bx	lr
 962              	.L93:
 963 006a 00BF     		.align	2
 964              	.L92:
 965 006c 04600040 		.word	1073766404
 966 0070 00000000 		.word	USBFS_EP
 967 0074 0C600040 		.word	1073766412
 968 0078 0E600040 		.word	1073766414
ARM GAS  C:\Users\RABBIT~1\AppData\Local\Temp\ccYRpEyv.s 			page 40


 969              		.cfi_endproc
 970              	.LFE9:
 971              		.size	USBFS_ClearEndpointHalt, .-USBFS_ClearEndpointHalt
 972              		.section	.text.USBFS_ValidateAlternateSetting,"ax",%progbits
 973              		.align	1
 974              		.global	USBFS_ValidateAlternateSetting
 975              		.thumb
 976              		.thumb_func
 977              		.type	USBFS_ValidateAlternateSetting, %function
 978              	USBFS_ValidateAlternateSetting:
 979              	.LFB10:
1128:Generated_Source\PSoC5/USBFS_std.c **** 
1129:Generated_Source\PSoC5/USBFS_std.c **** 
1130:Generated_Source\PSoC5/USBFS_std.c **** /*******************************************************************************
1131:Generated_Source\PSoC5/USBFS_std.c **** * Function Name: USBFS_ValidateAlternateSetting
1132:Generated_Source\PSoC5/USBFS_std.c **** ********************************************************************************
1133:Generated_Source\PSoC5/USBFS_std.c **** *
1134:Generated_Source\PSoC5/USBFS_std.c **** * Summary:
1135:Generated_Source\PSoC5/USBFS_std.c **** *  Validates (and records) a SET INTERFACE request.
1136:Generated_Source\PSoC5/USBFS_std.c **** *
1137:Generated_Source\PSoC5/USBFS_std.c **** * Parameters:
1138:Generated_Source\PSoC5/USBFS_std.c **** *  None.
1139:Generated_Source\PSoC5/USBFS_std.c **** *
1140:Generated_Source\PSoC5/USBFS_std.c **** * Return:
1141:Generated_Source\PSoC5/USBFS_std.c **** *  requestHandled.
1142:Generated_Source\PSoC5/USBFS_std.c **** *
1143:Generated_Source\PSoC5/USBFS_std.c **** * Reentrant:
1144:Generated_Source\PSoC5/USBFS_std.c **** *  No.
1145:Generated_Source\PSoC5/USBFS_std.c **** *
1146:Generated_Source\PSoC5/USBFS_std.c **** *******************************************************************************/
1147:Generated_Source\PSoC5/USBFS_std.c **** uint8 USBFS_ValidateAlternateSetting(void) 
1148:Generated_Source\PSoC5/USBFS_std.c **** {
 980              		.loc 1 1148 0
 981              		.cfi_startproc
 982              		@ args = 0, pretend = 0, frame = 0
 983              		@ frame_needed = 0, uses_anonymous_args = 0
 984              	.LVL80:
 985 0000 08B5     		push	{r3, lr}
 986              		.cfi_def_cfa_offset 8
 987              		.cfi_offset 3, -8
 988              		.cfi_offset 14, -4
1149:Generated_Source\PSoC5/USBFS_std.c ****     uint8 requestHandled = USBFS_TRUE;
1150:Generated_Source\PSoC5/USBFS_std.c ****     uint8 interfaceNum;
1151:Generated_Source\PSoC5/USBFS_std.c ****     const T_USBFS_LUT CYCODE *pTmp;
1152:Generated_Source\PSoC5/USBFS_std.c ****     uint8 currentInterfacesNum;
1153:Generated_Source\PSoC5/USBFS_std.c **** 
1154:Generated_Source\PSoC5/USBFS_std.c ****     interfaceNum = CY_GET_REG8(USBFS_wIndexLo);
 989              		.loc 1 1154 0
 990 0002 0D4B     		ldr	r3, .L98
 991 0004 1978     		ldrb	r1, [r3]	@ zero_extendqisi2
1155:Generated_Source\PSoC5/USBFS_std.c ****     /* Validate interface setting, stall if invalid. */
1156:Generated_Source\PSoC5/USBFS_std.c ****     pTmp = USBFS_GetConfigTablePtr(USBFS_configuration - 1u);
 992              		.loc 1 1156 0
 993 0006 0D4B     		ldr	r3, .L98+4
1154:Generated_Source\PSoC5/USBFS_std.c ****     /* Validate interface setting, stall if invalid. */
 994              		.loc 1 1154 0
 995 0008 C9B2     		uxtb	r1, r1
ARM GAS  C:\Users\RABBIT~1\AppData\Local\Temp\ccYRpEyv.s 			page 41


 996              	.LVL81:
 997              		.loc 1 1156 0
 998 000a 1878     		ldrb	r0, [r3]	@ zero_extendqisi2
 999 000c 0138     		subs	r0, r0, #1
 1000 000e C0B2     		uxtb	r0, r0
 1001 0010 FFF7FEFF 		bl	USBFS_GetConfigTablePtr
 1002              	.LVL82:
1157:Generated_Source\PSoC5/USBFS_std.c ****     currentInterfacesNum  = ((const uint8 *) pTmp->p_list)[USBFS_CONFIG_DESCR_NUM_INTERFACES];
 1003              		.loc 1 1157 0
 1004 0014 4368     		ldr	r3, [r0, #4]
1158:Generated_Source\PSoC5/USBFS_std.c **** 
1159:Generated_Source\PSoC5/USBFS_std.c ****     if((interfaceNum >= currentInterfacesNum) || (interfaceNum >= USBFS_MAX_INTERFACES_NUMBER))
 1005              		.loc 1 1159 0
 1006 0016 1B79     		ldrb	r3, [r3, #4]	@ zero_extendqisi2
 1007 0018 8B42     		cmp	r3, r1
 1008 001a 0BD9     		bls	.L97
 1009              		.loc 1 1159 0 is_stmt 0 discriminator 1
 1010 001c 51B9     		cbnz	r1, .L97
1160:Generated_Source\PSoC5/USBFS_std.c ****     {   /* Wrong interface number */
1161:Generated_Source\PSoC5/USBFS_std.c ****         requestHandled = USBFS_FALSE;
1162:Generated_Source\PSoC5/USBFS_std.c ****     }
1163:Generated_Source\PSoC5/USBFS_std.c ****     else
1164:Generated_Source\PSoC5/USBFS_std.c ****     {
1165:Generated_Source\PSoC5/USBFS_std.c ****         /* Save current Alt setting to find out the difference in Config() function */
1166:Generated_Source\PSoC5/USBFS_std.c ****         USBFS_interfaceSetting_last[interfaceNum] = USBFS_interfaceSetting[interfaceNum];
 1011              		.loc 1 1166 0 is_stmt 1
 1012 001e 084A     		ldr	r2, .L98+8
 1013 0020 0849     		ldr	r1, .L98+12
 1014 0022 1378     		ldrb	r3, [r2]	@ zero_extendqisi2
1149:Generated_Source\PSoC5/USBFS_std.c ****     uint8 interfaceNum;
 1015              		.loc 1 1149 0
 1016 0024 0120     		movs	r0, #1
 1017              	.LVL83:
 1018              		.loc 1 1166 0
 1019 0026 DBB2     		uxtb	r3, r3
 1020 0028 0B70     		strb	r3, [r1]
1167:Generated_Source\PSoC5/USBFS_std.c ****         USBFS_interfaceSetting[interfaceNum] = CY_GET_REG8(USBFS_wValueLo);
 1021              		.loc 1 1167 0
 1022 002a 074B     		ldr	r3, .L98+16
 1023 002c 1B78     		ldrb	r3, [r3]	@ zero_extendqisi2
 1024 002e DBB2     		uxtb	r3, r3
 1025 0030 1370     		strb	r3, [r2]
 1026 0032 08BD     		pop	{r3, pc}
 1027              	.LVL84:
 1028              	.L97:
1161:Generated_Source\PSoC5/USBFS_std.c ****     }
 1029              		.loc 1 1161 0
 1030 0034 0020     		movs	r0, #0
 1031              	.LVL85:
1168:Generated_Source\PSoC5/USBFS_std.c ****     }
1169:Generated_Source\PSoC5/USBFS_std.c **** 
1170:Generated_Source\PSoC5/USBFS_std.c ****     return (requestHandled);
1171:Generated_Source\PSoC5/USBFS_std.c **** }
 1032              		.loc 1 1171 0
 1033 0036 08BD     		pop	{r3, pc}
 1034              	.LVL86:
 1035              	.L99:
ARM GAS  C:\Users\RABBIT~1\AppData\Local\Temp\ccYRpEyv.s 			page 42


 1036              		.align	2
 1037              	.L98:
 1038 0038 04600040 		.word	1073766404
 1039 003c 00000000 		.word	USBFS_configuration
 1040 0040 00000000 		.word	USBFS_interfaceSetting
 1041 0044 00000000 		.word	USBFS_interfaceSetting_last
 1042 0048 02600040 		.word	1073766402
 1043              		.cfi_endproc
 1044              	.LFE10:
 1045              		.size	USBFS_ValidateAlternateSetting, .-USBFS_ValidateAlternateSetting
 1046              		.section	.text.USBFS_HandleStandardRqst,"ax",%progbits
 1047              		.align	1
 1048              		.global	USBFS_HandleStandardRqst
 1049              		.thumb
 1050              		.thumb_func
 1051              		.type	USBFS_HandleStandardRqst, %function
 1052              	USBFS_HandleStandardRqst:
 1053              	.LFB0:
  89:Generated_Source\PSoC5/USBFS_std.c ****     uint8 requestHandled = USBFS_FALSE;
 1054              		.loc 1 89 0
 1055              		.cfi_startproc
 1056              		@ args = 0, pretend = 0, frame = 0
 1057              		@ frame_needed = 0, uses_anonymous_args = 0
 1058              	.LVL87:
 1059 0000 38B5     		push	{r3, r4, r5, lr}
 1060              		.cfi_def_cfa_offset 16
 1061              		.cfi_offset 3, -16
 1062              		.cfi_offset 4, -12
 1063              		.cfi_offset 5, -8
 1064              		.cfi_offset 14, -4
 102:Generated_Source\PSoC5/USBFS_std.c **** 
 1065              		.loc 1 102 0
 1066 0002 8D49     		ldr	r1, .L155
 1067 0004 0023     		movs	r3, #0
 1068 0006 0B80     		strh	r3, [r1]	@ movhi
 104:Generated_Source\PSoC5/USBFS_std.c ****     {
 1069              		.loc 1 104 0
 1070 0008 8C4B     		ldr	r3, .L155+4
 1071 000a 1A78     		ldrb	r2, [r3]	@ zero_extendqisi2
 1072 000c 12F0800F 		tst	r2, #128
 1073 0010 8B4A     		ldr	r2, .L155+8
 107:Generated_Source\PSoC5/USBFS_std.c ****         {
 1074              		.loc 1 107 0
 1075 0012 1278     		ldrb	r2, [r2]	@ zero_extendqisi2
 104:Generated_Source\PSoC5/USBFS_std.c ****     {
 1076              		.loc 1 104 0
 1077 0014 00F08A80 		beq	.L101
 107:Generated_Source\PSoC5/USBFS_std.c ****         {
 1078              		.loc 1 107 0
 1079 0018 0A2A     		cmp	r2, #10
 1080 001a 00F20A81 		bhi	.L102
 1081 001e DFE812F0 		tbh	[pc, r2, lsl #1]
 1082              	.L104:
 1083 0022 5800     		.2byte	(.L103-.L104)/2
 1084 0024 0801     		.2byte	(.L102-.L104)/2
 1085 0026 0801     		.2byte	(.L102-.L104)/2
 1086 0028 0801     		.2byte	(.L102-.L104)/2
ARM GAS  C:\Users\RABBIT~1\AppData\Local\Temp\ccYRpEyv.s 			page 43


 1087 002a 0801     		.2byte	(.L102-.L104)/2
 1088 002c 0801     		.2byte	(.L102-.L104)/2
 1089 002e 0B00     		.2byte	(.L105-.L104)/2
 1090 0030 0801     		.2byte	(.L102-.L104)/2
 1091 0032 7A00     		.2byte	(.L106-.L104)/2
 1092 0034 0801     		.2byte	(.L102-.L104)/2
 1093 0036 7E00     		.2byte	(.L107-.L104)/2
 1094              		.p2align 1
 1095              	.L105:
 110:Generated_Source\PSoC5/USBFS_std.c ****                 {
 1096              		.loc 1 110 0
 1097 0038 824B     		ldr	r3, .L155+12
 1098 003a 1A78     		ldrb	r2, [r3]	@ zero_extendqisi2
 1099 003c 012A     		cmp	r2, #1
 1100 003e 09D1     		bne	.L108
 1101              	.LBB14:
 1102              	.LBB15:
 912:Generated_Source\PSoC5/USBFS_std.c **** }
 1103              		.loc 1 912 0
 1104 0040 814B     		ldr	r3, .L155+16
 1105 0042 1A78     		ldrb	r2, [r3]	@ zero_extendqisi2
 1106 0044 814B     		ldr	r3, .L155+20
 1107 0046 03EBC203 		add	r3, r3, r2, lsl #3
 1108              	.LBE15:
 1109              	.LBE14:
 113:Generated_Source\PSoC5/USBFS_std.c ****                     USBFS_currentTD.count = USBFS_DEVICE_DESCR_LENGTH;
 1110              		.loc 1 113 0
 1111 004a 5B68     		ldr	r3, [r3, #4]
 1112 004c 5B68     		ldr	r3, [r3, #4]
 1113 004e 4B60     		str	r3, [r1, #4]
 114:Generated_Source\PSoC5/USBFS_std.c ****                     requestHandled  = USBFS_InitControlRead();
 1114              		.loc 1 114 0
 1115 0050 1223     		movs	r3, #18
 1116 0052 11E0     		b	.L148
 1117              	.L108:
 117:Generated_Source\PSoC5/USBFS_std.c ****                 {
 1118              		.loc 1 117 0
 1119 0054 1A78     		ldrb	r2, [r3]	@ zero_extendqisi2
 1120 0056 022A     		cmp	r2, #2
 1121 0058 13D1     		bne	.L109
 119:Generated_Source\PSoC5/USBFS_std.c ****                     if( pTmp != NULL )  /* Verify that requested descriptor exists */
 1122              		.loc 1 119 0
 1123 005a 7D4B     		ldr	r3, .L155+24
 1124 005c 1878     		ldrb	r0, [r3]	@ zero_extendqisi2
 1125 005e FFF7FEFF 		bl	USBFS_GetConfigTablePtr
 1126              	.LVL88:
 120:Generated_Source\PSoC5/USBFS_std.c ****                     {
 1127              		.loc 1 120 0
 1128 0062 0028     		cmp	r0, #0
 1129 0064 00F0E580 		beq	.L102
 122:Generated_Source\PSoC5/USBFS_std.c ****                         USBFS_currentTD.count = ((uint16)(USBFS_currentTD.pData)[ \
 1130              		.loc 1 122 0
 1131 0068 4368     		ldr	r3, [r0, #4]
 1132 006a 4B60     		str	r3, [r1, #4]
 123:Generated_Source\PSoC5/USBFS_std.c ****                                           USBFS_CONFIG_DESCR_TOTAL_LENGTH_HI] << 8u) | \
 1133              		.loc 1 123 0
 1134 006c 4B68     		ldr	r3, [r1, #4]
ARM GAS  C:\Users\RABBIT~1\AppData\Local\Temp\ccYRpEyv.s 			page 44


 1135 006e DA78     		ldrb	r2, [r3, #3]	@ zero_extendqisi2
 125:Generated_Source\PSoC5/USBFS_std.c ****                         requestHandled  = USBFS_InitControlRead();
 1136              		.loc 1 125 0
 1137 0070 4B68     		ldr	r3, [r1, #4]
 1138 0072 9B78     		ldrb	r3, [r3, #2]	@ zero_extendqisi2
 123:Generated_Source\PSoC5/USBFS_std.c ****                                           USBFS_CONFIG_DESCR_TOTAL_LENGTH_HI] << 8u) | \
 1139              		.loc 1 123 0
 1140 0074 43EA0223 		orr	r3, r3, r2, lsl #8
 1141              	.LVL89:
 1142              	.L148:
 1143 0078 0B80     		strh	r3, [r1]	@ movhi
 1144              	.LVL90:
 1145              	.L149:
 337:Generated_Source\PSoC5/USBFS_std.c **** 
 1146              		.loc 1 337 0
 1147 007a BDE83840 		pop	{r3, r4, r5, lr}
 1148              		.cfi_remember_state
 1149              		.cfi_restore 14
 1150              		.cfi_restore 5
 1151              		.cfi_restore 4
 1152              		.cfi_restore 3
 1153              		.cfi_def_cfa_offset 0
 126:Generated_Source\PSoC5/USBFS_std.c ****                     }
 1154              		.loc 1 126 0
 1155 007e FFF7FEBF 		b	USBFS_InitControlRead
 1156              	.LVL91:
 1157              	.L109:
 1158              		.cfi_restore_state
 130:Generated_Source\PSoC5/USBFS_std.c ****                 {
 1159              		.loc 1 130 0
 1160 0082 1B78     		ldrb	r3, [r3]	@ zero_extendqisi2
 1161 0084 032B     		cmp	r3, #3
 1162 0086 20D1     		bne	.L111
 1163 0088 724B     		ldr	r3, .L155+28
 136:Generated_Source\PSoC5/USBFS_std.c ****                         {
 1164              		.loc 1 136 0
 1165 008a 714C     		ldr	r4, .L155+24
 1166 008c 0022     		movs	r2, #0
 1167              	.LVL92:
 1168              	.L112:
 1169 008e 2078     		ldrb	r0, [r4]	@ zero_extendqisi2
 1170 0090 D5B2     		uxtb	r5, r2
 1171 0092 8542     		cmp	r5, r0
 1172 0094 0BD3     		bcc	.L113
 1173              	.LVL93:
 1174              	.L117:
 154:Generated_Source\PSoC5/USBFS_std.c ****                             (CY_GET_REG8(USBFS_wValueLo) ==
 1175              		.loc 1 154 0
 1176 0096 6E4A     		ldr	r2, .L155+24
 1177 0098 1278     		ldrb	r2, [r2]	@ zero_extendqisi2
 1178 009a 7AB1     		cbz	r2, .L115
 155:Generated_Source\PSoC5/USBFS_std.c ****                             USBFS_DEVICE0_DESCR[USBFS_DEVICE_DESCR_SN_SHIFT]) )
 1179              		.loc 1 155 0 discriminator 1
 1180 009c 6C4A     		ldr	r2, .L155+24
 173:Generated_Source\PSoC5/USBFS_std.c ****                             #endif  /* defined(USBFS_ENABLE_IDSN_STRING) */
 1181              		.loc 1 173 0 discriminator 1
 1182 009e 6E4C     		ldr	r4, .L155+32
ARM GAS  C:\Users\RABBIT~1\AppData\Local\Temp\ccYRpEyv.s 			page 45


 155:Generated_Source\PSoC5/USBFS_std.c ****                             USBFS_DEVICE0_DESCR[USBFS_DEVICE_DESCR_SN_SHIFT]) )
 1183              		.loc 1 155 0 discriminator 1
 1184 00a0 1078     		ldrb	r0, [r2]	@ zero_extendqisi2
 173:Generated_Source\PSoC5/USBFS_std.c ****                             #endif  /* defined(USBFS_ENABLE_IDSN_STRING) */
 1185              		.loc 1 173 0 discriminator 1
 1186 00a2 247C     		ldrb	r4, [r4, #16]	@ zero_extendqisi2
 1187 00a4 6D4A     		ldr	r2, .L155+36
 1188 00a6 8442     		cmp	r4, r0
 1189 00a8 08BF     		it	eq
 1190 00aa 1346     		moveq	r3, r2
 1191              	.LVL94:
 1192 00ac 06E0     		b	.L115
 1193              	.LVL95:
 1194              	.L113:
 136:Generated_Source\PSoC5/USBFS_std.c ****                         {
 1195              		.loc 1 136 0 discriminator 1
 1196 00ae 1878     		ldrb	r0, [r3]	@ zero_extendqisi2
 1197 00b0 0132     		adds	r2, r2, #1
 1198              	.LVL96:
 1199 00b2 0028     		cmp	r0, #0
 1200 00b4 EFD0     		beq	.L117
 139:Generated_Source\PSoC5/USBFS_std.c ****                             /* Move to next string descriptor */
 1201              		.loc 1 139 0
 1202 00b6 1878     		ldrb	r0, [r3]	@ zero_extendqisi2
 1203              	.LVL97:
 141:Generated_Source\PSoC5/USBFS_std.c ****                             nStr++;
 1204              		.loc 1 141 0
 1205 00b8 0344     		add	r3, r3, r0
 1206              	.LVL98:
 1207 00ba E8E7     		b	.L112
 1208              	.LVL99:
 1209              	.L115:
 177:Generated_Source\PSoC5/USBFS_std.c ****                     {
 1210              		.loc 1 177 0
 1211 00bc 1A78     		ldrb	r2, [r3]	@ zero_extendqisi2
 1212 00be 002A     		cmp	r2, #0
 1213 00c0 00F0B780 		beq	.L102
 179:Generated_Source\PSoC5/USBFS_std.c ****                         USBFS_currentTD.pData = pStr;
 1214              		.loc 1 179 0
 1215 00c4 1A78     		ldrb	r2, [r3]	@ zero_extendqisi2
 1216 00c6 0A80     		strh	r2, [r1]	@ movhi
 1217 00c8 19E0     		b	.L152
 1218              	.LVL100:
 1219              	.L111:
 337:Generated_Source\PSoC5/USBFS_std.c **** 
 1220              		.loc 1 337 0
 1221 00ca BDE83840 		pop	{r3, r4, r5, lr}
 1222              		.cfi_remember_state
 1223              		.cfi_restore 14
 1224              		.cfi_restore 5
 1225              		.cfi_restore 4
 1226              		.cfi_restore 3
 1227              		.cfi_def_cfa_offset 0
 187:Generated_Source\PSoC5/USBFS_std.c ****                 }
 1228              		.loc 1 187 0
 1229 00ce FFF7FEBF 		b	USBFS_DispatchClassRqst
 1230              	.LVL101:
ARM GAS  C:\Users\RABBIT~1\AppData\Local\Temp\ccYRpEyv.s 			page 46


 1231              	.L103:
 1232              		.cfi_restore_state
 191:Generated_Source\PSoC5/USBFS_std.c ****                 {
 1233              		.loc 1 191 0
 1234 00d2 1B78     		ldrb	r3, [r3]	@ zero_extendqisi2
 1235 00d4 13F00303 		ands	r3, r3, #3
 1236 00d8 13D0     		beq	.L119
 1237 00da 022B     		cmp	r3, #2
 1238 00dc 40F0A980 		bne	.L102
 194:Generated_Source\PSoC5/USBFS_std.c ****                         USBFS_tBuffer[0u] = USBFS_EP[ \
 1239              		.loc 1 194 0
 1240 00e0 0B80     		strh	r3, [r1]	@ movhi
 196:Generated_Source\PSoC5/USBFS_std.c ****                         USBFS_tBuffer[1u] = 0u;
 1241              		.loc 1 196 0
 1242 00e2 5F4B     		ldr	r3, .L155+40
 1243 00e4 0C20     		movs	r0, #12
 1244 00e6 1B78     		ldrb	r3, [r3]	@ zero_extendqisi2
 1245 00e8 03F07F02 		and	r2, r3, #127
 1246 00ec 5D4B     		ldr	r3, .L155+44
 1247 00ee 00FB0233 		mla	r3, r0, r2, r3
 1248 00f2 9A78     		ldrb	r2, [r3, #2]	@ zero_extendqisi2
 195:Generated_Source\PSoC5/USBFS_std.c ****                                         CY_GET_REG8(USBFS_wIndexLo) & USBFS_DIR_UNUSED].hwEpState;
 1249              		.loc 1 195 0
 1250 00f4 5C4B     		ldr	r3, .L155+48
 196:Generated_Source\PSoC5/USBFS_std.c ****                         USBFS_tBuffer[1u] = 0u;
 1251              		.loc 1 196 0
 1252 00f6 D2B2     		uxtb	r2, r2
 195:Generated_Source\PSoC5/USBFS_std.c ****                                         CY_GET_REG8(USBFS_wIndexLo) & USBFS_DIR_UNUSED].hwEpState;
 1253              		.loc 1 195 0
 1254 00f8 1A70     		strb	r2, [r3]
 197:Generated_Source\PSoC5/USBFS_std.c ****                         USBFS_currentTD.pData = &USBFS_tBuffer[0u];
 1255              		.loc 1 197 0
 1256 00fa 0022     		movs	r2, #0
 1257 00fc 5A70     		strb	r2, [r3, #1]
 1258              	.LVL102:
 1259              	.L152:
 198:Generated_Source\PSoC5/USBFS_std.c ****                         requestHandled  = USBFS_InitControlRead();
 1260              		.loc 1 198 0
 1261 00fe 4B60     		str	r3, [r1, #4]
 1262 0100 BBE7     		b	.L149
 1263              	.LVL103:
 1264              	.L119:
 202:Generated_Source\PSoC5/USBFS_std.c ****                         USBFS_tBuffer[0u] = USBFS_deviceStatus;
 1265              		.loc 1 202 0
 1266 0102 0222     		movs	r2, #2
 1267 0104 0A80     		strh	r2, [r1]	@ movhi
 203:Generated_Source\PSoC5/USBFS_std.c ****                         USBFS_tBuffer[1u] = 0u;
 1268              		.loc 1 203 0
 1269 0106 594A     		ldr	r2, .L155+52
 1270 0108 1078     		ldrb	r0, [r2]	@ zero_extendqisi2
 1271 010a 574A     		ldr	r2, .L155+48
 1272 010c C0B2     		uxtb	r0, r0
 1273 010e 1070     		strb	r0, [r2]
 204:Generated_Source\PSoC5/USBFS_std.c ****                         USBFS_currentTD.pData = &USBFS_tBuffer[0u];
 1274              		.loc 1 204 0
 1275 0110 5370     		strb	r3, [r2, #1]
 205:Generated_Source\PSoC5/USBFS_std.c ****                         requestHandled  = USBFS_InitControlRead();
ARM GAS  C:\Users\RABBIT~1\AppData\Local\Temp\ccYRpEyv.s 			page 47


 1276              		.loc 1 205 0
 1277 0112 4A60     		str	r2, [r1, #4]
 1278 0114 B1E7     		b	.L149
 1279              	.L106:
 213:Generated_Source\PSoC5/USBFS_std.c ****                 USBFS_currentTD.pData = (volatile uint8 *)&USBFS_configuration;
 1280              		.loc 1 213 0
 1281 0116 0123     		movs	r3, #1
 1282 0118 0B80     		strh	r3, [r1]	@ movhi
 214:Generated_Source\PSoC5/USBFS_std.c ****                 requestHandled  = USBFS_InitControlRead();
 1283              		.loc 1 214 0
 1284 011a 554B     		ldr	r3, .L155+56
 1285 011c EFE7     		b	.L152
 1286              	.L107:
 218:Generated_Source\PSoC5/USBFS_std.c ****                 USBFS_currentTD.pData = (volatile uint8 *)&USBFS_interfaceSetting[ \
 1287              		.loc 1 218 0
 1288 011e 0123     		movs	r3, #1
 1289 0120 0B80     		strh	r3, [r1]	@ movhi
 220:Generated_Source\PSoC5/USBFS_std.c ****                 requestHandled  = USBFS_InitControlRead();
 1290              		.loc 1 220 0
 1291 0122 4F4B     		ldr	r3, .L155+40
 219:Generated_Source\PSoC5/USBFS_std.c ****                                                                             CY_GET_REG8(USBFS_wInde
 1292              		.loc 1 219 0
 1293 0124 534A     		ldr	r2, .L155+60
 220:Generated_Source\PSoC5/USBFS_std.c ****                 requestHandled  = USBFS_InitControlRead();
 1294              		.loc 1 220 0
 1295 0126 1B78     		ldrb	r3, [r3]	@ zero_extendqisi2
 219:Generated_Source\PSoC5/USBFS_std.c ****                                                                             CY_GET_REG8(USBFS_wInde
 1296              		.loc 1 219 0
 1297 0128 1344     		add	r3, r3, r2
 1298 012a E8E7     		b	.L152
 1299              	.L101:
 229:Generated_Source\PSoC5/USBFS_std.c ****         {
 1300              		.loc 1 229 0
 1301 012c 013A     		subs	r2, r2, #1
 1302 012e 0A2A     		cmp	r2, #10
 1303 0130 7FD8     		bhi	.L102
 1304 0132 DFE802F0 		tbb	[pc, r2]
 1305              	.L122:
 1306 0136 36       		.byte	(.L121-.L122)/2
 1307 0137 7E       		.byte	(.L102-.L122)/2
 1308 0138 52       		.byte	(.L123-.L122)/2
 1309 0139 7E       		.byte	(.L102-.L122)/2
 1310 013a 06       		.byte	(.L124-.L122)/2
 1311 013b 7E       		.byte	(.L102-.L122)/2
 1312 013c 7E       		.byte	(.L102-.L122)/2
 1313 013d 7E       		.byte	(.L102-.L122)/2
 1314 013e 0B       		.byte	(.L125-.L122)/2
 1315 013f 7E       		.byte	(.L102-.L122)/2
 1316 0140 22       		.byte	(.L126-.L122)/2
 1317 0141 00       		.p2align 1
 1318              	.L124:
 232:Generated_Source\PSoC5/USBFS_std.c ****                 requestHandled = USBFS_InitNoDataControlTransfer();
 1319              		.loc 1 232 0
 1320 0142 434B     		ldr	r3, .L155+24
 1321 0144 4C4A     		ldr	r2, .L155+64
 1322 0146 1B78     		ldrb	r3, [r3]	@ zero_extendqisi2
 1323 0148 DBB2     		uxtb	r3, r3
ARM GAS  C:\Users\RABBIT~1\AppData\Local\Temp\ccYRpEyv.s 			page 48


 1324 014a 60E0     		b	.L154
 1325              	.L125:
 236:Generated_Source\PSoC5/USBFS_std.c ****                 if(configurationN > 0u)
 1326              		.loc 1 236 0
 1327 014c 404B     		ldr	r3, .L155+24
 1328 014e 1B78     		ldrb	r3, [r3]	@ zero_extendqisi2
 1329              	.LVL104:
 237:Generated_Source\PSoC5/USBFS_std.c ****                 {   /* Verify that configuration descriptor exists */
 1330              		.loc 1 237 0
 1331 0150 03F0FF01 		and	r1, r3, #255
 1332 0154 53B9     		cbnz	r3, .L127
 1333              	.LVL105:
 1334              	.L130:
 245:Generated_Source\PSoC5/USBFS_std.c ****                     {
 1335              		.loc 1 245 0
 1336 0156 464B     		ldr	r3, .L155+56
 1337 0158 1A78     		ldrb	r2, [r3]	@ zero_extendqisi2
 1338 015a 9142     		cmp	r1, r2
 1339 015c 65D0     		beq	.L150
 247:Generated_Source\PSoC5/USBFS_std.c ****                         USBFS_configurationChanged = USBFS_TRUE;
 1340              		.loc 1 247 0
 1341 015e 1970     		strb	r1, [r3]
 248:Generated_Source\PSoC5/USBFS_std.c ****                         USBFS_Config(USBFS_TRUE);
 1342              		.loc 1 248 0
 1343 0160 464B     		ldr	r3, .L155+68
 1344 0162 0120     		movs	r0, #1
 1345 0164 1870     		strb	r0, [r3]
 249:Generated_Source\PSoC5/USBFS_std.c ****                     }
 1346              		.loc 1 249 0
 1347 0166 FFF7FEFF 		bl	USBFS_Config
 1348              	.LVL106:
 1349 016a 5EE0     		b	.L150
 1350              	.LVL107:
 1351              	.L127:
 239:Generated_Source\PSoC5/USBFS_std.c ****                 }
 1352              		.loc 1 239 0
 1353 016c 481E     		subs	r0, r1, #1
 1354 016e C0B2     		uxtb	r0, r0
 1355 0170 FFF7FEFF 		bl	USBFS_GetConfigTablePtr
 1356              	.LVL108:
 242:Generated_Source\PSoC5/USBFS_std.c ****                 {
 1357              		.loc 1 242 0
 1358 0174 0028     		cmp	r0, #0
 1359 0176 EED1     		bne	.L130
 1360 0178 5BE0     		b	.L102
 1361              	.LVL109:
 1362              	.L126:
 255:Generated_Source\PSoC5/USBFS_std.c ****                 {
 1363              		.loc 1 255 0
 1364 017a FFF7FEFF 		bl	USBFS_ValidateAlternateSetting
 1365              	.LVL110:
 1366 017e 0028     		cmp	r0, #0
 1367 0180 57D0     		beq	.L102
 257:Generated_Source\PSoC5/USBFS_std.c ****                     USBFS_interfaceNumber = interfaceNumber;
 1368              		.loc 1 257 0
 1369 0182 374B     		ldr	r3, .L155+40
 259:Generated_Source\PSoC5/USBFS_std.c ****                     #if ((USBFS_EP_MA == USBFS__MA_DYNAMIC) && \
ARM GAS  C:\Users\RABBIT~1\AppData\Local\Temp\ccYRpEyv.s 			page 49


 1370              		.loc 1 259 0
 1371 0184 0122     		movs	r2, #1
 257:Generated_Source\PSoC5/USBFS_std.c ****                     USBFS_interfaceNumber = interfaceNumber;
 1372              		.loc 1 257 0
 1373 0186 1C78     		ldrb	r4, [r3]	@ zero_extendqisi2
 258:Generated_Source\PSoC5/USBFS_std.c ****                     USBFS_configurationChanged = USBFS_TRUE;
 1374              		.loc 1 258 0
 1375 0188 3D4B     		ldr	r3, .L155+72
 257:Generated_Source\PSoC5/USBFS_std.c ****                     USBFS_interfaceNumber = interfaceNumber;
 1376              		.loc 1 257 0
 1377 018a E4B2     		uxtb	r4, r4
 1378              	.LVL111:
 258:Generated_Source\PSoC5/USBFS_std.c ****                     USBFS_configurationChanged = USBFS_TRUE;
 1379              		.loc 1 258 0
 1380 018c 1C70     		strb	r4, [r3]
 259:Generated_Source\PSoC5/USBFS_std.c ****                     #if ((USBFS_EP_MA == USBFS__MA_DYNAMIC) && \
 1381              		.loc 1 259 0
 1382 018e 3B4B     		ldr	r3, .L155+68
 1383 0190 1A70     		strb	r2, [r3]
 264:Generated_Source\PSoC5/USBFS_std.c ****                     #endif /*  (USBFS_EP_MA == USBFS__MA_DYNAMIC) */
 1384              		.loc 1 264 0
 1385 0192 FFF7FEFF 		bl	USBFS_ConfigAltChanged
 1386              	.LVL112:
 268:Generated_Source\PSoC5/USBFS_std.c ****                     requestHandled = USBFS_InitNoDataControlTransfer();
 1387              		.loc 1 268 0
 1388 0196 374B     		ldr	r3, .L155+60
 267:Generated_Source\PSoC5/USBFS_std.c ****                          USBFS_interfaceSetting[interfaceNumber];
 1389              		.loc 1 267 0
 1390 0198 3A4A     		ldr	r2, .L155+76
 268:Generated_Source\PSoC5/USBFS_std.c ****                     requestHandled = USBFS_InitNoDataControlTransfer();
 1391              		.loc 1 268 0
 1392 019a 1B5D     		ldrb	r3, [r3, r4]	@ zero_extendqisi2
 1393 019c DBB2     		uxtb	r3, r3
 267:Generated_Source\PSoC5/USBFS_std.c ****                          USBFS_interfaceSetting[interfaceNumber];
 1394              		.loc 1 267 0
 1395 019e 1355     		strb	r3, [r2, r4]
 1396 01a0 43E0     		b	.L150
 1397              	.LVL113:
 1398              	.L121:
 273:Generated_Source\PSoC5/USBFS_std.c ****                 {
 1399              		.loc 1 273 0
 1400 01a2 1B78     		ldrb	r3, [r3]	@ zero_extendqisi2
 1401 01a4 03F00303 		and	r3, r3, #3
 1402 01a8 012B     		cmp	r3, #1
 1403 01aa 32D0     		beq	.L134
 1404 01ac 0CD3     		bcc	.L132
 1405 01ae 022B     		cmp	r3, #2
 1406 01b0 3FD1     		bne	.L102
 276:Generated_Source\PSoC5/USBFS_std.c ****                         {
 1407              		.loc 1 276 0
 1408 01b2 03F18043 		add	r3, r3, #1073741824
 1409 01b6 03F5C043 		add	r3, r3, #24576
 1410 01ba 1B78     		ldrb	r3, [r3]	@ zero_extendqisi2
 1411 01bc 002B     		cmp	r3, #0
 1412 01be 38D1     		bne	.L102
 337:Generated_Source\PSoC5/USBFS_std.c **** 
 1413              		.loc 1 337 0
ARM GAS  C:\Users\RABBIT~1\AppData\Local\Temp\ccYRpEyv.s 			page 50


 1414 01c0 BDE83840 		pop	{r3, r4, r5, lr}
 1415              		.cfi_remember_state
 1416              		.cfi_restore 14
 1417              		.cfi_restore 5
 1418              		.cfi_restore 4
 1419              		.cfi_restore 3
 1420              		.cfi_def_cfa_offset 0
 278:Generated_Source\PSoC5/USBFS_std.c ****                         }
 1421              		.loc 1 278 0
 1422 01c4 FFF7FEBF 		b	USBFS_ClearEndpointHalt
 1423              	.LVL114:
 1424              	.L132:
 1425              		.cfi_restore_state
 283:Generated_Source\PSoC5/USBFS_std.c ****                         {
 1426              		.loc 1 283 0
 1427 01c8 214B     		ldr	r3, .L155+24
 1428 01ca 1B78     		ldrb	r3, [r3]	@ zero_extendqisi2
 1429 01cc 012B     		cmp	r3, #1
 1430 01ce 30D1     		bne	.L102
 285:Generated_Source\PSoC5/USBFS_std.c ****                             requestHandled = USBFS_InitNoDataControlTransfer();
 1431              		.loc 1 285 0
 1432 01d0 264A     		ldr	r2, .L155+52
 1433 01d2 1378     		ldrb	r3, [r2]	@ zero_extendqisi2
 1434 01d4 03F0FD03 		and	r3, r3, #253
 1435 01d8 19E0     		b	.L154
 1436              	.L123:
 303:Generated_Source\PSoC5/USBFS_std.c ****                 {
 1437              		.loc 1 303 0
 1438 01da 1B78     		ldrb	r3, [r3]	@ zero_extendqisi2
 1439 01dc 03F00303 		and	r3, r3, #3
 1440 01e0 012B     		cmp	r3, #1
 1441 01e2 16D0     		beq	.L134
 1442 01e4 0BD3     		bcc	.L135
 1443 01e6 022B     		cmp	r3, #2
 1444 01e8 23D1     		bne	.L102
 306:Generated_Source\PSoC5/USBFS_std.c ****                         {
 1445              		.loc 1 306 0
 1446 01ea 03F18043 		add	r3, r3, #1073741824
 1447 01ee 03F5C043 		add	r3, r3, #24576
 1448 01f2 1B78     		ldrb	r3, [r3]	@ zero_extendqisi2
 1449 01f4 EBB9     		cbnz	r3, .L102
 337:Generated_Source\PSoC5/USBFS_std.c **** 
 1450              		.loc 1 337 0
 1451 01f6 BDE83840 		pop	{r3, r4, r5, lr}
 1452              		.cfi_remember_state
 1453              		.cfi_restore 14
 1454              		.cfi_restore 5
 1455              		.cfi_restore 4
 1456              		.cfi_restore 3
 1457              		.cfi_def_cfa_offset 0
 308:Generated_Source\PSoC5/USBFS_std.c ****                         }
 1458              		.loc 1 308 0
 1459 01fa FFF7FEBF 		b	USBFS_SetEndpointHalt
 1460              	.LVL115:
 1461              	.L135:
 1462              		.cfi_restore_state
 313:Generated_Source\PSoC5/USBFS_std.c ****                         {
ARM GAS  C:\Users\RABBIT~1\AppData\Local\Temp\ccYRpEyv.s 			page 51


 1463              		.loc 1 313 0
 1464 01fe 144B     		ldr	r3, .L155+24
 1465 0200 1B78     		ldrb	r3, [r3]	@ zero_extendqisi2
 1466 0202 012B     		cmp	r3, #1
 1467 0204 15D1     		bne	.L102
 315:Generated_Source\PSoC5/USBFS_std.c ****                             requestHandled = USBFS_InitNoDataControlTransfer();
 1468              		.loc 1 315 0
 1469 0206 194A     		ldr	r2, .L155+52
 1470 0208 1378     		ldrb	r3, [r2]	@ zero_extendqisi2
 1471 020a 43F00203 		orr	r3, r3, #2
 1472              	.L154:
 1473 020e 1370     		strb	r3, [r2]
 1474 0210 0BE0     		b	.L150
 1475              	.L134:
 321:Generated_Source\PSoC5/USBFS_std.c ****                         {
 1476              		.loc 1 321 0
 1477 0212 134B     		ldr	r3, .L155+40
 1478 0214 1A78     		ldrb	r2, [r3]	@ zero_extendqisi2
 1479 0216 62B9     		cbnz	r2, .L102
 324:Generated_Source\PSoC5/USBFS_std.c ****                             requestHandled = USBFS_InitNoDataControlTransfer();
 1480              		.loc 1 324 0
 1481 0218 0D4A     		ldr	r2, .L155+24
 323:Generated_Source\PSoC5/USBFS_std.c ****                                                                 (uint8)~(CY_GET_REG8(USBFS_wValueLo
 1482              		.loc 1 323 0
 1483 021a 1B49     		ldr	r1, .L155+80
 324:Generated_Source\PSoC5/USBFS_std.c ****                             requestHandled = USBFS_InitNoDataControlTransfer();
 1484              		.loc 1 324 0
 1485 021c 1078     		ldrb	r0, [r2]	@ zero_extendqisi2
 323:Generated_Source\PSoC5/USBFS_std.c ****                                                                 (uint8)~(CY_GET_REG8(USBFS_wValueLo
 1486              		.loc 1 323 0
 1487 021e 1B78     		ldrb	r3, [r3]	@ zero_extendqisi2
 1488 0220 DBB2     		uxtb	r3, r3
 1489 0222 CA5C     		ldrb	r2, [r1, r3]	@ zero_extendqisi2
 1490 0224 22EA0002 		bic	r2, r2, r0
 1491 0228 CA54     		strb	r2, [r1, r3]
 1492              	.L150:
 337:Generated_Source\PSoC5/USBFS_std.c **** 
 1493              		.loc 1 337 0
 1494 022a BDE83840 		pop	{r3, r4, r5, lr}
 1495              		.cfi_remember_state
 1496              		.cfi_restore 14
 1497              		.cfi_restore 5
 1498              		.cfi_restore 4
 1499              		.cfi_restore 3
 1500              		.cfi_def_cfa_offset 0
 325:Generated_Source\PSoC5/USBFS_std.c ****                         }
 1501              		.loc 1 325 0
 1502 022e FFF7FEBF 		b	USBFS_InitNoDataControlTransfer
 1503              	.LVL116:
 1504              	.L102:
 1505              		.cfi_restore_state
 337:Generated_Source\PSoC5/USBFS_std.c **** 
 1506              		.loc 1 337 0
 1507 0232 0020     		movs	r0, #0
 1508 0234 38BD     		pop	{r3, r4, r5, pc}
 1509              	.L156:
 1510 0236 00BF     		.align	2
ARM GAS  C:\Users\RABBIT~1\AppData\Local\Temp\ccYRpEyv.s 			page 52


 1511              	.L155:
 1512 0238 00000000 		.word	USBFS_currentTD
 1513 023c 00600040 		.word	1073766400
 1514 0240 01600040 		.word	1073766401
 1515 0244 03600040 		.word	1073766403
 1516 0248 00000000 		.word	USBFS_device
 1517 024c 00000000 		.word	USBFS_TABLE
 1518 0250 02600040 		.word	1073766402
 1519 0254 00000000 		.word	USBFS_STRING_DESCRIPTORS
 1520 0258 00000000 		.word	USBFS_DEVICE0_DESCR
 1521 025c 00000000 		.word	USBFS_SN_STRING_DESCRIPTOR
 1522 0260 04600040 		.word	1073766404
 1523 0264 00000000 		.word	USBFS_EP
 1524 0268 00000000 		.word	.LANCHOR0
 1525 026c 00000000 		.word	USBFS_deviceStatus
 1526 0270 00000000 		.word	USBFS_configuration
 1527 0274 00000000 		.word	USBFS_interfaceSetting
 1528 0278 00000000 		.word	USBFS_deviceAddress
 1529 027c 00000000 		.word	USBFS_configurationChanged
 1530 0280 00000000 		.word	USBFS_interfaceNumber
 1531 0284 00000000 		.word	USBFS_interfaceSetting_last
 1532 0288 00000000 		.word	USBFS_interfaceStatus
 1533              		.cfi_endproc
 1534              	.LFE0:
 1535              		.size	USBFS_HandleStandardRqst, .-USBFS_HandleStandardRqst
 1536              		.bss
 1537              		.set	.LANCHOR0,. + 0
 1538              		.type	USBFS_tBuffer.5195, %object
 1539              		.size	USBFS_tBuffer.5195, 2
 1540              	USBFS_tBuffer.5195:
 1541 0000 0000     		.space	2
 1542              		.text
 1543              	.Letext0:
 1544              		.file 2 "Generated_Source\\PSoC5\\cytypes.h"
 1545              		.file 3 "Generated_Source\\PSoC5\\USBFS.h"
 1546              		.file 4 "Generated_Source\\PSoC5\\USBFS_pvt.h"
 1547              		.section	.debug_info,"",%progbits
 1548              	.Ldebug_info0:
 1549 0000 0B090000 		.4byte	0x90b
 1550 0004 0400     		.2byte	0x4
 1551 0006 00000000 		.4byte	.Ldebug_abbrev0
 1552 000a 04       		.byte	0x4
 1553 000b 01       		.uleb128 0x1
 1554 000c B0000000 		.4byte	.LASF85
 1555 0010 0C       		.byte	0xc
 1556 0011 63020000 		.4byte	.LASF86
 1557 0015 F4020000 		.4byte	.LASF87
 1558 0019 18000000 		.4byte	.Ldebug_ranges0+0x18
 1559 001d 00000000 		.4byte	0
 1560 0021 00000000 		.4byte	.Ldebug_line0
 1561 0025 02       		.uleb128 0x2
 1562 0026 01       		.byte	0x1
 1563 0027 06       		.byte	0x6
 1564 0028 A4000000 		.4byte	.LASF0
 1565 002c 02       		.uleb128 0x2
 1566 002d 01       		.byte	0x1
 1567 002e 08       		.byte	0x8
ARM GAS  C:\Users\RABBIT~1\AppData\Local\Temp\ccYRpEyv.s 			page 53


 1568 002f 78040000 		.4byte	.LASF1
 1569 0033 02       		.uleb128 0x2
 1570 0034 02       		.byte	0x2
 1571 0035 05       		.byte	0x5
 1572 0036 86040000 		.4byte	.LASF2
 1573 003a 02       		.uleb128 0x2
 1574 003b 02       		.byte	0x2
 1575 003c 07       		.byte	0x7
 1576 003d 86020000 		.4byte	.LASF3
 1577 0041 02       		.uleb128 0x2
 1578 0042 04       		.byte	0x4
 1579 0043 05       		.byte	0x5
 1580 0044 AD010000 		.4byte	.LASF4
 1581 0048 02       		.uleb128 0x2
 1582 0049 04       		.byte	0x4
 1583 004a 07       		.byte	0x7
 1584 004b 31020000 		.4byte	.LASF5
 1585 004f 02       		.uleb128 0x2
 1586 0050 08       		.byte	0x8
 1587 0051 05       		.byte	0x5
 1588 0052 96000000 		.4byte	.LASF6
 1589 0056 02       		.uleb128 0x2
 1590 0057 08       		.byte	0x8
 1591 0058 07       		.byte	0x7
 1592 0059 5C000000 		.4byte	.LASF7
 1593 005d 03       		.uleb128 0x3
 1594 005e 04       		.byte	0x4
 1595 005f 05       		.byte	0x5
 1596 0060 696E7400 		.ascii	"int\000"
 1597 0064 02       		.uleb128 0x2
 1598 0065 04       		.byte	0x4
 1599 0066 07       		.byte	0x7
 1600 0067 24020000 		.4byte	.LASF8
 1601 006b 04       		.uleb128 0x4
 1602 006c B6010000 		.4byte	.LASF9
 1603 0070 02       		.byte	0x2
 1604 0071 A1       		.byte	0xa1
 1605 0072 2C000000 		.4byte	0x2c
 1606 0076 04       		.uleb128 0x4
 1607 0077 13000000 		.4byte	.LASF10
 1608 007b 02       		.byte	0x2
 1609 007c A2       		.byte	0xa2
 1610 007d 3A000000 		.4byte	0x3a
 1611 0081 02       		.uleb128 0x2
 1612 0082 04       		.byte	0x4
 1613 0083 04       		.byte	0x4
 1614 0084 45040000 		.4byte	.LASF11
 1615 0088 02       		.uleb128 0x2
 1616 0089 08       		.byte	0x8
 1617 008a 04       		.byte	0x4
 1618 008b C5010000 		.4byte	.LASF12
 1619 008f 02       		.uleb128 0x2
 1620 0090 01       		.byte	0x1
 1621 0091 08       		.byte	0x8
 1622 0092 22050000 		.4byte	.LASF13
 1623 0096 05       		.uleb128 0x5
 1624 0097 73040000 		.4byte	.LASF14
ARM GAS  C:\Users\RABBIT~1\AppData\Local\Temp\ccYRpEyv.s 			page 54


 1625 009b 02       		.byte	0x2
 1626 009c 4B01     		.2byte	0x14b
 1627 009e A2000000 		.4byte	0xa2
 1628 00a2 06       		.uleb128 0x6
 1629 00a3 6B000000 		.4byte	0x6b
 1630 00a7 02       		.uleb128 0x2
 1631 00a8 08       		.byte	0x8
 1632 00a9 04       		.byte	0x4
 1633 00aa 8E030000 		.4byte	.LASF15
 1634 00ae 02       		.uleb128 0x2
 1635 00af 04       		.byte	0x4
 1636 00b0 07       		.byte	0x7
 1637 00b1 85030000 		.4byte	.LASF16
 1638 00b5 07       		.uleb128 0x7
 1639 00b6 0C       		.byte	0xc
 1640 00b7 03       		.byte	0x3
 1641 00b8 7F       		.byte	0x7f
 1642 00b9 2A010000 		.4byte	0x12a
 1643 00bd 08       		.uleb128 0x8
 1644 00be B0030000 		.4byte	.LASF17
 1645 00c2 03       		.byte	0x3
 1646 00c3 81       		.byte	0x81
 1647 00c4 6B000000 		.4byte	0x6b
 1648 00c8 00       		.byte	0
 1649 00c9 08       		.uleb128 0x8
 1650 00ca 4B040000 		.4byte	.LASF18
 1651 00ce 03       		.byte	0x3
 1652 00cf 82       		.byte	0x82
 1653 00d0 6B000000 		.4byte	0x6b
 1654 00d4 01       		.byte	0x1
 1655 00d5 08       		.uleb128 0x8
 1656 00d6 6F030000 		.4byte	.LASF19
 1657 00da 03       		.byte	0x3
 1658 00db 83       		.byte	0x83
 1659 00dc 6B000000 		.4byte	0x6b
 1660 00e0 02       		.byte	0x2
 1661 00e1 08       		.uleb128 0x8
 1662 00e2 BC010000 		.4byte	.LASF20
 1663 00e6 03       		.byte	0x3
 1664 00e7 84       		.byte	0x84
 1665 00e8 6B000000 		.4byte	0x6b
 1666 00ec 03       		.byte	0x3
 1667 00ed 08       		.uleb128 0x8
 1668 00ee 73000000 		.4byte	.LASF21
 1669 00f2 03       		.byte	0x3
 1670 00f3 85       		.byte	0x85
 1671 00f4 6B000000 		.4byte	0x6b
 1672 00f8 04       		.byte	0x4
 1673 00f9 08       		.uleb128 0x8
 1674 00fa 16020000 		.4byte	.LASF22
 1675 00fe 03       		.byte	0x3
 1676 00ff 86       		.byte	0x86
 1677 0100 6B000000 		.4byte	0x6b
 1678 0104 05       		.byte	0x5
 1679 0105 08       		.uleb128 0x8
 1680 0106 41050000 		.4byte	.LASF23
 1681 010a 03       		.byte	0x3
ARM GAS  C:\Users\RABBIT~1\AppData\Local\Temp\ccYRpEyv.s 			page 55


 1682 010b 87       		.byte	0x87
 1683 010c 76000000 		.4byte	0x76
 1684 0110 06       		.byte	0x6
 1685 0111 08       		.uleb128 0x8
 1686 0112 27050000 		.4byte	.LASF24
 1687 0116 03       		.byte	0x3
 1688 0117 88       		.byte	0x88
 1689 0118 76000000 		.4byte	0x76
 1690 011c 08       		.byte	0x8
 1691 011d 08       		.uleb128 0x8
 1692 011e B0020000 		.4byte	.LASF25
 1693 0122 03       		.byte	0x3
 1694 0123 89       		.byte	0x89
 1695 0124 6B000000 		.4byte	0x6b
 1696 0128 0A       		.byte	0xa
 1697 0129 00       		.byte	0
 1698 012a 04       		.uleb128 0x4
 1699 012b CA040000 		.4byte	.LASF26
 1700 012f 03       		.byte	0x3
 1701 0130 8A       		.byte	0x8a
 1702 0131 B5000000 		.4byte	0xb5
 1703 0135 07       		.uleb128 0x7
 1704 0136 08       		.byte	0x8
 1705 0137 03       		.byte	0x3
 1706 0138 8C       		.byte	0x8c
 1707 0139 86010000 		.4byte	0x186
 1708 013d 08       		.uleb128 0x8
 1709 013e B0020000 		.4byte	.LASF25
 1710 0142 03       		.byte	0x3
 1711 0143 8E       		.byte	0x8e
 1712 0144 6B000000 		.4byte	0x6b
 1713 0148 00       		.byte	0
 1714 0149 08       		.uleb128 0x8
 1715 014a 17050000 		.4byte	.LASF27
 1716 014e 03       		.byte	0x3
 1717 014f 8F       		.byte	0x8f
 1718 0150 6B000000 		.4byte	0x6b
 1719 0154 01       		.byte	0x1
 1720 0155 08       		.uleb128 0x8
 1721 0156 73000000 		.4byte	.LASF21
 1722 015a 03       		.byte	0x3
 1723 015b 90       		.byte	0x90
 1724 015c 6B000000 		.4byte	0x6b
 1725 0160 02       		.byte	0x2
 1726 0161 08       		.uleb128 0x8
 1727 0162 0C050000 		.4byte	.LASF28
 1728 0166 03       		.byte	0x3
 1729 0167 91       		.byte	0x91
 1730 0168 6B000000 		.4byte	0x6b
 1731 016c 03       		.byte	0x3
 1732 016d 08       		.uleb128 0x8
 1733 016e 27050000 		.4byte	.LASF24
 1734 0172 03       		.byte	0x3
 1735 0173 92       		.byte	0x92
 1736 0174 76000000 		.4byte	0x76
 1737 0178 04       		.byte	0x4
 1738 0179 08       		.uleb128 0x8
ARM GAS  C:\Users\RABBIT~1\AppData\Local\Temp\ccYRpEyv.s 			page 56


 1739 017a DA050000 		.4byte	.LASF29
 1740 017e 03       		.byte	0x3
 1741 017f 93       		.byte	0x93
 1742 0180 6B000000 		.4byte	0x6b
 1743 0184 06       		.byte	0x6
 1744 0185 00       		.byte	0
 1745 0186 04       		.uleb128 0x4
 1746 0187 CC010000 		.4byte	.LASF30
 1747 018b 03       		.byte	0x3
 1748 018c 94       		.byte	0x94
 1749 018d 35010000 		.4byte	0x135
 1750 0191 07       		.uleb128 0x7
 1751 0192 04       		.byte	0x4
 1752 0193 03       		.byte	0x3
 1753 0194 96       		.byte	0x96
 1754 0195 B2010000 		.4byte	0x1b2
 1755 0199 08       		.uleb128 0x8
 1756 019a A6050000 		.4byte	.LASF31
 1757 019e 03       		.byte	0x3
 1758 019f 98       		.byte	0x98
 1759 01a0 6B000000 		.4byte	0x6b
 1760 01a4 00       		.byte	0
 1761 01a5 08       		.uleb128 0x8
 1762 01a6 93050000 		.4byte	.LASF32
 1763 01aa 03       		.byte	0x3
 1764 01ab 99       		.byte	0x99
 1765 01ac 76000000 		.4byte	0x76
 1766 01b0 02       		.byte	0x2
 1767 01b1 00       		.byte	0
 1768 01b2 04       		.uleb128 0x4
 1769 01b3 0A040000 		.4byte	.LASF33
 1770 01b7 03       		.byte	0x3
 1771 01b8 9A       		.byte	0x9a
 1772 01b9 91010000 		.4byte	0x191
 1773 01bd 07       		.uleb128 0x7
 1774 01be 0C       		.byte	0xc
 1775 01bf 03       		.byte	0x3
 1776 01c0 9C       		.byte	0x9c
 1777 01c1 EA010000 		.4byte	0x1ea
 1778 01c5 08       		.uleb128 0x8
 1779 01c6 0D000000 		.4byte	.LASF34
 1780 01ca 03       		.byte	0x3
 1781 01cb 9E       		.byte	0x9e
 1782 01cc 76000000 		.4byte	0x76
 1783 01d0 00       		.byte	0
 1784 01d1 08       		.uleb128 0x8
 1785 01d2 FC010000 		.4byte	.LASF35
 1786 01d6 03       		.byte	0x3
 1787 01d7 9F       		.byte	0x9f
 1788 01d8 EA010000 		.4byte	0x1ea
 1789 01dc 04       		.byte	0x4
 1790 01dd 08       		.uleb128 0x8
 1791 01de 00000000 		.4byte	.LASF36
 1792 01e2 03       		.byte	0x3
 1793 01e3 A0       		.byte	0xa0
 1794 01e4 F0010000 		.4byte	0x1f0
 1795 01e8 08       		.byte	0x8
ARM GAS  C:\Users\RABBIT~1\AppData\Local\Temp\ccYRpEyv.s 			page 57


 1796 01e9 00       		.byte	0
 1797 01ea 09       		.uleb128 0x9
 1798 01eb 04       		.byte	0x4
 1799 01ec A2000000 		.4byte	0xa2
 1800 01f0 09       		.uleb128 0x9
 1801 01f1 04       		.byte	0x4
 1802 01f2 B2010000 		.4byte	0x1b2
 1803 01f6 04       		.uleb128 0x4
 1804 01f7 90040000 		.4byte	.LASF37
 1805 01fb 03       		.byte	0x3
 1806 01fc A1       		.byte	0xa1
 1807 01fd BD010000 		.4byte	0x1bd
 1808 0201 07       		.uleb128 0x7
 1809 0202 08       		.byte	0x8
 1810 0203 03       		.byte	0x3
 1811 0204 A4       		.byte	0xa4
 1812 0205 20020000 		.4byte	0x220
 1813 0209 0A       		.uleb128 0xa
 1814 020a 6300     		.ascii	"c\000"
 1815 020c 03       		.byte	0x3
 1816 020d A6       		.byte	0xa6
 1817 020e 6B000000 		.4byte	0x6b
 1818 0212 00       		.byte	0
 1819 0213 08       		.uleb128 0x8
 1820 0214 9F030000 		.4byte	.LASF38
 1821 0218 03       		.byte	0x3
 1822 0219 A7       		.byte	0xa7
 1823 021a 20020000 		.4byte	0x220
 1824 021e 04       		.byte	0x4
 1825 021f 00       		.byte	0
 1826 0220 09       		.uleb128 0x9
 1827 0221 04       		.byte	0x4
 1828 0222 26020000 		.4byte	0x226
 1829 0226 0B       		.uleb128 0xb
 1830 0227 04       		.uleb128 0x4
 1831 0228 0F060000 		.4byte	.LASF39
 1832 022c 03       		.byte	0x3
 1833 022d A8       		.byte	0xa8
 1834 022e 01020000 		.4byte	0x201
 1835 0232 0C       		.uleb128 0xc
 1836 0233 F3030000 		.4byte	.LASF43
 1837 0237 01       		.byte	0x1
 1838 0238 E502     		.2byte	0x2e5
 1839 023a 01       		.byte	0x1
 1840 023b 90020000 		.4byte	0x290
 1841 023f 0D       		.uleb128 0xd
 1842 0240 657000   		.ascii	"ep\000"
 1843 0243 01       		.byte	0x1
 1844 0244 E702     		.2byte	0x2e7
 1845 0246 6B000000 		.4byte	0x6b
 1846 024a 0E       		.uleb128 0xe
 1847 024b 9F050000 		.4byte	.LASF40
 1848 024f 01       		.byte	0x1
 1849 0250 E802     		.2byte	0x2e8
 1850 0252 6B000000 		.4byte	0x6b
 1851 0256 0D       		.uleb128 0xd
 1852 0257 6900     		.ascii	"i\000"
ARM GAS  C:\Users\RABBIT~1\AppData\Local\Temp\ccYRpEyv.s 			page 58


 1853 0259 01       		.byte	0x1
 1854 025a E902     		.2byte	0x2e9
 1855 025c 6B000000 		.4byte	0x6b
 1856 0260 0E       		.uleb128 0xe
 1857 0261 1D020000 		.4byte	.LASF41
 1858 0265 01       		.byte	0x1
 1859 0266 EA02     		.2byte	0x2ea
 1860 0268 6B000000 		.4byte	0x6b
 1861 026c 0D       		.uleb128 0xd
 1862 026d 726900   		.ascii	"ri\000"
 1863 0270 01       		.byte	0x1
 1864 0271 EB02     		.2byte	0x2eb
 1865 0273 6B000000 		.4byte	0x6b
 1866 0277 0E       		.uleb128 0xe
 1867 0278 9A030000 		.4byte	.LASF42
 1868 027c 01       		.byte	0x1
 1869 027d ED02     		.2byte	0x2ed
 1870 027f 90020000 		.4byte	0x290
 1871 0283 0D       		.uleb128 0xd
 1872 0284 70455000 		.ascii	"pEP\000"
 1873 0288 01       		.byte	0x1
 1874 0289 EE02     		.2byte	0x2ee
 1875 028b 9B020000 		.4byte	0x29b
 1876 028f 00       		.byte	0
 1877 0290 09       		.uleb128 0x9
 1878 0291 04       		.byte	0x4
 1879 0292 96020000 		.4byte	0x296
 1880 0296 0F       		.uleb128 0xf
 1881 0297 27020000 		.4byte	0x227
 1882 029b 09       		.uleb128 0x9
 1883 029c 04       		.byte	0x4
 1884 029d A1020000 		.4byte	0x2a1
 1885 02a1 0F       		.uleb128 0xf
 1886 02a2 86010000 		.4byte	0x186
 1887 02a6 0C       		.uleb128 0xc
 1888 02a7 90010000 		.4byte	.LASF44
 1889 02ab 01       		.byte	0x1
 1890 02ac ED01     		.2byte	0x1ed
 1891 02ae 01       		.byte	0x1
 1892 02af 1D030000 		.4byte	0x31d
 1893 02b3 10       		.uleb128 0x10
 1894 02b4 3E010000 		.4byte	.LASF88
 1895 02b8 01       		.byte	0x1
 1896 02b9 ED01     		.2byte	0x1ed
 1897 02bb 6B000000 		.4byte	0x6b
 1898 02bf 0D       		.uleb128 0xd
 1899 02c0 657000   		.ascii	"ep\000"
 1900 02c3 01       		.byte	0x1
 1901 02c4 EF01     		.2byte	0x1ef
 1902 02c6 6B000000 		.4byte	0x6b
 1903 02ca 0E       		.uleb128 0xe
 1904 02cb 9F050000 		.4byte	.LASF40
 1905 02cf 01       		.byte	0x1
 1906 02d0 F001     		.2byte	0x1f0
 1907 02d2 6B000000 		.4byte	0x6b
 1908 02d6 0D       		.uleb128 0xd
 1909 02d7 6900     		.ascii	"i\000"
ARM GAS  C:\Users\RABBIT~1\AppData\Local\Temp\ccYRpEyv.s 			page 59


 1910 02d9 01       		.byte	0x1
 1911 02da F101     		.2byte	0x1f1
 1912 02dc 6B000000 		.4byte	0x6b
 1913 02e0 0E       		.uleb128 0xe
 1914 02e1 1D020000 		.4byte	.LASF41
 1915 02e5 01       		.byte	0x1
 1916 02e6 F201     		.2byte	0x1f2
 1917 02e8 6B000000 		.4byte	0x6b
 1918 02ec 0E       		.uleb128 0xe
 1919 02ed 99020000 		.4byte	.LASF45
 1920 02f1 01       		.byte	0x1
 1921 02f2 F301     		.2byte	0x1f3
 1922 02f4 1D030000 		.4byte	0x31d
 1923 02f8 0E       		.uleb128 0xe
 1924 02f9 A6030000 		.4byte	.LASF46
 1925 02fd 01       		.byte	0x1
 1926 02fe F501     		.2byte	0x1f5
 1927 0300 76000000 		.4byte	0x76
 1928 0304 0E       		.uleb128 0xe
 1929 0305 9A030000 		.4byte	.LASF42
 1930 0309 01       		.byte	0x1
 1931 030a F801     		.2byte	0x1f8
 1932 030c 90020000 		.4byte	0x290
 1933 0310 0D       		.uleb128 0xd
 1934 0311 70455000 		.ascii	"pEP\000"
 1935 0315 01       		.byte	0x1
 1936 0316 F901     		.2byte	0x1f9
 1937 0318 9B020000 		.4byte	0x29b
 1938 031c 00       		.byte	0
 1939 031d 09       		.uleb128 0x9
 1940 031e 04       		.byte	0x4
 1941 031f 23030000 		.4byte	0x323
 1942 0323 0F       		.uleb128 0xf
 1943 0324 6B000000 		.4byte	0x6b
 1944 0328 11       		.uleb128 0x11
 1945 0329 4C050000 		.4byte	.LASF89
 1946 032d 01       		.byte	0x1
 1947 032e 8C03     		.2byte	0x38c
 1948 0330 90020000 		.4byte	0x290
 1949 0334 01       		.byte	0x1
 1950 0335 12       		.uleb128 0x12
 1951 0336 9D010000 		.4byte	.LASF51
 1952 033a 01       		.byte	0x1
 1953 033b 9201     		.2byte	0x192
 1954 033d 00000000 		.4byte	.LFB1
 1955 0341 90000000 		.4byte	.LFE1-.LFB1
 1956 0345 01       		.uleb128 0x1
 1957 0346 9C       		.byte	0x9c
 1958 0347 69030000 		.4byte	0x369
 1959 034b 13       		.uleb128 0x13
 1960 034c 657000   		.ascii	"ep\000"
 1961 034f 01       		.byte	0x1
 1962 0350 9401     		.2byte	0x194
 1963 0352 6B000000 		.4byte	0x6b
 1964 0356 00000000 		.4byte	.LLST0
 1965 035a 13       		.uleb128 0x13
 1966 035b 6900     		.ascii	"i\000"
ARM GAS  C:\Users\RABBIT~1\AppData\Local\Temp\ccYRpEyv.s 			page 60


 1967 035d 01       		.byte	0x1
 1968 035e 9501     		.2byte	0x195
 1969 0360 6B000000 		.4byte	0x6b
 1970 0364 2A000000 		.4byte	.LLST1
 1971 0368 00       		.byte	0
 1972 0369 14       		.uleb128 0x14
 1973 036a 9B040000 		.4byte	.LASF47
 1974 036e 01       		.byte	0x1
 1975 036f 6303     		.2byte	0x363
 1976 0371 90020000 		.4byte	0x290
 1977 0375 00000000 		.4byte	.LFB4
 1978 0379 24000000 		.4byte	.LFE4-.LFB4
 1979 037d 01       		.uleb128 0x1
 1980 037e 9C       		.byte	0x9c
 1981 037f A4030000 		.4byte	0x3a4
 1982 0383 15       		.uleb128 0x15
 1983 0384 52000000 		.4byte	.LASF53
 1984 0388 01       		.byte	0x1
 1985 0389 6303     		.2byte	0x363
 1986 038b 6B000000 		.4byte	0x6b
 1987 038f 58000000 		.4byte	.LLST2
 1988 0393 16       		.uleb128 0x16
 1989 0394 9A030000 		.4byte	.LASF42
 1990 0398 01       		.byte	0x1
 1991 0399 6703     		.2byte	0x367
 1992 039b 90020000 		.4byte	0x290
 1993 039f 79000000 		.4byte	.LLST3
 1994 03a3 00       		.byte	0
 1995 03a4 17       		.uleb128 0x17
 1996 03a5 32020000 		.4byte	0x232
 1997 03a9 00000000 		.4byte	.LFB3
 1998 03ad 30010000 		.4byte	.LFE3-.LFB3
 1999 03b1 01       		.uleb128 0x1
 2000 03b2 9C       		.byte	0x9c
 2001 03b3 2D040000 		.4byte	0x42d
 2002 03b7 18       		.uleb128 0x18
 2003 03b8 3F020000 		.4byte	0x23f
 2004 03bc 18       		.uleb128 0x18
 2005 03bd 4A020000 		.4byte	0x24a
 2006 03c1 18       		.uleb128 0x18
 2007 03c2 56020000 		.4byte	0x256
 2008 03c6 18       		.uleb128 0x18
 2009 03c7 60020000 		.4byte	0x260
 2010 03cb 18       		.uleb128 0x18
 2011 03cc 6C020000 		.4byte	0x26c
 2012 03d0 18       		.uleb128 0x18
 2013 03d1 77020000 		.4byte	0x277
 2014 03d5 18       		.uleb128 0x18
 2015 03d6 83020000 		.4byte	0x283
 2016 03da 19       		.uleb128 0x19
 2017 03db 0E000000 		.4byte	.LBB7
 2018 03df 22010000 		.4byte	.LBE7-.LBB7
 2019 03e3 1A       		.uleb128 0x1a
 2020 03e4 3F020000 		.4byte	0x23f
 2021 03e8 99000000 		.4byte	.LLST4
 2022 03ec 1A       		.uleb128 0x1a
 2023 03ed 4A020000 		.4byte	0x24a
ARM GAS  C:\Users\RABBIT~1\AppData\Local\Temp\ccYRpEyv.s 			page 61


 2024 03f1 B8000000 		.4byte	.LLST5
 2025 03f5 1A       		.uleb128 0x1a
 2026 03f6 56020000 		.4byte	0x256
 2027 03fa CB000000 		.4byte	.LLST6
 2028 03fe 1A       		.uleb128 0x1a
 2029 03ff 60020000 		.4byte	0x260
 2030 0403 DF000000 		.4byte	.LLST7
 2031 0407 1A       		.uleb128 0x1a
 2032 0408 6C020000 		.4byte	0x26c
 2033 040c FD000000 		.4byte	.LLST8
 2034 0410 1A       		.uleb128 0x1a
 2035 0411 77020000 		.4byte	0x277
 2036 0415 10010000 		.4byte	.LLST9
 2037 0419 1A       		.uleb128 0x1a
 2038 041a 83020000 		.4byte	0x283
 2039 041e 25010000 		.4byte	.LLST10
 2040 0422 1B       		.uleb128 0x1b
 2041 0423 1A000000 		.4byte	.LVL11
 2042 0427 69030000 		.4byte	0x369
 2043 042b 00       		.byte	0
 2044 042c 00       		.byte	0
 2045 042d 1C       		.uleb128 0x1c
 2046 042e 28030000 		.4byte	0x328
 2047 0432 00000000 		.4byte	.LFB5
 2048 0436 18000000 		.4byte	.LFE5-.LFB5
 2049 043a 01       		.uleb128 0x1
 2050 043b 9C       		.byte	0x9c
 2051 043c 14       		.uleb128 0x14
 2052 043d 43020000 		.4byte	.LASF48
 2053 0441 01       		.byte	0x1
 2054 0442 A303     		.2byte	0x3a3
 2055 0444 1D030000 		.4byte	0x31d
 2056 0448 00000000 		.4byte	.LFB6
 2057 044c 20000000 		.4byte	.LFE6-.LFB6
 2058 0450 01       		.uleb128 0x1
 2059 0451 9C       		.byte	0x9c
 2060 0452 8E040000 		.4byte	0x48e
 2061 0456 16       		.uleb128 0x16
 2062 0457 9A030000 		.4byte	.LASF42
 2063 045b 01       		.byte	0x1
 2064 045c A603     		.2byte	0x3a6
 2065 045e 90020000 		.4byte	0x290
 2066 0462 38010000 		.4byte	.LLST11
 2067 0466 1D       		.uleb128 0x1d
 2068 0467 A0020000 		.4byte	.LASF49
 2069 046b 01       		.byte	0x1
 2070 046c A703     		.2byte	0x3a7
 2071 046e 1D030000 		.4byte	0x31d
 2072 0472 01       		.uleb128 0x1
 2073 0473 50       		.byte	0x50
 2074 0474 16       		.uleb128 0x16
 2075 0475 DE030000 		.4byte	.LASF50
 2076 0479 01       		.byte	0x1
 2077 047a A803     		.2byte	0x3a8
 2078 047c 6B000000 		.4byte	0x6b
 2079 0480 5D010000 		.4byte	.LLST12
 2080 0484 1B       		.uleb128 0x1b
ARM GAS  C:\Users\RABBIT~1\AppData\Local\Temp\ccYRpEyv.s 			page 62


 2081 0485 0E000000 		.4byte	.LVL26
 2082 0489 69030000 		.4byte	0x369
 2083 048d 00       		.byte	0
 2084 048e 17       		.uleb128 0x17
 2085 048f A6020000 		.4byte	0x2a6
 2086 0493 00000000 		.4byte	.LFB2
 2087 0497 4C010000 		.4byte	.LFE2-.LFB2
 2088 049b 01       		.uleb128 0x1
 2089 049c 9C       		.byte	0x9c
 2090 049d 54050000 		.4byte	0x554
 2091 04a1 1E       		.uleb128 0x1e
 2092 04a2 B3020000 		.4byte	0x2b3
 2093 04a6 7F010000 		.4byte	.LLST13
 2094 04aa 1A       		.uleb128 0x1a
 2095 04ab BF020000 		.4byte	0x2bf
 2096 04af AB010000 		.4byte	.LLST14
 2097 04b3 18       		.uleb128 0x18
 2098 04b4 CA020000 		.4byte	0x2ca
 2099 04b8 1A       		.uleb128 0x1a
 2100 04b9 D6020000 		.4byte	0x2d6
 2101 04bd CA010000 		.4byte	.LLST15
 2102 04c1 18       		.uleb128 0x18
 2103 04c2 E0020000 		.4byte	0x2e0
 2104 04c6 18       		.uleb128 0x18
 2105 04c7 EC020000 		.4byte	0x2ec
 2106 04cb 1F       		.uleb128 0x1f
 2107 04cc F8020000 		.4byte	0x2f8
 2108 04d0 00       		.byte	0
 2109 04d1 18       		.uleb128 0x18
 2110 04d2 04030000 		.4byte	0x304
 2111 04d6 18       		.uleb128 0x18
 2112 04d7 10030000 		.4byte	0x310
 2113 04db 20       		.uleb128 0x20
 2114 04dc 00000000 		.4byte	.Ldebug_ranges0+0
 2115 04e0 1E       		.uleb128 0x1e
 2116 04e1 B3020000 		.4byte	0x2b3
 2117 04e5 DE010000 		.4byte	.LLST16
 2118 04e9 20       		.uleb128 0x20
 2119 04ea 00000000 		.4byte	.Ldebug_ranges0+0
 2120 04ee 1A       		.uleb128 0x1a
 2121 04ef BF020000 		.4byte	0x2bf
 2122 04f3 F1010000 		.4byte	.LLST17
 2123 04f7 1A       		.uleb128 0x1a
 2124 04f8 CA020000 		.4byte	0x2ca
 2125 04fc 1C020000 		.4byte	.LLST18
 2126 0500 1A       		.uleb128 0x1a
 2127 0501 D6020000 		.4byte	0x2d6
 2128 0505 30020000 		.4byte	.LLST19
 2129 0509 1A       		.uleb128 0x1a
 2130 050a E0020000 		.4byte	0x2e0
 2131 050e 68020000 		.4byte	.LLST20
 2132 0512 1A       		.uleb128 0x1a
 2133 0513 EC020000 		.4byte	0x2ec
 2134 0517 86020000 		.4byte	.LLST21
 2135 051b 1A       		.uleb128 0x1a
 2136 051c F8020000 		.4byte	0x2f8
 2137 0520 9A020000 		.4byte	.LLST22
ARM GAS  C:\Users\RABBIT~1\AppData\Local\Temp\ccYRpEyv.s 			page 63


 2138 0524 1A       		.uleb128 0x1a
 2139 0525 04030000 		.4byte	0x304
 2140 0529 D8020000 		.4byte	.LLST23
 2141 052d 1A       		.uleb128 0x1a
 2142 052e 10030000 		.4byte	0x310
 2143 0532 F8020000 		.4byte	.LLST24
 2144 0536 1B       		.uleb128 0x1b
 2145 0537 4A000000 		.4byte	.LVL38
 2146 053b 69030000 		.4byte	0x369
 2147 053f 1B       		.uleb128 0x1b
 2148 0540 0A010000 		.4byte	.LVL55
 2149 0544 3C040000 		.4byte	0x43c
 2150 0548 21       		.uleb128 0x21
 2151 0549 2E010000 		.4byte	.LVL62
 2152 054d 35030000 		.4byte	0x335
 2153 0551 00       		.byte	0
 2154 0552 00       		.byte	0
 2155 0553 00       		.byte	0
 2156 0554 12       		.uleb128 0x12
 2157 0555 1A000000 		.4byte	.LASF52
 2158 0559 01       		.byte	0x1
 2159 055a CE03     		.2byte	0x3ce
 2160 055c 00000000 		.4byte	.LFB7
 2161 0560 40000000 		.4byte	.LFE7-.LFB7
 2162 0564 01       		.uleb128 0x1
 2163 0565 9C       		.byte	0x9c
 2164 0566 89050000 		.4byte	0x589
 2165 056a 22       		.uleb128 0x22
 2166 056b 657000   		.ascii	"ep\000"
 2167 056e 01       		.byte	0x1
 2168 056f CE03     		.2byte	0x3ce
 2169 0571 6B000000 		.4byte	0x6b
 2170 0575 4A030000 		.4byte	.LLST25
 2171 0579 13       		.uleb128 0x13
 2172 057a 726900   		.ascii	"ri\000"
 2173 057d 01       		.byte	0x1
 2174 057e D003     		.2byte	0x3d0
 2175 0580 6B000000 		.4byte	0x6b
 2176 0584 68030000 		.4byte	.LLST26
 2177 0588 00       		.byte	0
 2178 0589 14       		.uleb128 0x14
 2179 058a E6010000 		.4byte	.LASF54
 2180 058e 01       		.byte	0x1
 2181 058f FD03     		.2byte	0x3fd
 2182 0591 6B000000 		.4byte	0x6b
 2183 0595 00000000 		.4byte	.LFB8
 2184 0599 54000000 		.4byte	.LFE8-.LFB8
 2185 059d 01       		.uleb128 0x1
 2186 059e 9C       		.byte	0x9c
 2187 059f D8050000 		.4byte	0x5d8
 2188 05a3 13       		.uleb128 0x13
 2189 05a4 657000   		.ascii	"ep\000"
 2190 05a7 01       		.byte	0x1
 2191 05a8 FF03     		.2byte	0x3ff
 2192 05aa 6B000000 		.4byte	0x6b
 2193 05ae 7F030000 		.4byte	.LLST27
 2194 05b2 13       		.uleb128 0x13
ARM GAS  C:\Users\RABBIT~1\AppData\Local\Temp\ccYRpEyv.s 			page 64


 2195 05b3 726900   		.ascii	"ri\000"
 2196 05b6 01       		.byte	0x1
 2197 05b7 0004     		.2byte	0x400
 2198 05b9 6B000000 		.4byte	0x6b
 2199 05bd 9D030000 		.4byte	.LLST28
 2200 05c1 23       		.uleb128 0x23
 2201 05c2 32050000 		.4byte	.LASF55
 2202 05c6 01       		.byte	0x1
 2203 05c7 0104     		.2byte	0x401
 2204 05c9 6B000000 		.4byte	0x6b
 2205 05cd 00       		.byte	0
 2206 05ce 21       		.uleb128 0x21
 2207 05cf 44000000 		.4byte	.LVL73
 2208 05d3 ED080000 		.4byte	0x8ed
 2209 05d7 00       		.byte	0
 2210 05d8 14       		.uleb128 0x14
 2211 05d9 62010000 		.4byte	.LASF56
 2212 05dd 01       		.byte	0x1
 2213 05de 3404     		.2byte	0x434
 2214 05e0 6B000000 		.4byte	0x6b
 2215 05e4 00000000 		.4byte	.LFB9
 2216 05e8 7C000000 		.4byte	.LFE9-.LFB9
 2217 05ec 01       		.uleb128 0x1
 2218 05ed 9C       		.byte	0x9c
 2219 05ee 27060000 		.4byte	0x627
 2220 05f2 13       		.uleb128 0x13
 2221 05f3 657000   		.ascii	"ep\000"
 2222 05f6 01       		.byte	0x1
 2223 05f7 3604     		.2byte	0x436
 2224 05f9 6B000000 		.4byte	0x6b
 2225 05fd C3030000 		.4byte	.LLST29
 2226 0601 13       		.uleb128 0x13
 2227 0602 726900   		.ascii	"ri\000"
 2228 0605 01       		.byte	0x1
 2229 0606 3704     		.2byte	0x437
 2230 0608 6B000000 		.4byte	0x6b
 2231 060c E1030000 		.4byte	.LLST30
 2232 0610 23       		.uleb128 0x23
 2233 0611 32050000 		.4byte	.LASF55
 2234 0615 01       		.byte	0x1
 2235 0616 3804     		.2byte	0x438
 2236 0618 6B000000 		.4byte	0x6b
 2237 061c 00       		.byte	0
 2238 061d 21       		.uleb128 0x21
 2239 061e 64000000 		.4byte	.LVL79
 2240 0622 ED080000 		.4byte	0x8ed
 2241 0626 00       		.byte	0
 2242 0627 14       		.uleb128 0x14
 2243 0628 BA020000 		.4byte	.LASF57
 2244 062c 01       		.byte	0x1
 2245 062d 7B04     		.2byte	0x47b
 2246 062f 6B000000 		.4byte	0x6b
 2247 0633 00000000 		.4byte	.LFB10
 2248 0637 4C000000 		.4byte	.LFE10-.LFB10
 2249 063b 01       		.uleb128 0x1
 2250 063c 9C       		.byte	0x9c
 2251 063d 8B060000 		.4byte	0x68b
ARM GAS  C:\Users\RABBIT~1\AppData\Local\Temp\ccYRpEyv.s 			page 65


 2252 0641 16       		.uleb128 0x16
 2253 0642 32050000 		.4byte	.LASF55
 2254 0646 01       		.byte	0x1
 2255 0647 7D04     		.2byte	0x47d
 2256 0649 6B000000 		.4byte	0x6b
 2257 064d 07040000 		.4byte	.LLST31
 2258 0651 16       		.uleb128 0x16
 2259 0652 24040000 		.4byte	.LASF58
 2260 0656 01       		.byte	0x1
 2261 0657 7E04     		.2byte	0x47e
 2262 0659 6B000000 		.4byte	0x6b
 2263 065d 26040000 		.4byte	.LLST32
 2264 0661 16       		.uleb128 0x16
 2265 0662 9A030000 		.4byte	.LASF42
 2266 0666 01       		.byte	0x1
 2267 0667 7F04     		.2byte	0x47f
 2268 0669 90020000 		.4byte	0x290
 2269 066d 39040000 		.4byte	.LLST33
 2270 0671 16       		.uleb128 0x16
 2271 0672 DE030000 		.4byte	.LASF50
 2272 0676 01       		.byte	0x1
 2273 0677 8004     		.2byte	0x480
 2274 0679 6B000000 		.4byte	0x6b
 2275 067d 57040000 		.4byte	.LLST34
 2276 0681 1B       		.uleb128 0x1b
 2277 0682 14000000 		.4byte	.LVL82
 2278 0686 69030000 		.4byte	0x369
 2279 068a 00       		.byte	0
 2280 068b 24       		.uleb128 0x24
 2281 068c F6050000 		.4byte	.LASF59
 2282 0690 01       		.byte	0x1
 2283 0691 58       		.byte	0x58
 2284 0692 6B000000 		.4byte	0x6b
 2285 0696 00000000 		.4byte	.LFB0
 2286 069a 8C020000 		.4byte	.LFE0-.LFB0
 2287 069e 01       		.uleb128 0x1
 2288 069f 9C       		.byte	0x9c
 2289 06a0 92070000 		.4byte	0x792
 2290 06a4 25       		.uleb128 0x25
 2291 06a5 32050000 		.4byte	.LASF55
 2292 06a9 01       		.byte	0x1
 2293 06aa 5A       		.byte	0x5a
 2294 06ab 6B000000 		.4byte	0x6b
 2295 06af 88040000 		.4byte	.LLST35
 2296 06b3 25       		.uleb128 0x25
 2297 06b4 78000000 		.4byte	.LASF60
 2298 06b8 01       		.byte	0x1
 2299 06b9 5B       		.byte	0x5b
 2300 06ba 6B000000 		.4byte	0x6b
 2301 06be 9C040000 		.4byte	.LLST36
 2302 06c2 25       		.uleb128 0x25
 2303 06c3 56040000 		.4byte	.LASF61
 2304 06c7 01       		.byte	0x1
 2305 06c8 5C       		.byte	0x5c
 2306 06c9 6B000000 		.4byte	0x6b
 2307 06cd AF040000 		.4byte	.LLST37
 2308 06d1 25       		.uleb128 0x25
ARM GAS  C:\Users\RABBIT~1\AppData\Local\Temp\ccYRpEyv.s 			page 66


 2309 06d2 6E040000 		.4byte	.LASF62
 2310 06d6 01       		.byte	0x1
 2311 06d7 5E       		.byte	0x5e
 2312 06d8 EA010000 		.4byte	0x1ea
 2313 06dc CD040000 		.4byte	.LLST38
 2314 06e0 25       		.uleb128 0x25
 2315 06e1 9A050000 		.4byte	.LASF63
 2316 06e5 01       		.byte	0x1
 2317 06e6 60       		.byte	0x60
 2318 06e7 6B000000 		.4byte	0x6b
 2319 06eb 1B050000 		.4byte	.LLST39
 2320 06ef 25       		.uleb128 0x25
 2321 06f0 79030000 		.4byte	.LASF64
 2322 06f4 01       		.byte	0x1
 2323 06f5 61       		.byte	0x61
 2324 06f6 6B000000 		.4byte	0x6b
 2325 06fa 65050000 		.4byte	.LLST40
 2326 06fe 26       		.uleb128 0x26
 2327 06ff 88000000 		.4byte	.LASF65
 2328 0703 01       		.byte	0x1
 2329 0704 64       		.byte	0x64
 2330 0705 A2070000 		.4byte	0x7a2
 2331 0709 05       		.uleb128 0x5
 2332 070a 03       		.byte	0x3
 2333 070b 00000000 		.4byte	USBFS_tBuffer.5195
 2334 070f 25       		.uleb128 0x25
 2335 0710 9A030000 		.4byte	.LASF42
 2336 0714 01       		.byte	0x1
 2337 0715 65       		.byte	0x65
 2338 0716 90020000 		.4byte	0x290
 2339 071a 78050000 		.4byte	.LLST41
 2340 071e 27       		.uleb128 0x27
 2341 071f 28030000 		.4byte	0x328
 2342 0723 40000000 		.4byte	.LBB14
 2343 0727 0A000000 		.4byte	.LBE14-.LBB14
 2344 072b 01       		.byte	0x1
 2345 072c 70       		.byte	0x70
 2346 072d 1B       		.uleb128 0x1b
 2347 072e 62000000 		.4byte	.LVL88
 2348 0732 69030000 		.4byte	0x369
 2349 0736 21       		.uleb128 0x21
 2350 0737 82000000 		.4byte	.LVL91
 2351 073b F8080000 		.4byte	0x8f8
 2352 073f 21       		.uleb128 0x21
 2353 0740 D2000000 		.4byte	.LVL101
 2354 0744 03090000 		.4byte	0x903
 2355 0748 28       		.uleb128 0x28
 2356 0749 6A010000 		.4byte	.LVL106
 2357 074d A6020000 		.4byte	0x2a6
 2358 0751 5B070000 		.4byte	0x75b
 2359 0755 29       		.uleb128 0x29
 2360 0756 01       		.uleb128 0x1
 2361 0757 50       		.byte	0x50
 2362 0758 01       		.uleb128 0x1
 2363 0759 31       		.byte	0x31
 2364 075a 00       		.byte	0
 2365 075b 1B       		.uleb128 0x1b
ARM GAS  C:\Users\RABBIT~1\AppData\Local\Temp\ccYRpEyv.s 			page 67


 2366 075c 74010000 		.4byte	.LVL108
 2367 0760 69030000 		.4byte	0x369
 2368 0764 1B       		.uleb128 0x1b
 2369 0765 7E010000 		.4byte	.LVL110
 2370 0769 27060000 		.4byte	0x627
 2371 076d 1B       		.uleb128 0x1b
 2372 076e 96010000 		.4byte	.LVL112
 2373 0772 32020000 		.4byte	0x232
 2374 0776 21       		.uleb128 0x21
 2375 0777 C8010000 		.4byte	.LVL114
 2376 077b D8050000 		.4byte	0x5d8
 2377 077f 21       		.uleb128 0x21
 2378 0780 FE010000 		.4byte	.LVL115
 2379 0784 89050000 		.4byte	0x589
 2380 0788 21       		.uleb128 0x21
 2381 0789 32020000 		.4byte	.LVL116
 2382 078d ED080000 		.4byte	0x8ed
 2383 0791 00       		.byte	0
 2384 0792 2A       		.uleb128 0x2a
 2385 0793 A2000000 		.4byte	0xa2
 2386 0797 A2070000 		.4byte	0x7a2
 2387 079b 2B       		.uleb128 0x2b
 2388 079c AE000000 		.4byte	0xae
 2389 07a0 01       		.byte	0x1
 2390 07a1 00       		.byte	0
 2391 07a2 06       		.uleb128 0x6
 2392 07a3 92070000 		.4byte	0x792
 2393 07a7 2C       		.uleb128 0x2c
 2394 07a8 FF040000 		.4byte	.LASF66
 2395 07ac 03       		.byte	0x3
 2396 07ad 5102     		.2byte	0x251
 2397 07af A2000000 		.4byte	0xa2
 2398 07b3 2C       		.uleb128 0x2c
 2399 07b4 02020000 		.4byte	.LASF67
 2400 07b8 03       		.byte	0x3
 2401 07b9 5302     		.2byte	0x253
 2402 07bb A2000000 		.4byte	0xa2
 2403 07bf 2C       		.uleb128 0x2c
 2404 07c0 D9020000 		.4byte	.LASF68
 2405 07c4 03       		.byte	0x3
 2406 07c5 5402     		.2byte	0x254
 2407 07c7 A2000000 		.4byte	0xa2
 2408 07cb 2C       		.uleb128 0x2c
 2409 07cc 64050000 		.4byte	.LASF69
 2410 07d0 03       		.byte	0x3
 2411 07d1 5502     		.2byte	0x255
 2412 07d3 A2000000 		.4byte	0xa2
 2413 07d7 2A       		.uleb128 0x2a
 2414 07d8 23030000 		.4byte	0x323
 2415 07dc E7070000 		.4byte	0x7e7
 2416 07e0 2B       		.uleb128 0x2b
 2417 07e1 AE000000 		.4byte	0xae
 2418 07e5 11       		.byte	0x11
 2419 07e6 00       		.byte	0
 2420 07e7 2D       		.uleb128 0x2d
 2421 07e8 31040000 		.4byte	.LASF70
 2422 07ec 04       		.byte	0x4
ARM GAS  C:\Users\RABBIT~1\AppData\Local\Temp\ccYRpEyv.s 			page 68


 2423 07ed 1C       		.byte	0x1c
 2424 07ee F2070000 		.4byte	0x7f2
 2425 07f2 0F       		.uleb128 0xf
 2426 07f3 D7070000 		.4byte	0x7d7
 2427 07f7 2A       		.uleb128 0x2a
 2428 07f8 96020000 		.4byte	0x296
 2429 07fc 07080000 		.4byte	0x807
 2430 0800 2B       		.uleb128 0x2b
 2431 0801 AE000000 		.4byte	0xae
 2432 0805 00       		.byte	0
 2433 0806 00       		.byte	0
 2434 0807 2D       		.uleb128 0x2d
 2435 0808 B7030000 		.4byte	.LASF71
 2436 080c 04       		.byte	0x4
 2437 080d 23       		.byte	0x23
 2438 080e 12080000 		.4byte	0x812
 2439 0812 0F       		.uleb128 0xf
 2440 0813 F7070000 		.4byte	0x7f7
 2441 0817 2A       		.uleb128 0x2a
 2442 0818 23030000 		.4byte	0x323
 2443 081c 27080000 		.4byte	0x827
 2444 0820 2B       		.uleb128 0x2b
 2445 0821 AE000000 		.4byte	0xae
 2446 0825 09       		.byte	0x9
 2447 0826 00       		.byte	0
 2448 0827 2D       		.uleb128 0x2d
 2449 0828 C3030000 		.4byte	.LASF72
 2450 082c 04       		.byte	0x4
 2451 082d 24       		.byte	0x24
 2452 082e 32080000 		.4byte	0x832
 2453 0832 0F       		.uleb128 0xf
 2454 0833 17080000 		.4byte	0x817
 2455 0837 2A       		.uleb128 0x2a
 2456 0838 23030000 		.4byte	0x323
 2457 083c 47080000 		.4byte	0x847
 2458 0840 2B       		.uleb128 0x2b
 2459 0841 AE000000 		.4byte	0xae
 2460 0845 52       		.byte	0x52
 2461 0846 00       		.byte	0
 2462 0847 2D       		.uleb128 0x2d
 2463 0848 56030000 		.4byte	.LASF73
 2464 084c 04       		.byte	0x4
 2465 084d 25       		.byte	0x25
 2466 084e 52080000 		.4byte	0x852
 2467 0852 0F       		.uleb128 0xf
 2468 0853 37080000 		.4byte	0x837
 2469 0857 2D       		.uleb128 0x2d
 2470 0858 7A010000 		.4byte	.LASF74
 2471 085c 04       		.byte	0x4
 2472 085d 38       		.byte	0x38
 2473 085e A2000000 		.4byte	0xa2
 2474 0862 2A       		.uleb128 0x2a
 2475 0863 A2000000 		.4byte	0xa2
 2476 0867 72080000 		.4byte	0x872
 2477 086b 2B       		.uleb128 0x2b
 2478 086c AE000000 		.4byte	0xae
 2479 0870 00       		.byte	0
ARM GAS  C:\Users\RABBIT~1\AppData\Local\Temp\ccYRpEyv.s 			page 69


 2480 0871 00       		.byte	0
 2481 0872 2D       		.uleb128 0x2d
 2482 0873 B3040000 		.4byte	.LASF75
 2483 0877 04       		.byte	0x4
 2484 0878 39       		.byte	0x39
 2485 0879 7D080000 		.4byte	0x87d
 2486 087d 06       		.uleb128 0x6
 2487 087e 62080000 		.4byte	0x862
 2488 0882 2D       		.uleb128 0x2d
 2489 0883 77050000 		.4byte	.LASF76
 2490 0887 04       		.byte	0x4
 2491 0888 3A       		.byte	0x3a
 2492 0889 8D080000 		.4byte	0x88d
 2493 088d 06       		.uleb128 0x6
 2494 088e 62080000 		.4byte	0x862
 2495 0892 2D       		.uleb128 0x2d
 2496 0893 4E010000 		.4byte	.LASF77
 2497 0897 04       		.byte	0x4
 2498 0898 3B       		.byte	0x3b
 2499 0899 A2000000 		.4byte	0xa2
 2500 089d 2D       		.uleb128 0x2d
 2501 089e E0050000 		.4byte	.LASF78
 2502 08a2 04       		.byte	0x4
 2503 08a3 3C       		.byte	0x3c
 2504 08a4 A8080000 		.4byte	0x8a8
 2505 08a8 06       		.uleb128 0x6
 2506 08a9 62080000 		.4byte	0x862
 2507 08ad 2D       		.uleb128 0x2d
 2508 08ae C5050000 		.4byte	.LASF79
 2509 08b2 04       		.byte	0x4
 2510 08b3 3D       		.byte	0x3d
 2511 08b4 1D030000 		.4byte	0x31d
 2512 08b8 2A       		.uleb128 0x2a
 2513 08b9 C8080000 		.4byte	0x8c8
 2514 08bd C8080000 		.4byte	0x8c8
 2515 08c1 2B       		.uleb128 0x2b
 2516 08c2 AE000000 		.4byte	0xae
 2517 08c6 08       		.byte	0x8
 2518 08c7 00       		.byte	0
 2519 08c8 06       		.uleb128 0x6
 2520 08c9 2A010000 		.4byte	0x12a
 2521 08cd 2D       		.uleb128 0x2d
 2522 08ce 65040000 		.4byte	.LASF80
 2523 08d2 04       		.byte	0x4
 2524 08d3 3F       		.byte	0x3f
 2525 08d4 D8080000 		.4byte	0x8d8
 2526 08d8 06       		.uleb128 0x6
 2527 08d9 B8080000 		.4byte	0x8b8
 2528 08dd 2D       		.uleb128 0x2d
 2529 08de 2C000000 		.4byte	.LASF81
 2530 08e2 04       		.byte	0x4
 2531 08e3 40       		.byte	0x40
 2532 08e4 E8080000 		.4byte	0x8e8
 2533 08e8 06       		.uleb128 0x6
 2534 08e9 F6010000 		.4byte	0x1f6
 2535 08ed 2E       		.uleb128 0x2e
 2536 08ee DF040000 		.4byte	.LASF82
ARM GAS  C:\Users\RABBIT~1\AppData\Local\Temp\ccYRpEyv.s 			page 70


 2537 08f2 DF040000 		.4byte	.LASF82
 2538 08f6 04       		.byte	0x4
 2539 08f7 6A       		.byte	0x6a
 2540 08f8 2E       		.uleb128 0x2e
 2541 08f9 3C000000 		.4byte	.LASF83
 2542 08fd 3C000000 		.4byte	.LASF83
 2543 0901 04       		.byte	0x4
 2544 0902 5D       		.byte	0x5d
 2545 0903 2E       		.uleb128 0x2e
 2546 0904 AD050000 		.4byte	.LASF84
 2547 0908 AD050000 		.4byte	.LASF84
 2548 090c 04       		.byte	0x4
 2549 090d BF       		.byte	0xbf
 2550 090e 00       		.byte	0
 2551              		.section	.debug_abbrev,"",%progbits
 2552              	.Ldebug_abbrev0:
 2553 0000 01       		.uleb128 0x1
 2554 0001 11       		.uleb128 0x11
 2555 0002 01       		.byte	0x1
 2556 0003 25       		.uleb128 0x25
 2557 0004 0E       		.uleb128 0xe
 2558 0005 13       		.uleb128 0x13
 2559 0006 0B       		.uleb128 0xb
 2560 0007 03       		.uleb128 0x3
 2561 0008 0E       		.uleb128 0xe
 2562 0009 1B       		.uleb128 0x1b
 2563 000a 0E       		.uleb128 0xe
 2564 000b 55       		.uleb128 0x55
 2565 000c 17       		.uleb128 0x17
 2566 000d 11       		.uleb128 0x11
 2567 000e 01       		.uleb128 0x1
 2568 000f 10       		.uleb128 0x10
 2569 0010 17       		.uleb128 0x17
 2570 0011 00       		.byte	0
 2571 0012 00       		.byte	0
 2572 0013 02       		.uleb128 0x2
 2573 0014 24       		.uleb128 0x24
 2574 0015 00       		.byte	0
 2575 0016 0B       		.uleb128 0xb
 2576 0017 0B       		.uleb128 0xb
 2577 0018 3E       		.uleb128 0x3e
 2578 0019 0B       		.uleb128 0xb
 2579 001a 03       		.uleb128 0x3
 2580 001b 0E       		.uleb128 0xe
 2581 001c 00       		.byte	0
 2582 001d 00       		.byte	0
 2583 001e 03       		.uleb128 0x3
 2584 001f 24       		.uleb128 0x24
 2585 0020 00       		.byte	0
 2586 0021 0B       		.uleb128 0xb
 2587 0022 0B       		.uleb128 0xb
 2588 0023 3E       		.uleb128 0x3e
 2589 0024 0B       		.uleb128 0xb
 2590 0025 03       		.uleb128 0x3
 2591 0026 08       		.uleb128 0x8
 2592 0027 00       		.byte	0
 2593 0028 00       		.byte	0
ARM GAS  C:\Users\RABBIT~1\AppData\Local\Temp\ccYRpEyv.s 			page 71


 2594 0029 04       		.uleb128 0x4
 2595 002a 16       		.uleb128 0x16
 2596 002b 00       		.byte	0
 2597 002c 03       		.uleb128 0x3
 2598 002d 0E       		.uleb128 0xe
 2599 002e 3A       		.uleb128 0x3a
 2600 002f 0B       		.uleb128 0xb
 2601 0030 3B       		.uleb128 0x3b
 2602 0031 0B       		.uleb128 0xb
 2603 0032 49       		.uleb128 0x49
 2604 0033 13       		.uleb128 0x13
 2605 0034 00       		.byte	0
 2606 0035 00       		.byte	0
 2607 0036 05       		.uleb128 0x5
 2608 0037 16       		.uleb128 0x16
 2609 0038 00       		.byte	0
 2610 0039 03       		.uleb128 0x3
 2611 003a 0E       		.uleb128 0xe
 2612 003b 3A       		.uleb128 0x3a
 2613 003c 0B       		.uleb128 0xb
 2614 003d 3B       		.uleb128 0x3b
 2615 003e 05       		.uleb128 0x5
 2616 003f 49       		.uleb128 0x49
 2617 0040 13       		.uleb128 0x13
 2618 0041 00       		.byte	0
 2619 0042 00       		.byte	0
 2620 0043 06       		.uleb128 0x6
 2621 0044 35       		.uleb128 0x35
 2622 0045 00       		.byte	0
 2623 0046 49       		.uleb128 0x49
 2624 0047 13       		.uleb128 0x13
 2625 0048 00       		.byte	0
 2626 0049 00       		.byte	0
 2627 004a 07       		.uleb128 0x7
 2628 004b 13       		.uleb128 0x13
 2629 004c 01       		.byte	0x1
 2630 004d 0B       		.uleb128 0xb
 2631 004e 0B       		.uleb128 0xb
 2632 004f 3A       		.uleb128 0x3a
 2633 0050 0B       		.uleb128 0xb
 2634 0051 3B       		.uleb128 0x3b
 2635 0052 0B       		.uleb128 0xb
 2636 0053 01       		.uleb128 0x1
 2637 0054 13       		.uleb128 0x13
 2638 0055 00       		.byte	0
 2639 0056 00       		.byte	0
 2640 0057 08       		.uleb128 0x8
 2641 0058 0D       		.uleb128 0xd
 2642 0059 00       		.byte	0
 2643 005a 03       		.uleb128 0x3
 2644 005b 0E       		.uleb128 0xe
 2645 005c 3A       		.uleb128 0x3a
 2646 005d 0B       		.uleb128 0xb
 2647 005e 3B       		.uleb128 0x3b
 2648 005f 0B       		.uleb128 0xb
 2649 0060 49       		.uleb128 0x49
 2650 0061 13       		.uleb128 0x13
ARM GAS  C:\Users\RABBIT~1\AppData\Local\Temp\ccYRpEyv.s 			page 72


 2651 0062 38       		.uleb128 0x38
 2652 0063 0B       		.uleb128 0xb
 2653 0064 00       		.byte	0
 2654 0065 00       		.byte	0
 2655 0066 09       		.uleb128 0x9
 2656 0067 0F       		.uleb128 0xf
 2657 0068 00       		.byte	0
 2658 0069 0B       		.uleb128 0xb
 2659 006a 0B       		.uleb128 0xb
 2660 006b 49       		.uleb128 0x49
 2661 006c 13       		.uleb128 0x13
 2662 006d 00       		.byte	0
 2663 006e 00       		.byte	0
 2664 006f 0A       		.uleb128 0xa
 2665 0070 0D       		.uleb128 0xd
 2666 0071 00       		.byte	0
 2667 0072 03       		.uleb128 0x3
 2668 0073 08       		.uleb128 0x8
 2669 0074 3A       		.uleb128 0x3a
 2670 0075 0B       		.uleb128 0xb
 2671 0076 3B       		.uleb128 0x3b
 2672 0077 0B       		.uleb128 0xb
 2673 0078 49       		.uleb128 0x49
 2674 0079 13       		.uleb128 0x13
 2675 007a 38       		.uleb128 0x38
 2676 007b 0B       		.uleb128 0xb
 2677 007c 00       		.byte	0
 2678 007d 00       		.byte	0
 2679 007e 0B       		.uleb128 0xb
 2680 007f 26       		.uleb128 0x26
 2681 0080 00       		.byte	0
 2682 0081 00       		.byte	0
 2683 0082 00       		.byte	0
 2684 0083 0C       		.uleb128 0xc
 2685 0084 2E       		.uleb128 0x2e
 2686 0085 01       		.byte	0x1
 2687 0086 3F       		.uleb128 0x3f
 2688 0087 19       		.uleb128 0x19
 2689 0088 03       		.uleb128 0x3
 2690 0089 0E       		.uleb128 0xe
 2691 008a 3A       		.uleb128 0x3a
 2692 008b 0B       		.uleb128 0xb
 2693 008c 3B       		.uleb128 0x3b
 2694 008d 05       		.uleb128 0x5
 2695 008e 27       		.uleb128 0x27
 2696 008f 19       		.uleb128 0x19
 2697 0090 20       		.uleb128 0x20
 2698 0091 0B       		.uleb128 0xb
 2699 0092 01       		.uleb128 0x1
 2700 0093 13       		.uleb128 0x13
 2701 0094 00       		.byte	0
 2702 0095 00       		.byte	0
 2703 0096 0D       		.uleb128 0xd
 2704 0097 34       		.uleb128 0x34
 2705 0098 00       		.byte	0
 2706 0099 03       		.uleb128 0x3
 2707 009a 08       		.uleb128 0x8
ARM GAS  C:\Users\RABBIT~1\AppData\Local\Temp\ccYRpEyv.s 			page 73


 2708 009b 3A       		.uleb128 0x3a
 2709 009c 0B       		.uleb128 0xb
 2710 009d 3B       		.uleb128 0x3b
 2711 009e 05       		.uleb128 0x5
 2712 009f 49       		.uleb128 0x49
 2713 00a0 13       		.uleb128 0x13
 2714 00a1 00       		.byte	0
 2715 00a2 00       		.byte	0
 2716 00a3 0E       		.uleb128 0xe
 2717 00a4 34       		.uleb128 0x34
 2718 00a5 00       		.byte	0
 2719 00a6 03       		.uleb128 0x3
 2720 00a7 0E       		.uleb128 0xe
 2721 00a8 3A       		.uleb128 0x3a
 2722 00a9 0B       		.uleb128 0xb
 2723 00aa 3B       		.uleb128 0x3b
 2724 00ab 05       		.uleb128 0x5
 2725 00ac 49       		.uleb128 0x49
 2726 00ad 13       		.uleb128 0x13
 2727 00ae 00       		.byte	0
 2728 00af 00       		.byte	0
 2729 00b0 0F       		.uleb128 0xf
 2730 00b1 26       		.uleb128 0x26
 2731 00b2 00       		.byte	0
 2732 00b3 49       		.uleb128 0x49
 2733 00b4 13       		.uleb128 0x13
 2734 00b5 00       		.byte	0
 2735 00b6 00       		.byte	0
 2736 00b7 10       		.uleb128 0x10
 2737 00b8 05       		.uleb128 0x5
 2738 00b9 00       		.byte	0
 2739 00ba 03       		.uleb128 0x3
 2740 00bb 0E       		.uleb128 0xe
 2741 00bc 3A       		.uleb128 0x3a
 2742 00bd 0B       		.uleb128 0xb
 2743 00be 3B       		.uleb128 0x3b
 2744 00bf 05       		.uleb128 0x5
 2745 00c0 49       		.uleb128 0x49
 2746 00c1 13       		.uleb128 0x13
 2747 00c2 00       		.byte	0
 2748 00c3 00       		.byte	0
 2749 00c4 11       		.uleb128 0x11
 2750 00c5 2E       		.uleb128 0x2e
 2751 00c6 00       		.byte	0
 2752 00c7 3F       		.uleb128 0x3f
 2753 00c8 19       		.uleb128 0x19
 2754 00c9 03       		.uleb128 0x3
 2755 00ca 0E       		.uleb128 0xe
 2756 00cb 3A       		.uleb128 0x3a
 2757 00cc 0B       		.uleb128 0xb
 2758 00cd 3B       		.uleb128 0x3b
 2759 00ce 05       		.uleb128 0x5
 2760 00cf 27       		.uleb128 0x27
 2761 00d0 19       		.uleb128 0x19
 2762 00d1 49       		.uleb128 0x49
 2763 00d2 13       		.uleb128 0x13
 2764 00d3 20       		.uleb128 0x20
ARM GAS  C:\Users\RABBIT~1\AppData\Local\Temp\ccYRpEyv.s 			page 74


 2765 00d4 0B       		.uleb128 0xb
 2766 00d5 00       		.byte	0
 2767 00d6 00       		.byte	0
 2768 00d7 12       		.uleb128 0x12
 2769 00d8 2E       		.uleb128 0x2e
 2770 00d9 01       		.byte	0x1
 2771 00da 3F       		.uleb128 0x3f
 2772 00db 19       		.uleb128 0x19
 2773 00dc 03       		.uleb128 0x3
 2774 00dd 0E       		.uleb128 0xe
 2775 00de 3A       		.uleb128 0x3a
 2776 00df 0B       		.uleb128 0xb
 2777 00e0 3B       		.uleb128 0x3b
 2778 00e1 05       		.uleb128 0x5
 2779 00e2 27       		.uleb128 0x27
 2780 00e3 19       		.uleb128 0x19
 2781 00e4 11       		.uleb128 0x11
 2782 00e5 01       		.uleb128 0x1
 2783 00e6 12       		.uleb128 0x12
 2784 00e7 06       		.uleb128 0x6
 2785 00e8 40       		.uleb128 0x40
 2786 00e9 18       		.uleb128 0x18
 2787 00ea 9742     		.uleb128 0x2117
 2788 00ec 19       		.uleb128 0x19
 2789 00ed 01       		.uleb128 0x1
 2790 00ee 13       		.uleb128 0x13
 2791 00ef 00       		.byte	0
 2792 00f0 00       		.byte	0
 2793 00f1 13       		.uleb128 0x13
 2794 00f2 34       		.uleb128 0x34
 2795 00f3 00       		.byte	0
 2796 00f4 03       		.uleb128 0x3
 2797 00f5 08       		.uleb128 0x8
 2798 00f6 3A       		.uleb128 0x3a
 2799 00f7 0B       		.uleb128 0xb
 2800 00f8 3B       		.uleb128 0x3b
 2801 00f9 05       		.uleb128 0x5
 2802 00fa 49       		.uleb128 0x49
 2803 00fb 13       		.uleb128 0x13
 2804 00fc 02       		.uleb128 0x2
 2805 00fd 17       		.uleb128 0x17
 2806 00fe 00       		.byte	0
 2807 00ff 00       		.byte	0
 2808 0100 14       		.uleb128 0x14
 2809 0101 2E       		.uleb128 0x2e
 2810 0102 01       		.byte	0x1
 2811 0103 3F       		.uleb128 0x3f
 2812 0104 19       		.uleb128 0x19
 2813 0105 03       		.uleb128 0x3
 2814 0106 0E       		.uleb128 0xe
 2815 0107 3A       		.uleb128 0x3a
 2816 0108 0B       		.uleb128 0xb
 2817 0109 3B       		.uleb128 0x3b
 2818 010a 05       		.uleb128 0x5
 2819 010b 27       		.uleb128 0x27
 2820 010c 19       		.uleb128 0x19
 2821 010d 49       		.uleb128 0x49
ARM GAS  C:\Users\RABBIT~1\AppData\Local\Temp\ccYRpEyv.s 			page 75


 2822 010e 13       		.uleb128 0x13
 2823 010f 11       		.uleb128 0x11
 2824 0110 01       		.uleb128 0x1
 2825 0111 12       		.uleb128 0x12
 2826 0112 06       		.uleb128 0x6
 2827 0113 40       		.uleb128 0x40
 2828 0114 18       		.uleb128 0x18
 2829 0115 9742     		.uleb128 0x2117
 2830 0117 19       		.uleb128 0x19
 2831 0118 01       		.uleb128 0x1
 2832 0119 13       		.uleb128 0x13
 2833 011a 00       		.byte	0
 2834 011b 00       		.byte	0
 2835 011c 15       		.uleb128 0x15
 2836 011d 05       		.uleb128 0x5
 2837 011e 00       		.byte	0
 2838 011f 03       		.uleb128 0x3
 2839 0120 0E       		.uleb128 0xe
 2840 0121 3A       		.uleb128 0x3a
 2841 0122 0B       		.uleb128 0xb
 2842 0123 3B       		.uleb128 0x3b
 2843 0124 05       		.uleb128 0x5
 2844 0125 49       		.uleb128 0x49
 2845 0126 13       		.uleb128 0x13
 2846 0127 02       		.uleb128 0x2
 2847 0128 17       		.uleb128 0x17
 2848 0129 00       		.byte	0
 2849 012a 00       		.byte	0
 2850 012b 16       		.uleb128 0x16
 2851 012c 34       		.uleb128 0x34
 2852 012d 00       		.byte	0
 2853 012e 03       		.uleb128 0x3
 2854 012f 0E       		.uleb128 0xe
 2855 0130 3A       		.uleb128 0x3a
 2856 0131 0B       		.uleb128 0xb
 2857 0132 3B       		.uleb128 0x3b
 2858 0133 05       		.uleb128 0x5
 2859 0134 49       		.uleb128 0x49
 2860 0135 13       		.uleb128 0x13
 2861 0136 02       		.uleb128 0x2
 2862 0137 17       		.uleb128 0x17
 2863 0138 00       		.byte	0
 2864 0139 00       		.byte	0
 2865 013a 17       		.uleb128 0x17
 2866 013b 2E       		.uleb128 0x2e
 2867 013c 01       		.byte	0x1
 2868 013d 31       		.uleb128 0x31
 2869 013e 13       		.uleb128 0x13
 2870 013f 11       		.uleb128 0x11
 2871 0140 01       		.uleb128 0x1
 2872 0141 12       		.uleb128 0x12
 2873 0142 06       		.uleb128 0x6
 2874 0143 40       		.uleb128 0x40
 2875 0144 18       		.uleb128 0x18
 2876 0145 9742     		.uleb128 0x2117
 2877 0147 19       		.uleb128 0x19
 2878 0148 01       		.uleb128 0x1
ARM GAS  C:\Users\RABBIT~1\AppData\Local\Temp\ccYRpEyv.s 			page 76


 2879 0149 13       		.uleb128 0x13
 2880 014a 00       		.byte	0
 2881 014b 00       		.byte	0
 2882 014c 18       		.uleb128 0x18
 2883 014d 34       		.uleb128 0x34
 2884 014e 00       		.byte	0
 2885 014f 31       		.uleb128 0x31
 2886 0150 13       		.uleb128 0x13
 2887 0151 00       		.byte	0
 2888 0152 00       		.byte	0
 2889 0153 19       		.uleb128 0x19
 2890 0154 0B       		.uleb128 0xb
 2891 0155 01       		.byte	0x1
 2892 0156 11       		.uleb128 0x11
 2893 0157 01       		.uleb128 0x1
 2894 0158 12       		.uleb128 0x12
 2895 0159 06       		.uleb128 0x6
 2896 015a 00       		.byte	0
 2897 015b 00       		.byte	0
 2898 015c 1A       		.uleb128 0x1a
 2899 015d 34       		.uleb128 0x34
 2900 015e 00       		.byte	0
 2901 015f 31       		.uleb128 0x31
 2902 0160 13       		.uleb128 0x13
 2903 0161 02       		.uleb128 0x2
 2904 0162 17       		.uleb128 0x17
 2905 0163 00       		.byte	0
 2906 0164 00       		.byte	0
 2907 0165 1B       		.uleb128 0x1b
 2908 0166 898201   		.uleb128 0x4109
 2909 0169 00       		.byte	0
 2910 016a 11       		.uleb128 0x11
 2911 016b 01       		.uleb128 0x1
 2912 016c 31       		.uleb128 0x31
 2913 016d 13       		.uleb128 0x13
 2914 016e 00       		.byte	0
 2915 016f 00       		.byte	0
 2916 0170 1C       		.uleb128 0x1c
 2917 0171 2E       		.uleb128 0x2e
 2918 0172 00       		.byte	0
 2919 0173 31       		.uleb128 0x31
 2920 0174 13       		.uleb128 0x13
 2921 0175 11       		.uleb128 0x11
 2922 0176 01       		.uleb128 0x1
 2923 0177 12       		.uleb128 0x12
 2924 0178 06       		.uleb128 0x6
 2925 0179 40       		.uleb128 0x40
 2926 017a 18       		.uleb128 0x18
 2927 017b 9742     		.uleb128 0x2117
 2928 017d 19       		.uleb128 0x19
 2929 017e 00       		.byte	0
 2930 017f 00       		.byte	0
 2931 0180 1D       		.uleb128 0x1d
 2932 0181 34       		.uleb128 0x34
 2933 0182 00       		.byte	0
 2934 0183 03       		.uleb128 0x3
 2935 0184 0E       		.uleb128 0xe
ARM GAS  C:\Users\RABBIT~1\AppData\Local\Temp\ccYRpEyv.s 			page 77


 2936 0185 3A       		.uleb128 0x3a
 2937 0186 0B       		.uleb128 0xb
 2938 0187 3B       		.uleb128 0x3b
 2939 0188 05       		.uleb128 0x5
 2940 0189 49       		.uleb128 0x49
 2941 018a 13       		.uleb128 0x13
 2942 018b 02       		.uleb128 0x2
 2943 018c 18       		.uleb128 0x18
 2944 018d 00       		.byte	0
 2945 018e 00       		.byte	0
 2946 018f 1E       		.uleb128 0x1e
 2947 0190 05       		.uleb128 0x5
 2948 0191 00       		.byte	0
 2949 0192 31       		.uleb128 0x31
 2950 0193 13       		.uleb128 0x13
 2951 0194 02       		.uleb128 0x2
 2952 0195 17       		.uleb128 0x17
 2953 0196 00       		.byte	0
 2954 0197 00       		.byte	0
 2955 0198 1F       		.uleb128 0x1f
 2956 0199 34       		.uleb128 0x34
 2957 019a 00       		.byte	0
 2958 019b 31       		.uleb128 0x31
 2959 019c 13       		.uleb128 0x13
 2960 019d 1C       		.uleb128 0x1c
 2961 019e 0B       		.uleb128 0xb
 2962 019f 00       		.byte	0
 2963 01a0 00       		.byte	0
 2964 01a1 20       		.uleb128 0x20
 2965 01a2 0B       		.uleb128 0xb
 2966 01a3 01       		.byte	0x1
 2967 01a4 55       		.uleb128 0x55
 2968 01a5 17       		.uleb128 0x17
 2969 01a6 00       		.byte	0
 2970 01a7 00       		.byte	0
 2971 01a8 21       		.uleb128 0x21
 2972 01a9 898201   		.uleb128 0x4109
 2973 01ac 00       		.byte	0
 2974 01ad 11       		.uleb128 0x11
 2975 01ae 01       		.uleb128 0x1
 2976 01af 9542     		.uleb128 0x2115
 2977 01b1 19       		.uleb128 0x19
 2978 01b2 31       		.uleb128 0x31
 2979 01b3 13       		.uleb128 0x13
 2980 01b4 00       		.byte	0
 2981 01b5 00       		.byte	0
 2982 01b6 22       		.uleb128 0x22
 2983 01b7 05       		.uleb128 0x5
 2984 01b8 00       		.byte	0
 2985 01b9 03       		.uleb128 0x3
 2986 01ba 08       		.uleb128 0x8
 2987 01bb 3A       		.uleb128 0x3a
 2988 01bc 0B       		.uleb128 0xb
 2989 01bd 3B       		.uleb128 0x3b
 2990 01be 05       		.uleb128 0x5
 2991 01bf 49       		.uleb128 0x49
 2992 01c0 13       		.uleb128 0x13
ARM GAS  C:\Users\RABBIT~1\AppData\Local\Temp\ccYRpEyv.s 			page 78


 2993 01c1 02       		.uleb128 0x2
 2994 01c2 17       		.uleb128 0x17
 2995 01c3 00       		.byte	0
 2996 01c4 00       		.byte	0
 2997 01c5 23       		.uleb128 0x23
 2998 01c6 34       		.uleb128 0x34
 2999 01c7 00       		.byte	0
 3000 01c8 03       		.uleb128 0x3
 3001 01c9 0E       		.uleb128 0xe
 3002 01ca 3A       		.uleb128 0x3a
 3003 01cb 0B       		.uleb128 0xb
 3004 01cc 3B       		.uleb128 0x3b
 3005 01cd 05       		.uleb128 0x5
 3006 01ce 49       		.uleb128 0x49
 3007 01cf 13       		.uleb128 0x13
 3008 01d0 1C       		.uleb128 0x1c
 3009 01d1 0B       		.uleb128 0xb
 3010 01d2 00       		.byte	0
 3011 01d3 00       		.byte	0
 3012 01d4 24       		.uleb128 0x24
 3013 01d5 2E       		.uleb128 0x2e
 3014 01d6 01       		.byte	0x1
 3015 01d7 3F       		.uleb128 0x3f
 3016 01d8 19       		.uleb128 0x19
 3017 01d9 03       		.uleb128 0x3
 3018 01da 0E       		.uleb128 0xe
 3019 01db 3A       		.uleb128 0x3a
 3020 01dc 0B       		.uleb128 0xb
 3021 01dd 3B       		.uleb128 0x3b
 3022 01de 0B       		.uleb128 0xb
 3023 01df 27       		.uleb128 0x27
 3024 01e0 19       		.uleb128 0x19
 3025 01e1 49       		.uleb128 0x49
 3026 01e2 13       		.uleb128 0x13
 3027 01e3 11       		.uleb128 0x11
 3028 01e4 01       		.uleb128 0x1
 3029 01e5 12       		.uleb128 0x12
 3030 01e6 06       		.uleb128 0x6
 3031 01e7 40       		.uleb128 0x40
 3032 01e8 18       		.uleb128 0x18
 3033 01e9 9742     		.uleb128 0x2117
 3034 01eb 19       		.uleb128 0x19
 3035 01ec 01       		.uleb128 0x1
 3036 01ed 13       		.uleb128 0x13
 3037 01ee 00       		.byte	0
 3038 01ef 00       		.byte	0
 3039 01f0 25       		.uleb128 0x25
 3040 01f1 34       		.uleb128 0x34
 3041 01f2 00       		.byte	0
 3042 01f3 03       		.uleb128 0x3
 3043 01f4 0E       		.uleb128 0xe
 3044 01f5 3A       		.uleb128 0x3a
 3045 01f6 0B       		.uleb128 0xb
 3046 01f7 3B       		.uleb128 0x3b
 3047 01f8 0B       		.uleb128 0xb
 3048 01f9 49       		.uleb128 0x49
 3049 01fa 13       		.uleb128 0x13
ARM GAS  C:\Users\RABBIT~1\AppData\Local\Temp\ccYRpEyv.s 			page 79


 3050 01fb 02       		.uleb128 0x2
 3051 01fc 17       		.uleb128 0x17
 3052 01fd 00       		.byte	0
 3053 01fe 00       		.byte	0
 3054 01ff 26       		.uleb128 0x26
 3055 0200 34       		.uleb128 0x34
 3056 0201 00       		.byte	0
 3057 0202 03       		.uleb128 0x3
 3058 0203 0E       		.uleb128 0xe
 3059 0204 3A       		.uleb128 0x3a
 3060 0205 0B       		.uleb128 0xb
 3061 0206 3B       		.uleb128 0x3b
 3062 0207 0B       		.uleb128 0xb
 3063 0208 49       		.uleb128 0x49
 3064 0209 13       		.uleb128 0x13
 3065 020a 02       		.uleb128 0x2
 3066 020b 18       		.uleb128 0x18
 3067 020c 00       		.byte	0
 3068 020d 00       		.byte	0
 3069 020e 27       		.uleb128 0x27
 3070 020f 1D       		.uleb128 0x1d
 3071 0210 00       		.byte	0
 3072 0211 31       		.uleb128 0x31
 3073 0212 13       		.uleb128 0x13
 3074 0213 11       		.uleb128 0x11
 3075 0214 01       		.uleb128 0x1
 3076 0215 12       		.uleb128 0x12
 3077 0216 06       		.uleb128 0x6
 3078 0217 58       		.uleb128 0x58
 3079 0218 0B       		.uleb128 0xb
 3080 0219 59       		.uleb128 0x59
 3081 021a 0B       		.uleb128 0xb
 3082 021b 00       		.byte	0
 3083 021c 00       		.byte	0
 3084 021d 28       		.uleb128 0x28
 3085 021e 898201   		.uleb128 0x4109
 3086 0221 01       		.byte	0x1
 3087 0222 11       		.uleb128 0x11
 3088 0223 01       		.uleb128 0x1
 3089 0224 31       		.uleb128 0x31
 3090 0225 13       		.uleb128 0x13
 3091 0226 01       		.uleb128 0x1
 3092 0227 13       		.uleb128 0x13
 3093 0228 00       		.byte	0
 3094 0229 00       		.byte	0
 3095 022a 29       		.uleb128 0x29
 3096 022b 8A8201   		.uleb128 0x410a
 3097 022e 00       		.byte	0
 3098 022f 02       		.uleb128 0x2
 3099 0230 18       		.uleb128 0x18
 3100 0231 9142     		.uleb128 0x2111
 3101 0233 18       		.uleb128 0x18
 3102 0234 00       		.byte	0
 3103 0235 00       		.byte	0
 3104 0236 2A       		.uleb128 0x2a
 3105 0237 01       		.uleb128 0x1
 3106 0238 01       		.byte	0x1
ARM GAS  C:\Users\RABBIT~1\AppData\Local\Temp\ccYRpEyv.s 			page 80


 3107 0239 49       		.uleb128 0x49
 3108 023a 13       		.uleb128 0x13
 3109 023b 01       		.uleb128 0x1
 3110 023c 13       		.uleb128 0x13
 3111 023d 00       		.byte	0
 3112 023e 00       		.byte	0
 3113 023f 2B       		.uleb128 0x2b
 3114 0240 21       		.uleb128 0x21
 3115 0241 00       		.byte	0
 3116 0242 49       		.uleb128 0x49
 3117 0243 13       		.uleb128 0x13
 3118 0244 2F       		.uleb128 0x2f
 3119 0245 0B       		.uleb128 0xb
 3120 0246 00       		.byte	0
 3121 0247 00       		.byte	0
 3122 0248 2C       		.uleb128 0x2c
 3123 0249 34       		.uleb128 0x34
 3124 024a 00       		.byte	0
 3125 024b 03       		.uleb128 0x3
 3126 024c 0E       		.uleb128 0xe
 3127 024d 3A       		.uleb128 0x3a
 3128 024e 0B       		.uleb128 0xb
 3129 024f 3B       		.uleb128 0x3b
 3130 0250 05       		.uleb128 0x5
 3131 0251 49       		.uleb128 0x49
 3132 0252 13       		.uleb128 0x13
 3133 0253 3F       		.uleb128 0x3f
 3134 0254 19       		.uleb128 0x19
 3135 0255 3C       		.uleb128 0x3c
 3136 0256 19       		.uleb128 0x19
 3137 0257 00       		.byte	0
 3138 0258 00       		.byte	0
 3139 0259 2D       		.uleb128 0x2d
 3140 025a 34       		.uleb128 0x34
 3141 025b 00       		.byte	0
 3142 025c 03       		.uleb128 0x3
 3143 025d 0E       		.uleb128 0xe
 3144 025e 3A       		.uleb128 0x3a
 3145 025f 0B       		.uleb128 0xb
 3146 0260 3B       		.uleb128 0x3b
 3147 0261 0B       		.uleb128 0xb
 3148 0262 49       		.uleb128 0x49
 3149 0263 13       		.uleb128 0x13
 3150 0264 3F       		.uleb128 0x3f
 3151 0265 19       		.uleb128 0x19
 3152 0266 3C       		.uleb128 0x3c
 3153 0267 19       		.uleb128 0x19
 3154 0268 00       		.byte	0
 3155 0269 00       		.byte	0
 3156 026a 2E       		.uleb128 0x2e
 3157 026b 2E       		.uleb128 0x2e
 3158 026c 00       		.byte	0
 3159 026d 3F       		.uleb128 0x3f
 3160 026e 19       		.uleb128 0x19
 3161 026f 3C       		.uleb128 0x3c
 3162 0270 19       		.uleb128 0x19
 3163 0271 6E       		.uleb128 0x6e
ARM GAS  C:\Users\RABBIT~1\AppData\Local\Temp\ccYRpEyv.s 			page 81


 3164 0272 0E       		.uleb128 0xe
 3165 0273 03       		.uleb128 0x3
 3166 0274 0E       		.uleb128 0xe
 3167 0275 3A       		.uleb128 0x3a
 3168 0276 0B       		.uleb128 0xb
 3169 0277 3B       		.uleb128 0x3b
 3170 0278 0B       		.uleb128 0xb
 3171 0279 00       		.byte	0
 3172 027a 00       		.byte	0
 3173 027b 00       		.byte	0
 3174              		.section	.debug_loc,"",%progbits
 3175              	.Ldebug_loc0:
 3176              	.LLST0:
 3177 0000 00000000 		.4byte	.LVL0
 3178 0004 16000000 		.4byte	.LVL1
 3179 0008 0200     		.2byte	0x2
 3180 000a 31       		.byte	0x31
 3181 000b 9F       		.byte	0x9f
 3182 000c 16000000 		.4byte	.LVL1
 3183 0010 48000000 		.4byte	.LVL3
 3184 0014 0100     		.2byte	0x1
 3185 0016 51       		.byte	0x51
 3186 0017 72000000 		.4byte	.LVL4
 3187 001b 90000000 		.4byte	.LFE1
 3188 001f 0100     		.2byte	0x1
 3189 0021 51       		.byte	0x51
 3190 0022 00000000 		.4byte	0
 3191 0026 00000000 		.4byte	0
 3192              	.LLST1:
 3193 002a 00000000 		.4byte	.LVL0
 3194 002e 16000000 		.4byte	.LVL1
 3195 0032 0200     		.2byte	0x2
 3196 0034 30       		.byte	0x30
 3197 0035 9F       		.byte	0x9f
 3198 0036 16000000 		.4byte	.LVL1
 3199 003a 3C000000 		.4byte	.LVL2
 3200 003e 0300     		.2byte	0x3
 3201 0040 73       		.byte	0x73
 3202 0041 72       		.sleb128 -14
 3203 0042 9F       		.byte	0x9f
 3204 0043 72000000 		.4byte	.LVL4
 3205 0047 78000000 		.4byte	.LVL5
 3206 004b 0300     		.2byte	0x3
 3207 004d 73       		.byte	0x73
 3208 004e 72       		.sleb128 -14
 3209 004f 9F       		.byte	0x9f
 3210 0050 00000000 		.4byte	0
 3211 0054 00000000 		.4byte	0
 3212              	.LLST2:
 3213 0058 00000000 		.4byte	.LVL6
 3214 005c 18000000 		.4byte	.LVL9
 3215 0060 0100     		.2byte	0x1
 3216 0062 50       		.byte	0x50
 3217 0063 18000000 		.4byte	.LVL9
 3218 0067 24000000 		.4byte	.LFE4
 3219 006b 0400     		.2byte	0x4
 3220 006d F3       		.byte	0xf3
ARM GAS  C:\Users\RABBIT~1\AppData\Local\Temp\ccYRpEyv.s 			page 82


 3221 006e 01       		.uleb128 0x1
 3222 006f 50       		.byte	0x50
 3223 0070 9F       		.byte	0x9f
 3224 0071 00000000 		.4byte	0
 3225 0075 00000000 		.4byte	0
 3226              	.LLST3:
 3227 0079 0C000000 		.4byte	.LVL7
 3228 007d 16000000 		.4byte	.LVL8
 3229 0081 0300     		.2byte	0x3
 3230 0083 73       		.byte	0x73
 3231 0084 08       		.sleb128 8
 3232 0085 9F       		.byte	0x9f
 3233 0086 18000000 		.4byte	.LVL9
 3234 008a 24000000 		.4byte	.LFE4
 3235 008e 0100     		.2byte	0x1
 3236 0090 50       		.byte	0x50
 3237 0091 00000000 		.4byte	0
 3238 0095 00000000 		.4byte	0
 3239              	.LLST4:
 3240 0099 1A000000 		.4byte	.LVL11
 3241 009d 28000000 		.4byte	.LVL13
 3242 00a1 0200     		.2byte	0x2
 3243 00a3 70       		.byte	0x70
 3244 00a4 08       		.sleb128 8
 3245 00a5 28000000 		.4byte	.LVL13
 3246 00a9 2C000000 		.4byte	.LVL14
 3247 00ad 0100     		.2byte	0x1
 3248 00af 55       		.byte	0x55
 3249 00b0 00000000 		.4byte	0
 3250 00b4 00000000 		.4byte	0
 3251              	.LLST5:
 3252 00b8 60000000 		.4byte	.LVL16
 3253 00bc A2000000 		.4byte	.LVL22
 3254 00c0 0100     		.2byte	0x1
 3255 00c2 51       		.byte	0x51
 3256 00c3 00000000 		.4byte	0
 3257 00c7 00000000 		.4byte	0
 3258              	.LLST6:
 3259 00cb 1C000000 		.4byte	.LVL12
 3260 00cf 36000000 		.4byte	.LVL15
 3261 00d3 0200     		.2byte	0x2
 3262 00d5 30       		.byte	0x30
 3263 00d6 9F       		.byte	0x9f
 3264 00d7 00000000 		.4byte	0
 3265 00db 00000000 		.4byte	0
 3266              	.LLST7:
 3267 00df 6E000000 		.4byte	.LVL18
 3268 00e3 7E000000 		.4byte	.LVL19
 3269 00e7 0100     		.2byte	0x1
 3270 00e9 54       		.byte	0x54
 3271 00ea 82000000 		.4byte	.LVL20
 3272 00ee 8C000000 		.4byte	.LVL21
 3273 00f2 0100     		.2byte	0x1
 3274 00f4 54       		.byte	0x54
 3275 00f5 00000000 		.4byte	0
 3276 00f9 00000000 		.4byte	0
 3277              	.LLST8:
ARM GAS  C:\Users\RABBIT~1\AppData\Local\Temp\ccYRpEyv.s 			page 83


 3278 00fd 6A000000 		.4byte	.LVL17
 3279 0101 06010000 		.4byte	.LVL23
 3280 0105 0100     		.2byte	0x1
 3281 0107 52       		.byte	0x52
 3282 0108 00000000 		.4byte	0
 3283 010c 00000000 		.4byte	0
 3284              	.LLST9:
 3285 0110 1A000000 		.4byte	.LVL11
 3286 0114 28000000 		.4byte	.LVL13
 3287 0118 0300     		.2byte	0x3
 3288 011a 70       		.byte	0x70
 3289 011b 08       		.sleb128 8
 3290 011c 9F       		.byte	0x9f
 3291 011d 00000000 		.4byte	0
 3292 0121 00000000 		.4byte	0
 3293              	.LLST10:
 3294 0125 1C000000 		.4byte	.LVL12
 3295 0129 10010000 		.4byte	.LVL25
 3296 012d 0100     		.2byte	0x1
 3297 012f 53       		.byte	0x53
 3298 0130 00000000 		.4byte	0
 3299 0134 00000000 		.4byte	0
 3300              	.LLST11:
 3301 0138 0E000000 		.4byte	.LVL26
 3302 013c 14000000 		.4byte	.LVL28
 3303 0140 0100     		.2byte	0x1
 3304 0142 50       		.byte	0x50
 3305 0143 14000000 		.4byte	.LVL28
 3306 0147 18000000 		.4byte	.LVL29
 3307 014b 0800     		.2byte	0x8
 3308 014d 73       		.byte	0x73
 3309 014e 02       		.sleb128 2
 3310 014f 33       		.byte	0x33
 3311 0150 24       		.byte	0x24
 3312 0151 70       		.byte	0x70
 3313 0152 00       		.sleb128 0
 3314 0153 22       		.byte	0x22
 3315 0154 9F       		.byte	0x9f
 3316 0155 00000000 		.4byte	0
 3317 0159 00000000 		.4byte	0
 3318              	.LLST12:
 3319 015d 10000000 		.4byte	.LVL27
 3320 0161 18000000 		.4byte	.LVL29
 3321 0165 0500     		.2byte	0x5
 3322 0167 70       		.byte	0x70
 3323 0168 04       		.sleb128 4
 3324 0169 06       		.byte	0x6
 3325 016a 23       		.byte	0x23
 3326 016b 04       		.uleb128 0x4
 3327 016c 18000000 		.4byte	.LVL29
 3328 0170 1A000000 		.4byte	.LVL30
 3329 0174 0100     		.2byte	0x1
 3330 0176 53       		.byte	0x53
 3331 0177 00000000 		.4byte	0
 3332 017b 00000000 		.4byte	0
 3333              	.LLST13:
 3334 017f 00000000 		.4byte	.LVL31
ARM GAS  C:\Users\RABBIT~1\AppData\Local\Temp\ccYRpEyv.s 			page 84


 3335 0183 40000000 		.4byte	.LVL37
 3336 0187 0100     		.2byte	0x1
 3337 0189 50       		.byte	0x50
 3338 018a 40000000 		.4byte	.LVL37
 3339 018e 2E010000 		.4byte	.LVL62
 3340 0192 0400     		.2byte	0x4
 3341 0194 F3       		.byte	0xf3
 3342 0195 01       		.uleb128 0x1
 3343 0196 50       		.byte	0x50
 3344 0197 9F       		.byte	0x9f
 3345 0198 2E010000 		.4byte	.LVL62
 3346 019c 4C010000 		.4byte	.LFE2
 3347 01a0 0100     		.2byte	0x1
 3348 01a2 50       		.byte	0x50
 3349 01a3 00000000 		.4byte	0
 3350 01a7 00000000 		.4byte	0
 3351              	.LLST14:
 3352 01ab 00000000 		.4byte	.LVL31
 3353 01af 0C000000 		.4byte	.LVL32
 3354 01b3 0200     		.2byte	0x2
 3355 01b5 30       		.byte	0x30
 3356 01b6 9F       		.byte	0x9f
 3357 01b7 0C000000 		.4byte	.LVL32
 3358 01bb 12000000 		.4byte	.LVL33
 3359 01bf 0100     		.2byte	0x1
 3360 01c1 51       		.byte	0x51
 3361 01c2 00000000 		.4byte	0
 3362 01c6 00000000 		.4byte	0
 3363              	.LLST15:
 3364 01ca 2E000000 		.4byte	.LVL34
 3365 01ce 36000000 		.4byte	.LVL35
 3366 01d2 0200     		.2byte	0x2
 3367 01d4 30       		.byte	0x30
 3368 01d5 9F       		.byte	0x9f
 3369 01d6 00000000 		.4byte	0
 3370 01da 00000000 		.4byte	0
 3371              	.LLST16:
 3372 01de 3E000000 		.4byte	.LVL36
 3373 01e2 40000000 		.4byte	.LVL37
 3374 01e6 0100     		.2byte	0x1
 3375 01e8 50       		.byte	0x50
 3376 01e9 00000000 		.4byte	0
 3377 01ed 00000000 		.4byte	0
 3378              	.LLST17:
 3379 01f1 70000000 		.4byte	.LVL39
 3380 01f5 74000000 		.4byte	.LVL40
 3381 01f9 0200     		.2byte	0x2
 3382 01fb 70       		.byte	0x70
 3383 01fc 08       		.sleb128 8
 3384 01fd 10010000 		.4byte	.LVL56
 3385 0201 14010000 		.4byte	.LVL57
 3386 0205 0200     		.2byte	0x2
 3387 0207 31       		.byte	0x31
 3388 0208 9F       		.byte	0x9f
 3389 0209 14010000 		.4byte	.LVL57
 3390 020d 1E010000 		.4byte	.LVL58
 3391 0211 0100     		.2byte	0x1
ARM GAS  C:\Users\RABBIT~1\AppData\Local\Temp\ccYRpEyv.s 			page 85


 3392 0213 52       		.byte	0x52
 3393 0214 00000000 		.4byte	0
 3394 0218 00000000 		.4byte	0
 3395              	.LLST18:
 3396 021c 7A000000 		.4byte	.LVL41
 3397 0220 7E000000 		.4byte	.LVL42
 3398 0224 0200     		.2byte	0x2
 3399 0226 30       		.byte	0x30
 3400 0227 9F       		.byte	0x9f
 3401 0228 00000000 		.4byte	0
 3402 022c 00000000 		.4byte	0
 3403              	.LLST19:
 3404 0230 70000000 		.4byte	.LVL39
 3405 0234 74000000 		.4byte	.LVL40
 3406 0238 0200     		.2byte	0x2
 3407 023a 31       		.byte	0x31
 3408 023b 9F       		.byte	0x9f
 3409 023c 74000000 		.4byte	.LVL40
 3410 0240 DC000000 		.4byte	.LVL48
 3411 0244 0100     		.2byte	0x1
 3412 0246 54       		.byte	0x54
 3413 0247 DC000000 		.4byte	.LVL48
 3414 024b DE000000 		.4byte	.LVL49
 3415 024f 0300     		.2byte	0x3
 3416 0251 74       		.byte	0x74
 3417 0252 01       		.sleb128 1
 3418 0253 9F       		.byte	0x9f
 3419 0254 E4000000 		.4byte	.LVL50
 3420 0258 EC000000 		.4byte	.LVL51
 3421 025c 0200     		.2byte	0x2
 3422 025e 30       		.byte	0x30
 3423 025f 9F       		.byte	0x9f
 3424 0260 00000000 		.4byte	0
 3425 0264 00000000 		.4byte	0
 3426              	.LLST20:
 3427 0268 B2000000 		.4byte	.LVL43
 3428 026c BE000000 		.4byte	.LVL44
 3429 0270 0100     		.2byte	0x1
 3430 0272 56       		.byte	0x56
 3431 0273 C2000000 		.4byte	.LVL45
 3432 0277 CC000000 		.4byte	.LVL46
 3433 027b 0100     		.2byte	0x1
 3434 027d 56       		.byte	0x56
 3435 027e 00000000 		.4byte	0
 3436 0282 00000000 		.4byte	0
 3437              	.LLST21:
 3438 0286 4A000000 		.4byte	.LVL38
 3439 028a 74000000 		.4byte	.LVL40
 3440 028e 0200     		.2byte	0x2
 3441 0290 70       		.byte	0x70
 3442 0291 04       		.sleb128 4
 3443 0292 00000000 		.4byte	0
 3444 0296 00000000 		.4byte	0
 3445              	.LLST22:
 3446 029a 10010000 		.4byte	.LVL56
 3447 029e 14010000 		.4byte	.LVL57
 3448 02a2 0200     		.2byte	0x2
ARM GAS  C:\Users\RABBIT~1\AppData\Local\Temp\ccYRpEyv.s 			page 86


 3449 02a4 30       		.byte	0x30
 3450 02a5 9F       		.byte	0x9f
 3451 02a6 14010000 		.4byte	.LVL57
 3452 02aa 20010000 		.4byte	.LVL59
 3453 02ae 0100     		.2byte	0x1
 3454 02b0 53       		.byte	0x53
 3455 02b1 20010000 		.4byte	.LVL59
 3456 02b5 24010000 		.4byte	.LVL60
 3457 02b9 0A00     		.2byte	0xa
 3458 02bb 72       		.byte	0x72
 3459 02bc 7F       		.sleb128 -1
 3460 02bd 70       		.byte	0x70
 3461 02be 00       		.sleb128 0
 3462 02bf 1E       		.byte	0x1e
 3463 02c0 75       		.byte	0x75
 3464 02c1 00       		.sleb128 0
 3465 02c2 22       		.byte	0x22
 3466 02c3 23       		.byte	0x23
 3467 02c4 06       		.uleb128 0x6
 3468 02c5 24010000 		.4byte	.LVL60
 3469 02c9 2A010000 		.4byte	.LVL61
 3470 02cd 0100     		.2byte	0x1
 3471 02cf 53       		.byte	0x53
 3472 02d0 00000000 		.4byte	0
 3473 02d4 00000000 		.4byte	0
 3474              	.LLST23:
 3475 02d8 4A000000 		.4byte	.LVL38
 3476 02dc 70000000 		.4byte	.LVL39
 3477 02e0 0100     		.2byte	0x1
 3478 02e2 50       		.byte	0x50
 3479 02e3 70000000 		.4byte	.LVL39
 3480 02e7 EC000000 		.4byte	.LVL51
 3481 02eb 0300     		.2byte	0x3
 3482 02ed 70       		.byte	0x70
 3483 02ee 08       		.sleb128 8
 3484 02ef 9F       		.byte	0x9f
 3485 02f0 00000000 		.4byte	0
 3486 02f4 00000000 		.4byte	0
 3487              	.LLST24:
 3488 02f8 7A000000 		.4byte	.LVL41
 3489 02fc E4000000 		.4byte	.LVL50
 3490 0300 0100     		.2byte	0x1
 3491 0302 53       		.byte	0x53
 3492 0303 E4000000 		.4byte	.LVL50
 3493 0307 EC000000 		.4byte	.LVL51
 3494 030b 0100     		.2byte	0x1
 3495 030d 51       		.byte	0x51
 3496 030e EC000000 		.4byte	.LVL51
 3497 0312 EE000000 		.4byte	.LVL52
 3498 0316 0300     		.2byte	0x3
 3499 0318 73       		.byte	0x73
 3500 0319 7E       		.sleb128 -2
 3501 031a 9F       		.byte	0x9f
 3502 031b EE000000 		.4byte	.LVL52
 3503 031f 04010000 		.4byte	.LVL53
 3504 0323 0300     		.2byte	0x3
 3505 0325 73       		.byte	0x73
ARM GAS  C:\Users\RABBIT~1\AppData\Local\Temp\ccYRpEyv.s 			page 87


 3506 0326 76       		.sleb128 -10
 3507 0327 9F       		.byte	0x9f
 3508 0328 04010000 		.4byte	.LVL53
 3509 032c 06010000 		.4byte	.LVL54
 3510 0330 0300     		.2byte	0x3
 3511 0332 73       		.byte	0x73
 3512 0333 7E       		.sleb128 -2
 3513 0334 9F       		.byte	0x9f
 3514 0335 06010000 		.4byte	.LVL54
 3515 0339 09010000 		.4byte	.LVL55-1
 3516 033d 0300     		.2byte	0x3
 3517 033f 73       		.byte	0x73
 3518 0340 76       		.sleb128 -10
 3519 0341 9F       		.byte	0x9f
 3520 0342 00000000 		.4byte	0
 3521 0346 00000000 		.4byte	0
 3522              	.LLST25:
 3523 034a 00000000 		.4byte	.LVL63
 3524 034e 04000000 		.4byte	.LVL64
 3525 0352 0100     		.2byte	0x1
 3526 0354 50       		.byte	0x50
 3527 0355 04000000 		.4byte	.LVL64
 3528 0359 14000000 		.4byte	.LVL66
 3529 035d 0100     		.2byte	0x1
 3530 035f 50       		.byte	0x50
 3531 0360 00000000 		.4byte	0
 3532 0364 00000000 		.4byte	0
 3533              	.LLST26:
 3534 0368 08000000 		.4byte	.LVL65
 3535 036c 18000000 		.4byte	.LVL67
 3536 0370 0500     		.2byte	0x5
 3537 0372 73       		.byte	0x73
 3538 0373 00       		.sleb128 0
 3539 0374 34       		.byte	0x34
 3540 0375 24       		.byte	0x24
 3541 0376 9F       		.byte	0x9f
 3542 0377 00000000 		.4byte	0
 3543 037b 00000000 		.4byte	0
 3544              	.LLST27:
 3545 037f 08000000 		.4byte	.LVL69
 3546 0383 1A000000 		.4byte	.LVL71
 3547 0387 0100     		.2byte	0x1
 3548 0389 52       		.byte	0x52
 3549 038a 44000000 		.4byte	.LVL73
 3550 038e 54000000 		.4byte	.LFE8
 3551 0392 0100     		.2byte	0x1
 3552 0394 52       		.byte	0x52
 3553 0395 00000000 		.4byte	0
 3554 0399 00000000 		.4byte	0
 3555              	.LLST28:
 3556 039d 0C000000 		.4byte	.LVL70
 3557 03a1 1C000000 		.4byte	.LVL72
 3558 03a5 0500     		.2byte	0x5
 3559 03a7 71       		.byte	0x71
 3560 03a8 00       		.sleb128 0
 3561 03a9 34       		.byte	0x34
 3562 03aa 24       		.byte	0x24
ARM GAS  C:\Users\RABBIT~1\AppData\Local\Temp\ccYRpEyv.s 			page 88


 3563 03ab 9F       		.byte	0x9f
 3564 03ac 44000000 		.4byte	.LVL73
 3565 03b0 54000000 		.4byte	.LFE8
 3566 03b4 0500     		.2byte	0x5
 3567 03b6 71       		.byte	0x71
 3568 03b7 00       		.sleb128 0
 3569 03b8 34       		.byte	0x34
 3570 03b9 24       		.byte	0x24
 3571 03ba 9F       		.byte	0x9f
 3572 03bb 00000000 		.4byte	0
 3573 03bf 00000000 		.4byte	0
 3574              	.LLST29:
 3575 03c3 0A000000 		.4byte	.LVL75
 3576 03c7 1A000000 		.4byte	.LVL77
 3577 03cb 0100     		.2byte	0x1
 3578 03cd 52       		.byte	0x52
 3579 03ce 64000000 		.4byte	.LVL79
 3580 03d2 7C000000 		.4byte	.LFE9
 3581 03d6 0100     		.2byte	0x1
 3582 03d8 52       		.byte	0x52
 3583 03d9 00000000 		.4byte	0
 3584 03dd 00000000 		.4byte	0
 3585              	.LLST30:
 3586 03e1 0E000000 		.4byte	.LVL76
 3587 03e5 26000000 		.4byte	.LVL78
 3588 03e9 0500     		.2byte	0x5
 3589 03eb 73       		.byte	0x73
 3590 03ec 00       		.sleb128 0
 3591 03ed 34       		.byte	0x34
 3592 03ee 24       		.byte	0x24
 3593 03ef 9F       		.byte	0x9f
 3594 03f0 64000000 		.4byte	.LVL79
 3595 03f4 7C000000 		.4byte	.LFE9
 3596 03f8 0500     		.2byte	0x5
 3597 03fa 73       		.byte	0x73
 3598 03fb 00       		.sleb128 0
 3599 03fc 34       		.byte	0x34
 3600 03fd 24       		.byte	0x24
 3601 03fe 9F       		.byte	0x9f
 3602 03ff 00000000 		.4byte	0
 3603 0403 00000000 		.4byte	0
 3604              	.LLST31:
 3605 0407 00000000 		.4byte	.LVL80
 3606 040b 36000000 		.4byte	.LVL85
 3607 040f 0200     		.2byte	0x2
 3608 0411 31       		.byte	0x31
 3609 0412 9F       		.byte	0x9f
 3610 0413 36000000 		.4byte	.LVL85
 3611 0417 4C000000 		.4byte	.LFE10
 3612 041b 0100     		.2byte	0x1
 3613 041d 50       		.byte	0x50
 3614 041e 00000000 		.4byte	0
 3615 0422 00000000 		.4byte	0
 3616              	.LLST32:
 3617 0426 0A000000 		.4byte	.LVL81
 3618 042a 13000000 		.4byte	.LVL82-1
 3619 042e 0100     		.2byte	0x1
ARM GAS  C:\Users\RABBIT~1\AppData\Local\Temp\ccYRpEyv.s 			page 89


 3620 0430 51       		.byte	0x51
 3621 0431 00000000 		.4byte	0
 3622 0435 00000000 		.4byte	0
 3623              	.LLST33:
 3624 0439 14000000 		.4byte	.LVL82
 3625 043d 26000000 		.4byte	.LVL83
 3626 0441 0100     		.2byte	0x1
 3627 0443 50       		.byte	0x50
 3628 0444 34000000 		.4byte	.LVL84
 3629 0448 36000000 		.4byte	.LVL85
 3630 044c 0100     		.2byte	0x1
 3631 044e 50       		.byte	0x50
 3632 044f 00000000 		.4byte	0
 3633 0453 00000000 		.4byte	0
 3634              	.LLST34:
 3635 0457 14000000 		.4byte	.LVL82
 3636 045b 26000000 		.4byte	.LVL83
 3637 045f 0500     		.2byte	0x5
 3638 0461 70       		.byte	0x70
 3639 0462 04       		.sleb128 4
 3640 0463 06       		.byte	0x6
 3641 0464 23       		.byte	0x23
 3642 0465 04       		.uleb128 0x4
 3643 0466 34000000 		.4byte	.LVL84
 3644 046a 36000000 		.4byte	.LVL85
 3645 046e 0500     		.2byte	0x5
 3646 0470 70       		.byte	0x70
 3647 0471 04       		.sleb128 4
 3648 0472 06       		.byte	0x6
 3649 0473 23       		.byte	0x23
 3650 0474 04       		.uleb128 0x4
 3651 0475 36000000 		.4byte	.LVL85
 3652 0479 38000000 		.4byte	.LVL86
 3653 047d 0100     		.2byte	0x1
 3654 047f 53       		.byte	0x53
 3655 0480 00000000 		.4byte	0
 3656 0484 00000000 		.4byte	0
 3657              	.LLST35:
 3658 0488 00000000 		.4byte	.LVL87
 3659 048c 32020000 		.4byte	.LVL116
 3660 0490 0200     		.2byte	0x2
 3661 0492 30       		.byte	0x30
 3662 0493 9F       		.byte	0x9f
 3663 0494 00000000 		.4byte	0
 3664 0498 00000000 		.4byte	0
 3665              	.LLST36:
 3666 049c 8C010000 		.4byte	.LVL111
 3667 04a0 A2010000 		.4byte	.LVL113
 3668 04a4 0100     		.2byte	0x1
 3669 04a6 54       		.byte	0x54
 3670 04a7 00000000 		.4byte	0
 3671 04ab 00000000 		.4byte	0
 3672              	.LLST37:
 3673 04af 50010000 		.4byte	.LVL104
 3674 04b3 56010000 		.4byte	.LVL105
 3675 04b7 0100     		.2byte	0x1
 3676 04b9 53       		.byte	0x53
ARM GAS  C:\Users\RABBIT~1\AppData\Local\Temp\ccYRpEyv.s 			page 90


 3677 04ba 6C010000 		.4byte	.LVL107
 3678 04be 73010000 		.4byte	.LVL108-1
 3679 04c2 0100     		.2byte	0x1
 3680 04c4 53       		.byte	0x53
 3681 04c5 00000000 		.4byte	0
 3682 04c9 00000000 		.4byte	0
 3683              	.LLST38:
 3684 04cd 00000000 		.4byte	.LVL87
 3685 04d1 7A000000 		.4byte	.LVL90
 3686 04d5 0200     		.2byte	0x2
 3687 04d7 30       		.byte	0x30
 3688 04d8 9F       		.byte	0x9f
 3689 04d9 82000000 		.4byte	.LVL91
 3690 04dd 8E000000 		.4byte	.LVL92
 3691 04e1 0200     		.2byte	0x2
 3692 04e3 30       		.byte	0x30
 3693 04e4 9F       		.byte	0x9f
 3694 04e5 8E000000 		.4byte	.LVL92
 3695 04e9 AC000000 		.4byte	.LVL94
 3696 04ed 0100     		.2byte	0x1
 3697 04ef 53       		.byte	0x53
 3698 04f0 AE000000 		.4byte	.LVL95
 3699 04f4 CA000000 		.4byte	.LVL100
 3700 04f8 0100     		.2byte	0x1
 3701 04fa 53       		.byte	0x53
 3702 04fb CA000000 		.4byte	.LVL100
 3703 04ff FE000000 		.4byte	.LVL102
 3704 0503 0200     		.2byte	0x2
 3705 0505 30       		.byte	0x30
 3706 0506 9F       		.byte	0x9f
 3707 0507 02010000 		.4byte	.LVL103
 3708 050b 32020000 		.4byte	.LVL116
 3709 050f 0200     		.2byte	0x2
 3710 0511 30       		.byte	0x30
 3711 0512 9F       		.byte	0x9f
 3712 0513 00000000 		.4byte	0
 3713 0517 00000000 		.4byte	0
 3714              	.LLST39:
 3715 051b 8E000000 		.4byte	.LVL92
 3716 051f 96000000 		.4byte	.LVL93
 3717 0523 0100     		.2byte	0x1
 3718 0525 52       		.byte	0x52
 3719 0526 96000000 		.4byte	.LVL93
 3720 052a AE000000 		.4byte	.LVL95
 3721 052e 0100     		.2byte	0x1
 3722 0530 55       		.byte	0x55
 3723 0531 AE000000 		.4byte	.LVL95
 3724 0535 B2000000 		.4byte	.LVL96
 3725 0539 0100     		.2byte	0x1
 3726 053b 52       		.byte	0x52
 3727 053c B2000000 		.4byte	.LVL96
 3728 0540 BA000000 		.4byte	.LVL98
 3729 0544 0100     		.2byte	0x1
 3730 0546 55       		.byte	0x55
 3731 0547 BA000000 		.4byte	.LVL98
 3732 054b BC000000 		.4byte	.LVL99
 3733 054f 0100     		.2byte	0x1
ARM GAS  C:\Users\RABBIT~1\AppData\Local\Temp\ccYRpEyv.s 			page 91


 3734 0551 52       		.byte	0x52
 3735 0552 BC000000 		.4byte	.LVL99
 3736 0556 CA000000 		.4byte	.LVL100
 3737 055a 0100     		.2byte	0x1
 3738 055c 55       		.byte	0x55
 3739 055d 00000000 		.4byte	0
 3740 0561 00000000 		.4byte	0
 3741              	.LLST40:
 3742 0565 B8000000 		.4byte	.LVL97
 3743 0569 BC000000 		.4byte	.LVL99
 3744 056d 0100     		.2byte	0x1
 3745 056f 50       		.byte	0x50
 3746 0570 00000000 		.4byte	0
 3747 0574 00000000 		.4byte	0
 3748              	.LLST41:
 3749 0578 62000000 		.4byte	.LVL88
 3750 057c 78000000 		.4byte	.LVL89
 3751 0580 0100     		.2byte	0x1
 3752 0582 50       		.byte	0x50
 3753 0583 74010000 		.4byte	.LVL108
 3754 0587 7A010000 		.4byte	.LVL109
 3755 058b 0100     		.2byte	0x1
 3756 058d 50       		.byte	0x50
 3757 058e 00000000 		.4byte	0
 3758 0592 00000000 		.4byte	0
 3759              		.section	.debug_aranges,"",%progbits
 3760 0000 6C000000 		.4byte	0x6c
 3761 0004 0200     		.2byte	0x2
 3762 0006 00000000 		.4byte	.Ldebug_info0
 3763 000a 04       		.byte	0x4
 3764 000b 00       		.byte	0
 3765 000c 0000     		.2byte	0
 3766 000e 0000     		.2byte	0
 3767 0010 00000000 		.4byte	.LFB1
 3768 0014 90000000 		.4byte	.LFE1-.LFB1
 3769 0018 00000000 		.4byte	.LFB4
 3770 001c 24000000 		.4byte	.LFE4-.LFB4
 3771 0020 00000000 		.4byte	.LFB3
 3772 0024 30010000 		.4byte	.LFE3-.LFB3
 3773 0028 00000000 		.4byte	.LFB5
 3774 002c 18000000 		.4byte	.LFE5-.LFB5
 3775 0030 00000000 		.4byte	.LFB6
 3776 0034 20000000 		.4byte	.LFE6-.LFB6
 3777 0038 00000000 		.4byte	.LFB2
 3778 003c 4C010000 		.4byte	.LFE2-.LFB2
 3779 0040 00000000 		.4byte	.LFB7
 3780 0044 40000000 		.4byte	.LFE7-.LFB7
 3781 0048 00000000 		.4byte	.LFB8
 3782 004c 54000000 		.4byte	.LFE8-.LFB8
 3783 0050 00000000 		.4byte	.LFB9
 3784 0054 7C000000 		.4byte	.LFE9-.LFB9
 3785 0058 00000000 		.4byte	.LFB10
 3786 005c 4C000000 		.4byte	.LFE10-.LFB10
 3787 0060 00000000 		.4byte	.LFB0
 3788 0064 8C020000 		.4byte	.LFE0-.LFB0
 3789 0068 00000000 		.4byte	0
 3790 006c 00000000 		.4byte	0
ARM GAS  C:\Users\RABBIT~1\AppData\Local\Temp\ccYRpEyv.s 			page 92


 3791              		.section	.debug_ranges,"",%progbits
 3792              	.Ldebug_ranges0:
 3793 0000 3E000000 		.4byte	.LBB10
 3794 0004 26010000 		.4byte	.LBE10
 3795 0008 2A010000 		.4byte	.LBB13
 3796 000c 4C010000 		.4byte	.LBE13
 3797 0010 00000000 		.4byte	0
 3798 0014 00000000 		.4byte	0
 3799 0018 00000000 		.4byte	.LFB1
 3800 001c 90000000 		.4byte	.LFE1
 3801 0020 00000000 		.4byte	.LFB4
 3802 0024 24000000 		.4byte	.LFE4
 3803 0028 00000000 		.4byte	.LFB3
 3804 002c 30010000 		.4byte	.LFE3
 3805 0030 00000000 		.4byte	.LFB5
 3806 0034 18000000 		.4byte	.LFE5
 3807 0038 00000000 		.4byte	.LFB6
 3808 003c 20000000 		.4byte	.LFE6
 3809 0040 00000000 		.4byte	.LFB2
 3810 0044 4C010000 		.4byte	.LFE2
 3811 0048 00000000 		.4byte	.LFB7
 3812 004c 40000000 		.4byte	.LFE7
 3813 0050 00000000 		.4byte	.LFB8
 3814 0054 54000000 		.4byte	.LFE8
 3815 0058 00000000 		.4byte	.LFB9
 3816 005c 7C000000 		.4byte	.LFE9
 3817 0060 00000000 		.4byte	.LFB10
 3818 0064 4C000000 		.4byte	.LFE10
 3819 0068 00000000 		.4byte	.LFB0
 3820 006c 8C020000 		.4byte	.LFE0
 3821 0070 00000000 		.4byte	0
 3822 0074 00000000 		.4byte	0
 3823              		.section	.debug_line,"",%progbits
 3824              	.Ldebug_line0:
 3825 0000 48030000 		.section	.debug_str,"MS",%progbits,1
 3825      02006000 
 3825      00000201 
 3825      FB0E0D00 
 3825      01010101 
 3826              	.LASF36:
 3827 0000 70537461 		.ascii	"pStatusBlock\000"
 3827      74757342 
 3827      6C6F636B 
 3827      00
 3828              	.LASF34:
 3829 000d 636F756E 		.ascii	"count\000"
 3829      7400
 3830              	.LASF10:
 3831 0013 75696E74 		.ascii	"uint16\000"
 3831      313600
 3832              	.LASF52:
 3833 001a 55534246 		.ascii	"USBFS_TerminateEP\000"
 3833      535F5465 
 3833      726D696E 
 3833      61746545 
 3833      5000
 3834              	.LASF81:
ARM GAS  C:\Users\RABBIT~1\AppData\Local\Temp\ccYRpEyv.s 			page 93


 3835 002c 55534246 		.ascii	"USBFS_currentTD\000"
 3835      535F6375 
 3835      7272656E 
 3835      74544400 
 3836              	.LASF83:
 3837 003c 55534246 		.ascii	"USBFS_InitControlRead\000"
 3837      535F496E 
 3837      6974436F 
 3837      6E74726F 
 3837      6C526561 
 3838              	.LASF53:
 3839 0052 636F6E66 		.ascii	"confIndex\000"
 3839      496E6465 
 3839      7800
 3840              	.LASF7:
 3841 005c 6C6F6E67 		.ascii	"long long unsigned int\000"
 3841      206C6F6E 
 3841      6720756E 
 3841      7369676E 
 3841      65642069 
 3842              	.LASF21:
 3843 0073 61646472 		.ascii	"addr\000"
 3843      00
 3844              	.LASF60:
 3845 0078 696E7465 		.ascii	"interfaceNumber\000"
 3845      72666163 
 3845      654E756D 
 3845      62657200 
 3846              	.LASF65:
 3847 0088 55534246 		.ascii	"USBFS_tBuffer\000"
 3847      535F7442 
 3847      75666665 
 3847      7200
 3848              	.LASF6:
 3849 0096 6C6F6E67 		.ascii	"long long int\000"
 3849      206C6F6E 
 3849      6720696E 
 3849      7400
 3850              	.LASF0:
 3851 00a4 7369676E 		.ascii	"signed char\000"
 3851      65642063 
 3851      68617200 
 3852              	.LASF85:
 3853 00b0 474E5520 		.ascii	"GNU C11 5.4.1 20160609 (release) [ARM/embedded-5-br"
 3853      43313120 
 3853      352E342E 
 3853      31203230 
 3853      31363036 
 3854 00e3 616E6368 		.ascii	"anch revision 237715] -mcpu=cortex-m3 -mthumb -g -O"
 3854      20726576 
 3854      6973696F 
 3854      6E203233 
 3854      37373135 
 3855 0116 73202D66 		.ascii	"s -ffunction-sections -ffat-lto-objects\000"
 3855      66756E63 
 3855      74696F6E 
 3855      2D736563 
ARM GAS  C:\Users\RABBIT~1\AppData\Local\Temp\ccYRpEyv.s 			page 94


 3855      74696F6E 
 3856              	.LASF88:
 3857 013e 636C6561 		.ascii	"clearAltSetting\000"
 3857      72416C74 
 3857      53657474 
 3857      696E6700 
 3858              	.LASF77:
 3859 014e 55534246 		.ascii	"USBFS_deviceAddress\000"
 3859      535F6465 
 3859      76696365 
 3859      41646472 
 3859      65737300 
 3860              	.LASF56:
 3861 0162 55534246 		.ascii	"USBFS_ClearEndpointHalt\000"
 3861      535F436C 
 3861      65617245 
 3861      6E64706F 
 3861      696E7448 
 3862              	.LASF74:
 3863 017a 55534246 		.ascii	"USBFS_interfaceNumber\000"
 3863      535F696E 
 3863      74657266 
 3863      6163654E 
 3863      756D6265 
 3864              	.LASF44:
 3865 0190 55534246 		.ascii	"USBFS_Config\000"
 3865      535F436F 
 3865      6E666967 
 3865      00
 3866              	.LASF51:
 3867 019d 55534246 		.ascii	"USBFS_ConfigReg\000"
 3867      535F436F 
 3867      6E666967 
 3867      52656700 
 3868              	.LASF4:
 3869 01ad 6C6F6E67 		.ascii	"long int\000"
 3869      20696E74 
 3869      00
 3870              	.LASF9:
 3871 01b6 75696E74 		.ascii	"uint8\000"
 3871      3800
 3872              	.LASF20:
 3873 01bc 6570546F 		.ascii	"epToggle\000"
 3873      67676C65 
 3873      00
 3874              	.LASF12:
 3875 01c5 646F7562 		.ascii	"double\000"
 3875      6C6500
 3876              	.LASF30:
 3877 01cc 545F5553 		.ascii	"T_USBFS_EP_SETTINGS_BLOCK\000"
 3877      4246535F 
 3877      45505F53 
 3877      45545449 
 3877      4E47535F 
 3878              	.LASF54:
 3879 01e6 55534246 		.ascii	"USBFS_SetEndpointHalt\000"
 3879      535F5365 
ARM GAS  C:\Users\RABBIT~1\AppData\Local\Temp\ccYRpEyv.s 			page 95


 3879      74456E64 
 3879      706F696E 
 3879      7448616C 
 3880              	.LASF35:
 3881 01fc 70446174 		.ascii	"pData\000"
 3881      6100
 3882              	.LASF67:
 3883 0202 55534246 		.ascii	"USBFS_configuration\000"
 3883      535F636F 
 3883      6E666967 
 3883      75726174 
 3883      696F6E00 
 3884              	.LASF22:
 3885 0216 65704D6F 		.ascii	"epMode\000"
 3885      646500
 3886              	.LASF41:
 3887 021d 65705479 		.ascii	"epType\000"
 3887      706500
 3888              	.LASF8:
 3889 0224 756E7369 		.ascii	"unsigned int\000"
 3889      676E6564 
 3889      20696E74 
 3889      00
 3890              	.LASF5:
 3891 0231 6C6F6E67 		.ascii	"long unsigned int\000"
 3891      20756E73 
 3891      69676E65 
 3891      6420696E 
 3891      7400
 3892              	.LASF48:
 3893 0243 55534246 		.ascii	"USBFS_GetInterfaceClassTablePtr\000"
 3893      535F4765 
 3893      74496E74 
 3893      65726661 
 3893      6365436C 
 3894              	.LASF86:
 3895 0263 47656E65 		.ascii	"Generated_Source\\PSoC5\\USBFS_std.c\000"
 3895      72617465 
 3895      645F536F 
 3895      75726365 
 3895      5C50536F 
 3896              	.LASF3:
 3897 0286 73686F72 		.ascii	"short unsigned int\000"
 3897      7420756E 
 3897      7369676E 
 3897      65642069 
 3897      6E7400
 3898              	.LASF45:
 3899 0299 70446573 		.ascii	"pDescr\000"
 3899      637200
 3900              	.LASF49:
 3901 02a0 70496E74 		.ascii	"pInterfaceClass\000"
 3901      65726661 
 3901      6365436C 
 3901      61737300 
 3902              	.LASF25:
 3903 02b0 696E7465 		.ascii	"interface\000"
ARM GAS  C:\Users\RABBIT~1\AppData\Local\Temp\ccYRpEyv.s 			page 96


 3903      72666163 
 3903      6500
 3904              	.LASF57:
 3905 02ba 55534246 		.ascii	"USBFS_ValidateAlternateSetting\000"
 3905      535F5661 
 3905      6C696461 
 3905      7465416C 
 3905      7465726E 
 3906              	.LASF68:
 3907 02d9 55534246 		.ascii	"USBFS_configurationChanged\000"
 3907      535F636F 
 3907      6E666967 
 3907      75726174 
 3907      696F6E43 
 3908              	.LASF87:
 3909 02f4 433A5C55 		.ascii	"C:\\Users\\Rabbit Hole Shipping\\Google Drive\\SCSI"
 3909      73657273 
 3909      5C526162 
 3909      62697420 
 3909      486F6C65 
 3910 0323 3253445C 		.ascii	"2SD\\software\\SCSI2SD\\v5.2-eth\\USB_Bootloader.cy"
 3910      736F6674 
 3910      77617265 
 3910      5C534353 
 3910      49325344 
 3911 0352 64736E00 		.ascii	"dsn\000"
 3912              	.LASF73:
 3913 0356 55534246 		.ascii	"USBFS_STRING_DESCRIPTORS\000"
 3913      535F5354 
 3913      52494E47 
 3913      5F444553 
 3913      43524950 
 3914              	.LASF19:
 3915 036f 68774570 		.ascii	"hwEpState\000"
 3915      53746174 
 3915      6500
 3916              	.LASF64:
 3917 0379 64657363 		.ascii	"descrLength\000"
 3917      724C656E 
 3917      67746800 
 3918              	.LASF16:
 3919 0385 73697A65 		.ascii	"sizetype\000"
 3919      74797065 
 3919      00
 3920              	.LASF15:
 3921 038e 6C6F6E67 		.ascii	"long double\000"
 3921      20646F75 
 3921      626C6500 
 3922              	.LASF42:
 3923 039a 70546D70 		.ascii	"pTmp\000"
 3923      00
 3924              	.LASF38:
 3925 039f 705F6C69 		.ascii	"p_list\000"
 3925      737400
 3926              	.LASF46:
 3927 03a6 62756666 		.ascii	"buffCount\000"
 3927      436F756E 
ARM GAS  C:\Users\RABBIT~1\AppData\Local\Temp\ccYRpEyv.s 			page 97


 3927      7400
 3928              	.LASF17:
 3929 03b0 61747472 		.ascii	"attrib\000"
 3929      696200
 3930              	.LASF71:
 3931 03b7 55534246 		.ascii	"USBFS_TABLE\000"
 3931      535F5441 
 3931      424C4500 
 3932              	.LASF72:
 3933 03c3 55534246 		.ascii	"USBFS_SN_STRING_DESCRIPTOR\000"
 3933      535F534E 
 3933      5F535452 
 3933      494E475F 
 3933      44455343 
 3934              	.LASF50:
 3935 03de 63757272 		.ascii	"currentInterfacesNum\000"
 3935      656E7449 
 3935      6E746572 
 3935      66616365 
 3935      734E756D 
 3936              	.LASF43:
 3937 03f3 55534246 		.ascii	"USBFS_ConfigAltChanged\000"
 3937      535F436F 
 3937      6E666967 
 3937      416C7443 
 3937      68616E67 
 3938              	.LASF33:
 3939 040a 545F5553 		.ascii	"T_USBFS_XFER_STATUS_BLOCK\000"
 3939      4246535F 
 3939      58464552 
 3939      5F535441 
 3939      5455535F 
 3940              	.LASF58:
 3941 0424 696E7465 		.ascii	"interfaceNum\000"
 3941      72666163 
 3941      654E756D 
 3941      00
 3942              	.LASF70:
 3943 0431 55534246 		.ascii	"USBFS_DEVICE0_DESCR\000"
 3943      535F4445 
 3943      56494345 
 3943      305F4445 
 3943      53435200 
 3944              	.LASF11:
 3945 0445 666C6F61 		.ascii	"float\000"
 3945      7400
 3946              	.LASF18:
 3947 044b 61706945 		.ascii	"apiEpState\000"
 3947      70537461 
 3947      746500
 3948              	.LASF61:
 3949 0456 636F6E66 		.ascii	"configurationN\000"
 3949      69677572 
 3949      6174696F 
 3949      6E4E00
 3950              	.LASF80:
 3951 0465 55534246 		.ascii	"USBFS_EP\000"
ARM GAS  C:\Users\RABBIT~1\AppData\Local\Temp\ccYRpEyv.s 			page 98


 3951      535F4550 
 3951      00
 3952              	.LASF62:
 3953 046e 70537472 		.ascii	"pStr\000"
 3953      00
 3954              	.LASF14:
 3955 0473 72656738 		.ascii	"reg8\000"
 3955      00
 3956              	.LASF1:
 3957 0478 756E7369 		.ascii	"unsigned char\000"
 3957      676E6564 
 3957      20636861 
 3957      7200
 3958              	.LASF2:
 3959 0486 73686F72 		.ascii	"short int\000"
 3959      7420696E 
 3959      7400
 3960              	.LASF37:
 3961 0490 545F5553 		.ascii	"T_USBFS_TD\000"
 3961      4246535F 
 3961      544400
 3962              	.LASF47:
 3963 049b 55534246 		.ascii	"USBFS_GetConfigTablePtr\000"
 3963      535F4765 
 3963      74436F6E 
 3963      66696754 
 3963      61626C65 
 3964              	.LASF75:
 3965 04b3 55534246 		.ascii	"USBFS_interfaceSetting\000"
 3965      535F696E 
 3965      74657266 
 3965      61636553 
 3965      65747469 
 3966              	.LASF26:
 3967 04ca 545F5553 		.ascii	"T_USBFS_EP_CTL_BLOCK\000"
 3967      4246535F 
 3967      45505F43 
 3967      544C5F42 
 3967      4C4F434B 
 3968              	.LASF82:
 3969 04df 55534246 		.ascii	"USBFS_InitNoDataControlTransfer\000"
 3969      535F496E 
 3969      69744E6F 
 3969      44617461 
 3969      436F6E74 
 3970              	.LASF66:
 3971 04ff 55534246 		.ascii	"USBFS_device\000"
 3971      535F6465 
 3971      76696365 
 3971      00
 3972              	.LASF28:
 3973 050c 61747472 		.ascii	"attributes\000"
 3973      69627574 
 3973      657300
 3974              	.LASF27:
 3975 0517 616C7453 		.ascii	"altSetting\000"
 3975      65747469 
ARM GAS  C:\Users\RABBIT~1\AppData\Local\Temp\ccYRpEyv.s 			page 99


 3975      6E6700
 3976              	.LASF13:
 3977 0522 63686172 		.ascii	"char\000"
 3977      00
 3978              	.LASF24:
 3979 0527 62756666 		.ascii	"bufferSize\000"
 3979      65725369 
 3979      7A6500
 3980              	.LASF55:
 3981 0532 72657175 		.ascii	"requestHandled\000"
 3981      65737448 
 3981      616E646C 
 3981      656400
 3982              	.LASF23:
 3983 0541 62756666 		.ascii	"buffOffset\000"
 3983      4F666673 
 3983      657400
 3984              	.LASF89:
 3985 054c 55534246 		.ascii	"USBFS_GetDeviceTablePtr\000"
 3985      535F4765 
 3985      74446576 
 3985      69636554 
 3985      61626C65 
 3986              	.LASF69:
 3987 0564 55534246 		.ascii	"USBFS_deviceStatus\000"
 3987      535F6465 
 3987      76696365 
 3987      53746174 
 3987      757300
 3988              	.LASF76:
 3989 0577 55534246 		.ascii	"USBFS_interfaceSetting_last\000"
 3989      535F696E 
 3989      74657266 
 3989      61636553 
 3989      65747469 
 3990              	.LASF32:
 3991 0593 6C656E67 		.ascii	"length\000"
 3991      746800
 3992              	.LASF63:
 3993 059a 6E537472 		.ascii	"nStr\000"
 3993      00
 3994              	.LASF40:
 3995 059f 6375725F 		.ascii	"cur_ep\000"
 3995      657000
 3996              	.LASF31:
 3997 05a6 73746174 		.ascii	"status\000"
 3997      757300
 3998              	.LASF84:
 3999 05ad 55534246 		.ascii	"USBFS_DispatchClassRqst\000"
 3999      535F4469 
 3999      73706174 
 3999      6368436C 
 3999      61737352 
 4000              	.LASF79:
 4001 05c5 55534246 		.ascii	"USBFS_interfaceClass\000"
 4001      535F696E 
 4001      74657266 
ARM GAS  C:\Users\RABBIT~1\AppData\Local\Temp\ccYRpEyv.s 			page 100


 4001      61636543 
 4001      6C617373 
 4002              	.LASF29:
 4003 05da 624D6973 		.ascii	"bMisc\000"
 4003      6300
 4004              	.LASF78:
 4005 05e0 55534246 		.ascii	"USBFS_interfaceStatus\000"
 4005      535F696E 
 4005      74657266 
 4005      61636553 
 4005      74617475 
 4006              	.LASF59:
 4007 05f6 55534246 		.ascii	"USBFS_HandleStandardRqst\000"
 4007      535F4861 
 4007      6E646C65 
 4007      5374616E 
 4007      64617264 
 4008              	.LASF39:
 4009 060f 545F5553 		.ascii	"T_USBFS_LUT\000"
 4009      4246535F 
 4009      4C555400 
 4010              		.ident	"GCC: (GNU Tools for ARM Embedded Processors) 5.4.1 20160609 (release) [ARM/embedded-5-bran
